LX51 LINKER/LOCATER V4.34a                                                              05/05/2009  17:03:41  PAGE 1


LX51 LINKER/LOCATER V4.34a, INVOKED BY:
C:\KEIL\C51\BIN\LX51.EXE MAIN.OBJ, ISR_RF.OBJ, ECO_PAGE.OBJ, ADC.OBJ, UTILS.OBJ, SERIAL.OBJ, SPI.OBJ, EEPROM.OBJ, C51S.L
>> IB TO MAIN SEGMENTS (?PR?_RF_SEND?ISR_RF (C:0X1000)) SEGMENTS (?PR?BLINK2?MAIN (C:0X1100)) SEGMENTS (?PR?BLINK4?MAIN 
>> (C:0X1155)) SEGMENTS (?PR?BLINK6?MAIN (C:0X11AA))


CPU MODE:     8051 MODE


INPUT MODULES INCLUDED:
  MAIN.OBJ (MAIN)
         COMMENT TYPE 0: AX51 V3.06a
  ISR_RF.OBJ (ISR_RF)
         COMMENT TYPE 0: AX51 V3.06a
  ECO_PAGE.OBJ (ECO_PAGE)
         COMMENT TYPE 0: AX51 V3.06a
  ADC.OBJ (ADC)
         COMMENT TYPE 0: AX51 V3.06a
  UTILS.OBJ (UTILS)
         COMMENT TYPE 0: AX51 V3.06a
  SERIAL.OBJ (SERIAL)
         COMMENT TYPE 0: AX51 V3.06a
  SPI.OBJ (SPI)
         COMMENT TYPE 0: AX51 V3.06a
  EEPROM.OBJ (EEPROM)
         COMMENT TYPE 0: AX51 V3.06a
  C51S.LIB (?C_STARTUP)
         COMMENT TYPE 1: A51 / ASM51 Assembler
  C51S.LIB (?C?CLDPTR)
         COMMENT TYPE 1: A51 / ASM51 Assembler
  C51S.LIB (?C?CLDOPTR)
         COMMENT TYPE 1: A51 / ASM51 Assembler
  C51S.LIB (?C?CSTPTR)
         COMMENT TYPE 1: A51 / ASM51 Assembler
  C51S.LIB (?C?UIDIV)
         COMMENT TYPE 1: A51 / ASM51 Assembler
  C51S.LIB (?C?LMUL)
         COMMENT TYPE 1: A51 / ASM51 Assembler
  C51S.LIB (?C?ULDIV)
         COMMENT TYPE 1: A51 / ASM51 Assembler
  C51S.LIB (?C?ICASE)
         COMMENT TYPE 1: A51 / ASM51 Assembler
  C51S.LIB (?C_IBP)
         COMMENT TYPE 1: A51 / ASM51 Assembler
  C51S.LIB (?C_INIT)
         COMMENT TYPE 1: A51 / ASM51 Assembler


ACTIVE MEMORY CLASSES OF MODULE:  MAIN (MAIN)

BASE        START       END         USED      MEMORY CLASS
==========================================================
C:000000H   C:000000H   C:00FFFFH   0008E4H   CODE
I:000000H   I:000000H   I:00007FH   000071H   DATA
I:000000H   I:000000H   I:0000FFH   000012H   IDATA


MEMORY MAP OF MODULE:  MAIN (MAIN)


START     STOP      LENGTH    ALIGN  RELOC    MEMORY CLASS   SEGMENT NAME
=========================================================================

* * * * * * * * * * *   D A T A   M E M O R Y   * * * * * * * * * * * * *
000000H   000007H   000008H   ---    AT..     DATA           "REG BANK 0"
000008H   00001FH   000018H   BYTE   UNIT     DATA           ?DT?ISR_RF
LX51 LINKER/LOCATER V4.34a                                                            05/05/2009  17:03:41  PAGE 2


000020H   00002EH   00000FH   BYTE   UNIT     DATA           ?DT?MAIN
00002FH   000038H   00000AH   BYTE   UNIT     DATA           ?DT?_RF_SEND?ISR_RF
000039H   000042H   00000AH   BYTE   UNIT     DATA           ?DT?ECO_PAGE
000043H   00004AH   000008H   BYTE   UNIT     DATA           ?DT?_STRNCPY?UTILS
00004BH   000050H   000006H   BYTE   UNIT     DATA           ?DT?ECO_PAGE_MANAGER?ECO_PAGE
000051H   000055H   000005H   BYTE   UNIT     DATA           ?DT?_RF_CONFIGURE?ISR_RF
000056H   000059H   000004H   BYTE   UNIT     DATA           ?DT?UTILS
00005AH   00005CH   000003H   BYTE   UNIT     DATA           ?DT?MAIN?MAIN
00005DH   00005FH   000003H   BYTE   UNIT     DATA           ?DT?_PUTS?SERIAL
000060H   000062H   000003H   BYTE   UNIT     DATA           ?DT?_EEPROM_WRITE?EEPROM
000063H   000065H   000003H   BYTE   UNIT     DATA           ?DT?_EEPROM_READ?EEPROM
000066H   000067H   000002H   BYTE   UNIT     DATA           ?DT?BLINK2?MAIN
000068H   000069H   000002H   BYTE   UNIT     DATA           ?DT?BLINK4?MAIN
00006AH   00006BH   000002H   BYTE   UNIT     DATA           ?DT?BLINK6?MAIN
00006CH   00006DH   000002H   BYTE   UNIT     DATA           ?DT?RF_CH1_RECV?ISR_RF
00006EH   00006FH   000002H   BYTE   UNIT     DATA           ?DT?_MDELAY?UTILS
000070H   000070H   000001H   BYTE   UNIT     DATA           ?C?LIB_DATA
000071H   00007AH   00000AH   BYTE   UNIT     IDATA          ?ID?MAIN
00007BH   000081H   000007H   BYTE   UNIT     IDATA          ?ID?ECO_PAGE
000082H   000082H   000001H   BYTE   UNIT     IDATA          ?STACK

* * * * * * * * * * *   C O D E   M E M O R Y   * * * * * * * * * * * * *
000000H   000002H   000003H   ---    OFFS..   CODE           ?CO??C_STARTUP?0
000003H   00004FH   00004DH   BYTE   UNIT     CODE           ?PR?P_ADC_READ?ADC
000050H   000052H   000003H   BYTE   UNIT     CODE           ?PR?_PUTC?SERIAL
000053H   000055H   000003H   ---    OFFS..   CODE           ?CO?ISR_RF?11
000056H   00024CH   0001F7H   BYTE   UNIT     CODE           ?C?LIB_CODE
00024DH   00038EH   000142H   BYTE   UNIT     CODE           ?PR?ECO_PAGE_MANAGER?ECO_PAGE
00038FH   00043DH   0000AFH   BYTE   UNIT     CODE           ?PR?MAIN?MAIN
00043EH   0004C9H   00008CH   BYTE   UNIT     CODE           ?C_C51STARTUP
0004CAH   000529H   000060H   BYTE   UNIT     CODE           ?PR?RF_CH1_RECV?ISR_RF
00052AH   000572H   000049H   BYTE   UNIT     CODE           ?PR?_MDELAY?UTILS
000573H   0005B6H   000044H   BYTE   UNIT     CODE           ?PR?_STRNCPY?UTILS
0005B7H   0005F3H   00003DH   BYTE   UNIT     CODE           ?PR?_SETUP_BAUDRATE?SERIAL
0005F4H   00062EH   00003BH   BYTE   UNIT     CODE           ?PR?_EEPROM_WRITE?EEPROM
00062FH   000668H   00003AH   BYTE   UNIT     CODE           ?PR?_?INT_PRINT?SERIAL
000669H   00069EH   000036H   BYTE   UNIT     CODE           ?PR?_RF_CONFIGURE?ISR_RF
00069FH   0006CFH   000031H   BYTE   UNIT     CODE           ?C_INITSEG
0006D0H   0006FBH   00002CH   BYTE   UNIT     CODE           ?PR?_EEPROM_READ?EEPROM
0006FCH   000720H   000025H   BYTE   UNIT     CODE           ?PR?_PUTS?SERIAL
000721H   000743H   000023H   BYTE   UNIT     CODE           ?PR?FLASH_ERASE_ALL?EEPROM
000744H   00075EH   00001BH   BYTE   UNIT     CODE           ?PR?_ADC_READ?ADC
00075FH   000771H   000013H   BYTE   UNIT     CODE           ?PR?_ADC_INIT?ADC
000772H   000783H   000012H   BYTE   UNIT     CODE           ?PR?_WDT_LOAD?UTILS
000784H   000792H   00000FH   BYTE   UNIT     CODE           ?PR?EEPROM_STATUS?EEPROM
000793H   0007A0H   00000EH   BYTE   UNIT     CODE           ?PR?RF_INIT?ISR_RF
0007A1H   0007ADH   00000DH   BYTE   UNIT     CODE           ?PR?_STORE_CPU_RATE?UTILS
0007AEH   0007BAH   00000DH   BYTE   UNIT     CODE           ?PR?_SPI_WRITE_THEN_READ?SPI
0007BBH   0007C6H   00000CH   BYTE   UNIT     CODE           ?PR?ECO_PAGE_INIT?ECO_PAGE
0007C7H   0007D1H   00000BH   BYTE   UNIT     CODE           ?PR?EEPROM_INIT?EEPROM
0007D2H   0007DBH   00000AH   BYTE   UNIT     CODE           ?PR?_SERIAL_INIT?SERIAL
0007DCH   0007E4H   000009H   BYTE   UNIT     CODE           ?PR?RF_WAIT_MSG?ISR_RF
0007E5H   0007ECH   000008H   BYTE   UNIT     CODE           ?PR?_SERIAL_WRITE?SERIAL
0007EDH   0007F4H   000008H   BYTE   UNIT     CODE           ?PR?SERIAL_READ?SERIAL
0007F5H   0007F9H   000005H   BYTE   UNIT     CODE           ?PR?_SPI_INIT?SPI
0007FAH   0007FDH   000004H   BYTE   UNIT     CODE           ?PR?GETC?SERIAL
0007FEH   000FFFH   000802H   ---    ---      **GAP**
001000H   00106AH   00006BH   BYTE   UNIT     CODE           ?PR?_RF_SEND?ISR_RF
00106BH   0010FFH   000095H   ---    ---      **GAP**
001100H   001128H   000029H   BYTE   UNIT     CODE           ?PR?BLINK2?MAIN
001129H   001154H   00002CH   ---    ---      **GAP**
001155H   00117DH   000029H   BYTE   UNIT     CODE           ?PR?BLINK4?MAIN
00117EH   0011A9H   00002CH   ---    ---      **GAP**
0011AAH   0011D2H   000029H   BYTE   UNIT     CODE           ?PR?BLINK6?MAIN

LX51 LINKER/LOCATER V4.34a                                                            05/05/2009  17:03:41  PAGE 3




PUBLIC SYMBOLS OF MODULE:  MAIN (MAIN)


      VALUE       CLASS    TYPE      PUBLIC SYMBOL NAME
      =================================================
      0000002FH   DATA     BYTE      ?_RF_SEND?BYTE
      00000043H   DATA     BYTE      ?_STRNCPY?BYTE
      0100006FH   CODE     ---       ?C?CLDOPTR
      01000056H   CODE     ---       ?C?CLDPTR
      00000000H   NUMBER   ---       ?C?CODESEG
      0100009CH   CODE     ---       ?C?CSTPTR
      01000220H   CODE     ---       ?C?ICASE
      01000103H   CODE     ---       ?C?LMUL
      010000AEH   CODE     ---       ?C?UIDIV
      0100018EH   CODE     ---       ?C?ULDIV
      00000000H   NUMBER   ---       ?C?XDATASEG
      00000070H   DATA     ---       ?C_IBP
      01000485H   CODE     ---       ?C_START
      01000000H   CODE     ---       ?C_STARTUP
      0100062FH   CODE     NEAR LAB  _?INT_PRINT
      0100075FH   CODE     NEAR LAB  _ADC_INIT
      01000744H   CODE     NEAR LAB  _ADC_READ
      010006D0H   CODE     NEAR LAB  _EEPROM_READ
      010005F4H   CODE     NEAR LAB  _EEPROM_WRITE
      0100052AH   CODE     NEAR LAB  _MDELAY
      01000050H   CODE     NEAR LAB  _PUTC
      010006FCH   CODE     NEAR LAB  _PUTS
      01000669H   CODE     NEAR LAB  _RF_CONFIGURE
      01001000H   CODE     NEAR LAB  _RF_SEND
      010007D2H   CODE     NEAR LAB  _SERIAL_INIT
      010007F5H   CODE     NEAR LAB  _SPI_INIT
      010007AEH   CODE     NEAR LAB  _SPI_WRITE_THEN_READ
      010007A1H   CODE     NEAR LAB  _STORE_CPU_RATE
      01000573H   CODE     NEAR LAB  _STRNCPY
      01000772H   CODE     NEAR LAB  _WDT_LOAD
*SFR* 000000D0H.6 DATA     BIT       AC
*SFR* 000000E0H   DATA     BYTE      ACC
*SFR* 000000A1H   DATA     BYTE      ADCCON
*SFR* 000000A2H   DATA     BYTE      ADCDATAH
*SFR* 000000A3H   DATA     BYTE      ADCDATAL
*SFR* 000000A4H   DATA     BYTE      ADCSTATIC
*SFR* 000000F0H   DATA     BYTE      B
      01001100H   CODE     NEAR LAB  BLINK2
      01001155H   CODE     NEAR LAB  BLINK4
      010011AAH   CODE     NEAR LAB  BLINK6
*SFR* 000000C8H.1 DATA     BIT       C_T2
*SFR* 000000A0H.6 DATA     BIT       CE
*SFR* 000000B6H   DATA     BYTE      CK_CTRL
*SFR* 0000008EH   DATA     BYTE      CKCON
*SFR* 000000A0H.1 DATA     BIT       CLK1
*SFR* 000000A0H.5 DATA     BIT       CLK2
*SFR* 000000C8H   DATA     BIT       CP_RL2
*SFR* 000000C8H   DATA     BIT       CPRL2
*SFR* 000000A0H.3 DATA     BIT       CS
*SFR* 000000C8H.1 DATA     BIT       CT2
*SFR* 000000D0H.7 DATA     BIT       CY
*SFR* 000000A0H   DATA     BIT       DATA?
*SFR* 000000BEH   DATA     BYTE      DEV_OFFSET
*SFR* 00000090H.2 DATA     BIT       DIN0
*SFR* 00000090H   DATA     BIT       DIO0
*SFR* 00000090H.1 DATA     BIT       DIO1
*SFR* 00000080H   DATA     BIT       DIO2
*SFR* 00000080H.1 DATA     BIT       DIO3
LX51 LINKER/LOCATER V4.34a                                                            05/05/2009  17:03:41  PAGE 4


*SFR* 00000080H.2 DATA     BIT       DIO4
*SFR* 00000080H.3 DATA     BIT       DIO5
*SFR* 00000080H.4 DATA     BIT       DIO6
*SFR* 00000080H.5 DATA     BIT       DIO7
*SFR* 00000080H.6 DATA     BIT       DIO8
*SFR* 00000080H.7 DATA     BIT       DIO9
*SFR* 000000A0H.4 DATA     BIT       DOUT2
*SFR* 00000083H   DATA     BYTE      DPH
*SFR* 00000083H   DATA     BYTE      DPH0
*SFR* 00000085H   DATA     BYTE      DPH1
*SFR* 00000082H   DATA     BYTE      DPL
*SFR* 00000082H   DATA     BYTE      DPL0
*SFR* 00000084H   DATA     BYTE      DPL1
*SFR* 00000086H   DATA     BYTE      DPS
*SFR* 000000A0H.2 DATA     BIT       DR1
*SFR* 000000A0H.6 DATA     BIT       DR2
*SFR* 000000A0H.6 DATA     BIT       DR2_CE
      00000078H   IDATA    BYTE      DST_ADDR
*SFR* 000000A8H.7 DATA     BIT       EA
      00000040H   DATA     BYTE      ECO_PAGE_ADDR
      010007BBH   CODE     NEAR LAB  ECO_PAGE_INIT
      0100024DH   CODE     NEAR LAB  ECO_PAGE_MANAGER
      0000003EH   DATA     BYTE      ECO_PAGE_PREV_PID
      0000003FH   DATA     BYTE      ECO_PAGE_PREV_VID
      0000007BH   IDATA    BYTE      ECO_PAGE_REGISTER1
      0000007CH   IDATA    BYTE      ECO_PAGE_REGISTER2
      0000007DH   IDATA    BYTE      ECO_PAGE_REGISTER3
      0000007EH   IDATA    BYTE      ECO_PAGE_REGISTER4
      0000007FH   IDATA    BYTE      ECO_PAGE_REGISTER5
      00000080H   IDATA    BYTE      ECO_PAGE_REGISTER6
      00000081H   IDATA    BYTE      ECO_PAGE_REGISTER7
      0000003DH   DATA     BYTE      ECO_PAGE_SPI_CONN
      00000039H   DATA     BYTE      ECO_PAGE_TABLE
      00000042H   DATA     BYTE      ECO_PAGE_TABLE_INDEX
      010007C7H   CODE     NEAR LAB  EEPROM_INIT
      01000784H   CODE     NEAR LAB  EEPROM_STATUS
*SFR* 000000D8H   DATA     BYTE      EICON
*SFR* 000000E8H   DATA     BYTE      EIE
*SFR* 000000F8H   DATA     BYTE      EIP
*SFR* 000000A8H.4 DATA     BIT       ES
*SFR* 000000A8H.1 DATA     BIT       ET0
*SFR* 000000A8H.3 DATA     BIT       ET1
*SFR* 000000A8H.5 DATA     BIT       ET2
*SFR* 000000E8H.4 DATA     BIT       EWDI
*SFR* 000000A8H   DATA     BIT       EX0
*SFR* 000000A8H.2 DATA     BIT       EX1
*SFR* 000000E8H   DATA     BIT       EX2
*SFR* 000000E8H.1 DATA     BIT       EX3
*SFR* 000000E8H.2 DATA     BIT       EX4
*SFR* 000000E8H.3 DATA     BIT       EX5
*SFR* 000000C8H.3 DATA     BIT       EXEN2
*SFR* 000000C8H.6 DATA     BIT       EXF2
*SFR* 00000091H   DATA     BYTE      EXIF
*SFR* 000000D0H.5 DATA     BIT       F0
*SFR* 000000D0H.1 DATA     BIT       F1
      01000721H   CODE     NEAR LAB  FLASH_ERASE_ALL
      010007FAH   CODE     NEAR LAB  GETC
*SFR* 000000A8H   DATA     BYTE      IE
*SFR* 00000088H.1 DATA     BIT       IE0
*SFR* 00000088H.3 DATA     BIT       IE1
*SFR* 00000080H.3 DATA     BIT       INT0_N
*SFR* 00000080H.4 DATA     BIT       INT1_N
*SFR* 000000B8H   DATA     BYTE      IP
*SFR* 00000088H   DATA     BIT       IT0
*SFR* 00000088H.2 DATA     BIT       IT1
LX51 LINKER/LOCATER V4.34a                                                            05/05/2009  17:03:41  PAGE 5


      0100038FH   CODE     NEAR LAB  MAIN
      00000056H   DATA     BYTE      MHZ
*SFR* 00000092H   DATA     BYTE      MPAGE
      00000071H   IDATA    BYTE      MSG
*SFR* 000000D0H.2 DATA     BIT       OV
*SFR* 000000D0H   DATA     BIT       P
*SFR* 00000080H   DATA     BYTE      P0
*SFR* 00000080H   DATA     BIT       P0_0
*SFR* 00000080H.1 DATA     BIT       P0_1
*SFR* 00000080H.2 DATA     BIT       P0_2
*SFR* 00000080H.3 DATA     BIT       P0_3
*SFR* 00000080H.4 DATA     BIT       P0_4
*SFR* 00000080H.5 DATA     BIT       P0_5
*SFR* 00000080H.6 DATA     BIT       P0_6
*SFR* 00000080H.7 DATA     BIT       P0_7
*SFR* 00000095H   DATA     BYTE      P0_ALT
*SFR* 00000094H   DATA     BYTE      P0_DIR
*SFR* 00000090H   DATA     BYTE      P1
*SFR* 00000090H   DATA     BIT       P1_0
*SFR* 00000090H.1 DATA     BIT       P1_1
*SFR* 00000090H.2 DATA     BIT       P1_2
*SFR* 00000097H   DATA     BYTE      P1_ALT
*SFR* 00000096H   DATA     BYTE      P1_DIR
*SFR* 00000087H   DATA     BYTE      PCON
*SFR* 000000B8H.4 DATA     BIT       PS
*SFR* 000000D0H   DATA     BYTE      PSW
*SFR* 000000B8H.1 DATA     BIT       PT0
*SFR* 000000B8H.3 DATA     BIT       PT1
*SFR* 000000B8H.5 DATA     BIT       PT2
*SFR* 000000F8H.4 DATA     BIT       PWDI
*SFR* 00000080H.7 DATA     BIT       PWM
*SFR* 000000A9H   DATA     BYTE      PWMCON
*SFR* 000000AAH   DATA     BYTE      PWMDUTY
*SFR* 000000A0H.7 DATA     BIT       PWR_UP
*SFR* 000000B8H   DATA     BIT       PX0
*SFR* 000000B8H.2 DATA     BIT       PX1
*SFR* 000000F8H   DATA     BIT       PX2
*SFR* 000000F8H.1 DATA     BIT       PX3
*SFR* 000000F8H.2 DATA     BIT       PX4
*SFR* 000000F8H.3 DATA     BIT       PX5
*SFR* 000000A0H   DATA     BYTE      RADIO
*SFR* 00000098H.2 DATA     BIT       RB8
*SFR* 000000CBH   DATA     BYTE      RCAP2H
*SFR* 000000CAH   DATA     BYTE      RCAP2L
*SFR* 000000C8H.5 DATA     BIT       RCLK
*SFR* 000000ADH   DATA     BYTE      REGX_CTRL
*SFR* 000000ACH   DATA     BYTE      REGX_LSB
*SFR* 000000ABH   DATA     BYTE      REGX_MSB
*SFR* 00000098H.4 DATA     BIT       REN
      00000008H   DATA     BYTE      RF_BUF
      010004CAH   CODE     NEAR LAB  RF_CH1_RECV
      00000020H   DATA     BYTE      RF_DATA
      01000793H   CODE     NEAR LAB  RF_INIT
      010007DCH   CODE     NEAR LAB  RF_WAIT_MSG
*SFR* 00000098H   DATA     BIT       RI
*SFR* 000000D0H.3 DATA     BIT       RS0
*SFR* 000000D0H.4 DATA     BIT       RS1
*SFR* 000000B1H   DATA     BYTE      RSTREAS
*SFR* 00000080H.1 DATA     BIT       RXD
*SFR* 00000099H   DATA     BYTE      SBUF
*SFR* 00000098H   DATA     BYTE      SCON
*SFR* 00000098H.7 DATA     BIT       SM0
*SFR* 00000098H.6 DATA     BIT       SM1
*SFR* 00000098H.5 DATA     BIT       SM2
*SFR* 00000081H   DATA     BYTE      SP
LX51 LINKER/LOCATER V4.34a                                                            05/05/2009  17:03:41  PAGE 6


*SFR* 0000008FH   DATA     BYTE      SPC_FNC
*SFR* 000000B3H   DATA     BYTE      SPI_CTRL
*SFR* 000000B2H   DATA     BYTE      SPI_DATA
*SFR* 000000B4H   DATA     BYTE      SPICLK
*SFR* 00000080H.5 DATA     BIT       T0
*SFR* 00000080H.6 DATA     BIT       T1
*SFR* 000000BCH   DATA     BYTE      T1_1V2
*SFR* 00000090H   DATA     BIT       T2
*SFR* 000000BDH   DATA     BYTE      T2_1V2
*SFR* 000000C8H   DATA     BYTE      T2CON
*SFR* 00000098H.3 DATA     BIT       TB8
*SFR* 000000C8H.4 DATA     BIT       TCLK
*SFR* 00000088H   DATA     BYTE      TCON
*SFR* 000000B7H   DATA     BYTE      TEST_MODE
*SFR* 00000088H.5 DATA     BIT       TF0
*SFR* 00000088H.7 DATA     BIT       TF1
*SFR* 000000C8H.7 DATA     BIT       TF2
*SFR* 0000008CH   DATA     BYTE      TH0
*SFR* 0000008DH   DATA     BYTE      TH1
*SFR* 000000CDH   DATA     BYTE      TH2
*SFR* 00000098H.1 DATA     BIT       TI
*SFR* 000000B5H   DATA     BYTE      TICK_DV
*SFR* 0000008AH   DATA     BYTE      TL0
*SFR* 0000008BH   DATA     BYTE      TL1
*SFR* 000000CCH   DATA     BYTE      TL2
*SFR* 00000089H   DATA     BYTE      TMOD
*SFR* 00000088H.4 DATA     BIT       TR0
*SFR* 00000088H.6 DATA     BIT       TR1
*SFR* 000000C8H.2 DATA     BIT       TR2
*SFR* 00000080H.2 DATA     BIT       TXD
*SFR* 000000D8H.3 DATA     BIT       WDTI



SYMBOL TABLE OF MODULE:  MAIN (MAIN)

      VALUE       REP       CLASS    TYPE      SYMBOL NAME
      ====================================================
      ---         MODULE    ---      ---       MAIN
      01001100H   PUBLIC    CODE     NEAR LAB  BLINK2
      01001155H   PUBLIC    CODE     NEAR LAB  BLINK4
      010011AAH   PUBLIC    CODE     NEAR LAB  BLINK6
      00000078H   PUBLIC    IDATA    BYTE      DST_ADDR
      0100038FH   PUBLIC    CODE     NEAR LAB  MAIN
      00000071H   PUBLIC    IDATA    BYTE      MSG
      00000020H   PUBLIC    DATA     BYTE      RF_DATA
      000000D0H.6 SFRSYM    DATA     BIT       AC
      000000E0H   SFRSYM    DATA     BYTE      ACC
      000000A1H   SFRSYM    DATA     BYTE      ADCCON
      000000A2H   SFRSYM    DATA     BYTE      ADCDATAH
      000000A3H   SFRSYM    DATA     BYTE      ADCDATAL
      000000A4H   SFRSYM    DATA     BYTE      ADCSTATIC
      000000F0H   SFRSYM    DATA     BYTE      B
      000000C8H.1 SFRSYM    DATA     BIT       C_T2
      000000A0H.6 SFRSYM    DATA     BIT       CE
      000000B6H   SFRSYM    DATA     BYTE      CK_CTRL
      0000008EH   SFRSYM    DATA     BYTE      CKCON
      000000A0H.1 SFRSYM    DATA     BIT       CLK1
      000000A0H.5 SFRSYM    DATA     BIT       CLK2
      000000C8H   SFRSYM    DATA     BIT       CP_RL2
      000000C8H   SFRSYM    DATA     BIT       CPRL2
      000000A0H.3 SFRSYM    DATA     BIT       CS
      000000C8H.1 SFRSYM    DATA     BIT       CT2
      000000D0H.7 SFRSYM    DATA     BIT       CY
      000000A0H   SFRSYM    DATA     BIT       DATA?
LX51 LINKER/LOCATER V4.34a                                                            05/05/2009  17:03:41  PAGE 7


      000000BEH   SFRSYM    DATA     BYTE      DEV_OFFSET
      00000090H.2 SFRSYM    DATA     BIT       DIN0
      00000090H   SFRSYM    DATA     BIT       DIO0
      00000090H.1 SFRSYM    DATA     BIT       DIO1
      00000080H   SFRSYM    DATA     BIT       DIO2
      00000080H.1 SFRSYM    DATA     BIT       DIO3
      00000080H.2 SFRSYM    DATA     BIT       DIO4
      00000080H.3 SFRSYM    DATA     BIT       DIO5
      00000080H.4 SFRSYM    DATA     BIT       DIO6
      00000080H.5 SFRSYM    DATA     BIT       DIO7
      00000080H.6 SFRSYM    DATA     BIT       DIO8
      00000080H.7 SFRSYM    DATA     BIT       DIO9
      000000A0H.4 SFRSYM    DATA     BIT       DOUT2
      00000083H   SFRSYM    DATA     BYTE      DPH
      00000083H   SFRSYM    DATA     BYTE      DPH0
      00000085H   SFRSYM    DATA     BYTE      DPH1
      00000082H   SFRSYM    DATA     BYTE      DPL
      00000082H   SFRSYM    DATA     BYTE      DPL0
      00000084H   SFRSYM    DATA     BYTE      DPL1
      00000086H   SFRSYM    DATA     BYTE      DPS
      000000A0H.2 SFRSYM    DATA     BIT       DR1
      000000A0H.6 SFRSYM    DATA     BIT       DR2
      000000A0H.6 SFRSYM    DATA     BIT       DR2_CE
      000000A8H.7 SFRSYM    DATA     BIT       EA
      000000D8H   SFRSYM    DATA     BYTE      EICON
      000000E8H   SFRSYM    DATA     BYTE      EIE
      000000F8H   SFRSYM    DATA     BYTE      EIP
      000000A8H.4 SFRSYM    DATA     BIT       ES
      000000A8H.1 SFRSYM    DATA     BIT       ET0
      000000A8H.3 SFRSYM    DATA     BIT       ET1
      000000A8H.5 SFRSYM    DATA     BIT       ET2
      000000E8H.4 SFRSYM    DATA     BIT       EWDI
      000000A8H   SFRSYM    DATA     BIT       EX0
      000000A8H.2 SFRSYM    DATA     BIT       EX1
      000000E8H   SFRSYM    DATA     BIT       EX2
      000000E8H.1 SFRSYM    DATA     BIT       EX3
      000000E8H.2 SFRSYM    DATA     BIT       EX4
      000000E8H.3 SFRSYM    DATA     BIT       EX5
      000000C8H.3 SFRSYM    DATA     BIT       EXEN2
      000000C8H.6 SFRSYM    DATA     BIT       EXF2
      00000091H   SFRSYM    DATA     BYTE      EXIF
      000000D0H.5 SFRSYM    DATA     BIT       F0
      000000D0H.1 SFRSYM    DATA     BIT       F1
      000000A8H   SFRSYM    DATA     BYTE      IE
      00000088H.1 SFRSYM    DATA     BIT       IE0
      00000088H.3 SFRSYM    DATA     BIT       IE1
      00000080H.3 SFRSYM    DATA     BIT       INT0_N
      00000080H.4 SFRSYM    DATA     BIT       INT1_N
      000000B8H   SFRSYM    DATA     BYTE      IP
      00000088H   SFRSYM    DATA     BIT       IT0
      00000088H.2 SFRSYM    DATA     BIT       IT1
      00000092H   SFRSYM    DATA     BYTE      MPAGE
      000000D0H.2 SFRSYM    DATA     BIT       OV
      000000D0H   SFRSYM    DATA     BIT       P
      00000080H   SFRSYM    DATA     BYTE      P0
      00000080H   SFRSYM    DATA     BIT       P0_0
      00000080H.1 SFRSYM    DATA     BIT       P0_1
      00000080H.2 SFRSYM    DATA     BIT       P0_2
      00000080H.3 SFRSYM    DATA     BIT       P0_3
      00000080H.4 SFRSYM    DATA     BIT       P0_4
      00000080H.5 SFRSYM    DATA     BIT       P0_5
      00000080H.6 SFRSYM    DATA     BIT       P0_6
      00000080H.7 SFRSYM    DATA     BIT       P0_7
      00000095H   SFRSYM    DATA     BYTE      P0_ALT
      00000094H   SFRSYM    DATA     BYTE      P0_DIR
LX51 LINKER/LOCATER V4.34a                                                            05/05/2009  17:03:41  PAGE 8


      00000090H   SFRSYM    DATA     BYTE      P1
      00000090H   SFRSYM    DATA     BIT       P1_0
      00000090H.1 SFRSYM    DATA     BIT       P1_1
      00000090H.2 SFRSYM    DATA     BIT       P1_2
      00000097H   SFRSYM    DATA     BYTE      P1_ALT
      00000096H   SFRSYM    DATA     BYTE      P1_DIR
      00000087H   SFRSYM    DATA     BYTE      PCON
      000000B8H.4 SFRSYM    DATA     BIT       PS
      000000D0H   SFRSYM    DATA     BYTE      PSW
      000000B8H.1 SFRSYM    DATA     BIT       PT0
      000000B8H.3 SFRSYM    DATA     BIT       PT1
      000000B8H.5 SFRSYM    DATA     BIT       PT2
      000000F8H.4 SFRSYM    DATA     BIT       PWDI
      00000080H.7 SFRSYM    DATA     BIT       PWM
      000000A9H   SFRSYM    DATA     BYTE      PWMCON
      000000AAH   SFRSYM    DATA     BYTE      PWMDUTY
      000000A0H.7 SFRSYM    DATA     BIT       PWR_UP
      000000B8H   SFRSYM    DATA     BIT       PX0
      000000B8H.2 SFRSYM    DATA     BIT       PX1
      000000F8H   SFRSYM    DATA     BIT       PX2
      000000F8H.1 SFRSYM    DATA     BIT       PX3
      000000F8H.2 SFRSYM    DATA     BIT       PX4
      000000F8H.3 SFRSYM    DATA     BIT       PX5
      000000A0H   SFRSYM    DATA     BYTE      RADIO
      00000098H.2 SFRSYM    DATA     BIT       RB8
      000000CBH   SFRSYM    DATA     BYTE      RCAP2H
      000000CAH   SFRSYM    DATA     BYTE      RCAP2L
      000000C8H.5 SFRSYM    DATA     BIT       RCLK
      000000ADH   SFRSYM    DATA     BYTE      REGX_CTRL
      000000ACH   SFRSYM    DATA     BYTE      REGX_LSB
      000000ABH   SFRSYM    DATA     BYTE      REGX_MSB
      00000098H.4 SFRSYM    DATA     BIT       REN
      00000098H   SFRSYM    DATA     BIT       RI
      000000D0H.3 SFRSYM    DATA     BIT       RS0
      000000D0H.4 SFRSYM    DATA     BIT       RS1
      000000B1H   SFRSYM    DATA     BYTE      RSTREAS
      00000080H.1 SFRSYM    DATA     BIT       RXD
      00000099H   SFRSYM    DATA     BYTE      SBUF
      00000098H   SFRSYM    DATA     BYTE      SCON
      00000098H.7 SFRSYM    DATA     BIT       SM0
      00000098H.6 SFRSYM    DATA     BIT       SM1
      00000098H.5 SFRSYM    DATA     BIT       SM2
      00000081H   SFRSYM    DATA     BYTE      SP
      0000008FH   SFRSYM    DATA     BYTE      SPC_FNC
      000000B3H   SFRSYM    DATA     BYTE      SPI_CTRL
      000000B2H   SFRSYM    DATA     BYTE      SPI_DATA
      000000B4H   SFRSYM    DATA     BYTE      SPICLK
      00000080H.5 SFRSYM    DATA     BIT       T0
      00000080H.6 SFRSYM    DATA     BIT       T1
      000000BCH   SFRSYM    DATA     BYTE      T1_1V2
      00000090H   SFRSYM    DATA     BIT       T2
      000000BDH   SFRSYM    DATA     BYTE      T2_1V2
      000000C8H   SFRSYM    DATA     BYTE      T2CON
      00000098H.3 SFRSYM    DATA     BIT       TB8
      000000C8H.4 SFRSYM    DATA     BIT       TCLK
      00000088H   SFRSYM    DATA     BYTE      TCON
      000000B7H   SFRSYM    DATA     BYTE      TEST_MODE
      00000088H.5 SFRSYM    DATA     BIT       TF0
      00000088H.7 SFRSYM    DATA     BIT       TF1
      000000C8H.7 SFRSYM    DATA     BIT       TF2
      0000008CH   SFRSYM    DATA     BYTE      TH0
      0000008DH   SFRSYM    DATA     BYTE      TH1
      000000CDH   SFRSYM    DATA     BYTE      TH2
      00000098H.1 SFRSYM    DATA     BIT       TI
      000000B5H   SFRSYM    DATA     BYTE      TICK_DV
LX51 LINKER/LOCATER V4.34a                                                            05/05/2009  17:03:41  PAGE 9


      0000008AH   SFRSYM    DATA     BYTE      TL0
      0000008BH   SFRSYM    DATA     BYTE      TL1
      000000CCH   SFRSYM    DATA     BYTE      TL2
      00000089H   SFRSYM    DATA     BYTE      TMOD
      00000088H.4 SFRSYM    DATA     BIT       TR0
      00000088H.6 SFRSYM    DATA     BIT       TR1
      000000C8H.2 SFRSYM    DATA     BIT       TR2
      00000080H.2 SFRSYM    DATA     BIT       TXD
      000000D8H.3 SFRSYM    DATA     BIT       WDTI
      00000066H   SYMBOL    DATA     BYTE      ?BLINK2?BYTE
      00000068H   SYMBOL    DATA     BYTE      ?BLINK4?BYTE
      0000006AH   SYMBOL    DATA     BYTE      ?BLINK6?BYTE
      01001105H   SYMBOL    CODE     NEAR LAB  ?C0001
      01001122H   SYMBOL    CODE     NEAR LAB  ?C0002
      0100115AH   SYMBOL    CODE     NEAR LAB  ?C0005
      01001177H   SYMBOL    CODE     NEAR LAB  ?C0006
      010011AFH   SYMBOL    CODE     NEAR LAB  ?C0009
      010011CCH   SYMBOL    CODE     NEAR LAB  ?C0010
      010003CFH   SYMBOL    CODE     NEAR LAB  ?C0013
      010003E2H   SYMBOL    CODE     NEAR LAB  ?C0014
      010003E9H   SYMBOL    CODE     NEAR LAB  ?C0016
      01001117H   SYMBOL    CODE     NEAR LAB  ?C0019
      0100116CH   SYMBOL    CODE     NEAR LAB  ?C0020
      010011C1H   SYMBOL    CODE     NEAR LAB  ?C0021
      0000005AH   SYMBOL    DATA     BYTE      ?MAIN?BYTE
      00000066H   SYMBOL    DATA     BYTE      I?040
      00000068H   SYMBOL    DATA     BYTE      I?141
      0000006AH   SYMBOL    DATA     BYTE      I?242
      0000005BH   SYMBOL    DATA     BYTE      I?344
      0000005AH   SYMBOL    DATA     BYTE      IDX?343

      01001100H   BLOCK     CODE     NEAR LAB  LVL=0
      01001100H   LINE      CODE     ---       #363
      01001101H   LINE      CODE     ---       #364
      01001103H   LINE      CODE     ---       #365
      01001105H   LINE      CODE     ---       #371
      01001108H   LINE      CODE     ---       #374
      0100110AH   LINE      CODE     ---       #375
      0100110CH   LINE      CODE     ---       #376
      0100110FH   LINE      CODE     ---       #379
      01001111H   LINE      CODE     ---       #380
      01001113H   LINE      CODE     ---       #381
      01001115H   LINE      CODE     ---       #382
      01001117H   LINE      CODE     ---       #384
      01001118H   LINE      CODE     ---       #385
      0100111AH   LINE      CODE     ---       #386
      0100111CH   LINE      CODE     ---       #387
      0100111EH   LINE      CODE     ---       #388
      01001120H   LINE      CODE     ---       #389
      01001122H   LINE      CODE     ---       #393
      01001124H   LINE      CODE     ---       #394
      01001126H   LINE      CODE     ---       #395
      ---         BLOCKEND  ---      ---       LVL=0

      01001155H   BLOCK     CODE     NEAR LAB  LVL=0
      01001155H   LINE      CODE     ---       #410
      01001156H   LINE      CODE     ---       #411
      01001158H   LINE      CODE     ---       #412
      0100115AH   LINE      CODE     ---       #418
      0100115DH   LINE      CODE     ---       #421
      0100115FH   LINE      CODE     ---       #422
      01001161H   LINE      CODE     ---       #423
      01001164H   LINE      CODE     ---       #426
      01001166H   LINE      CODE     ---       #427
      01001168H   LINE      CODE     ---       #428
LX51 LINKER/LOCATER V4.34a                                                            05/05/2009  17:03:41  PAGE 10


      0100116AH   LINE      CODE     ---       #429
      0100116CH   LINE      CODE     ---       #431
      0100116DH   LINE      CODE     ---       #432
      0100116FH   LINE      CODE     ---       #433
      01001171H   LINE      CODE     ---       #434
      01001173H   LINE      CODE     ---       #435
      01001175H   LINE      CODE     ---       #436
      01001177H   LINE      CODE     ---       #440
      01001179H   LINE      CODE     ---       #441
      0100117BH   LINE      CODE     ---       #442
      ---         BLOCKEND  ---      ---       LVL=0

      010011AAH   BLOCK     CODE     NEAR LAB  LVL=0
      010011AAH   LINE      CODE     ---       #457
      010011ABH   LINE      CODE     ---       #458
      010011ADH   LINE      CODE     ---       #459
      010011AFH   LINE      CODE     ---       #465
      010011B2H   LINE      CODE     ---       #468
      010011B4H   LINE      CODE     ---       #469
      010011B6H   LINE      CODE     ---       #470
      010011B9H   LINE      CODE     ---       #473
      010011BBH   LINE      CODE     ---       #474
      010011BDH   LINE      CODE     ---       #475
      010011BFH   LINE      CODE     ---       #476
      010011C1H   LINE      CODE     ---       #478
      010011C2H   LINE      CODE     ---       #479
      010011C4H   LINE      CODE     ---       #480
      010011C6H   LINE      CODE     ---       #481
      010011C8H   LINE      CODE     ---       #482
      010011CAH   LINE      CODE     ---       #483
      010011CCH   LINE      CODE     ---       #487
      010011CEH   LINE      CODE     ---       #488
      010011D0H   LINE      CODE     ---       #489
      ---         BLOCKEND  ---      ---       LVL=0

      0100038FH   BLOCK     CODE     NEAR LAB  LVL=0
      0100038FH   LINE      CODE     ---       #505
      01000390H   LINE      CODE     ---       #506
      01000392H   LINE      CODE     ---       #507
      01000394H   LINE      CODE     ---       #510
      01000396H   LINE      CODE     ---       #511
      01000397H   LINE      CODE     ---       #512
      0100039AH   LINE      CODE     ---       #515
      0100039DH   LINE      CODE     ---       #518
      010003A0H   LINE      CODE     ---       #523
      010003A3H   LINE      CODE     ---       #526
      010003A5H   LINE      CODE     ---       #527
      010003A7H   LINE      CODE     ---       #528
      010003A9H   LINE      CODE     ---       #529
      010003ACH   LINE      CODE     ---       #532
      010003AEH   LINE      CODE     ---       #533
      010003B0H   LINE      CODE     ---       #534
      010003B3H   LINE      CODE     ---       #537
      010003B6H   LINE      CODE     ---       #543
      010003B8H   LINE      CODE     ---       #544
      010003BAH   LINE      CODE     ---       #547
      010003BBH   LINE      CODE     ---       #548
      010003BCH   LINE      CODE     ---       #549
      010003BDH   LINE      CODE     ---       #553
      010003BEH   LINE      CODE     ---       #554
      010003C0H   LINE      CODE     ---       #557
      010003C1H   LINE      CODE     ---       #558
      010003C3H   LINE      CODE     ---       #562
      010003C4H   LINE      CODE     ---       #563
      010003C6H   LINE      CODE     ---       #566
LX51 LINKER/LOCATER V4.34a                                                            05/05/2009  17:03:41  PAGE 11


      010003C7H   LINE      CODE     ---       #567
      010003C9H   LINE      CODE     ---       #570
      010003CAH   LINE      CODE     ---       #571
      010003CCH   LINE      CODE     ---       #575
      010003CFH   LINE      CODE     ---       #581
      010003D2H   LINE      CODE     ---       #584
      010003D4H   LINE      CODE     ---       #585
      010003D6H   LINE      CODE     ---       #586
      010003D9H   LINE      CODE     ---       #589
      010003DBH   LINE      CODE     ---       #590
      010003DDH   LINE      CODE     ---       #591
      010003DEH   LINE      CODE     ---       #592
      010003E0H   LINE      CODE     ---       #593
      010003E2H   LINE      CODE     ---       #597
      010003E4H   LINE      CODE     ---       #598
      010003E6H   LINE      CODE     ---       #599
      010003E9H   LINE      CODE     ---       #606
      010003ECH   LINE      CODE     ---       #607
      010003EFH   LINE      CODE     ---       #608
      010003F2H   LINE      CODE     ---       #609
      010003F5H   LINE      CODE     ---       #614
      010003F8H   LINE      CODE     ---       #616
      010003FBH   LINE      CODE     ---       #618
      010003FEH   LINE      CODE     ---       #620
      01000401H   LINE      CODE     ---       #625
      01000403H   LINE      CODE     ---       #626
      01000405H   LINE      CODE     ---       #631
      01000407H   LINE      CODE     ---       #632
      01000409H   LINE      CODE     ---       #637
      0100040BH   LINE      CODE     ---       #638
      0100040DH   LINE      CODE     ---       #643
      0100040FH   LINE      CODE     ---       #644
      01000411H   LINE      CODE     ---       #647
      01000414H   LINE      CODE     ---       #648
      01000417H   LINE      CODE     ---       #649
      0100041AH   LINE      CODE     ---       #650
      0100041DH   LINE      CODE     ---       #653
      01000420H   LINE      CODE     ---       #654
      01000423H   LINE      CODE     ---       #655
      01000426H   LINE      CODE     ---       #656
      01000429H   LINE      CODE     ---       #660
      0100042BH   LINE      CODE     ---       #661
      0100042DH   LINE      CODE     ---       #662
      01000430H   LINE      CODE     ---       #664
      01000433H   LINE      CODE     ---       #665
      01000436H   LINE      CODE     ---       #666
      01000439H   LINE      CODE     ---       #667
      0100043CH   LINE      CODE     ---       #671
      ---         BLOCKEND  ---      ---       LVL=0

      ---         MODULE    ---      ---       ISR_RF
      0000002FH   PUBLIC    DATA     BYTE      ?_RF_SEND?BYTE
      01000669H   PUBLIC    CODE     NEAR LAB  _RF_CONFIGURE
      01001000H   PUBLIC    CODE     NEAR LAB  _RF_SEND
      00000008H   PUBLIC    DATA     BYTE      RF_BUF
      010004CAH   PUBLIC    CODE     NEAR LAB  RF_CH1_RECV
      01000793H   PUBLIC    CODE     NEAR LAB  RF_INIT
      010007DCH   PUBLIC    CODE     NEAR LAB  RF_WAIT_MSG
      000000D0H.6 SFRSYM    DATA     BIT       AC
      000000E0H   SFRSYM    DATA     BYTE      ACC
      000000A1H   SFRSYM    DATA     BYTE      ADCCON
      000000A2H   SFRSYM    DATA     BYTE      ADCDATAH
      000000A3H   SFRSYM    DATA     BYTE      ADCDATAL
      000000A4H   SFRSYM    DATA     BYTE      ADCSTATIC
      000000F0H   SFRSYM    DATA     BYTE      B
LX51 LINKER/LOCATER V4.34a                                                            05/05/2009  17:03:41  PAGE 12


      000000C8H.1 SFRSYM    DATA     BIT       C_T2
      000000A0H.6 SFRSYM    DATA     BIT       CE
      000000B6H   SFRSYM    DATA     BYTE      CK_CTRL
      0000008EH   SFRSYM    DATA     BYTE      CKCON
      000000A0H.1 SFRSYM    DATA     BIT       CLK1
      000000A0H.5 SFRSYM    DATA     BIT       CLK2
      000000C8H   SFRSYM    DATA     BIT       CP_RL2
      000000C8H   SFRSYM    DATA     BIT       CPRL2
      000000A0H.3 SFRSYM    DATA     BIT       CS
      000000C8H.1 SFRSYM    DATA     BIT       CT2
      000000D0H.7 SFRSYM    DATA     BIT       CY
      000000A0H   SFRSYM    DATA     BIT       DATA?
      000000BEH   SFRSYM    DATA     BYTE      DEV_OFFSET
      00000090H.2 SFRSYM    DATA     BIT       DIN0
      00000090H   SFRSYM    DATA     BIT       DIO0
      00000090H.1 SFRSYM    DATA     BIT       DIO1
      00000080H   SFRSYM    DATA     BIT       DIO2
      00000080H.1 SFRSYM    DATA     BIT       DIO3
      00000080H.2 SFRSYM    DATA     BIT       DIO4
      00000080H.3 SFRSYM    DATA     BIT       DIO5
      00000080H.4 SFRSYM    DATA     BIT       DIO6
      00000080H.5 SFRSYM    DATA     BIT       DIO7
      00000080H.6 SFRSYM    DATA     BIT       DIO8
      00000080H.7 SFRSYM    DATA     BIT       DIO9
      000000A0H.4 SFRSYM    DATA     BIT       DOUT2
      00000083H   SFRSYM    DATA     BYTE      DPH
      00000083H   SFRSYM    DATA     BYTE      DPH0
      00000085H   SFRSYM    DATA     BYTE      DPH1
      00000082H   SFRSYM    DATA     BYTE      DPL
      00000082H   SFRSYM    DATA     BYTE      DPL0
      00000084H   SFRSYM    DATA     BYTE      DPL1
      00000086H   SFRSYM    DATA     BYTE      DPS
      000000A0H.2 SFRSYM    DATA     BIT       DR1
      000000A0H.6 SFRSYM    DATA     BIT       DR2
      000000A0H.6 SFRSYM    DATA     BIT       DR2_CE
      000000A8H.7 SFRSYM    DATA     BIT       EA
      000000D8H   SFRSYM    DATA     BYTE      EICON
      000000E8H   SFRSYM    DATA     BYTE      EIE
      000000F8H   SFRSYM    DATA     BYTE      EIP
      000000A8H.4 SFRSYM    DATA     BIT       ES
      000000A8H.1 SFRSYM    DATA     BIT       ET0
      000000A8H.3 SFRSYM    DATA     BIT       ET1
      000000A8H.5 SFRSYM    DATA     BIT       ET2
      000000E8H.4 SFRSYM    DATA     BIT       EWDI
      000000A8H   SFRSYM    DATA     BIT       EX0
      000000A8H.2 SFRSYM    DATA     BIT       EX1
      000000E8H   SFRSYM    DATA     BIT       EX2
      000000E8H.1 SFRSYM    DATA     BIT       EX3
      000000E8H.2 SFRSYM    DATA     BIT       EX4
      000000E8H.3 SFRSYM    DATA     BIT       EX5
      000000C8H.3 SFRSYM    DATA     BIT       EXEN2
      000000C8H.6 SFRSYM    DATA     BIT       EXF2
      00000091H   SFRSYM    DATA     BYTE      EXIF
      000000D0H.5 SFRSYM    DATA     BIT       F0
      000000D0H.1 SFRSYM    DATA     BIT       F1
      000000A8H   SFRSYM    DATA     BYTE      IE
      00000088H.1 SFRSYM    DATA     BIT       IE0
      00000088H.3 SFRSYM    DATA     BIT       IE1
      00000080H.3 SFRSYM    DATA     BIT       INT0_N
      00000080H.4 SFRSYM    DATA     BIT       INT1_N
      000000B8H   SFRSYM    DATA     BYTE      IP
      00000088H   SFRSYM    DATA     BIT       IT0
      00000088H.2 SFRSYM    DATA     BIT       IT1
      00000092H   SFRSYM    DATA     BYTE      MPAGE
      000000D0H.2 SFRSYM    DATA     BIT       OV
LX51 LINKER/LOCATER V4.34a                                                            05/05/2009  17:03:41  PAGE 13


      000000D0H   SFRSYM    DATA     BIT       P
      00000080H   SFRSYM    DATA     BYTE      P0
      00000080H   SFRSYM    DATA     BIT       P0_0
      00000080H.1 SFRSYM    DATA     BIT       P0_1
      00000080H.2 SFRSYM    DATA     BIT       P0_2
      00000080H.3 SFRSYM    DATA     BIT       P0_3
      00000080H.4 SFRSYM    DATA     BIT       P0_4
      00000080H.5 SFRSYM    DATA     BIT       P0_5
      00000080H.6 SFRSYM    DATA     BIT       P0_6
      00000080H.7 SFRSYM    DATA     BIT       P0_7
      00000095H   SFRSYM    DATA     BYTE      P0_ALT
      00000094H   SFRSYM    DATA     BYTE      P0_DIR
      00000090H   SFRSYM    DATA     BYTE      P1
      00000090H   SFRSYM    DATA     BIT       P1_0
      00000090H.1 SFRSYM    DATA     BIT       P1_1
      00000090H.2 SFRSYM    DATA     BIT       P1_2
      00000097H   SFRSYM    DATA     BYTE      P1_ALT
      00000096H   SFRSYM    DATA     BYTE      P1_DIR
      00000087H   SFRSYM    DATA     BYTE      PCON
      000000B8H.4 SFRSYM    DATA     BIT       PS
      000000D0H   SFRSYM    DATA     BYTE      PSW
      000000B8H.1 SFRSYM    DATA     BIT       PT0
      000000B8H.3 SFRSYM    DATA     BIT       PT1
      000000B8H.5 SFRSYM    DATA     BIT       PT2
      000000F8H.4 SFRSYM    DATA     BIT       PWDI
      00000080H.7 SFRSYM    DATA     BIT       PWM
      000000A9H   SFRSYM    DATA     BYTE      PWMCON
      000000AAH   SFRSYM    DATA     BYTE      PWMDUTY
      000000A0H.7 SFRSYM    DATA     BIT       PWR_UP
      000000B8H   SFRSYM    DATA     BIT       PX0
      000000B8H.2 SFRSYM    DATA     BIT       PX1
      000000F8H   SFRSYM    DATA     BIT       PX2
      000000F8H.1 SFRSYM    DATA     BIT       PX3
      000000F8H.2 SFRSYM    DATA     BIT       PX4
      000000F8H.3 SFRSYM    DATA     BIT       PX5
      000000A0H   SFRSYM    DATA     BYTE      RADIO
      00000098H.2 SFRSYM    DATA     BIT       RB8
      000000CBH   SFRSYM    DATA     BYTE      RCAP2H
      000000CAH   SFRSYM    DATA     BYTE      RCAP2L
      000000C8H.5 SFRSYM    DATA     BIT       RCLK
      000000ADH   SFRSYM    DATA     BYTE      REGX_CTRL
      000000ACH   SFRSYM    DATA     BYTE      REGX_LSB
      000000ABH   SFRSYM    DATA     BYTE      REGX_MSB
      00000098H.4 SFRSYM    DATA     BIT       REN
      00000098H   SFRSYM    DATA     BIT       RI
      000000D0H.3 SFRSYM    DATA     BIT       RS0
      000000D0H.4 SFRSYM    DATA     BIT       RS1
      000000B1H   SFRSYM    DATA     BYTE      RSTREAS
      00000080H.1 SFRSYM    DATA     BIT       RXD
      00000099H   SFRSYM    DATA     BYTE      SBUF
      00000098H   SFRSYM    DATA     BYTE      SCON
      00000098H.7 SFRSYM    DATA     BIT       SM0
      00000098H.6 SFRSYM    DATA     BIT       SM1
      00000098H.5 SFRSYM    DATA     BIT       SM2
      00000081H   SFRSYM    DATA     BYTE      SP
      0000008FH   SFRSYM    DATA     BYTE      SPC_FNC
      000000B3H   SFRSYM    DATA     BYTE      SPI_CTRL
      000000B2H   SFRSYM    DATA     BYTE      SPI_DATA
      000000B4H   SFRSYM    DATA     BYTE      SPICLK
      00000080H.5 SFRSYM    DATA     BIT       T0
      00000080H.6 SFRSYM    DATA     BIT       T1
      000000BCH   SFRSYM    DATA     BYTE      T1_1V2
      00000090H   SFRSYM    DATA     BIT       T2
      000000BDH   SFRSYM    DATA     BYTE      T2_1V2
      000000C8H   SFRSYM    DATA     BYTE      T2CON
LX51 LINKER/LOCATER V4.34a                                                            05/05/2009  17:03:41  PAGE 14


      00000098H.3 SFRSYM    DATA     BIT       TB8
      000000C8H.4 SFRSYM    DATA     BIT       TCLK
      00000088H   SFRSYM    DATA     BYTE      TCON
      000000B7H   SFRSYM    DATA     BYTE      TEST_MODE
      00000088H.5 SFRSYM    DATA     BIT       TF0
      00000088H.7 SFRSYM    DATA     BIT       TF1
      000000C8H.7 SFRSYM    DATA     BIT       TF2
      0000008CH   SFRSYM    DATA     BYTE      TH0
      0000008DH   SFRSYM    DATA     BYTE      TH1
      000000CDH   SFRSYM    DATA     BYTE      TH2
      00000098H.1 SFRSYM    DATA     BIT       TI
      000000B5H   SFRSYM    DATA     BYTE      TICK_DV
      0000008AH   SFRSYM    DATA     BYTE      TL0
      0000008BH   SFRSYM    DATA     BYTE      TL1
      000000CCH   SFRSYM    DATA     BYTE      TL2
      00000089H   SFRSYM    DATA     BYTE      TMOD
      00000088H.4 SFRSYM    DATA     BIT       TR0
      00000088H.6 SFRSYM    DATA     BIT       TR1
      000000C8H.2 SFRSYM    DATA     BIT       TR2
      00000080H.2 SFRSYM    DATA     BIT       TXD
      000000D8H.3 SFRSYM    DATA     BIT       WDTI
      00000051H   SYMBOL    DATA     BYTE      ?_RF_CONFIGURE?BYTE
      01000676H   SYMBOL    CODE     NEAR LAB  ?C0002
      0100069CH   SYMBOL    CODE     NEAR LAB  ?C0003
      0100100FH   SYMBOL    CODE     NEAR LAB  ?C0006
      01001039H   SYMBOL    CODE     NEAR LAB  ?C0007
      0100103EH   SYMBOL    CODE     NEAR LAB  ?C0009
      01001068H   SYMBOL    CODE     NEAR LAB  ?C0010
      010004F1H   SYMBOL    CODE     NEAR LAB  ?C0015
      01000509H   SYMBOL    CODE     NEAR LAB  ?C0016
      010007DEH   SYMBOL    CODE     NEAR LAB  ?C0018
      010007E2H   SYMBOL    CODE     NEAR LAB  ?C0019
      01000691H   SYMBOL    CODE     NEAR LAB  ?C0021
      01001037H   SYMBOL    CODE     NEAR LAB  ?C0022
      01001066H   SYMBOL    CODE     NEAR LAB  ?C0023
      01000501H   SYMBOL    CODE     NEAR LAB  ?C0024
      0000006CH   SYMBOL    DATA     BYTE      ?RF_CH1_RECV?BYTE
      0100050CH   SYMBOL    CODE     NEAR LAB  ?RF_CH1_RECV?OUT
      0000002FH   SYMBOL    DATA     BYTE      ADDR?243
      00000032H   SYMBOL    DATA     BYTE      ADDR_LEN?244
      00000054H   SYMBOL    DATA     BYTE      I?142
      00000037H   SYMBOL    DATA     BYTE      I?247
      0000006CH   SYMBOL    DATA     BYTE      I?348
      00000051H   SYMBOL    DATA     BYTE      P?141
      00000033H   SYMBOL    DATA     BYTE      PAYLOAD?245
      00000036H   SYMBOL    DATA     BYTE      PL_LEN?246

      01000793H   BLOCK     CODE     NEAR LAB  LVL=0
      01000793H   LINE      CODE     ---       #265
      01000795H   LINE      CODE     ---       #269
      01000796H   LINE      CODE     ---       #270
      01000797H   LINE      CODE     ---       #271
      01000799H   LINE      CODE     ---       #272
      0100079CH   LINE      CODE     ---       #275
      0100079EH   LINE      CODE     ---       #278
      010007A0H   LINE      CODE     ---       #281
      ---         BLOCKEND  ---      ---       LVL=0

      01000669H   BLOCK     CODE     NEAR LAB  LVL=0
      01000669H   LINE      CODE     ---       #304
      0100066BH   LINE      CODE     ---       #308
      0100066DH   LINE      CODE     ---       #309
      0100066FH   LINE      CODE     ---       #310
      01000671H   LINE      CODE     ---       #314
      01000672H   LINE      CODE     ---       #315
LX51 LINKER/LOCATER V4.34a                                                            05/05/2009  17:03:41  PAGE 15


      01000674H   LINE      CODE     ---       #316
      01000676H   LINE      CODE     ---       #320
      01000678H   LINE      CODE     ---       #321
      0100067AH   LINE      CODE     ---       #322
      0100067CH   LINE      CODE     ---       #323
      0100067FH   LINE      CODE     ---       #324
      01000682H   LINE      CODE     ---       #325
      01000685H   LINE      CODE     ---       #326
      01000686H   LINE      CODE     ---       #327
      01000689H   LINE      CODE     ---       #330
      0100068BH   LINE      CODE     ---       #331
      0100068DH   LINE      CODE     ---       #332
      0100068FH   LINE      CODE     ---       #333
      01000691H   LINE      CODE     ---       #335
      01000692H   LINE      CODE     ---       #336
      01000694H   LINE      CODE     ---       #337
      01000696H   LINE      CODE     ---       #338
      01000698H   LINE      CODE     ---       #339
      0100069AH   LINE      CODE     ---       #340
      0100069CH   LINE      CODE     ---       #345
      0100069EH   LINE      CODE     ---       #348
      ---         BLOCKEND  ---      ---       LVL=0

      01001000H   BLOCK     CODE     NEAR LAB  LVL=0
      01001000H   LINE      CODE     ---       #365
      01001002H   LINE      CODE     ---       #366
      01001004H   LINE      CODE     ---       #367
      01001006H   LINE      CODE     ---       #368
      01001008H   LINE      CODE     ---       #376
      0100100AH   LINE      CODE     ---       #381
      0100100BH   LINE      CODE     ---       #382
      0100100DH   LINE      CODE     ---       #383
      0100100FH   LINE      CODE     ---       #385
      01001010H   LINE      CODE     ---       #386
      01001012H   LINE      CODE     ---       #387
      01001014H   LINE      CODE     ---       #388
      01001016H   LINE      CODE     ---       #389
      01001017H   LINE      CODE     ---       #390
      01001019H   LINE      CODE     ---       #391
      0100101AH   LINE      CODE     ---       #392
      0100101CH   LINE      CODE     ---       #395
      0100101EH   LINE      CODE     ---       #396
      01001020H   LINE      CODE     ---       #397
      01001022H   LINE      CODE     ---       #398
      01001025H   LINE      CODE     ---       #399
      01001028H   LINE      CODE     ---       #400
      0100102BH   LINE      CODE     ---       #401
      0100102CH   LINE      CODE     ---       #402
      0100102FH   LINE      CODE     ---       #403
      01001031H   LINE      CODE     ---       #404
      01001033H   LINE      CODE     ---       #405
      01001035H   LINE      CODE     ---       #406
      01001037H   LINE      CODE     ---       #408
      01001039H   LINE      CODE     ---       #413
      0100103AH   LINE      CODE     ---       #414
      0100103CH   LINE      CODE     ---       #415
      0100103EH   LINE      CODE     ---       #417
      0100103FH   LINE      CODE     ---       #418
      01001041H   LINE      CODE     ---       #419
      01001043H   LINE      CODE     ---       #420
      01001045H   LINE      CODE     ---       #421
      01001046H   LINE      CODE     ---       #422
      01001048H   LINE      CODE     ---       #423
      01001049H   LINE      CODE     ---       #424
      0100104BH   LINE      CODE     ---       #427
LX51 LINKER/LOCATER V4.34a                                                            05/05/2009  17:03:41  PAGE 16


      0100104DH   LINE      CODE     ---       #428
      0100104FH   LINE      CODE     ---       #429
      01001051H   LINE      CODE     ---       #430
      01001054H   LINE      CODE     ---       #431
      01001057H   LINE      CODE     ---       #432
      0100105AH   LINE      CODE     ---       #433
      0100105BH   LINE      CODE     ---       #434
      0100105EH   LINE      CODE     ---       #435
      01001060H   LINE      CODE     ---       #436
      01001062H   LINE      CODE     ---       #437
      01001064H   LINE      CODE     ---       #438
      01001066H   LINE      CODE     ---       #440
      01001068H   LINE      CODE     ---       #445
      0100106AH   LINE      CODE     ---       #448
      ---         BLOCKEND  ---      ---       LVL=0

      01000053H   BLOCK     CODE     NEAR LAB  LVL=0
      01000053H   LINE      CODE     ---       #452
      ---         BLOCKEND  ---      ---       LVL=0

      010004CAH   BLOCK     CODE     NEAR LAB  LVL=0
      010004CAH   LINE      CODE     ---       #461
      010004CCH   LINE      CODE     ---       #462
      010004CEH   LINE      CODE     ---       #463
      010004D0H   LINE      CODE     ---       #464
      010004D2H   LINE      CODE     ---       #465
      010004D4H   LINE      CODE     ---       #466
      010004D7H   LINE      CODE     ---       #467
      010004D9H   LINE      CODE     ---       #468
      010004DBH   LINE      CODE     ---       #469
      010004DDH   LINE      CODE     ---       #470
      010004DFH   LINE      CODE     ---       #471
      010004E1H   LINE      CODE     ---       #472
      010004E3H   LINE      CODE     ---       #473
      010004E5H   LINE      CODE     ---       #474
      010004E7H   LINE      CODE     ---       #480
      010004EAH   LINE      CODE     ---       #481
      010004EDH   LINE      CODE     ---       #488
      010004EFH   LINE      CODE     ---       #489
      010004F1H   LINE      CODE     ---       #495
      010004F4H   LINE      CODE     ---       #498
      010004F5H   LINE      CODE     ---       #499
      010004F6H   LINE      CODE     ---       #500
      010004F9H   LINE      CODE     ---       #501
      010004FBH   LINE      CODE     ---       #502
      010004FDH   LINE      CODE     ---       #503
      010004FFH   LINE      CODE     ---       #504
      01000501H   LINE      CODE     ---       #506
      01000502H   LINE      CODE     ---       #507
      01000504H   LINE      CODE     ---       #508
      01000505H   LINE      CODE     ---       #509
      01000507H   LINE      CODE     ---       #512
      01000509H   LINE      CODE     ---       #516
      0100050CH   LINE      CODE     ---       #523
      0100050FH   LINE      CODE     ---       #526
      01000511H   LINE      CODE     ---       #527
      01000513H   LINE      CODE     ---       #528
      01000515H   LINE      CODE     ---       #529
      01000517H   LINE      CODE     ---       #530
      01000519H   LINE      CODE     ---       #531
      0100051BH   LINE      CODE     ---       #532
      0100051DH   LINE      CODE     ---       #533
      0100051FH   LINE      CODE     ---       #534
      01000521H   LINE      CODE     ---       #535
      01000523H   LINE      CODE     ---       #536
LX51 LINKER/LOCATER V4.34a                                                            05/05/2009  17:03:41  PAGE 17


      01000525H   LINE      CODE     ---       #537
      01000527H   LINE      CODE     ---       #538
      01000529H   LINE      CODE     ---       #539
      ---         BLOCKEND  ---      ---       LVL=0

      010007DCH   BLOCK     CODE     NEAR LAB  LVL=0
      010007DCH   LINE      CODE     ---       #555
      010007DEH   LINE      CODE     ---       #559
      010007E0H   LINE      CODE     ---       #560
      010007E2H   LINE      CODE     ---       #565
      010007E4H   LINE      CODE     ---       #568
      ---         BLOCKEND  ---      ---       LVL=0

      ---         MODULE    ---      ---       ECO_PAGE
      00000040H   PUBLIC    DATA     BYTE      ECO_PAGE_ADDR
      010007BBH   PUBLIC    CODE     NEAR LAB  ECO_PAGE_INIT
      0100024DH   PUBLIC    CODE     NEAR LAB  ECO_PAGE_MANAGER
      0000003EH   PUBLIC    DATA     BYTE      ECO_PAGE_PREV_PID
      0000003FH   PUBLIC    DATA     BYTE      ECO_PAGE_PREV_VID
      0000007BH   PUBLIC    IDATA    BYTE      ECO_PAGE_REGISTER1
      0000007CH   PUBLIC    IDATA    BYTE      ECO_PAGE_REGISTER2
      0000007DH   PUBLIC    IDATA    BYTE      ECO_PAGE_REGISTER3
      0000007EH   PUBLIC    IDATA    BYTE      ECO_PAGE_REGISTER4
      0000007FH   PUBLIC    IDATA    BYTE      ECO_PAGE_REGISTER5
      00000080H   PUBLIC    IDATA    BYTE      ECO_PAGE_REGISTER6
      00000081H   PUBLIC    IDATA    BYTE      ECO_PAGE_REGISTER7
      0000003DH   PUBLIC    DATA     BYTE      ECO_PAGE_SPI_CONN
      00000039H   PUBLIC    DATA     BYTE      ECO_PAGE_TABLE
      00000042H   PUBLIC    DATA     BYTE      ECO_PAGE_TABLE_INDEX
      000000D0H.6 SFRSYM    DATA     BIT       AC
      000000E0H   SFRSYM    DATA     BYTE      ACC
      000000A1H   SFRSYM    DATA     BYTE      ADCCON
      000000A2H   SFRSYM    DATA     BYTE      ADCDATAH
      000000A3H   SFRSYM    DATA     BYTE      ADCDATAL
      000000A4H   SFRSYM    DATA     BYTE      ADCSTATIC
      000000F0H   SFRSYM    DATA     BYTE      B
      000000C8H.1 SFRSYM    DATA     BIT       C_T2
      000000A0H.6 SFRSYM    DATA     BIT       CE
      000000B6H   SFRSYM    DATA     BYTE      CK_CTRL
      0000008EH   SFRSYM    DATA     BYTE      CKCON
      000000A0H.1 SFRSYM    DATA     BIT       CLK1
      000000A0H.5 SFRSYM    DATA     BIT       CLK2
      000000C8H   SFRSYM    DATA     BIT       CP_RL2
      000000C8H   SFRSYM    DATA     BIT       CPRL2
      000000A0H.3 SFRSYM    DATA     BIT       CS
      000000C8H.1 SFRSYM    DATA     BIT       CT2
      000000D0H.7 SFRSYM    DATA     BIT       CY
      000000A0H   SFRSYM    DATA     BIT       DATA?
      000000BEH   SFRSYM    DATA     BYTE      DEV_OFFSET
      00000090H.2 SFRSYM    DATA     BIT       DIN0
      00000090H   SFRSYM    DATA     BIT       DIO0
      00000090H.1 SFRSYM    DATA     BIT       DIO1
      00000080H   SFRSYM    DATA     BIT       DIO2
      00000080H.1 SFRSYM    DATA     BIT       DIO3
      00000080H.2 SFRSYM    DATA     BIT       DIO4
      00000080H.3 SFRSYM    DATA     BIT       DIO5
      00000080H.4 SFRSYM    DATA     BIT       DIO6
      00000080H.5 SFRSYM    DATA     BIT       DIO7
      00000080H.6 SFRSYM    DATA     BIT       DIO8
      00000080H.7 SFRSYM    DATA     BIT       DIO9
      000000A0H.4 SFRSYM    DATA     BIT       DOUT2
      00000083H   SFRSYM    DATA     BYTE      DPH
      00000083H   SFRSYM    DATA     BYTE      DPH0
      00000085H   SFRSYM    DATA     BYTE      DPH1
      00000082H   SFRSYM    DATA     BYTE      DPL
LX51 LINKER/LOCATER V4.34a                                                            05/05/2009  17:03:41  PAGE 18


      00000082H   SFRSYM    DATA     BYTE      DPL0
      00000084H   SFRSYM    DATA     BYTE      DPL1
      00000086H   SFRSYM    DATA     BYTE      DPS
      000000A0H.2 SFRSYM    DATA     BIT       DR1
      000000A0H.6 SFRSYM    DATA     BIT       DR2
      000000A0H.6 SFRSYM    DATA     BIT       DR2_CE
      000000A8H.7 SFRSYM    DATA     BIT       EA
      000000D8H   SFRSYM    DATA     BYTE      EICON
      000000E8H   SFRSYM    DATA     BYTE      EIE
      000000F8H   SFRSYM    DATA     BYTE      EIP
      000000A8H.4 SFRSYM    DATA     BIT       ES
      000000A8H.1 SFRSYM    DATA     BIT       ET0
      000000A8H.3 SFRSYM    DATA     BIT       ET1
      000000A8H.5 SFRSYM    DATA     BIT       ET2
      000000E8H.4 SFRSYM    DATA     BIT       EWDI
      000000A8H   SFRSYM    DATA     BIT       EX0
      000000A8H.2 SFRSYM    DATA     BIT       EX1
      000000E8H   SFRSYM    DATA     BIT       EX2
      000000E8H.1 SFRSYM    DATA     BIT       EX3
      000000E8H.2 SFRSYM    DATA     BIT       EX4
      000000E8H.3 SFRSYM    DATA     BIT       EX5
      000000C8H.3 SFRSYM    DATA     BIT       EXEN2
      000000C8H.6 SFRSYM    DATA     BIT       EXF2
      00000091H   SFRSYM    DATA     BYTE      EXIF
      000000D0H.5 SFRSYM    DATA     BIT       F0
      000000D0H.1 SFRSYM    DATA     BIT       F1
      000000A8H   SFRSYM    DATA     BYTE      IE
      00000088H.1 SFRSYM    DATA     BIT       IE0
      00000088H.3 SFRSYM    DATA     BIT       IE1
      00000080H.3 SFRSYM    DATA     BIT       INT0_N
      00000080H.4 SFRSYM    DATA     BIT       INT1_N
      000000B8H   SFRSYM    DATA     BYTE      IP
      00000088H   SFRSYM    DATA     BIT       IT0
      00000088H.2 SFRSYM    DATA     BIT       IT1
      00000092H   SFRSYM    DATA     BYTE      MPAGE
      000000D0H.2 SFRSYM    DATA     BIT       OV
      000000D0H   SFRSYM    DATA     BIT       P
      00000080H   SFRSYM    DATA     BYTE      P0
      00000080H   SFRSYM    DATA     BIT       P0_0
      00000080H.1 SFRSYM    DATA     BIT       P0_1
      00000080H.2 SFRSYM    DATA     BIT       P0_2
      00000080H.3 SFRSYM    DATA     BIT       P0_3
      00000080H.4 SFRSYM    DATA     BIT       P0_4
      00000080H.5 SFRSYM    DATA     BIT       P0_5
      00000080H.6 SFRSYM    DATA     BIT       P0_6
      00000080H.7 SFRSYM    DATA     BIT       P0_7
      00000095H   SFRSYM    DATA     BYTE      P0_ALT
      00000094H   SFRSYM    DATA     BYTE      P0_DIR
      00000090H   SFRSYM    DATA     BYTE      P1
      00000090H   SFRSYM    DATA     BIT       P1_0
      00000090H.1 SFRSYM    DATA     BIT       P1_1
      00000090H.2 SFRSYM    DATA     BIT       P1_2
      00000097H   SFRSYM    DATA     BYTE      P1_ALT
      00000096H   SFRSYM    DATA     BYTE      P1_DIR
      00000087H   SFRSYM    DATA     BYTE      PCON
      000000B8H.4 SFRSYM    DATA     BIT       PS
      000000D0H   SFRSYM    DATA     BYTE      PSW
      000000B8H.1 SFRSYM    DATA     BIT       PT0
      000000B8H.3 SFRSYM    DATA     BIT       PT1
      000000B8H.5 SFRSYM    DATA     BIT       PT2
      000000F8H.4 SFRSYM    DATA     BIT       PWDI
      00000080H.7 SFRSYM    DATA     BIT       PWM
      000000A9H   SFRSYM    DATA     BYTE      PWMCON
      000000AAH   SFRSYM    DATA     BYTE      PWMDUTY
      000000A0H.7 SFRSYM    DATA     BIT       PWR_UP
LX51 LINKER/LOCATER V4.34a                                                            05/05/2009  17:03:41  PAGE 19


      000000B8H   SFRSYM    DATA     BIT       PX0
      000000B8H.2 SFRSYM    DATA     BIT       PX1
      000000F8H   SFRSYM    DATA     BIT       PX2
      000000F8H.1 SFRSYM    DATA     BIT       PX3
      000000F8H.2 SFRSYM    DATA     BIT       PX4
      000000F8H.3 SFRSYM    DATA     BIT       PX5
      000000A0H   SFRSYM    DATA     BYTE      RADIO
      00000098H.2 SFRSYM    DATA     BIT       RB8
      000000CBH   SFRSYM    DATA     BYTE      RCAP2H
      000000CAH   SFRSYM    DATA     BYTE      RCAP2L
      000000C8H.5 SFRSYM    DATA     BIT       RCLK
      000000ADH   SFRSYM    DATA     BYTE      REGX_CTRL
      000000ACH   SFRSYM    DATA     BYTE      REGX_LSB
      000000ABH   SFRSYM    DATA     BYTE      REGX_MSB
      00000098H.4 SFRSYM    DATA     BIT       REN
      00000098H   SFRSYM    DATA     BIT       RI
      000000D0H.3 SFRSYM    DATA     BIT       RS0
      000000D0H.4 SFRSYM    DATA     BIT       RS1
      000000B1H   SFRSYM    DATA     BYTE      RSTREAS
      00000080H.1 SFRSYM    DATA     BIT       RXD
      00000099H   SFRSYM    DATA     BYTE      SBUF
      00000098H   SFRSYM    DATA     BYTE      SCON
      00000098H.7 SFRSYM    DATA     BIT       SM0
      00000098H.6 SFRSYM    DATA     BIT       SM1
      00000098H.5 SFRSYM    DATA     BIT       SM2
      00000081H   SFRSYM    DATA     BYTE      SP
      0000008FH   SFRSYM    DATA     BYTE      SPC_FNC
      000000B3H   SFRSYM    DATA     BYTE      SPI_CTRL
      000000B2H   SFRSYM    DATA     BYTE      SPI_DATA
      000000B4H   SFRSYM    DATA     BYTE      SPICLK
      00000080H.5 SFRSYM    DATA     BIT       T0
      00000080H.6 SFRSYM    DATA     BIT       T1
      000000BCH   SFRSYM    DATA     BYTE      T1_1V2
      00000090H   SFRSYM    DATA     BIT       T2
      000000BDH   SFRSYM    DATA     BYTE      T2_1V2
      000000C8H   SFRSYM    DATA     BYTE      T2CON
      00000098H.3 SFRSYM    DATA     BIT       TB8
      000000C8H.4 SFRSYM    DATA     BIT       TCLK
      00000088H   SFRSYM    DATA     BYTE      TCON
      000000B7H   SFRSYM    DATA     BYTE      TEST_MODE
      00000088H.5 SFRSYM    DATA     BIT       TF0
      00000088H.7 SFRSYM    DATA     BIT       TF1
      000000C8H.7 SFRSYM    DATA     BIT       TF2
      0000008CH   SFRSYM    DATA     BYTE      TH0
      0000008DH   SFRSYM    DATA     BYTE      TH1
      000000CDH   SFRSYM    DATA     BYTE      TH2
      00000098H.1 SFRSYM    DATA     BIT       TI
      000000B5H   SFRSYM    DATA     BYTE      TICK_DV
      0000008AH   SFRSYM    DATA     BYTE      TL0
      0000008BH   SFRSYM    DATA     BYTE      TL1
      000000CCH   SFRSYM    DATA     BYTE      TL2
      00000089H   SFRSYM    DATA     BYTE      TMOD
      00000088H.4 SFRSYM    DATA     BIT       TR0
      00000088H.6 SFRSYM    DATA     BIT       TR1
      000000C8H.2 SFRSYM    DATA     BIT       TR2
      00000080H.2 SFRSYM    DATA     BIT       TXD
      000000D8H.3 SFRSYM    DATA     BIT       WDTI
      0100028AH   SYMBOL    CODE     NEAR LAB  ?C0002
      0100028FH   SYMBOL    CODE     NEAR LAB  ?C0003
      010002BAH   SYMBOL    CODE     NEAR LAB  ?C0004
      010002ACH   SYMBOL    CODE     NEAR LAB  ?C0005
      010002FDH   SYMBOL    CODE     NEAR LAB  ?C0007
      01000312H   SYMBOL    CODE     NEAR LAB  ?C0009
      01000340H   SYMBOL    CODE     NEAR LAB  ?C0010
      0100038EH   SYMBOL    CODE     NEAR LAB  ?C0012
LX51 LINKER/LOCATER V4.34a                                                            05/05/2009  17:03:41  PAGE 20


      0100025AH   SYMBOL    CODE     NEAR LAB  ?C0013
      010002B4H   SYMBOL    CODE     NEAR LAB  ?C0015
      010002C2H   SYMBOL    CODE     NEAR LAB  ?C0016
      01000339H   SYMBOL    CODE     NEAR LAB  ?C0017
      0000004BH   SYMBOL    DATA     BYTE      ?ECO_PAGE_MANAGER?BYTE
      0000004BH   SYMBOL    DATA     BYTE      I?141
      0000004DH   SYMBOL    DATA     BYTE      PAGE_INDEX?142
      0000004FH   SYMBOL    DATA     BYTE      SEG?140

      010007BBH   BLOCK     CODE     NEAR LAB  LVL=0
      010007BBH   LINE      CODE     ---       #316
      010007BCH   LINE      CODE     ---       #317
      010007BEH   LINE      CODE     ---       #320
      010007C0H   LINE      CODE     ---       #321
      010007C2H   LINE      CODE     ---       #324
      010007C4H   LINE      CODE     ---       #327
      010007C6H   LINE      CODE     ---       #330
      ---         BLOCKEND  ---      ---       LVL=0

      0100024DH   BLOCK     CODE     NEAR LAB  LVL=0
      0100024DH   LINE      CODE     ---       #455
      0100024FH   LINE      CODE     ---       #456
      01000251H   LINE      CODE     ---       #457
      01000253H   LINE      CODE     ---       #470
      01000255H   LINE      CODE     ---       #471
      01000257H   LINE      CODE     ---       #472
      01000259H   LINE      CODE     ---       #473
      0100025AH   LINE      CODE     ---       #475
      0100025CH   LINE      CODE     ---       #481
      0100025EH   LINE      CODE     ---       #482
      0100025FH   LINE      CODE     ---       #483
      01000261H   LINE      CODE     ---       #484
      01000262H   LINE      CODE     ---       #485
      01000264H   LINE      CODE     ---       #486
      01000266H   LINE      CODE     ---       #487
      01000267H   LINE      CODE     ---       #488
      01000268H   LINE      CODE     ---       #489
      0100026AH   LINE      CODE     ---       #494
      0100026CH   LINE      CODE     ---       #496
      0100026DH   LINE      CODE     ---       #498
      0100026FH   LINE      CODE     ---       #500
      01000270H   LINE      CODE     ---       #502
      01000272H   LINE      CODE     ---       #504
      01000273H   LINE      CODE     ---       #506
      01000275H   LINE      CODE     ---       #508
      01000276H   LINE      CODE     ---       #510
      01000278H   LINE      CODE     ---       #512
      01000279H   LINE      CODE     ---       #514
      0100027BH   LINE      CODE     ---       #516
      0100027CH   LINE      CODE     ---       #518
      0100027EH   LINE      CODE     ---       #520
      0100027FH   LINE      CODE     ---       #524
      01000282H   LINE      CODE     ---       #526
      01000285H   LINE      CODE     ---       #528
      01000288H   LINE      CODE     ---       #532
      01000289H   LINE      CODE     ---       #534
      0100028AH   LINE      CODE     ---       #557
      0100028BH   LINE      CODE     ---       #558
      0100028DH   LINE      CODE     ---       #559
      0100028FH   LINE      CODE     ---       #565
      01000291H   LINE      CODE     ---       #566
      01000293H   LINE      CODE     ---       #567
      01000295H   LINE      CODE     ---       #568
      01000296H   LINE      CODE     ---       #569
      01000297H   LINE      CODE     ---       #570
LX51 LINKER/LOCATER V4.34a                                                            05/05/2009  17:03:41  PAGE 21


      01000298H   LINE      CODE     ---       #571
      01000299H   LINE      CODE     ---       #572
      0100029AH   LINE      CODE     ---       #573
      0100029BH   LINE      CODE     ---       #574
      0100029DH   LINE      CODE     ---       #575
      010002A0H   LINE      CODE     ---       #576
      010002A1H   LINE      CODE     ---       #577
      010002A4H   LINE      CODE     ---       #582
      010002A7H   LINE      CODE     ---       #583
      010002AAH   LINE      CODE     ---       #586
      010002ACH   LINE      CODE     ---       #592
      010002AEH   LINE      CODE     ---       #593
      010002B0H   LINE      CODE     ---       #594
      010002B2H   LINE      CODE     ---       #595
      010002B4H   LINE      CODE     ---       #597
      010002B6H   LINE      CODE     ---       #598
      010002B8H   LINE      CODE     ---       #599
      010002BAH   LINE      CODE     ---       #604
      010002BCH   LINE      CODE     ---       #605
      010002BDH   LINE      CODE     ---       #606
      010002BFH   LINE      CODE     ---       #607
      010002C1H   LINE      CODE     ---       #608
      010002C2H   LINE      CODE     ---       #610
      010002C4H   LINE      CODE     ---       #616
      010002C6H   LINE      CODE     ---       #617
      010002C8H   LINE      CODE     ---       #622
      010002CAH   LINE      CODE     ---       #623
      010002CCH   LINE      CODE     ---       #624
      010002CDH   LINE      CODE     ---       #625
      010002CEH   LINE      CODE     ---       #626
      010002CFH   LINE      CODE     ---       #627
      010002D1H   LINE      CODE     ---       #628
      010002D2H   LINE      CODE     ---       #629
      010002D4H   LINE      CODE     ---       #630
      010002D6H   LINE      CODE     ---       #631
      010002D7H   LINE      CODE     ---       #632
      010002D8H   LINE      CODE     ---       #633
      010002DAH   LINE      CODE     ---       #638
      010002DCH   LINE      CODE     ---       #652
      010002DEH   LINE      CODE     ---       #654
      010002DFH   LINE      CODE     ---       #656
      010002E1H   LINE      CODE     ---       #658
      010002E2H   LINE      CODE     ---       #660
      010002E4H   LINE      CODE     ---       #662
      010002E5H   LINE      CODE     ---       #664
      010002E7H   LINE      CODE     ---       #666
      010002E8H   LINE      CODE     ---       #668
      010002EAH   LINE      CODE     ---       #670
      010002EBH   LINE      CODE     ---       #672
      010002EDH   LINE      CODE     ---       #674
      010002EEH   LINE      CODE     ---       #676
      010002F0H   LINE      CODE     ---       #678
      010002F1H   LINE      CODE     ---       #682
      010002F4H   LINE      CODE     ---       #684
      010002F7H   LINE      CODE     ---       #686
      010002FAH   LINE      CODE     ---       #690
      010002FBH   LINE      CODE     ---       #692
      010002FCH   LINE      CODE     ---       #696
      010002FDH   LINE      CODE     ---       #705
      010002FFH   LINE      CODE     ---       #706
      01000301H   LINE      CODE     ---       #707
      01000302H   LINE      CODE     ---       #708
      01000303H   LINE      CODE     ---       #709
      01000304H   LINE      CODE     ---       #710
      01000305H   LINE      CODE     ---       #711
LX51 LINKER/LOCATER V4.34a                                                            05/05/2009  17:03:41  PAGE 22


      01000307H   LINE      CODE     ---       #712
      0100030AH   LINE      CODE     ---       #717
      0100030DH   LINE      CODE     ---       #722
      0100030EH   LINE      CODE     ---       #723
      01000310H   LINE      CODE     ---       #724
      01000312H   LINE      CODE     ---       #730
      01000313H   LINE      CODE     ---       #731
      01000315H   LINE      CODE     ---       #732
      01000316H   LINE      CODE     ---       #733
      01000317H   LINE      CODE     ---       #734
      01000319H   LINE      CODE     ---       #735
      0100031AH   LINE      CODE     ---       #736
      0100031CH   LINE      CODE     ---       #737
      0100031DH   LINE      CODE     ---       #738
      0100031FH   LINE      CODE     ---       #739
      01000320H   LINE      CODE     ---       #740
      01000323H   LINE      CODE     ---       #741
      01000325H   LINE      CODE     ---       #742
      01000327H   LINE      CODE     ---       #743
      01000329H   LINE      CODE     ---       #744
      0100032BH   LINE      CODE     ---       #745
      0100032DH   LINE      CODE     ---       #746
      0100032FH   LINE      CODE     ---       #747
      01000330H   LINE      CODE     ---       #748
      01000331H   LINE      CODE     ---       #751
      01000333H   LINE      CODE     ---       #752
      01000335H   LINE      CODE     ---       #753
      01000337H   LINE      CODE     ---       #754
      01000339H   LINE      CODE     ---       #756
      0100033AH   LINE      CODE     ---       #757
      0100033CH   LINE      CODE     ---       #758
      0100033EH   LINE      CODE     ---       #759
      01000340H   LINE      CODE     ---       #765
      01000342H   LINE      CODE     ---       #766
      01000343H   LINE      CODE     ---       #767
      01000345H   LINE      CODE     ---       #768
      01000347H   LINE      CODE     ---       #769
      01000349H   LINE      CODE     ---       #770
      0100034BH   LINE      CODE     ---       #771
      0100034CH   LINE      CODE     ---       #772
      0100034EH   LINE      CODE     ---       #773
      0100034FH   LINE      CODE     ---       #774
      01000351H   LINE      CODE     ---       #780
      01000353H   LINE      CODE     ---       #785
      01000355H   LINE      CODE     ---       #786
      01000357H   LINE      CODE     ---       #787
      01000358H   LINE      CODE     ---       #788
      01000359H   LINE      CODE     ---       #789
      0100035AH   LINE      CODE     ---       #790
      0100035CH   LINE      CODE     ---       #791
      0100035DH   LINE      CODE     ---       #792
      0100035FH   LINE      CODE     ---       #793
      01000361H   LINE      CODE     ---       #794
      01000362H   LINE      CODE     ---       #795
      01000363H   LINE      CODE     ---       #796
      01000365H   LINE      CODE     ---       #801
      01000367H   LINE      CODE     ---       #806
      01000369H   LINE      CODE     ---       #807
      0100036AH   LINE      CODE     ---       #808
      0100036CH   LINE      CODE     ---       #809
      0100036EH   LINE      CODE     ---       #816
      01000370H   LINE      CODE     ---       #818
      01000371H   LINE      CODE     ---       #820
      01000373H   LINE      CODE     ---       #822
      01000374H   LINE      CODE     ---       #824
LX51 LINKER/LOCATER V4.34a                                                            05/05/2009  17:03:41  PAGE 23


      01000376H   LINE      CODE     ---       #826
      01000377H   LINE      CODE     ---       #828
      01000379H   LINE      CODE     ---       #830
      0100037AH   LINE      CODE     ---       #832
      0100037CH   LINE      CODE     ---       #834
      0100037DH   LINE      CODE     ---       #836
      0100037FH   LINE      CODE     ---       #838
      01000380H   LINE      CODE     ---       #840
      01000382H   LINE      CODE     ---       #842
      01000383H   LINE      CODE     ---       #846
      01000386H   LINE      CODE     ---       #848
      01000389H   LINE      CODE     ---       #850
      0100038CH   LINE      CODE     ---       #854
      0100038DH   LINE      CODE     ---       #856
      0100038EH   LINE      CODE     ---       #881
      ---         BLOCKEND  ---      ---       LVL=0

      ---         MODULE    ---      ---       ADC
      0100075FH   PUBLIC    CODE     NEAR LAB  _ADC_INIT
      01000744H   PUBLIC    CODE     NEAR LAB  _ADC_READ
      000000D0H.6 SFRSYM    DATA     BIT       AC
      000000E0H   SFRSYM    DATA     BYTE      ACC
      000000A1H   SFRSYM    DATA     BYTE      ADCCON
      000000A2H   SFRSYM    DATA     BYTE      ADCDATAH
      000000A3H   SFRSYM    DATA     BYTE      ADCDATAL
      000000A4H   SFRSYM    DATA     BYTE      ADCSTATIC
      000000F0H   SFRSYM    DATA     BYTE      B
      000000C8H.1 SFRSYM    DATA     BIT       C_T2
      000000A0H.6 SFRSYM    DATA     BIT       CE
      000000B6H   SFRSYM    DATA     BYTE      CK_CTRL
      0000008EH   SFRSYM    DATA     BYTE      CKCON
      000000A0H.1 SFRSYM    DATA     BIT       CLK1
      000000A0H.5 SFRSYM    DATA     BIT       CLK2
      000000C8H   SFRSYM    DATA     BIT       CP_RL2
      000000C8H   SFRSYM    DATA     BIT       CPRL2
      000000A0H.3 SFRSYM    DATA     BIT       CS
      000000C8H.1 SFRSYM    DATA     BIT       CT2
      000000D0H.7 SFRSYM    DATA     BIT       CY
      000000A0H   SFRSYM    DATA     BIT       DATA?
      000000BEH   SFRSYM    DATA     BYTE      DEV_OFFSET
      00000090H.2 SFRSYM    DATA     BIT       DIN0
      00000090H   SFRSYM    DATA     BIT       DIO0
      00000090H.1 SFRSYM    DATA     BIT       DIO1
      00000080H   SFRSYM    DATA     BIT       DIO2
      00000080H.1 SFRSYM    DATA     BIT       DIO3
      00000080H.2 SFRSYM    DATA     BIT       DIO4
      00000080H.3 SFRSYM    DATA     BIT       DIO5
      00000080H.4 SFRSYM    DATA     BIT       DIO6
      00000080H.5 SFRSYM    DATA     BIT       DIO7
      00000080H.6 SFRSYM    DATA     BIT       DIO8
      00000080H.7 SFRSYM    DATA     BIT       DIO9
      000000A0H.4 SFRSYM    DATA     BIT       DOUT2
      00000083H   SFRSYM    DATA     BYTE      DPH
      00000083H   SFRSYM    DATA     BYTE      DPH0
      00000085H   SFRSYM    DATA     BYTE      DPH1
      00000082H   SFRSYM    DATA     BYTE      DPL
      00000082H   SFRSYM    DATA     BYTE      DPL0
      00000084H   SFRSYM    DATA     BYTE      DPL1
      00000086H   SFRSYM    DATA     BYTE      DPS
      000000A0H.2 SFRSYM    DATA     BIT       DR1
      000000A0H.6 SFRSYM    DATA     BIT       DR2
      000000A0H.6 SFRSYM    DATA     BIT       DR2_CE
      000000A8H.7 SFRSYM    DATA     BIT       EA
      000000D8H   SFRSYM    DATA     BYTE      EICON
      000000E8H   SFRSYM    DATA     BYTE      EIE
LX51 LINKER/LOCATER V4.34a                                                            05/05/2009  17:03:41  PAGE 24


      000000F8H   SFRSYM    DATA     BYTE      EIP
      000000A8H.4 SFRSYM    DATA     BIT       ES
      000000A8H.1 SFRSYM    DATA     BIT       ET0
      000000A8H.3 SFRSYM    DATA     BIT       ET1
      000000A8H.5 SFRSYM    DATA     BIT       ET2
      000000E8H.4 SFRSYM    DATA     BIT       EWDI
      000000A8H   SFRSYM    DATA     BIT       EX0
      000000A8H.2 SFRSYM    DATA     BIT       EX1
      000000E8H   SFRSYM    DATA     BIT       EX2
      000000E8H.1 SFRSYM    DATA     BIT       EX3
      000000E8H.2 SFRSYM    DATA     BIT       EX4
      000000E8H.3 SFRSYM    DATA     BIT       EX5
      000000C8H.3 SFRSYM    DATA     BIT       EXEN2
      000000C8H.6 SFRSYM    DATA     BIT       EXF2
      00000091H   SFRSYM    DATA     BYTE      EXIF
      000000D0H.5 SFRSYM    DATA     BIT       F0
      000000D0H.1 SFRSYM    DATA     BIT       F1
      000000A8H   SFRSYM    DATA     BYTE      IE
      00000088H.1 SFRSYM    DATA     BIT       IE0
      00000088H.3 SFRSYM    DATA     BIT       IE1
      00000080H.3 SFRSYM    DATA     BIT       INT0_N
      00000080H.4 SFRSYM    DATA     BIT       INT1_N
      000000B8H   SFRSYM    DATA     BYTE      IP
      00000088H   SFRSYM    DATA     BIT       IT0
      00000088H.2 SFRSYM    DATA     BIT       IT1
      00000092H   SFRSYM    DATA     BYTE      MPAGE
      000000D0H.2 SFRSYM    DATA     BIT       OV
      000000D0H   SFRSYM    DATA     BIT       P
      00000080H   SFRSYM    DATA     BYTE      P0
      00000080H   SFRSYM    DATA     BIT       P0_0
      00000080H.1 SFRSYM    DATA     BIT       P0_1
      00000080H.2 SFRSYM    DATA     BIT       P0_2
      00000080H.3 SFRSYM    DATA     BIT       P0_3
      00000080H.4 SFRSYM    DATA     BIT       P0_4
      00000080H.5 SFRSYM    DATA     BIT       P0_5
      00000080H.6 SFRSYM    DATA     BIT       P0_6
      00000080H.7 SFRSYM    DATA     BIT       P0_7
      00000095H   SFRSYM    DATA     BYTE      P0_ALT
      00000094H   SFRSYM    DATA     BYTE      P0_DIR
      00000090H   SFRSYM    DATA     BYTE      P1
      00000090H   SFRSYM    DATA     BIT       P1_0
      00000090H.1 SFRSYM    DATA     BIT       P1_1
      00000090H.2 SFRSYM    DATA     BIT       P1_2
      00000097H   SFRSYM    DATA     BYTE      P1_ALT
      00000096H   SFRSYM    DATA     BYTE      P1_DIR
      00000087H   SFRSYM    DATA     BYTE      PCON
      000000B8H.4 SFRSYM    DATA     BIT       PS
      000000D0H   SFRSYM    DATA     BYTE      PSW
      000000B8H.1 SFRSYM    DATA     BIT       PT0
      000000B8H.3 SFRSYM    DATA     BIT       PT1
      000000B8H.5 SFRSYM    DATA     BIT       PT2
      000000F8H.4 SFRSYM    DATA     BIT       PWDI
      00000080H.7 SFRSYM    DATA     BIT       PWM
      000000A9H   SFRSYM    DATA     BYTE      PWMCON
      000000AAH   SFRSYM    DATA     BYTE      PWMDUTY
      000000A0H.7 SFRSYM    DATA     BIT       PWR_UP
      000000B8H   SFRSYM    DATA     BIT       PX0
      000000B8H.2 SFRSYM    DATA     BIT       PX1
      000000F8H   SFRSYM    DATA     BIT       PX2
      000000F8H.1 SFRSYM    DATA     BIT       PX3
      000000F8H.2 SFRSYM    DATA     BIT       PX4
      000000F8H.3 SFRSYM    DATA     BIT       PX5
      000000A0H   SFRSYM    DATA     BYTE      RADIO
      00000098H.2 SFRSYM    DATA     BIT       RB8
      000000CBH   SFRSYM    DATA     BYTE      RCAP2H
LX51 LINKER/LOCATER V4.34a                                                            05/05/2009  17:03:41  PAGE 25


      000000CAH   SFRSYM    DATA     BYTE      RCAP2L
      000000C8H.5 SFRSYM    DATA     BIT       RCLK
      000000ADH   SFRSYM    DATA     BYTE      REGX_CTRL
      000000ACH   SFRSYM    DATA     BYTE      REGX_LSB
      000000ABH   SFRSYM    DATA     BYTE      REGX_MSB
      00000098H.4 SFRSYM    DATA     BIT       REN
      00000098H   SFRSYM    DATA     BIT       RI
      000000D0H.3 SFRSYM    DATA     BIT       RS0
      000000D0H.4 SFRSYM    DATA     BIT       RS1
      000000B1H   SFRSYM    DATA     BYTE      RSTREAS
      00000080H.1 SFRSYM    DATA     BIT       RXD
      00000099H   SFRSYM    DATA     BYTE      SBUF
      00000098H   SFRSYM    DATA     BYTE      SCON
      00000098H.7 SFRSYM    DATA     BIT       SM0
      00000098H.6 SFRSYM    DATA     BIT       SM1
      00000098H.5 SFRSYM    DATA     BIT       SM2
      00000081H   SFRSYM    DATA     BYTE      SP
      0000008FH   SFRSYM    DATA     BYTE      SPC_FNC
      000000B3H   SFRSYM    DATA     BYTE      SPI_CTRL
      000000B2H   SFRSYM    DATA     BYTE      SPI_DATA
      000000B4H   SFRSYM    DATA     BYTE      SPICLK
      00000080H.5 SFRSYM    DATA     BIT       T0
      00000080H.6 SFRSYM    DATA     BIT       T1
      000000BCH   SFRSYM    DATA     BYTE      T1_1V2
      00000090H   SFRSYM    DATA     BIT       T2
      000000BDH   SFRSYM    DATA     BYTE      T2_1V2
      000000C8H   SFRSYM    DATA     BYTE      T2CON
      00000098H.3 SFRSYM    DATA     BIT       TB8
      000000C8H.4 SFRSYM    DATA     BIT       TCLK
      00000088H   SFRSYM    DATA     BYTE      TCON
      000000B7H   SFRSYM    DATA     BYTE      TEST_MODE
      00000088H.5 SFRSYM    DATA     BIT       TF0
      00000088H.7 SFRSYM    DATA     BIT       TF1
      000000C8H.7 SFRSYM    DATA     BIT       TF2
      0000008CH   SFRSYM    DATA     BYTE      TH0
      0000008DH   SFRSYM    DATA     BYTE      TH1
      000000CDH   SFRSYM    DATA     BYTE      TH2
      00000098H.1 SFRSYM    DATA     BIT       TI
      000000B5H   SFRSYM    DATA     BYTE      TICK_DV
      0000008AH   SFRSYM    DATA     BYTE      TL0
      0000008BH   SFRSYM    DATA     BYTE      TL1
      000000CCH   SFRSYM    DATA     BYTE      TL2
      00000089H   SFRSYM    DATA     BYTE      TMOD
      00000088H.4 SFRSYM    DATA     BIT       TR0
      00000088H.6 SFRSYM    DATA     BIT       TR1
      000000C8H.2 SFRSYM    DATA     BIT       TR2
      00000080H.2 SFRSYM    DATA     BIT       TXD
      000000D8H.3 SFRSYM    DATA     BIT       WDTI
      0100004BH   SYMBOL    CODE     NEAR LAB  ?C0002
      0100001BH   SYMBOL    CODE     NEAR LAB  ?C0004
      01000023H   SYMBOL    CODE     NEAR LAB  ?C0005
      01000037H   SYMBOL    CODE     NEAR LAB  ?C0006
      0100004FH   SYMBOL    CODE     NEAR LAB  ?C0007
      01000753H   SYMBOL    CODE     NEAR LAB  ?C0011
      01000758H   SYMBOL    CODE     NEAR LAB  ?C0012
      0100075EH   SYMBOL    CODE     NEAR LAB  ?C0013
      01000003H   SYMBOL    CODE     NEAR LAB  P_ADC_READ

      0100075FH   BLOCK     CODE     NEAR LAB  LVL=0
      0100075FH   LINE      CODE     ---       #206
      01000762H   LINE      CODE     ---       #209
      01000763H   LINE      CODE     ---       #210
      01000765H   LINE      CODE     ---       #213
      01000768H   LINE      CODE     ---       #216
      01000769H   LINE      CODE     ---       #217
LX51 LINKER/LOCATER V4.34a                                                            05/05/2009  17:03:41  PAGE 26


      0100076BH   LINE      CODE     ---       #220
      0100076EH   LINE      CODE     ---       #223
      0100076FH   LINE      CODE     ---       #224
      01000771H   LINE      CODE     ---       #227
      ---         BLOCKEND  ---      ---       LVL=0

      01000003H   BLOCK     CODE     NEAR LAB  LVL=0
      01000003H   LINE      CODE     ---       #241
      01000005H   LINE      CODE     ---       #242
      01000007H   LINE      CODE     ---       #243
      01000008H   LINE      CODE     ---       #248
      01000009H   LINE      CODE     ---       #249
      0100000AH   LINE      CODE     ---       #250
      0100000BH   LINE      CODE     ---       #253
      0100000DH   LINE      CODE     ---       #254
      0100000EH   LINE      CODE     ---       #255
      0100000FH   LINE      CODE     ---       #256
      01000011H   LINE      CODE     ---       #257
      01000012H   LINE      CODE     ---       #258
      01000014H   LINE      CODE     ---       #259
      01000015H   LINE      CODE     ---       #260
      01000017H   LINE      CODE     ---       #261
      01000019H   LINE      CODE     ---       #262
      0100001BH   LINE      CODE     ---       #271
      0100001DH   LINE      CODE     ---       #272
      0100001FH   LINE      CODE     ---       #273
      01000021H   LINE      CODE     ---       #276
      01000023H   LINE      CODE     ---       #283
      01000025H   LINE      CODE     ---       #284
      01000026H   LINE      CODE     ---       #285
      01000029H   LINE      CODE     ---       #286
      0100002AH   LINE      CODE     ---       #287
      0100002BH   LINE      CODE     ---       #288
      0100002DH   LINE      CODE     ---       #291
      0100002FH   LINE      CODE     ---       #292
      01000030H   LINE      CODE     ---       #293
      01000031H   LINE      CODE     ---       #294
      01000032H   LINE      CODE     ---       #295
      01000034H   LINE      CODE     ---       #296
      01000035H   LINE      CODE     ---       #297
      01000036H   LINE      CODE     ---       #298
      01000037H   LINE      CODE     ---       #305
      01000039H   LINE      CODE     ---       #306
      0100003AH   LINE      CODE     ---       #307
      0100003DH   LINE      CODE     ---       #308
      0100003EH   LINE      CODE     ---       #309
      0100003FH   LINE      CODE     ---       #310
      01000041H   LINE      CODE     ---       #313
      01000043H   LINE      CODE     ---       #314
      01000044H   LINE      CODE     ---       #315
      01000046H   LINE      CODE     ---       #316
      01000047H   LINE      CODE     ---       #317
      01000048H   LINE      CODE     ---       #318
      01000049H   LINE      CODE     ---       #319
      0100004AH   LINE      CODE     ---       #320
      0100004BH   LINE      CODE     ---       #326
      0100004DH   LINE      CODE     ---       #327
      0100004FH   LINE      CODE     ---       #331
      ---         BLOCKEND  ---      ---       LVL=0

      01000744H   BLOCK     CODE     NEAR LAB  LVL=0
      01000744H   LINE      CODE     ---       #347
      01000745H   LINE      CODE     ---       #348
      01000746H   LINE      CODE     ---       #349
      01000747H   LINE      CODE     ---       #353
LX51 LINKER/LOCATER V4.34a                                                            05/05/2009  17:03:41  PAGE 27


      0100074AH   LINE      CODE     ---       #356
      0100074BH   LINE      CODE     ---       #357
      0100074DH   LINE      CODE     ---       #360
      01000750H   LINE      CODE     ---       #361
      01000753H   LINE      CODE     ---       #366
      01000755H   LINE      CODE     ---       #367
      01000758H   LINE      CODE     ---       #373
      0100075BH   LINE      CODE     ---       #377
      0100075EH   LINE      CODE     ---       #383
      ---         BLOCKEND  ---      ---       LVL=0

      ---         MODULE    ---      ---       UTILS
      00000043H   PUBLIC    DATA     BYTE      ?_STRNCPY?BYTE
      0100052AH   PUBLIC    CODE     NEAR LAB  _MDELAY
      010007A1H   PUBLIC    CODE     NEAR LAB  _STORE_CPU_RATE
      01000573H   PUBLIC    CODE     NEAR LAB  _STRNCPY
      01000772H   PUBLIC    CODE     NEAR LAB  _WDT_LOAD
      00000056H   PUBLIC    DATA     BYTE      MHZ
      000000D0H.6 SFRSYM    DATA     BIT       AC
      000000E0H   SFRSYM    DATA     BYTE      ACC
      000000A1H   SFRSYM    DATA     BYTE      ADCCON
      000000A2H   SFRSYM    DATA     BYTE      ADCDATAH
      000000A3H   SFRSYM    DATA     BYTE      ADCDATAL
      000000A4H   SFRSYM    DATA     BYTE      ADCSTATIC
      000000F0H   SFRSYM    DATA     BYTE      B
      000000C8H.1 SFRSYM    DATA     BIT       C_T2
      000000A0H.6 SFRSYM    DATA     BIT       CE
      000000B6H   SFRSYM    DATA     BYTE      CK_CTRL
      0000008EH   SFRSYM    DATA     BYTE      CKCON
      000000A0H.1 SFRSYM    DATA     BIT       CLK1
      000000A0H.5 SFRSYM    DATA     BIT       CLK2
      000000C8H   SFRSYM    DATA     BIT       CP_RL2
      000000C8H   SFRSYM    DATA     BIT       CPRL2
      000000A0H.3 SFRSYM    DATA     BIT       CS
      000000C8H.1 SFRSYM    DATA     BIT       CT2
      000000D0H.7 SFRSYM    DATA     BIT       CY
      000000A0H   SFRSYM    DATA     BIT       DATA?
      000000BEH   SFRSYM    DATA     BYTE      DEV_OFFSET
      00000090H.2 SFRSYM    DATA     BIT       DIN0
      00000090H   SFRSYM    DATA     BIT       DIO0
      00000090H.1 SFRSYM    DATA     BIT       DIO1
      00000080H   SFRSYM    DATA     BIT       DIO2
      00000080H.1 SFRSYM    DATA     BIT       DIO3
      00000080H.2 SFRSYM    DATA     BIT       DIO4
      00000080H.3 SFRSYM    DATA     BIT       DIO5
      00000080H.4 SFRSYM    DATA     BIT       DIO6
      00000080H.5 SFRSYM    DATA     BIT       DIO7
      00000080H.6 SFRSYM    DATA     BIT       DIO8
      00000080H.7 SFRSYM    DATA     BIT       DIO9
      000000A0H.4 SFRSYM    DATA     BIT       DOUT2
      00000083H   SFRSYM    DATA     BYTE      DPH
      00000083H   SFRSYM    DATA     BYTE      DPH0
      00000085H   SFRSYM    DATA     BYTE      DPH1
      00000082H   SFRSYM    DATA     BYTE      DPL
      00000082H   SFRSYM    DATA     BYTE      DPL0
      00000084H   SFRSYM    DATA     BYTE      DPL1
      00000086H   SFRSYM    DATA     BYTE      DPS
      000000A0H.2 SFRSYM    DATA     BIT       DR1
      000000A0H.6 SFRSYM    DATA     BIT       DR2
      000000A0H.6 SFRSYM    DATA     BIT       DR2_CE
      000000A8H.7 SFRSYM    DATA     BIT       EA
      000000D8H   SFRSYM    DATA     BYTE      EICON
      000000E8H   SFRSYM    DATA     BYTE      EIE
      000000F8H   SFRSYM    DATA     BYTE      EIP
      000000A8H.4 SFRSYM    DATA     BIT       ES
LX51 LINKER/LOCATER V4.34a                                                            05/05/2009  17:03:41  PAGE 28


      000000A8H.1 SFRSYM    DATA     BIT       ET0
      000000A8H.3 SFRSYM    DATA     BIT       ET1
      000000A8H.5 SFRSYM    DATA     BIT       ET2
      000000E8H.4 SFRSYM    DATA     BIT       EWDI
      000000A8H   SFRSYM    DATA     BIT       EX0
      000000A8H.2 SFRSYM    DATA     BIT       EX1
      000000E8H   SFRSYM    DATA     BIT       EX2
      000000E8H.1 SFRSYM    DATA     BIT       EX3
      000000E8H.2 SFRSYM    DATA     BIT       EX4
      000000E8H.3 SFRSYM    DATA     BIT       EX5
      000000C8H.3 SFRSYM    DATA     BIT       EXEN2
      000000C8H.6 SFRSYM    DATA     BIT       EXF2
      00000091H   SFRSYM    DATA     BYTE      EXIF
      000000D0H.5 SFRSYM    DATA     BIT       F0
      000000D0H.1 SFRSYM    DATA     BIT       F1
      000000A8H   SFRSYM    DATA     BYTE      IE
      00000088H.1 SFRSYM    DATA     BIT       IE0
      00000088H.3 SFRSYM    DATA     BIT       IE1
      00000080H.3 SFRSYM    DATA     BIT       INT0_N
      00000080H.4 SFRSYM    DATA     BIT       INT1_N
      000000B8H   SFRSYM    DATA     BYTE      IP
      00000088H   SFRSYM    DATA     BIT       IT0
      00000088H.2 SFRSYM    DATA     BIT       IT1
      00000092H   SFRSYM    DATA     BYTE      MPAGE
      000000D0H.2 SFRSYM    DATA     BIT       OV
      000000D0H   SFRSYM    DATA     BIT       P
      00000080H   SFRSYM    DATA     BYTE      P0
      00000080H   SFRSYM    DATA     BIT       P0_0
      00000080H.1 SFRSYM    DATA     BIT       P0_1
      00000080H.2 SFRSYM    DATA     BIT       P0_2
      00000080H.3 SFRSYM    DATA     BIT       P0_3
      00000080H.4 SFRSYM    DATA     BIT       P0_4
      00000080H.5 SFRSYM    DATA     BIT       P0_5
      00000080H.6 SFRSYM    DATA     BIT       P0_6
      00000080H.7 SFRSYM    DATA     BIT       P0_7
      00000095H   SFRSYM    DATA     BYTE      P0_ALT
      00000094H   SFRSYM    DATA     BYTE      P0_DIR
      00000090H   SFRSYM    DATA     BYTE      P1
      00000090H   SFRSYM    DATA     BIT       P1_0
      00000090H.1 SFRSYM    DATA     BIT       P1_1
      00000090H.2 SFRSYM    DATA     BIT       P1_2
      00000097H   SFRSYM    DATA     BYTE      P1_ALT
      00000096H   SFRSYM    DATA     BYTE      P1_DIR
      00000087H   SFRSYM    DATA     BYTE      PCON
      000000B8H.4 SFRSYM    DATA     BIT       PS
      000000D0H   SFRSYM    DATA     BYTE      PSW
      000000B8H.1 SFRSYM    DATA     BIT       PT0
      000000B8H.3 SFRSYM    DATA     BIT       PT1
      000000B8H.5 SFRSYM    DATA     BIT       PT2
      000000F8H.4 SFRSYM    DATA     BIT       PWDI
      00000080H.7 SFRSYM    DATA     BIT       PWM
      000000A9H   SFRSYM    DATA     BYTE      PWMCON
      000000AAH   SFRSYM    DATA     BYTE      PWMDUTY
      000000A0H.7 SFRSYM    DATA     BIT       PWR_UP
      000000B8H   SFRSYM    DATA     BIT       PX0
      000000B8H.2 SFRSYM    DATA     BIT       PX1
      000000F8H   SFRSYM    DATA     BIT       PX2
      000000F8H.1 SFRSYM    DATA     BIT       PX3
      000000F8H.2 SFRSYM    DATA     BIT       PX4
      000000F8H.3 SFRSYM    DATA     BIT       PX5
      000000A0H   SFRSYM    DATA     BYTE      RADIO
      00000098H.2 SFRSYM    DATA     BIT       RB8
      000000CBH   SFRSYM    DATA     BYTE      RCAP2H
      000000CAH   SFRSYM    DATA     BYTE      RCAP2L
      000000C8H.5 SFRSYM    DATA     BIT       RCLK
LX51 LINKER/LOCATER V4.34a                                                            05/05/2009  17:03:41  PAGE 29


      000000ADH   SFRSYM    DATA     BYTE      REGX_CTRL
      000000ACH   SFRSYM    DATA     BYTE      REGX_LSB
      000000ABH   SFRSYM    DATA     BYTE      REGX_MSB
      00000098H.4 SFRSYM    DATA     BIT       REN
      00000098H   SFRSYM    DATA     BIT       RI
      000000D0H.3 SFRSYM    DATA     BIT       RS0
      000000D0H.4 SFRSYM    DATA     BIT       RS1
      000000B1H   SFRSYM    DATA     BYTE      RSTREAS
      00000080H.1 SFRSYM    DATA     BIT       RXD
      00000099H   SFRSYM    DATA     BYTE      SBUF
      00000098H   SFRSYM    DATA     BYTE      SCON
      00000098H.7 SFRSYM    DATA     BIT       SM0
      00000098H.6 SFRSYM    DATA     BIT       SM1
      00000098H.5 SFRSYM    DATA     BIT       SM2
      00000081H   SFRSYM    DATA     BYTE      SP
      0000008FH   SFRSYM    DATA     BYTE      SPC_FNC
      000000B3H   SFRSYM    DATA     BYTE      SPI_CTRL
      000000B2H   SFRSYM    DATA     BYTE      SPI_DATA
      000000B4H   SFRSYM    DATA     BYTE      SPICLK
      00000080H.5 SFRSYM    DATA     BIT       T0
      00000080H.6 SFRSYM    DATA     BIT       T1
      000000BCH   SFRSYM    DATA     BYTE      T1_1V2
      00000090H   SFRSYM    DATA     BIT       T2
      000000BDH   SFRSYM    DATA     BYTE      T2_1V2
      000000C8H   SFRSYM    DATA     BYTE      T2CON
      00000098H.3 SFRSYM    DATA     BIT       TB8
      000000C8H.4 SFRSYM    DATA     BIT       TCLK
      00000088H   SFRSYM    DATA     BYTE      TCON
      000000B7H   SFRSYM    DATA     BYTE      TEST_MODE
      00000088H.5 SFRSYM    DATA     BIT       TF0
      00000088H.7 SFRSYM    DATA     BIT       TF1
      000000C8H.7 SFRSYM    DATA     BIT       TF2
      0000008CH   SFRSYM    DATA     BYTE      TH0
      0000008DH   SFRSYM    DATA     BYTE      TH1
      000000CDH   SFRSYM    DATA     BYTE      TH2
      00000098H.1 SFRSYM    DATA     BIT       TI
      000000B5H   SFRSYM    DATA     BYTE      TICK_DV
      0000008AH   SFRSYM    DATA     BYTE      TL0
      0000008BH   SFRSYM    DATA     BYTE      TL1
      000000CCH   SFRSYM    DATA     BYTE      TL2
      00000089H   SFRSYM    DATA     BYTE      TMOD
      00000088H.4 SFRSYM    DATA     BIT       TR0
      00000088H.6 SFRSYM    DATA     BIT       TR1
      000000C8H.2 SFRSYM    DATA     BIT       TR2
      00000080H.2 SFRSYM    DATA     BIT       TXD
      000000D8H.3 SFRSYM    DATA     BIT       WDTI
      0000006EH   SYMBOL    DATA     BYTE      ?_MDELAY?BYTE
      0100054BH   SYMBOL    CODE     NEAR LAB  ?C0002
      0100056BH   SYMBOL    CODE     NEAR LAB  ?C0004
      01000557H   SYMBOL    CODE     NEAR LAB  ?C0005
      01000572H   SYMBOL    CODE     NEAR LAB  ?C0008
      01000776H   SYMBOL    CODE     NEAR LAB  ?C0009
      0100077BH   SYMBOL    CODE     NEAR LAB  ?C0010
      0100057CH   SYMBOL    CODE     NEAR LAB  ?C0012
      010005B6H   SYMBOL    CODE     NEAR LAB  ?C0015
      01000569H   SYMBOL    CODE     NEAR LAB  ?C0016
      01000570H   SYMBOL    CODE     NEAR LAB  ?C0017
      01000597H   SYMBOL    CODE     NEAR LAB  ?C0018
      010005A9H   SYMBOL    CODE     NEAR LAB  ?C0019
      010005B4H   SYMBOL    CODE     NEAR LAB  ?C0020
      00000046H   SYMBOL    DATA     BYTE      DST?347
      0000006EH   SYMBOL    DATA     BYTE      MSEC?141
      00000049H   SYMBOL    DATA     BYTE      N?348
      00000043H   SYMBOL    DATA     BYTE      SRC?346

LX51 LINKER/LOCATER V4.34a                                                            05/05/2009  17:03:41  PAGE 30


      010007A1H   BLOCK     CODE     NEAR LAB  LVL=0
      010007A1H   LINE      CODE     ---       #231
      010007A2H   LINE      CODE     ---       #232
      010007A3H   LINE      CODE     ---       #233
      010007A5H   LINE      CODE     ---       #234
      010007A7H   LINE      CODE     ---       #235
      010007A9H   LINE      CODE     ---       #236
      010007ABH   LINE      CODE     ---       #237
      010007ADH   LINE      CODE     ---       #240
      ---         BLOCKEND  ---      ---       LVL=0

      0100052AH   BLOCK     CODE     NEAR LAB  LVL=0
      0100052AH   LINE      CODE     ---       #256
      0100052CH   LINE      CODE     ---       #257
      0100052EH   LINE      CODE     ---       #263
      0100052FH   LINE      CODE     ---       #264
      01000531H   LINE      CODE     ---       #265
      01000532H   LINE      CODE     ---       #266
      01000533H   LINE      CODE     ---       #267
      01000534H   LINE      CODE     ---       #268
      01000536H   LINE      CODE     ---       #269
      01000538H   LINE      CODE     ---       #270
      0100053AH   LINE      CODE     ---       #271
      0100053CH   LINE      CODE     ---       #272
      0100053FH   LINE      CODE     ---       #273
      01000540H   LINE      CODE     ---       #274
      01000542H   LINE      CODE     ---       #275
      01000543H   LINE      CODE     ---       #276
      01000544H   LINE      CODE     ---       #277
      01000545H   LINE      CODE     ---       #278
      01000548H   LINE      CODE     ---       #283
      01000549H   LINE      CODE     ---       #284
      0100054AH   LINE      CODE     ---       #285
      0100054BH   LINE      CODE     ---       #287
      0100054CH   LINE      CODE     ---       #288
      0100054DH   LINE      CODE     ---       #289
      0100054FH   LINE      CODE     ---       #290
      01000550H   LINE      CODE     ---       #291
      01000552H   LINE      CODE     ---       #292
      01000554H   LINE      CODE     ---       #296
      01000555H   LINE      CODE     ---       #297
      01000556H   LINE      CODE     ---       #298
      01000557H   LINE      CODE     ---       #300
      01000558H   LINE      CODE     ---       #301
      01000559H   LINE      CODE     ---       #302
      0100055AH   LINE      CODE     ---       #303
      0100055BH   LINE      CODE     ---       #304
      0100055DH   LINE      CODE     ---       #305
      0100055EH   LINE      CODE     ---       #306
      0100055FH   LINE      CODE     ---       #307
      01000561H   LINE      CODE     ---       #308
      01000562H   LINE      CODE     ---       #309
      01000564H   LINE      CODE     ---       #310
      01000565H   LINE      CODE     ---       #311
      01000568H   LINE      CODE     ---       #312
      01000569H   LINE      CODE     ---       #314
      0100056BH   LINE      CODE     ---       #316
      0100056CH   LINE      CODE     ---       #317
      0100056FH   LINE      CODE     ---       #318
      01000570H   LINE      CODE     ---       #320
      01000572H   LINE      CODE     ---       #325
      ---         BLOCKEND  ---      ---       LVL=0

      01000772H   BLOCK     CODE     NEAR LAB  LVL=0
      01000772H   LINE      CODE     ---       #341
LX51 LINKER/LOCATER V4.34a                                                            05/05/2009  17:03:41  PAGE 31


      01000774H   LINE      CODE     ---       #342
      01000776H   LINE      CODE     ---       #348
      01000778H   LINE      CODE     ---       #349
      0100077BH   LINE      CODE     ---       #354
      0100077DH   LINE      CODE     ---       #357
      0100077EH   LINE      CODE     ---       #358
      01000780H   LINE      CODE     ---       #361
      01000783H   LINE      CODE     ---       #364
      ---         BLOCKEND  ---      ---       LVL=0

      01000573H   BLOCK     CODE     NEAR LAB  LVL=0
      01000573H   LINE      CODE     ---       #380
      01000575H   LINE      CODE     ---       #381
      01000577H   LINE      CODE     ---       #382
      01000579H   LINE      CODE     ---       #389
      0100057AH   LINE      CODE     ---       #390
      0100057BH   LINE      CODE     ---       #391
      0100057CH   LINE      CODE     ---       #393
      0100057DH   LINE      CODE     ---       #394
      0100057EH   LINE      CODE     ---       #395
      01000580H   LINE      CODE     ---       #396
      01000582H   LINE      CODE     ---       #397
      01000584H   LINE      CODE     ---       #398
      01000585H   LINE      CODE     ---       #399
      01000586H   LINE      CODE     ---       #400
      01000588H   LINE      CODE     ---       #401
      01000589H   LINE      CODE     ---       #402
      0100058BH   LINE      CODE     ---       #405
      0100058DH   LINE      CODE     ---       #406
      0100058FH   LINE      CODE     ---       #407
      01000591H   LINE      CODE     ---       #408
      01000593H   LINE      CODE     ---       #409
      01000595H   LINE      CODE     ---       #410
      01000597H   LINE      CODE     ---       #412
      01000598H   LINE      CODE     ---       #413
      01000599H   LINE      CODE     ---       #414
      0100059CH   LINE      CODE     ---       #415
      0100059DH   LINE      CODE     ---       #416
      0100059FH   LINE      CODE     ---       #417
      010005A1H   LINE      CODE     ---       #418
      010005A3H   LINE      CODE     ---       #419
      010005A5H   LINE      CODE     ---       #420
      010005A7H   LINE      CODE     ---       #421
      010005A9H   LINE      CODE     ---       #423
      010005AAH   LINE      CODE     ---       #424
      010005ABH   LINE      CODE     ---       #425
      010005ACH   LINE      CODE     ---       #426
      010005AFH   LINE      CODE     ---       #429
      010005B0H   LINE      CODE     ---       #430
      010005B3H   LINE      CODE     ---       #431
      010005B4H   LINE      CODE     ---       #433
      010005B6H   LINE      CODE     ---       #437
      ---         BLOCKEND  ---      ---       LVL=0

      ---         MODULE    ---      ---       SERIAL
      0100062FH   PUBLIC    CODE     NEAR LAB  _?INT_PRINT
      01000050H   PUBLIC    CODE     NEAR LAB  _PUTC
      010006FCH   PUBLIC    CODE     NEAR LAB  _PUTS
      010007D2H   PUBLIC    CODE     NEAR LAB  _SERIAL_INIT
      010007FAH   PUBLIC    CODE     NEAR LAB  GETC
      000000D0H.6 SFRSYM    DATA     BIT       AC
      000000E0H   SFRSYM    DATA     BYTE      ACC
      000000A1H   SFRSYM    DATA     BYTE      ADCCON
      000000A2H   SFRSYM    DATA     BYTE      ADCDATAH
      000000A3H   SFRSYM    DATA     BYTE      ADCDATAL
LX51 LINKER/LOCATER V4.34a                                                            05/05/2009  17:03:41  PAGE 32


      000000A4H   SFRSYM    DATA     BYTE      ADCSTATIC
      000000F0H   SFRSYM    DATA     BYTE      B
      000000C8H.1 SFRSYM    DATA     BIT       C_T2
      000000A0H.6 SFRSYM    DATA     BIT       CE
      000000B6H   SFRSYM    DATA     BYTE      CK_CTRL
      0000008EH   SFRSYM    DATA     BYTE      CKCON
      000000A0H.1 SFRSYM    DATA     BIT       CLK1
      000000A0H.5 SFRSYM    DATA     BIT       CLK2
      000000C8H   SFRSYM    DATA     BIT       CP_RL2
      000000C8H   SFRSYM    DATA     BIT       CPRL2
      000000A0H.3 SFRSYM    DATA     BIT       CS
      000000C8H.1 SFRSYM    DATA     BIT       CT2
      000000D0H.7 SFRSYM    DATA     BIT       CY
      000000A0H   SFRSYM    DATA     BIT       DATA?
      000000BEH   SFRSYM    DATA     BYTE      DEV_OFFSET
      00000090H.2 SFRSYM    DATA     BIT       DIN0
      00000090H   SFRSYM    DATA     BIT       DIO0
      00000090H.1 SFRSYM    DATA     BIT       DIO1
      00000080H   SFRSYM    DATA     BIT       DIO2
      00000080H.1 SFRSYM    DATA     BIT       DIO3
      00000080H.2 SFRSYM    DATA     BIT       DIO4
      00000080H.3 SFRSYM    DATA     BIT       DIO5
      00000080H.4 SFRSYM    DATA     BIT       DIO6
      00000080H.5 SFRSYM    DATA     BIT       DIO7
      00000080H.6 SFRSYM    DATA     BIT       DIO8
      00000080H.7 SFRSYM    DATA     BIT       DIO9
      000000A0H.4 SFRSYM    DATA     BIT       DOUT2
      00000083H   SFRSYM    DATA     BYTE      DPH
      00000083H   SFRSYM    DATA     BYTE      DPH0
      00000085H   SFRSYM    DATA     BYTE      DPH1
      00000082H   SFRSYM    DATA     BYTE      DPL
      00000082H   SFRSYM    DATA     BYTE      DPL0
      00000084H   SFRSYM    DATA     BYTE      DPL1
      00000086H   SFRSYM    DATA     BYTE      DPS
      000000A0H.2 SFRSYM    DATA     BIT       DR1
      000000A0H.6 SFRSYM    DATA     BIT       DR2
      000000A0H.6 SFRSYM    DATA     BIT       DR2_CE
      000000A8H.7 SFRSYM    DATA     BIT       EA
      000000D8H   SFRSYM    DATA     BYTE      EICON
      000000E8H   SFRSYM    DATA     BYTE      EIE
      000000F8H   SFRSYM    DATA     BYTE      EIP
      000000A8H.4 SFRSYM    DATA     BIT       ES
      000000A8H.1 SFRSYM    DATA     BIT       ET0
      000000A8H.3 SFRSYM    DATA     BIT       ET1
      000000A8H.5 SFRSYM    DATA     BIT       ET2
      000000E8H.4 SFRSYM    DATA     BIT       EWDI
      000000A8H   SFRSYM    DATA     BIT       EX0
      000000A8H.2 SFRSYM    DATA     BIT       EX1
      000000E8H   SFRSYM    DATA     BIT       EX2
      000000E8H.1 SFRSYM    DATA     BIT       EX3
      000000E8H.2 SFRSYM    DATA     BIT       EX4
      000000E8H.3 SFRSYM    DATA     BIT       EX5
      000000C8H.3 SFRSYM    DATA     BIT       EXEN2
      000000C8H.6 SFRSYM    DATA     BIT       EXF2
      00000091H   SFRSYM    DATA     BYTE      EXIF
      000000D0H.5 SFRSYM    DATA     BIT       F0
      000000D0H.1 SFRSYM    DATA     BIT       F1
      000000A8H   SFRSYM    DATA     BYTE      IE
      00000088H.1 SFRSYM    DATA     BIT       IE0
      00000088H.3 SFRSYM    DATA     BIT       IE1
      00000080H.3 SFRSYM    DATA     BIT       INT0_N
      00000080H.4 SFRSYM    DATA     BIT       INT1_N
      000000B8H   SFRSYM    DATA     BYTE      IP
      00000088H   SFRSYM    DATA     BIT       IT0
      00000088H.2 SFRSYM    DATA     BIT       IT1
LX51 LINKER/LOCATER V4.34a                                                            05/05/2009  17:03:41  PAGE 33


      00000092H   SFRSYM    DATA     BYTE      MPAGE
      000000D0H.2 SFRSYM    DATA     BIT       OV
      000000D0H   SFRSYM    DATA     BIT       P
      00000080H   SFRSYM    DATA     BYTE      P0
      00000080H   SFRSYM    DATA     BIT       P0_0
      00000080H.1 SFRSYM    DATA     BIT       P0_1
      00000080H.2 SFRSYM    DATA     BIT       P0_2
      00000080H.3 SFRSYM    DATA     BIT       P0_3
      00000080H.4 SFRSYM    DATA     BIT       P0_4
      00000080H.5 SFRSYM    DATA     BIT       P0_5
      00000080H.6 SFRSYM    DATA     BIT       P0_6
      00000080H.7 SFRSYM    DATA     BIT       P0_7
      00000095H   SFRSYM    DATA     BYTE      P0_ALT
      00000094H   SFRSYM    DATA     BYTE      P0_DIR
      00000090H   SFRSYM    DATA     BYTE      P1
      00000090H   SFRSYM    DATA     BIT       P1_0
      00000090H.1 SFRSYM    DATA     BIT       P1_1
      00000090H.2 SFRSYM    DATA     BIT       P1_2
      00000097H   SFRSYM    DATA     BYTE      P1_ALT
      00000096H   SFRSYM    DATA     BYTE      P1_DIR
      00000087H   SFRSYM    DATA     BYTE      PCON
      000000B8H.4 SFRSYM    DATA     BIT       PS
      000000D0H   SFRSYM    DATA     BYTE      PSW
      000000B8H.1 SFRSYM    DATA     BIT       PT0
      000000B8H.3 SFRSYM    DATA     BIT       PT1
      000000B8H.5 SFRSYM    DATA     BIT       PT2
      000000F8H.4 SFRSYM    DATA     BIT       PWDI
      00000080H.7 SFRSYM    DATA     BIT       PWM
      000000A9H   SFRSYM    DATA     BYTE      PWMCON
      000000AAH   SFRSYM    DATA     BYTE      PWMDUTY
      000000A0H.7 SFRSYM    DATA     BIT       PWR_UP
      000000B8H   SFRSYM    DATA     BIT       PX0
      000000B8H.2 SFRSYM    DATA     BIT       PX1
      000000F8H   SFRSYM    DATA     BIT       PX2
      000000F8H.1 SFRSYM    DATA     BIT       PX3
      000000F8H.2 SFRSYM    DATA     BIT       PX4
      000000F8H.3 SFRSYM    DATA     BIT       PX5
      000000A0H   SFRSYM    DATA     BYTE      RADIO
      00000098H.2 SFRSYM    DATA     BIT       RB8
      000000CBH   SFRSYM    DATA     BYTE      RCAP2H
      000000CAH   SFRSYM    DATA     BYTE      RCAP2L
      000000C8H.5 SFRSYM    DATA     BIT       RCLK
      000000ADH   SFRSYM    DATA     BYTE      REGX_CTRL
      000000ACH   SFRSYM    DATA     BYTE      REGX_LSB
      000000ABH   SFRSYM    DATA     BYTE      REGX_MSB
      00000098H.4 SFRSYM    DATA     BIT       REN
      00000098H   SFRSYM    DATA     BIT       RI
      000000D0H.3 SFRSYM    DATA     BIT       RS0
      000000D0H.4 SFRSYM    DATA     BIT       RS1
      000000B1H   SFRSYM    DATA     BYTE      RSTREAS
      00000080H.1 SFRSYM    DATA     BIT       RXD
      00000099H   SFRSYM    DATA     BYTE      SBUF
      00000098H   SFRSYM    DATA     BYTE      SCON
      00000098H.7 SFRSYM    DATA     BIT       SM0
      00000098H.6 SFRSYM    DATA     BIT       SM1
      00000098H.5 SFRSYM    DATA     BIT       SM2
      00000081H   SFRSYM    DATA     BYTE      SP
      0000008FH   SFRSYM    DATA     BYTE      SPC_FNC
      000000B3H   SFRSYM    DATA     BYTE      SPI_CTRL
      000000B2H   SFRSYM    DATA     BYTE      SPI_DATA
      000000B4H   SFRSYM    DATA     BYTE      SPICLK
      00000080H.5 SFRSYM    DATA     BIT       T0
      00000080H.6 SFRSYM    DATA     BIT       T1
      000000BCH   SFRSYM    DATA     BYTE      T1_1V2
      00000090H   SFRSYM    DATA     BIT       T2
LX51 LINKER/LOCATER V4.34a                                                            05/05/2009  17:03:41  PAGE 34


      000000BDH   SFRSYM    DATA     BYTE      T2_1V2
      000000C8H   SFRSYM    DATA     BYTE      T2CON
      00000098H.3 SFRSYM    DATA     BIT       TB8
      000000C8H.4 SFRSYM    DATA     BIT       TCLK
      00000088H   SFRSYM    DATA     BYTE      TCON
      000000B7H   SFRSYM    DATA     BYTE      TEST_MODE
      00000088H.5 SFRSYM    DATA     BIT       TF0
      00000088H.7 SFRSYM    DATA     BIT       TF1
      000000C8H.7 SFRSYM    DATA     BIT       TF2
      0000008CH   SFRSYM    DATA     BYTE      TH0
      0000008DH   SFRSYM    DATA     BYTE      TH1
      000000CDH   SFRSYM    DATA     BYTE      TH2
      00000098H.1 SFRSYM    DATA     BIT       TI
      000000B5H   SFRSYM    DATA     BYTE      TICK_DV
      0000008AH   SFRSYM    DATA     BYTE      TL0
      0000008BH   SFRSYM    DATA     BYTE      TL1
      000000CCH   SFRSYM    DATA     BYTE      TL2
      00000089H   SFRSYM    DATA     BYTE      TMOD
      00000088H.4 SFRSYM    DATA     BIT       TR0
      00000088H.6 SFRSYM    DATA     BIT       TR1
      000000C8H.2 SFRSYM    DATA     BIT       TR2
      00000080H.2 SFRSYM    DATA     BIT       TXD
      000000D8H.3 SFRSYM    DATA     BIT       WDTI
      0000005DH   SYMBOL    DATA     BYTE      ?_PUTS?BYTE
      010005EFH   SYMBOL    CODE     NEAR LAB  ?C0001
      010005DBH   SYMBOL    CODE     NEAR LAB  ?C0002
      010005E3H   SYMBOL    CODE     NEAR LAB  ?C0003
      010005EBH   SYMBOL    CODE     NEAR LAB  ?C0004
      010005F3H   SYMBOL    CODE     NEAR LAB  ?C0005
      010007E7H   SYMBOL    CODE     NEAR LAB  ?C0007
      010007EAH   SYMBOL    CODE     NEAR LAB  ?C0008
      010007EDH   SYMBOL    CODE     NEAR LAB  ?C0010
      010007F0H   SYMBOL    CODE     NEAR LAB  ?C0011
      010007F4H   SYMBOL    CODE     NEAR LAB  ?C0012
      01000702H   SYMBOL    CODE     NEAR LAB  ?C0014
      01000720H   SYMBOL    CODE     NEAR LAB  ?C0016
      010007FDH   SYMBOL    CODE     NEAR LAB  ?C0017
      0100064FH   SYMBOL    CODE     NEAR LAB  ?C0018
      01000715H   SYMBOL    CODE     NEAR LAB  ?C0020
      010007E5H   SYMBOL    CODE     NEAR LAB  _SERIAL_WRITE
      010005B7H   SYMBOL    CODE     NEAR LAB  _SETUP_BAUDRATE
      0000005DH   SYMBOL    DATA     BYTE      S?544
      010007EDH   SYMBOL    CODE     NEAR LAB  SERIAL_READ

      010005B7H   BLOCK     CODE     NEAR LAB  LVL=0
      010005B7H   LINE      CODE     ---       #221
      010005BAH   LINE      CODE     ---       #224
      010005BCH   LINE      CODE     ---       #227
      010005BEH   LINE      CODE     ---       #230
      010005C0H   LINE      CODE     ---       #233
      010005C3H   LINE      CODE     ---       #237
      010005C6H   LINE      CODE     ---       #240
      010005C9H   LINE      CODE     ---       #244
      010005CAH   LINE      CODE     ---       #245
      010005CCH   LINE      CODE     ---       #246
      010005DBH   LINE      CODE     ---       #258
      010005DEH   LINE      CODE     ---       #261
      010005E1H   LINE      CODE     ---       #264
      010005E3H   LINE      CODE     ---       #270
      010005E6H   LINE      CODE     ---       #273
      010005E9H   LINE      CODE     ---       #276
      010005EBH   LINE      CODE     ---       #283
      010005ECH   LINE      CODE     ---       #284
      010005EDH   LINE      CODE     ---       #285
      010005EEH   LINE      CODE     ---       #286
LX51 LINKER/LOCATER V4.34a                                                            05/05/2009  17:03:41  PAGE 35


      010005EFH   LINE      CODE     ---       #292
      010005F1H   LINE      CODE     ---       #293
      010005F3H   LINE      CODE     ---       #297
      ---         BLOCKEND  ---      ---       LVL=0

      010007D2H   BLOCK     CODE     NEAR LAB  LVL=0
      010007D2H   LINE      CODE     ---       #319
      010007D5H   LINE      CODE     ---       #322
      010007D8H   LINE      CODE     ---       #325
      010007DBH   LINE      CODE     ---       #328
      ---         BLOCKEND  ---      ---       LVL=0

      010007E5H   BLOCK     CODE     NEAR LAB  LVL=0
      010007E5H   LINE      CODE     ---       #345
      010007E7H   LINE      CODE     ---       #349
      010007EAH   LINE      CODE     ---       #354
      010007ECH   LINE      CODE     ---       #357
      ---         BLOCKEND  ---      ---       LVL=0

      010007EDH   BLOCK     CODE     NEAR LAB  LVL=0
      010007EDH   LINE      CODE     ---       #375
      010007F0H   LINE      CODE     ---       #380
      010007F2H   LINE      CODE     ---       #383
      010007F4H   LINE      CODE     ---       #387
      ---         BLOCKEND  ---      ---       LVL=0

      01000050H   BLOCK     CODE     NEAR LAB  LVL=0
      01000050H   LINE      CODE     ---       #402
      ---         BLOCKEND  ---      ---       LVL=0

      010006FCH   BLOCK     CODE     NEAR LAB  LVL=0
      010006FCH   LINE      CODE     ---       #413
      010006FEH   LINE      CODE     ---       #414
      01000700H   LINE      CODE     ---       #415
      01000702H   LINE      CODE     ---       #421
      01000704H   LINE      CODE     ---       #422
      01000706H   LINE      CODE     ---       #423
      01000708H   LINE      CODE     ---       #424
      0100070BH   LINE      CODE     ---       #425
      0100070DH   LINE      CODE     ---       #428
      0100070FH   LINE      CODE     ---       #429
      01000711H   LINE      CODE     ---       #430
      01000713H   LINE      CODE     ---       #431
      01000715H   LINE      CODE     ---       #433
      01000716H   LINE      CODE     ---       #434
      01000717H   LINE      CODE     ---       #435
      0100071AH   LINE      CODE     ---       #436
      0100071BH   LINE      CODE     ---       #437
      0100071EH   LINE      CODE     ---       #438
      01000720H   LINE      CODE     ---       #442
      ---         BLOCKEND  ---      ---       LVL=0

      010007FAH   BLOCK     CODE     NEAR LAB  LVL=0
      010007FAH   LINE      CODE     ---       #456
      010007FDH   LINE      CODE     ---       #460
      ---         BLOCKEND  ---      ---       LVL=0

      0100062FH   BLOCK     CODE     NEAR LAB  LVL=0
      0100062FH   LINE      CODE     ---       #474
      01000631H   LINE      CODE     ---       #475
      01000633H   LINE      CODE     ---       #476
      01000635H   LINE      CODE     ---       #477
      01000637H   LINE      CODE     ---       #478
      01000638H   LINE      CODE     ---       #479
      0100063AH   LINE      CODE     ---       #483
LX51 LINKER/LOCATER V4.34a                                                            05/05/2009  17:03:41  PAGE 36


      0100063CH   LINE      CODE     ---       #484
      0100063DH   LINE      CODE     ---       #485
      0100063EH   LINE      CODE     ---       #486
      0100063FH   LINE      CODE     ---       #487
      01000640H   LINE      CODE     ---       #488
      01000641H   LINE      CODE     ---       #489
      01000643H   LINE      CODE     ---       #490
      01000645H   LINE      CODE     ---       #491
      01000648H   LINE      CODE     ---       #492
      01000649H   LINE      CODE     ---       #493
      0100064AH   LINE      CODE     ---       #494
      0100064CH   LINE      CODE     ---       #497
      0100064FH   LINE      CODE     ---       #501
      01000651H   LINE      CODE     ---       #502
      01000652H   LINE      CODE     ---       #503
      01000653H   LINE      CODE     ---       #504
      01000654H   LINE      CODE     ---       #505
      01000655H   LINE      CODE     ---       #506
      01000656H   LINE      CODE     ---       #507
      01000658H   LINE      CODE     ---       #508
      0100065AH   LINE      CODE     ---       #509
      0100065DH   LINE      CODE     ---       #510
      0100065EH   LINE      CODE     ---       #511
      01000660H   LINE      CODE     ---       #512
      01000661H   LINE      CODE     ---       #513
      01000664H   LINE      CODE     ---       #516
      01000666H   LINE      CODE     ---       #517
      01000668H   LINE      CODE     ---       #518
      ---         BLOCKEND  ---      ---       LVL=0

      ---         MODULE    ---      ---       SPI
      010007F5H   PUBLIC    CODE     NEAR LAB  _SPI_INIT
      010007AEH   PUBLIC    CODE     NEAR LAB  _SPI_WRITE_THEN_READ
      000000D0H.6 SFRSYM    DATA     BIT       AC
      000000E0H   SFRSYM    DATA     BYTE      ACC
      000000A1H   SFRSYM    DATA     BYTE      ADCCON
      000000A2H   SFRSYM    DATA     BYTE      ADCDATAH
      000000A3H   SFRSYM    DATA     BYTE      ADCDATAL
      000000A4H   SFRSYM    DATA     BYTE      ADCSTATIC
      000000F0H   SFRSYM    DATA     BYTE      B
      000000C8H.1 SFRSYM    DATA     BIT       C_T2
      000000A0H.6 SFRSYM    DATA     BIT       CE
      000000B6H   SFRSYM    DATA     BYTE      CK_CTRL
      0000008EH   SFRSYM    DATA     BYTE      CKCON
      000000A0H.1 SFRSYM    DATA     BIT       CLK1
      000000A0H.5 SFRSYM    DATA     BIT       CLK2
      000000C8H   SFRSYM    DATA     BIT       CP_RL2
      000000C8H   SFRSYM    DATA     BIT       CPRL2
      000000A0H.3 SFRSYM    DATA     BIT       CS
      000000C8H.1 SFRSYM    DATA     BIT       CT2
      000000D0H.7 SFRSYM    DATA     BIT       CY
      000000A0H   SFRSYM    DATA     BIT       DATA?
      000000BEH   SFRSYM    DATA     BYTE      DEV_OFFSET
      00000090H.2 SFRSYM    DATA     BIT       DIN0
      00000090H   SFRSYM    DATA     BIT       DIO0
      00000090H.1 SFRSYM    DATA     BIT       DIO1
      00000080H   SFRSYM    DATA     BIT       DIO2
      00000080H.1 SFRSYM    DATA     BIT       DIO3
      00000080H.2 SFRSYM    DATA     BIT       DIO4
      00000080H.3 SFRSYM    DATA     BIT       DIO5
      00000080H.4 SFRSYM    DATA     BIT       DIO6
      00000080H.5 SFRSYM    DATA     BIT       DIO7
      00000080H.6 SFRSYM    DATA     BIT       DIO8
      00000080H.7 SFRSYM    DATA     BIT       DIO9
      000000A0H.4 SFRSYM    DATA     BIT       DOUT2
LX51 LINKER/LOCATER V4.34a                                                            05/05/2009  17:03:41  PAGE 37


      00000083H   SFRSYM    DATA     BYTE      DPH
      00000083H   SFRSYM    DATA     BYTE      DPH0
      00000085H   SFRSYM    DATA     BYTE      DPH1
      00000082H   SFRSYM    DATA     BYTE      DPL
      00000082H   SFRSYM    DATA     BYTE      DPL0
      00000084H   SFRSYM    DATA     BYTE      DPL1
      00000086H   SFRSYM    DATA     BYTE      DPS
      000000A0H.2 SFRSYM    DATA     BIT       DR1
      000000A0H.6 SFRSYM    DATA     BIT       DR2
      000000A0H.6 SFRSYM    DATA     BIT       DR2_CE
      000000A8H.7 SFRSYM    DATA     BIT       EA
      000000D8H   SFRSYM    DATA     BYTE      EICON
      000000E8H   SFRSYM    DATA     BYTE      EIE
      000000F8H   SFRSYM    DATA     BYTE      EIP
      000000A8H.4 SFRSYM    DATA     BIT       ES
      000000A8H.1 SFRSYM    DATA     BIT       ET0
      000000A8H.3 SFRSYM    DATA     BIT       ET1
      000000A8H.5 SFRSYM    DATA     BIT       ET2
      000000E8H.4 SFRSYM    DATA     BIT       EWDI
      000000A8H   SFRSYM    DATA     BIT       EX0
      000000A8H.2 SFRSYM    DATA     BIT       EX1
      000000E8H   SFRSYM    DATA     BIT       EX2
      000000E8H.1 SFRSYM    DATA     BIT       EX3
      000000E8H.2 SFRSYM    DATA     BIT       EX4
      000000E8H.3 SFRSYM    DATA     BIT       EX5
      000000C8H.3 SFRSYM    DATA     BIT       EXEN2
      000000C8H.6 SFRSYM    DATA     BIT       EXF2
      00000091H   SFRSYM    DATA     BYTE      EXIF
      000000D0H.5 SFRSYM    DATA     BIT       F0
      000000D0H.1 SFRSYM    DATA     BIT       F1
      000000A8H   SFRSYM    DATA     BYTE      IE
      00000088H.1 SFRSYM    DATA     BIT       IE0
      00000088H.3 SFRSYM    DATA     BIT       IE1
      00000080H.3 SFRSYM    DATA     BIT       INT0_N
      00000080H.4 SFRSYM    DATA     BIT       INT1_N
      000000B8H   SFRSYM    DATA     BYTE      IP
      00000088H   SFRSYM    DATA     BIT       IT0
      00000088H.2 SFRSYM    DATA     BIT       IT1
      00000092H   SFRSYM    DATA     BYTE      MPAGE
      000000D0H.2 SFRSYM    DATA     BIT       OV
      000000D0H   SFRSYM    DATA     BIT       P
      00000080H   SFRSYM    DATA     BYTE      P0
      00000080H   SFRSYM    DATA     BIT       P0_0
      00000080H.1 SFRSYM    DATA     BIT       P0_1
      00000080H.2 SFRSYM    DATA     BIT       P0_2
      00000080H.3 SFRSYM    DATA     BIT       P0_3
      00000080H.4 SFRSYM    DATA     BIT       P0_4
      00000080H.5 SFRSYM    DATA     BIT       P0_5
      00000080H.6 SFRSYM    DATA     BIT       P0_6
      00000080H.7 SFRSYM    DATA     BIT       P0_7
      00000095H   SFRSYM    DATA     BYTE      P0_ALT
      00000094H   SFRSYM    DATA     BYTE      P0_DIR
      00000090H   SFRSYM    DATA     BYTE      P1
      00000090H   SFRSYM    DATA     BIT       P1_0
      00000090H.1 SFRSYM    DATA     BIT       P1_1
      00000090H.2 SFRSYM    DATA     BIT       P1_2
      00000097H   SFRSYM    DATA     BYTE      P1_ALT
      00000096H   SFRSYM    DATA     BYTE      P1_DIR
      00000087H   SFRSYM    DATA     BYTE      PCON
      000000B8H.4 SFRSYM    DATA     BIT       PS
      000000D0H   SFRSYM    DATA     BYTE      PSW
      000000B8H.1 SFRSYM    DATA     BIT       PT0
      000000B8H.3 SFRSYM    DATA     BIT       PT1
      000000B8H.5 SFRSYM    DATA     BIT       PT2
      000000F8H.4 SFRSYM    DATA     BIT       PWDI
LX51 LINKER/LOCATER V4.34a                                                            05/05/2009  17:03:41  PAGE 38


      00000080H.7 SFRSYM    DATA     BIT       PWM
      000000A9H   SFRSYM    DATA     BYTE      PWMCON
      000000AAH   SFRSYM    DATA     BYTE      PWMDUTY
      000000A0H.7 SFRSYM    DATA     BIT       PWR_UP
      000000B8H   SFRSYM    DATA     BIT       PX0
      000000B8H.2 SFRSYM    DATA     BIT       PX1
      000000F8H   SFRSYM    DATA     BIT       PX2
      000000F8H.1 SFRSYM    DATA     BIT       PX3
      000000F8H.2 SFRSYM    DATA     BIT       PX4
      000000F8H.3 SFRSYM    DATA     BIT       PX5
      000000A0H   SFRSYM    DATA     BYTE      RADIO
      00000098H.2 SFRSYM    DATA     BIT       RB8
      000000CBH   SFRSYM    DATA     BYTE      RCAP2H
      000000CAH   SFRSYM    DATA     BYTE      RCAP2L
      000000C8H.5 SFRSYM    DATA     BIT       RCLK
      000000ADH   SFRSYM    DATA     BYTE      REGX_CTRL
      000000ACH   SFRSYM    DATA     BYTE      REGX_LSB
      000000ABH   SFRSYM    DATA     BYTE      REGX_MSB
      00000098H.4 SFRSYM    DATA     BIT       REN
      00000098H   SFRSYM    DATA     BIT       RI
      000000D0H.3 SFRSYM    DATA     BIT       RS0
      000000D0H.4 SFRSYM    DATA     BIT       RS1
      000000B1H   SFRSYM    DATA     BYTE      RSTREAS
      00000080H.1 SFRSYM    DATA     BIT       RXD
      00000099H   SFRSYM    DATA     BYTE      SBUF
      00000098H   SFRSYM    DATA     BYTE      SCON
      00000098H.7 SFRSYM    DATA     BIT       SM0
      00000098H.6 SFRSYM    DATA     BIT       SM1
      00000098H.5 SFRSYM    DATA     BIT       SM2
      00000081H   SFRSYM    DATA     BYTE      SP
      0000008FH   SFRSYM    DATA     BYTE      SPC_FNC
      000000B3H   SFRSYM    DATA     BYTE      SPI_CTRL
      000000B2H   SFRSYM    DATA     BYTE      SPI_DATA
      000000B4H   SFRSYM    DATA     BYTE      SPICLK
      00000080H.5 SFRSYM    DATA     BIT       T0
      00000080H.6 SFRSYM    DATA     BIT       T1
      000000BCH   SFRSYM    DATA     BYTE      T1_1V2
      00000090H   SFRSYM    DATA     BIT       T2
      000000BDH   SFRSYM    DATA     BYTE      T2_1V2
      000000C8H   SFRSYM    DATA     BYTE      T2CON
      00000098H.3 SFRSYM    DATA     BIT       TB8
      000000C8H.4 SFRSYM    DATA     BIT       TCLK
      00000088H   SFRSYM    DATA     BYTE      TCON
      000000B7H   SFRSYM    DATA     BYTE      TEST_MODE
      00000088H.5 SFRSYM    DATA     BIT       TF0
      00000088H.7 SFRSYM    DATA     BIT       TF1
      000000C8H.7 SFRSYM    DATA     BIT       TF2
      0000008CH   SFRSYM    DATA     BYTE      TH0
      0000008DH   SFRSYM    DATA     BYTE      TH1
      000000CDH   SFRSYM    DATA     BYTE      TH2
      00000098H.1 SFRSYM    DATA     BIT       TI
      000000B5H   SFRSYM    DATA     BYTE      TICK_DV
      0000008AH   SFRSYM    DATA     BYTE      TL0
      0000008BH   SFRSYM    DATA     BYTE      TL1
      000000CCH   SFRSYM    DATA     BYTE      TL2
      00000089H   SFRSYM    DATA     BYTE      TMOD
      00000088H.4 SFRSYM    DATA     BIT       TR0
      00000088H.6 SFRSYM    DATA     BIT       TR1
      000000C8H.2 SFRSYM    DATA     BIT       TR2
      00000080H.2 SFRSYM    DATA     BIT       TXD
      000000D8H.3 SFRSYM    DATA     BIT       WDTI
      010007B3H   SYMBOL    CODE     NEAR LAB  ?C0002
      010007B8H   SYMBOL    CODE     NEAR LAB  ?C0003
      010007BAH   SYMBOL    CODE     NEAR LAB  ?C0004

LX51 LINKER/LOCATER V4.34a                                                            05/05/2009  17:03:41  PAGE 39


      010007F5H   BLOCK     CODE     NEAR LAB  LVL=0
      010007F5H   LINE      CODE     ---       #203
      010007F7H   LINE      CODE     ---       #206
      010007F9H   LINE      CODE     ---       #209
      ---         BLOCKEND  ---      ---       LVL=0

      010007AEH   BLOCK     CODE     NEAR LAB  LVL=0
      010007AEH   LINE      CODE     ---       #229
      010007B1H   LINE      CODE     ---       #232
      010007B3H   LINE      CODE     ---       #236
      010007B5H   LINE      CODE     ---       #237
      010007B8H   LINE      CODE     ---       #242
      010007BAH   LINE      CODE     ---       #246
      ---         BLOCKEND  ---      ---       LVL=0

      ---         MODULE    ---      ---       EEPROM
      010006D0H   PUBLIC    CODE     NEAR LAB  _EEPROM_READ
      010005F4H   PUBLIC    CODE     NEAR LAB  _EEPROM_WRITE
      010007C7H   PUBLIC    CODE     NEAR LAB  EEPROM_INIT
      01000784H   PUBLIC    CODE     NEAR LAB  EEPROM_STATUS
      01000721H   PUBLIC    CODE     NEAR LAB  FLASH_ERASE_ALL
      000000D0H.6 SFRSYM    DATA     BIT       AC
      000000E0H   SFRSYM    DATA     BYTE      ACC
      000000A1H   SFRSYM    DATA     BYTE      ADCCON
      000000A2H   SFRSYM    DATA     BYTE      ADCDATAH
      000000A3H   SFRSYM    DATA     BYTE      ADCDATAL
      000000A4H   SFRSYM    DATA     BYTE      ADCSTATIC
      000000F0H   SFRSYM    DATA     BYTE      B
      000000C8H.1 SFRSYM    DATA     BIT       C_T2
      000000A0H.6 SFRSYM    DATA     BIT       CE
      000000B6H   SFRSYM    DATA     BYTE      CK_CTRL
      0000008EH   SFRSYM    DATA     BYTE      CKCON
      000000A0H.1 SFRSYM    DATA     BIT       CLK1
      000000A0H.5 SFRSYM    DATA     BIT       CLK2
      000000C8H   SFRSYM    DATA     BIT       CP_RL2
      000000C8H   SFRSYM    DATA     BIT       CPRL2
      000000A0H.3 SFRSYM    DATA     BIT       CS
      000000C8H.1 SFRSYM    DATA     BIT       CT2
      000000D0H.7 SFRSYM    DATA     BIT       CY
      000000A0H   SFRSYM    DATA     BIT       DATA?
      000000BEH   SFRSYM    DATA     BYTE      DEV_OFFSET
      00000090H.2 SFRSYM    DATA     BIT       DIN0
      00000090H   SFRSYM    DATA     BIT       DIO0
      00000090H.1 SFRSYM    DATA     BIT       DIO1
      00000080H   SFRSYM    DATA     BIT       DIO2
      00000080H.1 SFRSYM    DATA     BIT       DIO3
      00000080H.2 SFRSYM    DATA     BIT       DIO4
      00000080H.3 SFRSYM    DATA     BIT       DIO5
      00000080H.4 SFRSYM    DATA     BIT       DIO6
      00000080H.5 SFRSYM    DATA     BIT       DIO7
      00000080H.6 SFRSYM    DATA     BIT       DIO8
      00000080H.7 SFRSYM    DATA     BIT       DIO9
      000000A0H.4 SFRSYM    DATA     BIT       DOUT2
      00000083H   SFRSYM    DATA     BYTE      DPH
      00000083H   SFRSYM    DATA     BYTE      DPH0
      00000085H   SFRSYM    DATA     BYTE      DPH1
      00000082H   SFRSYM    DATA     BYTE      DPL
      00000082H   SFRSYM    DATA     BYTE      DPL0
      00000084H   SFRSYM    DATA     BYTE      DPL1
      00000086H   SFRSYM    DATA     BYTE      DPS
      000000A0H.2 SFRSYM    DATA     BIT       DR1
      000000A0H.6 SFRSYM    DATA     BIT       DR2
      000000A0H.6 SFRSYM    DATA     BIT       DR2_CE
      000000A8H.7 SFRSYM    DATA     BIT       EA
      000000D8H   SFRSYM    DATA     BYTE      EICON
LX51 LINKER/LOCATER V4.34a                                                            05/05/2009  17:03:41  PAGE 40


      000000E8H   SFRSYM    DATA     BYTE      EIE
      000000F8H   SFRSYM    DATA     BYTE      EIP
      000000A8H.4 SFRSYM    DATA     BIT       ES
      000000A8H.1 SFRSYM    DATA     BIT       ET0
      000000A8H.3 SFRSYM    DATA     BIT       ET1
      000000A8H.5 SFRSYM    DATA     BIT       ET2
      000000E8H.4 SFRSYM    DATA     BIT       EWDI
      000000A8H   SFRSYM    DATA     BIT       EX0
      000000A8H.2 SFRSYM    DATA     BIT       EX1
      000000E8H   SFRSYM    DATA     BIT       EX2
      000000E8H.1 SFRSYM    DATA     BIT       EX3
      000000E8H.2 SFRSYM    DATA     BIT       EX4
      000000E8H.3 SFRSYM    DATA     BIT       EX5
      000000C8H.3 SFRSYM    DATA     BIT       EXEN2
      000000C8H.6 SFRSYM    DATA     BIT       EXF2
      00000091H   SFRSYM    DATA     BYTE      EXIF
      000000D0H.5 SFRSYM    DATA     BIT       F0
      000000D0H.1 SFRSYM    DATA     BIT       F1
      000000A8H   SFRSYM    DATA     BYTE      IE
      00000088H.1 SFRSYM    DATA     BIT       IE0
      00000088H.3 SFRSYM    DATA     BIT       IE1
      00000080H.3 SFRSYM    DATA     BIT       INT0_N
      00000080H.4 SFRSYM    DATA     BIT       INT1_N
      000000B8H   SFRSYM    DATA     BYTE      IP
      00000088H   SFRSYM    DATA     BIT       IT0
      00000088H.2 SFRSYM    DATA     BIT       IT1
      00000092H   SFRSYM    DATA     BYTE      MPAGE
      000000D0H.2 SFRSYM    DATA     BIT       OV
      000000D0H   SFRSYM    DATA     BIT       P
      00000080H   SFRSYM    DATA     BYTE      P0
      00000080H   SFRSYM    DATA     BIT       P0_0
      00000080H.1 SFRSYM    DATA     BIT       P0_1
      00000080H.2 SFRSYM    DATA     BIT       P0_2
      00000080H.3 SFRSYM    DATA     BIT       P0_3
      00000080H.4 SFRSYM    DATA     BIT       P0_4
      00000080H.5 SFRSYM    DATA     BIT       P0_5
      00000080H.6 SFRSYM    DATA     BIT       P0_6
      00000080H.7 SFRSYM    DATA     BIT       P0_7
      00000095H   SFRSYM    DATA     BYTE      P0_ALT
      00000094H   SFRSYM    DATA     BYTE      P0_DIR
      00000090H   SFRSYM    DATA     BYTE      P1
      00000090H   SFRSYM    DATA     BIT       P1_0
      00000090H.1 SFRSYM    DATA     BIT       P1_1
      00000090H.2 SFRSYM    DATA     BIT       P1_2
      00000097H   SFRSYM    DATA     BYTE      P1_ALT
      00000096H   SFRSYM    DATA     BYTE      P1_DIR
      00000087H   SFRSYM    DATA     BYTE      PCON
      000000B8H.4 SFRSYM    DATA     BIT       PS
      000000D0H   SFRSYM    DATA     BYTE      PSW
      000000B8H.1 SFRSYM    DATA     BIT       PT0
      000000B8H.3 SFRSYM    DATA     BIT       PT1
      000000B8H.5 SFRSYM    DATA     BIT       PT2
      000000F8H.4 SFRSYM    DATA     BIT       PWDI
      00000080H.7 SFRSYM    DATA     BIT       PWM
      000000A9H   SFRSYM    DATA     BYTE      PWMCON
      000000AAH   SFRSYM    DATA     BYTE      PWMDUTY
      000000A0H.7 SFRSYM    DATA     BIT       PWR_UP
      000000B8H   SFRSYM    DATA     BIT       PX0
      000000B8H.2 SFRSYM    DATA     BIT       PX1
      000000F8H   SFRSYM    DATA     BIT       PX2
      000000F8H.1 SFRSYM    DATA     BIT       PX3
      000000F8H.2 SFRSYM    DATA     BIT       PX4
      000000F8H.3 SFRSYM    DATA     BIT       PX5
      000000A0H   SFRSYM    DATA     BYTE      RADIO
      00000098H.2 SFRSYM    DATA     BIT       RB8
LX51 LINKER/LOCATER V4.34a                                                            05/05/2009  17:03:41  PAGE 41


      000000CBH   SFRSYM    DATA     BYTE      RCAP2H
      000000CAH   SFRSYM    DATA     BYTE      RCAP2L
      000000C8H.5 SFRSYM    DATA     BIT       RCLK
      000000ADH   SFRSYM    DATA     BYTE      REGX_CTRL
      000000ACH   SFRSYM    DATA     BYTE      REGX_LSB
      000000ABH   SFRSYM    DATA     BYTE      REGX_MSB
      00000098H.4 SFRSYM    DATA     BIT       REN
      00000098H   SFRSYM    DATA     BIT       RI
      000000D0H.3 SFRSYM    DATA     BIT       RS0
      000000D0H.4 SFRSYM    DATA     BIT       RS1
      000000B1H   SFRSYM    DATA     BYTE      RSTREAS
      00000080H.1 SFRSYM    DATA     BIT       RXD
      00000099H   SFRSYM    DATA     BYTE      SBUF
      00000098H   SFRSYM    DATA     BYTE      SCON
      00000098H.7 SFRSYM    DATA     BIT       SM0
      00000098H.6 SFRSYM    DATA     BIT       SM1
      00000098H.5 SFRSYM    DATA     BIT       SM2
      00000081H   SFRSYM    DATA     BYTE      SP
      0000008FH   SFRSYM    DATA     BYTE      SPC_FNC
      000000B3H   SFRSYM    DATA     BYTE      SPI_CTRL
      000000B2H   SFRSYM    DATA     BYTE      SPI_DATA
      000000B4H   SFRSYM    DATA     BYTE      SPICLK
      00000080H.5 SFRSYM    DATA     BIT       T0
      00000080H.6 SFRSYM    DATA     BIT       T1
      000000BCH   SFRSYM    DATA     BYTE      T1_1V2
      00000090H   SFRSYM    DATA     BIT       T2
      000000BDH   SFRSYM    DATA     BYTE      T2_1V2
      000000C8H   SFRSYM    DATA     BYTE      T2CON
      00000098H.3 SFRSYM    DATA     BIT       TB8
      000000C8H.4 SFRSYM    DATA     BIT       TCLK
      00000088H   SFRSYM    DATA     BYTE      TCON
      000000B7H   SFRSYM    DATA     BYTE      TEST_MODE
      00000088H.5 SFRSYM    DATA     BIT       TF0
      00000088H.7 SFRSYM    DATA     BIT       TF1
      000000C8H.7 SFRSYM    DATA     BIT       TF2
      0000008CH   SFRSYM    DATA     BYTE      TH0
      0000008DH   SFRSYM    DATA     BYTE      TH1
      000000CDH   SFRSYM    DATA     BYTE      TH2
      00000098H.1 SFRSYM    DATA     BIT       TI
      000000B5H   SFRSYM    DATA     BYTE      TICK_DV
      0000008AH   SFRSYM    DATA     BYTE      TL0
      0000008BH   SFRSYM    DATA     BYTE      TL1
      000000CCH   SFRSYM    DATA     BYTE      TL2
      00000089H   SFRSYM    DATA     BYTE      TMOD
      00000088H.4 SFRSYM    DATA     BIT       TR0
      00000088H.6 SFRSYM    DATA     BIT       TR1
      000000C8H.2 SFRSYM    DATA     BIT       TR2
      00000080H.2 SFRSYM    DATA     BIT       TXD
      000000D8H.3 SFRSYM    DATA     BIT       WDTI
      00000063H   SYMBOL    DATA     BYTE      ?_EEPROM_READ?BYTE
      00000060H   SYMBOL    DATA     BYTE      ?_EEPROM_WRITE?BYTE
      01000792H   SYMBOL    CODE     NEAR LAB  ?C0002
      010005FAH   SYMBOL    CODE     NEAR LAB  ?C0003
      01000601H   SYMBOL    CODE     NEAR LAB  ?C0004
      010006D7H   SYMBOL    CODE     NEAR LAB  ?C0006
      010006DEH   SYMBOL    CODE     NEAR LAB  ?C0007
      010006FBH   SYMBOL    CODE     NEAR LAB  ?C0008
      01000721H   SYMBOL    CODE     NEAR LAB  ?C0009
      01000728H   SYMBOL    CODE     NEAR LAB  ?C0010
      0100073AH   SYMBOL    CODE     NEAR LAB  ?C0012
      00000060H   SYMBOL    DATA     BYTE      ADDR?241
      00000063H   SYMBOL    DATA     BYTE      ADDR?343
      00000062H   SYMBOL    DATA     BYTE      BYTE?242
      00000065H   SYMBOL    DATA     BYTE      BYTE?344

LX51 LINKER/LOCATER V4.34a                                                            05/05/2009  17:03:41  PAGE 42


      010007C7H   BLOCK     CODE     NEAR LAB  LVL=0
      010007C7H   LINE      CODE     ---       #244
      010007C8H   LINE      CODE     ---       #245
      010007C9H   LINE      CODE     ---       #246
      010007CBH   LINE      CODE     ---       #247
      010007CEH   LINE      CODE     ---       #251
      010007D1H   LINE      CODE     ---       #254
      ---         BLOCKEND  ---      ---       LVL=0

      01000784H   BLOCK     CODE     NEAR LAB  LVL=0
      01000784H   LINE      CODE     ---       #270
      01000786H   LINE      CODE     ---       #273
      01000788H   LINE      CODE     ---       #274
      0100078BH   LINE      CODE     ---       #278
      0100078CH   LINE      CODE     ---       #279
      0100078DH   LINE      CODE     ---       #280
      01000790H   LINE      CODE     ---       #284
      01000792H   LINE      CODE     ---       #291
      ---         BLOCKEND  ---      ---       LVL=0

      010005F4H   BLOCK     CODE     NEAR LAB  LVL=0
      010005F4H   LINE      CODE     ---       #305
      010005F6H   LINE      CODE     ---       #306
      010005F8H   LINE      CODE     ---       #307
      010005FAH   LINE      CODE     ---       #313
      010005FDH   LINE      CODE     ---       #314
      010005FEH   LINE      CODE     ---       #315
      01000601H   LINE      CODE     ---       #320
      01000603H   LINE      CODE     ---       #323
      01000605H   LINE      CODE     ---       #324
      01000608H   LINE      CODE     ---       #327
      0100060AH   LINE      CODE     ---       #330
      0100060CH   LINE      CODE     ---       #333
      0100060EH   LINE      CODE     ---       #334
      01000611H   LINE      CODE     ---       #337
      01000613H   LINE      CODE     ---       #338
      01000614H   LINE      CODE     ---       #339
      01000617H   LINE      CODE     ---       #342
      01000619H   LINE      CODE     ---       #343
      0100061BH   LINE      CODE     ---       #344
      0100061EH   LINE      CODE     ---       #347
      01000620H   LINE      CODE     ---       #348
      01000623H   LINE      CODE     ---       #351
      01000625H   LINE      CODE     ---       #354
      01000627H   LINE      CODE     ---       #357
      01000629H   LINE      CODE     ---       #358
      0100062CH   LINE      CODE     ---       #361
      0100062EH   LINE      CODE     ---       #364
      ---         BLOCKEND  ---      ---       LVL=0

      010006D0H   BLOCK     CODE     NEAR LAB  LVL=0
      010006D0H   LINE      CODE     ---       #377
      010006D2H   LINE      CODE     ---       #378
      010006D4H   LINE      CODE     ---       #383
      010006D5H   LINE      CODE     ---       #384
      010006D7H   LINE      CODE     ---       #388
      010006DAH   LINE      CODE     ---       #389
      010006DBH   LINE      CODE     ---       #390
      010006DEH   LINE      CODE     ---       #395
      010006E0H   LINE      CODE     ---       #398
      010006E2H   LINE      CODE     ---       #399
      010006E5H   LINE      CODE     ---       #402
      010006E7H   LINE      CODE     ---       #403
      010006E8H   LINE      CODE     ---       #404
      010006EBH   LINE      CODE     ---       #407
LX51 LINKER/LOCATER V4.34a                                                            05/05/2009  17:03:41  PAGE 43


      010006EDH   LINE      CODE     ---       #408
      010006EFH   LINE      CODE     ---       #409
      010006F2H   LINE      CODE     ---       #412
      010006F3H   LINE      CODE     ---       #413
      010006F4H   LINE      CODE     ---       #414
      010006F7H   LINE      CODE     ---       #415
      010006F9H   LINE      CODE     ---       #418
      010006FBH   LINE      CODE     ---       #424
      ---         BLOCKEND  ---      ---       LVL=0

      01000721H   BLOCK     CODE     NEAR LAB  LVL=0
      01000721H   LINE      CODE     ---       #440
      01000724H   LINE      CODE     ---       #441
      01000725H   LINE      CODE     ---       #442
      01000728H   LINE      CODE     ---       #447
      0100072AH   LINE      CODE     ---       #450
      0100072CH   LINE      CODE     ---       #451
      0100072FH   LINE      CODE     ---       #454
      01000731H   LINE      CODE     ---       #457
      01000733H   LINE      CODE     ---       #460
      01000735H   LINE      CODE     ---       #461
      01000738H   LINE      CODE     ---       #464
      0100073AH   LINE      CODE     ---       #472
      0100073CH   LINE      CODE     ---       #475
      0100073EH   LINE      CODE     ---       #476
      01000741H   LINE      CODE     ---       #479
      01000743H   LINE      CODE     ---       #482
      ---         BLOCKEND  ---      ---       LVL=0

      ---         MODULE    ---      ---       ?C_STARTUP
      01000000H   PUBLIC    CODE     ---       ?C_STARTUP

      ---         MODULE    ---      ---       ?C?CLDPTR
      01000056H   PUBLIC    CODE     ---       ?C?CLDPTR

      ---         MODULE    ---      ---       ?C?CLDOPTR
      0100006FH   PUBLIC    CODE     ---       ?C?CLDOPTR

      ---         MODULE    ---      ---       ?C?CSTPTR
      0100009CH   PUBLIC    CODE     ---       ?C?CSTPTR

      ---         MODULE    ---      ---       ?C?UIDIV
      010000AEH   PUBLIC    CODE     ---       ?C?UIDIV

      ---         MODULE    ---      ---       ?C?LMUL
      01000103H   PUBLIC    CODE     ---       ?C?LMUL

      ---         MODULE    ---      ---       ?C?ULDIV
      0100018EH   PUBLIC    CODE     ---       ?C?ULDIV

      ---         MODULE    ---      ---       ?C?ICASE
      01000220H   PUBLIC    CODE     ---       ?C?ICASE

      ---         MODULE    ---      ---       ?C_IBP
      00000070H   PUBLIC    DATA     ---       ?C_IBP

      ---         MODULE    ---      ---       ?C_INIT
      01000485H   PUBLIC    CODE     ---       ?C_START

Program Size: data=131.0 xdata=0 const=0 code=2276
LX51 RUN COMPLETE.  0 WARNING(S),  0 ERROR(S)
