LX51 LINKER/LOCATER V4.34a                                                              05/11/2009  20:51:19  PAGE 1


LX51 LINKER/LOCATER V4.34a, INVOKED BY:
C:\KEIL\C51\BIN\LX51.EXE MAIN.OBJ, ISR_RF.OBJ, ECO_PAGE.OBJ, ADC.OBJ, UTILS.OBJ, SERIAL.OBJ, SPI.OBJ, EEPROM.OBJ, C51S.L
>> IB, C51FPL.LIB TO MAIN SEGMENTS (?PR?_PERMUTE_BITREV?MAIN (C:0X1500)) SEGMENTS (?PR?_PERMUTE_BITREV_1?MAIN (C:0X1580)
>> ) SEGMENTS (?PR?_RF_SEND?ISR_RF (C:0X1800)) SEGMENTS (?PR?ECO_PAGE_INIT?ECO_PAGE (C:0X193B)) SEGMENTS (?PR?RF_WAIT_MS
>> G?ISR_RF (C:0X194F)) SEGMENTS (?PR?RF_CH1_RECV?ISR_RF (C:0X1958)) SEGMENTS (?PR?FLASH_ERASE_ALL?EEPROM (C:0X19B8)) SE
>> GMENTS (?PR?_COMPUTE_W?MAIN (C:0X1700)) SEGMENTS (?PR?_COMPUTE_W_2?MAIN (C:0X1780)) SEGMENTS (?PR?_FFT_2?MAIN (C:0XF0
>> 0)) SEGMENTS (?PR?_FFT_3?MAIN (C:0XF80)) SEGMENTS (?PR?_EEPROM_WRITE?EEPROM (C:0X186B)) SEGMENTS (?PR?_RF_CONFIGURE?I
>> SR_RF (C:0X18E3)) SEGMENTS (?PR?P_ADC_READ?ADC (C:0X1626)) SEGMENTS (?PR?_PERMUTE_BITREV_2?MAIN (C:0X1400)) SEGMENTS 
>> (?PR?_ADC_READ?ADC (C:0X19DB)) SEGMENTS (?PR?SERIAL_READ?SERIAL (C:0X1919)) SEGMENTS (?PR?RF_INIT?ISR_RF (C:0X1921)) 
>> SEGMENTS (?PR?_ADC_INIT?ADC (C:0X1358)) SEGMENTS (?PR?GETC?SERIAL (C:0X192F)) SEGMENTS (?PR?_SETUP_BAUDRATE?SERIAL (C
>> :0XD00)) SEGMENTS (?PR?_SERIAL_INIT?SERIAL (C:0XD3D)) SEGMENTS (?PR?_STORE_CPU_RATE?UTILS (C:0XD47)) SEGMENTS (?PR?_W
>> DT_LOAD?UTILS (C:0X18A6)) SEGMENTS (?PR?_STRNCPY?UTILS (C:0X136B)) SEGMENTS (?PR?_PERMUTE_BITREV_3?MAIN (C:0X1480)) S
>> EGMENTS (?PR?_FFT_1?MAIN (C:0X1180)) SEGMENTS (?PR?_FFT_4?MAIN (C:0XE00)) SEGMENTS (?PR?_FFT_5?MAIN (C:0XE80)) SEGMEN
>> TS (?PR?_FFT_6?MAIN (C:0X1200)) SEGMENTS (?PR?_FFT?MAIN (C:0X1100)) SEGMENTS (?PR?_LOG_2?MAIN (C:0X1300)) SEGMENTS (?
>> PR?_MDELAY?UTILS (C:0XD54))


CPU MODE:     8051 MODE


INPUT MODULES INCLUDED:
  MAIN.OBJ (MAIN)
         COMMENT TYPE 0: AX51 V3.06a
  ISR_RF.OBJ (ISR_RF)
         COMMENT TYPE 0: AX51 V3.06a
  ECO_PAGE.OBJ (ECO_PAGE)
         COMMENT TYPE 0: AX51 V3.06a
  ADC.OBJ (ADC)
         COMMENT TYPE 0: AX51 V3.06a
  UTILS.OBJ (UTILS)
         COMMENT TYPE 0: AX51 V3.06a
  SERIAL.OBJ (SERIAL)
         COMMENT TYPE 0: AX51 V3.06a
  SPI.OBJ (SPI)
         COMMENT TYPE 0: AX51 V3.06a
  EEPROM.OBJ (EEPROM)
         COMMENT TYPE 0: AX51 V3.06a
  C51S.LIB (?C_STARTUP)
         COMMENT TYPE 1: A51 / ASM51 Assembler
  C51S.LIB (?C?CLDPTR)
         COMMENT TYPE 1: A51 / ASM51 Assembler
  C51S.LIB (?C?CLDOPTR)
         COMMENT TYPE 1: A51 / ASM51 Assembler
  C51S.LIB (?C?CSTPTR)
         COMMENT TYPE 1: A51 / ASM51 Assembler
  C51S.LIB (?C?IMUL)
         COMMENT TYPE 1: A51 / ASM51 Assembler
  C51S.LIB (?C?UIDIV)
         COMMENT TYPE 1: A51 / ASM51 Assembler
  C51S.LIB (?C?SIDIV)
         COMMENT TYPE 1: A51 / ASM51 Assembler
  C51S.LIB (?C?ILDOPTR)
         COMMENT TYPE 1: A51 / ASM51 Assembler
  C51S.LIB (?C?ISTOPTR)
         COMMENT TYPE 1: A51 / ASM51 Assembler
  C51S.LIB (?C?LMUL)
         COMMENT TYPE 1: A51 / ASM51 Assembler
  C51S.LIB (?C?ULDIV)
         COMMENT TYPE 1: A51 / ASM51 Assembler
  C51S.LIB (?C?ICASE)
         COMMENT TYPE 1: A51 / ASM51 Assembler
  C51S.LIB (?C_IBP)
         COMMENT TYPE 1: A51 / ASM51 Assembler
  C51S.LIB (?C_INIT)
         COMMENT TYPE 1: A51 / ASM51 Assembler
  C51FPL.LIB (?C?FCAST)
LX51 LINKER/LOCATER V4.34a                                                            05/11/2009  20:51:19  PAGE 2


         COMMENT TYPE 1: A51 / ASM51 Assembler
  C51FPL.LIB (?C?CASTF)
         COMMENT TYPE 1: A51 / ASM51 Assembler
  C51FPL.LIB (SIN)
         COMMENT TYPE 1: A51 / ASM51 Assembler
  C51FPL.LIB (?C?FPGETOPN)
         COMMENT TYPE 1: A51 / ASM51 Assembler
  C51FPL.LIB (?C?FPADD)
         COMMENT TYPE 1: A51 / ASM51 Assembler
  C51FPL.LIB (?C?FPMUL)
         COMMENT TYPE 1: A51 / ASM51 Assembler
  C51FPL.LIB (?C?FPDIV)
         COMMENT TYPE 1: A51 / ASM51 Assembler
  C51FPL.LIB (?C?FPSERIES)
         COMMENT TYPE 1: A51 / ASM51 Assembler
  C51S.LIB (?C?LNEG)
         COMMENT TYPE 1: A51 / ASM51 Assembler
  C51S.LIB (?C?LLDCODE)
         COMMENT TYPE 1: A51 / ASM51 Assembler
  C51S.LIB (?C?LLDXDATA0)
         COMMENT TYPE 1: A51 / ASM51 Assembler
  C51S.LIB (?C?LLDCODE0)
         COMMENT TYPE 1: A51 / ASM51 Assembler
  C51S.LIB (?C?LSTXDATA)
         COMMENT TYPE 1: A51 / ASM51 Assembler


ACTIVE MEMORY CLASSES OF MODULE:  MAIN (MAIN)

BASE        START       END         USED      MEMORY CLASS
==========================================================
C:000000H   C:000000H   C:00FFFFH   00154CH   CODE
I:000000H   I:000000H   I:00007FH   000077H   DATA
I:000000H   I:000000H   I:0000FFH   000074H   IDATA
I:000020H.0 I:000020H.0 I:00002FH.7 000000H.1 BIT
X:000000H   X:000000H   X:00FFFFH   000004H   XDATA


MEMORY MAP OF MODULE:  MAIN (MAIN)


START     STOP      LENGTH    ALIGN  RELOC    MEMORY CLASS   SEGMENT NAME
=========================================================================

* * * * * * * * * * *   D A T A   M E M O R Y   * * * * * * * * * * * * *
000000H   000007H   000008H   ---    AT..     DATA           "REG BANK 0"
000008H   00001FH   000018H   BYTE   UNIT     DATA           ?DT?ISR_RF
000020H.0 000020H.0 000000H.1 BIT    UNIT     BIT            ?BI?SIN?SIN
000020H.1 000020H   000000H.7 ---    ---      **GAP**
000021H   00002EH   00000EH   BYTE   UNIT     DATA           ?DT?_FFT?MAIN
00002FH   000038H   00000AH   BYTE   UNIT     DATA           ?DT?_COMPUTE_W?MAIN
000039H   000042H   00000AH   BYTE   UNIT     DATA           ?DT?_RF_SEND?ISR_RF
000043H   00004AH   000008H   BYTE   UNIT     DATA           ?DT?_PERMUTE_BITREV?MAIN
00004BH   000052H   000008H   BYTE   UNIT     DATA           ?DT?ECO_PAGE
000053H   00005AH   000008H   BYTE   UNIT     DATA           ?DT?_STRNCPY?UTILS
00005BH   00005FH   000005H   BYTE   UNIT     DATA           ?DT?_RF_CONFIGURE?ISR_RF
000060H   000063H   000004H   BYTE   UNIT     DATA           ?DT?UTILS
000064H   000066H   000003H   BYTE   UNIT     DATA           ?DT?_PUTS?SERIAL
000067H   000069H   000003H   BYTE   UNIT     DATA           ?DT?_EEPROM_WRITE?EEPROM
00006AH   00006CH   000003H   BYTE   UNIT     DATA           ?DT?_EEPROM_READ?EEPROM
00006DH   00006EH   000002H   BYTE   UNIT     DATA           ?DT?_BITREV?MAIN
00006FH   000070H   000002H   BYTE   UNIT     DATA           ?DT?MAIN
000071H   000072H   000002H   BYTE   UNIT     DATA           ?DT?RF_CH1_RECV?ISR_RF
000073H   000074H   000002H   BYTE   UNIT     DATA           ?DT?ECO_PAGE_MANAGER?ECO_PAGE
000075H   000076H   000002H   BYTE   UNIT     DATA           ?DT?_MDELAY?UTILS
LX51 LINKER/LOCATER V4.34a                                                            05/11/2009  20:51:19  PAGE 3


000077H   000077H   000001H   BYTE   UNIT     DATA           ?C?LIB_DATA
000078H   0000A9H   000032H   BYTE   UNIT     IDATA          ?ID?MAIN?MAIN
0000AAH   0000BFH   000016H   BYTE   UNIT     IDATA          ?ID?_FFT?MAIN
0000C0H   0000D2H   000013H   BYTE   UNIT     IDATA          ?ID?ECO_PAGE
0000D3H   0000DCH   00000AH   BYTE   UNIT     IDATA          ?ID?_PERMUTE_BITREV?MAIN
0000DDH   0000E0H   000004H   BYTE   UNIT     IDATA          ?ID?_BITREV?MAIN
0000E1H   0000E4H   000004H   BYTE   UNIT     IDATA          ?ID?_COMPUTE_W?MAIN
0000E5H   0000E8H   000004H   BYTE   UNIT     IDATA          ?ID?ECO_PAGE_MANAGER?ECO_PAGE
0000E9H   0000EAH   000002H   BYTE   UNIT     IDATA          ?ID?_LOG_2?MAIN
0000EBH   0000EBH   000001H   BYTE   UNIT     IDATA          ?STACK

* * * * * * * * * * *   C O D E   M E M O R Y   * * * * * * * * * * * * *
000000H   000002H   000003H   ---    OFFS..   CODE           ?CO??C_STARTUP?0
000003H   00003CH   00003AH   BYTE   UNIT     CODE           ?PR?_?INT_PRINT?SERIAL
00003DH   00004BH   00000FH   BYTE   UNIT     CODE           ?PR?EEPROM_STATUS?EEPROM
00004CH   000050H   000005H   BYTE   UNIT     CODE           ?PR?_SPI_INIT?SPI
000051H   000052H   000002H   ---    ---      **GAP**
000053H   000055H   000003H   ---    OFFS..   CODE           ?CO?ISR_RF?11
000056H   0006E9H   000694H   BYTE   UNIT     CODE           ?C?LIB_CODE
0006EAH   0008F2H   000209H   BYTE   UNIT     CODE           ?PR?ECO_PAGE_MANAGER?ECO_PAGE
0008F3H   000A7AH   000188H   BYTE   UNIT     CODE           ?PR?SIN?SIN
000A7BH   000B8BH   000111H   BYTE   UNIT     CODE           ?PR?MAIN?MAIN
000B8CH   000C17H   00008CH   BYTE   UNIT     CODE           ?C_C51STARTUP
000C18H   000C6CH   000055H   BYTE   UNIT     CODE           ?PR?_BITREV?MAIN
000C6DH   000C98H   00002CH   BYTE   UNIT     CODE           ?PR?_EEPROM_READ?EEPROM
000C99H   000CBDH   000025H   BYTE   UNIT     CODE           ?PR?_PUTS?SERIAL
000CBEH   000CD8H   00001BH   BYTE   UNIT     CODE           ?C_INITSEG
000CD9H   000CE5H   00000DH   BYTE   UNIT     CODE           ?PR?_SPI_WRITE_THEN_READ?SPI
000CE6H   000CF0H   00000BH   BYTE   UNIT     CODE           ?PR?EEPROM_INIT?EEPROM
000CF1H   000CF8H   000008H   BYTE   UNIT     CODE           ?PR?_SERIAL_WRITE?SERIAL
000CF9H   000CFBH   000003H   BYTE   UNIT     CODE           ?CO?MAIN
000CFCH   000CFEH   000003H   BYTE   UNIT     CODE           ?PR?_PUTC?SERIAL
000CFFH   000CFFH   000001H   ---    ---      **GAP**
000D00H   000D3CH   00003DH   BYTE   UNIT     CODE           ?PR?_SETUP_BAUDRATE?SERIAL
000D3DH   000D46H   00000AH   BYTE   UNIT     CODE           ?PR?_SERIAL_INIT?SERIAL
000D47H   000D53H   00000DH   BYTE   UNIT     CODE           ?PR?_STORE_CPU_RATE?UTILS
000D54H   000D9CH   000049H   BYTE   UNIT     CODE           ?PR?_MDELAY?UTILS
000D9DH   000DFFH   000063H   ---    ---      **GAP**
000E00H   000E65H   000066H   BYTE   UNIT     CODE           ?PR?_FFT_4?MAIN
000E66H   000E7FH   00001AH   ---    ---      **GAP**
000E80H   000EE6H   000067H   BYTE   UNIT     CODE           ?PR?_FFT_5?MAIN
000EE7H   000EFFH   000019H   ---    ---      **GAP**
000F00H   000F7AH   00007BH   BYTE   UNIT     CODE           ?PR?_FFT_2?MAIN
000F7BH   000F7FH   000005H   ---    ---      **GAP**
000F80H   000FEEH   00006FH   BYTE   UNIT     CODE           ?PR?_FFT_3?MAIN
000FEFH   0010FFH   000111H   ---    ---      **GAP**
001100H   001165H   000066H   BYTE   UNIT     CODE           ?PR?_FFT?MAIN
001166H   00117FH   00001AH   ---    ---      **GAP**
001180H   0011EBH   00006CH   BYTE   UNIT     CODE           ?PR?_FFT_1?MAIN
0011ECH   0011FFH   000014H   ---    ---      **GAP**
001200H   00123EH   00003FH   BYTE   UNIT     CODE           ?PR?_FFT_6?MAIN
00123FH   0012FFH   0000C1H   ---    ---      **GAP**
001300H   00132AH   00002BH   BYTE   UNIT     CODE           ?PR?_LOG_2?MAIN
00132BH   001357H   00002DH   ---    ---      **GAP**
001358H   00136AH   000013H   BYTE   UNIT     CODE           ?PR?_ADC_INIT?ADC
00136BH   0013AEH   000044H   BYTE   UNIT     CODE           ?PR?_STRNCPY?UTILS
0013AFH   0013FFH   000051H   ---    ---      **GAP**
001400H   001474H   000075H   BYTE   UNIT     CODE           ?PR?_PERMUTE_BITREV_2?MAIN
001475H   00147FH   00000BH   ---    ---      **GAP**
001480H   0014D1H   000052H   BYTE   UNIT     CODE           ?PR?_PERMUTE_BITREV_3?MAIN
0014D2H   0014FFH   00002EH   ---    ---      **GAP**
001500H   00155FH   000060H   BYTE   UNIT     CODE           ?PR?_PERMUTE_BITREV?MAIN
001560H   00157FH   000020H   ---    ---      **GAP**
001580H   0015C2H   000043H   BYTE   UNIT     CODE           ?PR?_PERMUTE_BITREV_1?MAIN
0015C3H   001625H   000063H   ---    ---      **GAP**
LX51 LINKER/LOCATER V4.34a                                                            05/11/2009  20:51:19  PAGE 4


001626H   001672H   00004DH   BYTE   UNIT     CODE           ?PR?P_ADC_READ?ADC
001673H   0016FFH   00008DH   ---    ---      **GAP**
001700H   001773H   000074H   BYTE   UNIT     CODE           ?PR?_COMPUTE_W?MAIN
001774H   00177FH   00000CH   ---    ---      **GAP**
001780H   0017FDH   00007EH   BYTE   UNIT     CODE           ?PR?_COMPUTE_W_2?MAIN
0017FEH   0017FFH   000002H   ---    ---      **GAP**
001800H   00186AH   00006BH   BYTE   UNIT     CODE           ?PR?_RF_SEND?ISR_RF
00186BH   0018A5H   00003BH   BYTE   UNIT     CODE           ?PR?_EEPROM_WRITE?EEPROM
0018A6H   0018B7H   000012H   BYTE   UNIT     CODE           ?PR?_WDT_LOAD?UTILS
0018B8H   0018E2H   00002BH   ---    ---      **GAP**
0018E3H   001918H   000036H   BYTE   UNIT     CODE           ?PR?_RF_CONFIGURE?ISR_RF
001919H   001920H   000008H   BYTE   UNIT     CODE           ?PR?SERIAL_READ?SERIAL
001921H   00192EH   00000EH   BYTE   UNIT     CODE           ?PR?RF_INIT?ISR_RF
00192FH   001932H   000004H   BYTE   UNIT     CODE           ?PR?GETC?SERIAL
001933H   00193AH   000008H   ---    ---      **GAP**
00193BH   00194AH   000010H   BYTE   UNIT     CODE           ?PR?ECO_PAGE_INIT?ECO_PAGE
00194BH   00194EH   000004H   ---    ---      **GAP**
00194FH   001957H   000009H   BYTE   UNIT     CODE           ?PR?RF_WAIT_MSG?ISR_RF
001958H   0019B7H   000060H   BYTE   UNIT     CODE           ?PR?RF_CH1_RECV?ISR_RF
0019B8H   0019DAH   000023H   BYTE   UNIT     CODE           ?PR?FLASH_ERASE_ALL?EEPROM
0019DBH   0019F5H   00001BH   BYTE   UNIT     CODE           ?PR?_ADC_READ?ADC

* * * * * * * * * * *  X D A T A   M E M O R Y  * * * * * * * * * * * * *
000000H   000003H   000004H   BYTE   UNIT     XDATA          ?XD?SIN?SIN



PUBLIC SYMBOLS OF MODULE:  MAIN (MAIN)


      VALUE       CLASS    TYPE      PUBLIC SYMBOL NAME
      =================================================
      0000002FH   DATA     BYTE      ?_COMPUTE_W?BYTE
      00000021H   DATA     BYTE      ?_FFT?BYTE
      00000043H   DATA     BYTE      ?_PERMUTE_BITREV?BYTE
      00000039H   DATA     BYTE      ?_RF_SEND?BYTE
      00000053H   DATA     BYTE      ?_STRNCPY?BYTE
      01000338H   CODE     ---       ?C?CASTF
      0100006FH   CODE     ---       ?C?CLDOPTR
      01000056H   CODE     ---       ?C?CLDPTR
      00000000H   NUMBER   ---       ?C?CODESEG
      0100009CH   CODE     ---       ?C?CSTPTR
      01000304H   CODE     ---       ?C?FCASTC
      010002FFH   CODE     ---       ?C?FCASTI
      010002FAH   CODE     ---       ?C?FCASTL
      01000657H   CODE     ---       ?C?FP2SERIES
      010003C0H   CODE     ---       ?C?FPADD
      010005BAH   CODE     ---       ?C?FPDIV
      0100036FH   CODE     ---       ?C?FPGETOPN2
      010004B1H   CODE     ---       ?C?FPMUL
      010003A4H   CODE     ---       ?C?FPNANRESULT
      010003AEH   CODE     ---       ?C?FPOVERFLOW
      01000386H   CODE     ---       ?C?FPRESULT
      0100039AH   CODE     ---       ?C?FPRESULT2
      01000666H   CODE     ---       ?C?FPSERIES
      010003BCH   CODE     ---       ?C?FPSUB
      010003ABH   CODE     ---       ?C?FPUNDERFLOW
      010002CDH   CODE     ---       ?C?ICASE
      0100014BH   CODE     ---       ?C?ILDOPTR
      010000AEH   CODE     ---       ?C?IMUL
      01000183H   CODE     ---       ?C?ISTOPTR
      010006B2H   CODE     ---       ?C?LLDCODE
      010006CEH   CODE     ---       ?C?LLDCODE0
      010006C2H   CODE     ---       ?C?LLDXDATA0
      010001B0H   CODE     ---       ?C?LMUL
LX51 LINKER/LOCATER V4.34a                                                            05/11/2009  20:51:19  PAGE 5


      010006A4H   CODE     ---       ?C?LNEG
      010006DEH   CODE     ---       ?C?LSTXDATA
      01000115H   CODE     ---       ?C?SIDIV
      010000C0H   CODE     ---       ?C?UIDIV
      0100023BH   CODE     ---       ?C?ULDIV
      00000000H   NUMBER   ---       ?C?XDATASEG
      00000077H   DATA     ---       ?C_IBP
      01000BD3H   CODE     ---       ?C_START
      01000000H   CODE     ---       ?C_STARTUP
      01000003H   CODE     NEAR LAB  _?INT_PRINT
      01001358H   CODE     NEAR LAB  _ADC_INIT
      010019DBH   CODE     NEAR LAB  _ADC_READ
      01000C18H   CODE     NEAR LAB  _BITREV
      01001700H   CODE     NEAR LAB  _COMPUTE_W
      01001780H   CODE     NEAR LAB  _COMPUTE_W_2
      0100093BH   CODE     ---       _COS
      01000C6DH   CODE     NEAR LAB  _EEPROM_READ
      0100186BH   CODE     NEAR LAB  _EEPROM_WRITE
      01001100H   CODE     NEAR LAB  _FFT
      01001180H   CODE     NEAR LAB  _FFT_1
      01000F00H   CODE     NEAR LAB  _FFT_2
      01000F80H   CODE     NEAR LAB  _FFT_3
      01000E00H   CODE     NEAR LAB  _FFT_4
      01000E80H   CODE     NEAR LAB  _FFT_5
      01001200H   CODE     NEAR LAB  _FFT_6
      01001300H   CODE     NEAR LAB  _LOG_2
      01000D54H   CODE     NEAR LAB  _MDELAY
      01001500H   CODE     NEAR LAB  _PERMUTE_BITREV
      01001580H   CODE     NEAR LAB  _PERMUTE_BITREV_1
      01001400H   CODE     NEAR LAB  _PERMUTE_BITREV_2
      01001480H   CODE     NEAR LAB  _PERMUTE_BITREV_3
      01000CFCH   CODE     NEAR LAB  _PUTC
      01000C99H   CODE     NEAR LAB  _PUTS
      010018E3H   CODE     NEAR LAB  _RF_CONFIGURE
      01001800H   CODE     NEAR LAB  _RF_SEND
      01000D3DH   CODE     NEAR LAB  _SERIAL_INIT
      01000951H   CODE     ---       _SIN
      0100004CH   CODE     NEAR LAB  _SPI_INIT
      01000CD9H   CODE     NEAR LAB  _SPI_WRITE_THEN_READ
      01000D47H   CODE     NEAR LAB  _STORE_CPU_RATE
      0100136BH   CODE     NEAR LAB  _STRNCPY
      0100098DH   CODE     ---       _TAN
      010018A6H   CODE     NEAR LAB  _WDT_LOAD
*SFR* 000000D0H.6 DATA     BIT       AC
*SFR* 000000E0H   DATA     BYTE      ACC
*SFR* 000000A1H   DATA     BYTE      ADCCON
*SFR* 000000A2H   DATA     BYTE      ADCDATAH
*SFR* 000000A3H   DATA     BYTE      ADCDATAL
*SFR* 000000A4H   DATA     BYTE      ADCSTATIC
*SFR* 000000F0H   DATA     BYTE      B
*SFR* 000000C8H.1 DATA     BIT       C_T2
*SFR* 000000A0H.6 DATA     BIT       CE
*SFR* 000000B6H   DATA     BYTE      CK_CTRL
*SFR* 0000008EH   DATA     BYTE      CKCON
*SFR* 000000A0H.1 DATA     BIT       CLK1
*SFR* 000000A0H.5 DATA     BIT       CLK2
*SFR* 000000C8H   DATA     BIT       CP_RL2
*SFR* 000000C8H   DATA     BIT       CPRL2
*SFR* 000000A0H.3 DATA     BIT       CS
*SFR* 000000C8H.1 DATA     BIT       CT2
*SFR* 000000D0H.7 DATA     BIT       CY
*SFR* 000000A0H   DATA     BIT       DATA?
*SFR* 000000BEH   DATA     BYTE      DEV_OFFSET
*SFR* 00000090H.2 DATA     BIT       DIN0
*SFR* 00000090H   DATA     BIT       DIO0
LX51 LINKER/LOCATER V4.34a                                                            05/11/2009  20:51:19  PAGE 6


*SFR* 00000090H.1 DATA     BIT       DIO1
*SFR* 00000080H   DATA     BIT       DIO2
*SFR* 00000080H.1 DATA     BIT       DIO3
*SFR* 00000080H.2 DATA     BIT       DIO4
*SFR* 00000080H.3 DATA     BIT       DIO5
*SFR* 00000080H.4 DATA     BIT       DIO6
*SFR* 00000080H.5 DATA     BIT       DIO7
*SFR* 00000080H.6 DATA     BIT       DIO8
*SFR* 00000080H.7 DATA     BIT       DIO9
*SFR* 000000A0H.4 DATA     BIT       DOUT2
*SFR* 00000083H   DATA     BYTE      DPH
*SFR* 00000083H   DATA     BYTE      DPH0
*SFR* 00000085H   DATA     BYTE      DPH1
*SFR* 00000082H   DATA     BYTE      DPL
*SFR* 00000082H   DATA     BYTE      DPL0
*SFR* 00000084H   DATA     BYTE      DPL1
*SFR* 00000086H   DATA     BYTE      DPS
*SFR* 000000A0H.2 DATA     BIT       DR1
*SFR* 000000A0H.6 DATA     BIT       DR2
*SFR* 000000A0H.6 DATA     BIT       DR2_CE
*SFR* 000000A8H.7 DATA     BIT       EA
      00000050H   DATA     BYTE      ECO_PAGE_ADDR
      0100193BH   CODE     NEAR LAB  ECO_PAGE_INIT
      010006EAH   CODE     NEAR LAB  ECO_PAGE_MANAGER
      0000004CH   DATA     BYTE      ECO_PAGE_PREV_PID
      0000004EH   DATA     BYTE      ECO_PAGE_PREV_VID
      000000CCH   IDATA    BYTE      ECO_PAGE_REGISTER1
      000000CDH   IDATA    BYTE      ECO_PAGE_REGISTER2
      000000CEH   IDATA    BYTE      ECO_PAGE_REGISTER3
      000000CFH   IDATA    BYTE      ECO_PAGE_REGISTER4
      000000D0H   IDATA    BYTE      ECO_PAGE_REGISTER5
      000000D1H   IDATA    BYTE      ECO_PAGE_REGISTER6
      000000D2H   IDATA    BYTE      ECO_PAGE_REGISTER7
      0000004BH   DATA     BYTE      ECO_PAGE_SPI_CONN
      000000C0H   IDATA    BYTE      ECO_PAGE_TABLE
      00000052H   DATA     BYTE      ECO_PAGE_TABLE_INDEX
      01000CE6H   CODE     NEAR LAB  EEPROM_INIT
      0100003DH   CODE     NEAR LAB  EEPROM_STATUS
*SFR* 000000D8H   DATA     BYTE      EICON
*SFR* 000000E8H   DATA     BYTE      EIE
*SFR* 000000F8H   DATA     BYTE      EIP
*SFR* 000000A8H.4 DATA     BIT       ES
*SFR* 000000A8H.1 DATA     BIT       ET0
*SFR* 000000A8H.3 DATA     BIT       ET1
*SFR* 000000A8H.5 DATA     BIT       ET2
*SFR* 000000E8H.4 DATA     BIT       EWDI
*SFR* 000000A8H   DATA     BIT       EX0
*SFR* 000000A8H.2 DATA     BIT       EX1
*SFR* 000000E8H   DATA     BIT       EX2
*SFR* 000000E8H.1 DATA     BIT       EX3
*SFR* 000000E8H.2 DATA     BIT       EX4
*SFR* 000000E8H.3 DATA     BIT       EX5
*SFR* 000000C8H.3 DATA     BIT       EXEN2
*SFR* 000000C8H.6 DATA     BIT       EXF2
*SFR* 00000091H   DATA     BYTE      EXIF
*SFR* 000000D0H.5 DATA     BIT       F0
*SFR* 000000D0H.1 DATA     BIT       F1
      010019B8H   CODE     NEAR LAB  FLASH_ERASE_ALL
      0100192FH   CODE     NEAR LAB  GETC
*SFR* 000000A8H   DATA     BYTE      IE
*SFR* 00000088H.1 DATA     BIT       IE0
*SFR* 00000088H.3 DATA     BIT       IE1
*SFR* 00000080H.3 DATA     BIT       INT0_N
*SFR* 00000080H.4 DATA     BIT       INT1_N
*SFR* 000000B8H   DATA     BYTE      IP
LX51 LINKER/LOCATER V4.34a                                                            05/11/2009  20:51:19  PAGE 7


*SFR* 00000088H   DATA     BIT       IT0
*SFR* 00000088H.2 DATA     BIT       IT1
      01000A7BH   CODE     NEAR LAB  MAIN
      00000060H   DATA     BYTE      MHZ
*SFR* 00000092H   DATA     BYTE      MPAGE
*SFR* 000000D0H.2 DATA     BIT       OV
*SFR* 000000D0H   DATA     BIT       P
*SFR* 00000080H   DATA     BYTE      P0
*SFR* 00000080H   DATA     BIT       P0_0
*SFR* 00000080H.1 DATA     BIT       P0_1
*SFR* 00000080H.2 DATA     BIT       P0_2
*SFR* 00000080H.3 DATA     BIT       P0_3
*SFR* 00000080H.4 DATA     BIT       P0_4
*SFR* 00000080H.5 DATA     BIT       P0_5
*SFR* 00000080H.6 DATA     BIT       P0_6
*SFR* 00000080H.7 DATA     BIT       P0_7
*SFR* 00000095H   DATA     BYTE      P0_ALT
*SFR* 00000094H   DATA     BYTE      P0_DIR
*SFR* 00000090H   DATA     BYTE      P1
*SFR* 00000090H   DATA     BIT       P1_0
*SFR* 00000090H.1 DATA     BIT       P1_1
*SFR* 00000090H.2 DATA     BIT       P1_2
*SFR* 00000097H   DATA     BYTE      P1_ALT
*SFR* 00000096H   DATA     BYTE      P1_DIR
*SFR* 00000087H   DATA     BYTE      PCON
*SFR* 000000B8H.4 DATA     BIT       PS
*SFR* 000000D0H   DATA     BYTE      PSW
*SFR* 000000B8H.1 DATA     BIT       PT0
*SFR* 000000B8H.3 DATA     BIT       PT1
*SFR* 000000B8H.5 DATA     BIT       PT2
*SFR* 000000F8H.4 DATA     BIT       PWDI
*SFR* 00000080H.7 DATA     BIT       PWM
*SFR* 000000A9H   DATA     BYTE      PWMCON
*SFR* 000000AAH   DATA     BYTE      PWMDUTY
*SFR* 000000A0H.7 DATA     BIT       PWR_UP
*SFR* 000000B8H   DATA     BIT       PX0
*SFR* 000000B8H.2 DATA     BIT       PX1
*SFR* 000000F8H   DATA     BIT       PX2
*SFR* 000000F8H.1 DATA     BIT       PX3
*SFR* 000000F8H.2 DATA     BIT       PX4
*SFR* 000000F8H.3 DATA     BIT       PX5
*SFR* 000000A0H   DATA     BYTE      RADIO
*SFR* 00000098H.2 DATA     BIT       RB8
*SFR* 000000CBH   DATA     BYTE      RCAP2H
*SFR* 000000CAH   DATA     BYTE      RCAP2L
*SFR* 000000C8H.5 DATA     BIT       RCLK
*SFR* 000000ADH   DATA     BYTE      REGX_CTRL
*SFR* 000000ACH   DATA     BYTE      REGX_LSB
*SFR* 000000ABH   DATA     BYTE      REGX_MSB
*SFR* 00000098H.4 DATA     BIT       REN
      00000008H   DATA     BYTE      RF_BUF
      01001958H   CODE     NEAR LAB  RF_CH1_RECV
      01001921H   CODE     NEAR LAB  RF_INIT
      0100194FH   CODE     NEAR LAB  RF_WAIT_MSG
*SFR* 00000098H   DATA     BIT       RI
*SFR* 000000D0H.3 DATA     BIT       RS0
*SFR* 000000D0H.4 DATA     BIT       RS1
*SFR* 000000B1H   DATA     BYTE      RSTREAS
*SFR* 00000080H.1 DATA     BIT       RXD
*SFR* 00000099H   DATA     BYTE      SBUF
*SFR* 00000098H   DATA     BYTE      SCON
*SFR* 00000098H.7 DATA     BIT       SM0
*SFR* 00000098H.6 DATA     BIT       SM1
*SFR* 00000098H.5 DATA     BIT       SM2
*SFR* 00000081H   DATA     BYTE      SP
LX51 LINKER/LOCATER V4.34a                                                            05/11/2009  20:51:19  PAGE 8


*SFR* 0000008FH   DATA     BYTE      SPC_FNC
*SFR* 000000B3H   DATA     BYTE      SPI_CTRL
*SFR* 000000B2H   DATA     BYTE      SPI_DATA
*SFR* 000000B4H   DATA     BYTE      SPICLK
*SFR* 00000080H.5 DATA     BIT       T0
*SFR* 00000080H.6 DATA     BIT       T1
*SFR* 000000BCH   DATA     BYTE      T1_1V2
*SFR* 00000090H   DATA     BIT       T2
*SFR* 000000BDH   DATA     BYTE      T2_1V2
*SFR* 000000C8H   DATA     BYTE      T2CON
*SFR* 00000098H.3 DATA     BIT       TB8
*SFR* 000000C8H.4 DATA     BIT       TCLK
*SFR* 00000088H   DATA     BYTE      TCON
      0000006FH   DATA     BYTE      TEST_COUNTER
*SFR* 000000B7H   DATA     BYTE      TEST_MODE
*SFR* 00000088H.5 DATA     BIT       TF0
*SFR* 00000088H.7 DATA     BIT       TF1
*SFR* 000000C8H.7 DATA     BIT       TF2
*SFR* 0000008CH   DATA     BYTE      TH0
*SFR* 0000008DH   DATA     BYTE      TH1
*SFR* 000000CDH   DATA     BYTE      TH2
*SFR* 00000098H.1 DATA     BIT       TI
*SFR* 000000B5H   DATA     BYTE      TICK_DV
*SFR* 0000008AH   DATA     BYTE      TL0
*SFR* 0000008BH   DATA     BYTE      TL1
*SFR* 000000CCH   DATA     BYTE      TL2
*SFR* 00000089H   DATA     BYTE      TMOD
*SFR* 00000088H.4 DATA     BIT       TR0
*SFR* 00000088H.6 DATA     BIT       TR1
*SFR* 000000C8H.2 DATA     BIT       TR2
*SFR* 00000080H.2 DATA     BIT       TXD
*SFR* 000000D8H.3 DATA     BIT       WDTI



SYMBOL TABLE OF MODULE:  MAIN (MAIN)

      VALUE       REP       CLASS    TYPE      SYMBOL NAME
      ====================================================
      ---         MODULE    ---      ---       MAIN
      0000002FH   PUBLIC    DATA     BYTE      ?_COMPUTE_W?BYTE
      00000021H   PUBLIC    DATA     BYTE      ?_FFT?BYTE
      00000043H   PUBLIC    DATA     BYTE      ?_PERMUTE_BITREV?BYTE
      01000C18H   PUBLIC    CODE     NEAR LAB  _BITREV
      01001700H   PUBLIC    CODE     NEAR LAB  _COMPUTE_W
      01001780H   PUBLIC    CODE     NEAR LAB  _COMPUTE_W_2
      01001100H   PUBLIC    CODE     NEAR LAB  _FFT
      01001180H   PUBLIC    CODE     NEAR LAB  _FFT_1
      01000F00H   PUBLIC    CODE     NEAR LAB  _FFT_2
      01000F80H   PUBLIC    CODE     NEAR LAB  _FFT_3
      01000E00H   PUBLIC    CODE     NEAR LAB  _FFT_4
      01000E80H   PUBLIC    CODE     NEAR LAB  _FFT_5
      01001200H   PUBLIC    CODE     NEAR LAB  _FFT_6
      01001300H   PUBLIC    CODE     NEAR LAB  _LOG_2
      01001500H   PUBLIC    CODE     NEAR LAB  _PERMUTE_BITREV
      01001580H   PUBLIC    CODE     NEAR LAB  _PERMUTE_BITREV_1
      01001400H   PUBLIC    CODE     NEAR LAB  _PERMUTE_BITREV_2
      01001480H   PUBLIC    CODE     NEAR LAB  _PERMUTE_BITREV_3
      01000A7BH   PUBLIC    CODE     NEAR LAB  MAIN
      0000006FH   PUBLIC    DATA     BYTE      TEST_COUNTER
      000000D0H.6 SFRSYM    DATA     BIT       AC
      000000E0H   SFRSYM    DATA     BYTE      ACC
      000000A1H   SFRSYM    DATA     BYTE      ADCCON
      000000A2H   SFRSYM    DATA     BYTE      ADCDATAH
      000000A3H   SFRSYM    DATA     BYTE      ADCDATAL
LX51 LINKER/LOCATER V4.34a                                                            05/11/2009  20:51:19  PAGE 9


      000000A4H   SFRSYM    DATA     BYTE      ADCSTATIC
      000000F0H   SFRSYM    DATA     BYTE      B
      000000C8H.1 SFRSYM    DATA     BIT       C_T2
      000000A0H.6 SFRSYM    DATA     BIT       CE
      000000B6H   SFRSYM    DATA     BYTE      CK_CTRL
      0000008EH   SFRSYM    DATA     BYTE      CKCON
      000000A0H.1 SFRSYM    DATA     BIT       CLK1
      000000A0H.5 SFRSYM    DATA     BIT       CLK2
      000000C8H   SFRSYM    DATA     BIT       CP_RL2
      000000C8H   SFRSYM    DATA     BIT       CPRL2
      000000A0H.3 SFRSYM    DATA     BIT       CS
      000000C8H.1 SFRSYM    DATA     BIT       CT2
      000000D0H.7 SFRSYM    DATA     BIT       CY
      000000A0H   SFRSYM    DATA     BIT       DATA?
      000000BEH   SFRSYM    DATA     BYTE      DEV_OFFSET
      00000090H.2 SFRSYM    DATA     BIT       DIN0
      00000090H   SFRSYM    DATA     BIT       DIO0
      00000090H.1 SFRSYM    DATA     BIT       DIO1
      00000080H   SFRSYM    DATA     BIT       DIO2
      00000080H.1 SFRSYM    DATA     BIT       DIO3
      00000080H.2 SFRSYM    DATA     BIT       DIO4
      00000080H.3 SFRSYM    DATA     BIT       DIO5
      00000080H.4 SFRSYM    DATA     BIT       DIO6
      00000080H.5 SFRSYM    DATA     BIT       DIO7
      00000080H.6 SFRSYM    DATA     BIT       DIO8
      00000080H.7 SFRSYM    DATA     BIT       DIO9
      000000A0H.4 SFRSYM    DATA     BIT       DOUT2
      00000083H   SFRSYM    DATA     BYTE      DPH
      00000083H   SFRSYM    DATA     BYTE      DPH0
      00000085H   SFRSYM    DATA     BYTE      DPH1
      00000082H   SFRSYM    DATA     BYTE      DPL
      00000082H   SFRSYM    DATA     BYTE      DPL0
      00000084H   SFRSYM    DATA     BYTE      DPL1
      00000086H   SFRSYM    DATA     BYTE      DPS
      000000A0H.2 SFRSYM    DATA     BIT       DR1
      000000A0H.6 SFRSYM    DATA     BIT       DR2
      000000A0H.6 SFRSYM    DATA     BIT       DR2_CE
      000000A8H.7 SFRSYM    DATA     BIT       EA
      000000D8H   SFRSYM    DATA     BYTE      EICON
      000000E8H   SFRSYM    DATA     BYTE      EIE
      000000F8H   SFRSYM    DATA     BYTE      EIP
      000000A8H.4 SFRSYM    DATA     BIT       ES
      000000A8H.1 SFRSYM    DATA     BIT       ET0
      000000A8H.3 SFRSYM    DATA     BIT       ET1
      000000A8H.5 SFRSYM    DATA     BIT       ET2
      000000E8H.4 SFRSYM    DATA     BIT       EWDI
      000000A8H   SFRSYM    DATA     BIT       EX0
      000000A8H.2 SFRSYM    DATA     BIT       EX1
      000000E8H   SFRSYM    DATA     BIT       EX2
      000000E8H.1 SFRSYM    DATA     BIT       EX3
      000000E8H.2 SFRSYM    DATA     BIT       EX4
      000000E8H.3 SFRSYM    DATA     BIT       EX5
      000000C8H.3 SFRSYM    DATA     BIT       EXEN2
      000000C8H.6 SFRSYM    DATA     BIT       EXF2
      00000091H   SFRSYM    DATA     BYTE      EXIF
      000000D0H.5 SFRSYM    DATA     BIT       F0
      000000D0H.1 SFRSYM    DATA     BIT       F1
      000000A8H   SFRSYM    DATA     BYTE      IE
      00000088H.1 SFRSYM    DATA     BIT       IE0
      00000088H.3 SFRSYM    DATA     BIT       IE1
      00000080H.3 SFRSYM    DATA     BIT       INT0_N
      00000080H.4 SFRSYM    DATA     BIT       INT1_N
      000000B8H   SFRSYM    DATA     BYTE      IP
      00000088H   SFRSYM    DATA     BIT       IT0
      00000088H.2 SFRSYM    DATA     BIT       IT1
LX51 LINKER/LOCATER V4.34a                                                            05/11/2009  20:51:19  PAGE 10


      00000092H   SFRSYM    DATA     BYTE      MPAGE
      000000D0H.2 SFRSYM    DATA     BIT       OV
      000000D0H   SFRSYM    DATA     BIT       P
      00000080H   SFRSYM    DATA     BYTE      P0
      00000080H   SFRSYM    DATA     BIT       P0_0
      00000080H.1 SFRSYM    DATA     BIT       P0_1
      00000080H.2 SFRSYM    DATA     BIT       P0_2
      00000080H.3 SFRSYM    DATA     BIT       P0_3
      00000080H.4 SFRSYM    DATA     BIT       P0_4
      00000080H.5 SFRSYM    DATA     BIT       P0_5
      00000080H.6 SFRSYM    DATA     BIT       P0_6
      00000080H.7 SFRSYM    DATA     BIT       P0_7
      00000095H   SFRSYM    DATA     BYTE      P0_ALT
      00000094H   SFRSYM    DATA     BYTE      P0_DIR
      00000090H   SFRSYM    DATA     BYTE      P1
      00000090H   SFRSYM    DATA     BIT       P1_0
      00000090H.1 SFRSYM    DATA     BIT       P1_1
      00000090H.2 SFRSYM    DATA     BIT       P1_2
      00000097H   SFRSYM    DATA     BYTE      P1_ALT
      00000096H   SFRSYM    DATA     BYTE      P1_DIR
      00000087H   SFRSYM    DATA     BYTE      PCON
      000000B8H.4 SFRSYM    DATA     BIT       PS
      000000D0H   SFRSYM    DATA     BYTE      PSW
      000000B8H.1 SFRSYM    DATA     BIT       PT0
      000000B8H.3 SFRSYM    DATA     BIT       PT1
      000000B8H.5 SFRSYM    DATA     BIT       PT2
      000000F8H.4 SFRSYM    DATA     BIT       PWDI
      00000080H.7 SFRSYM    DATA     BIT       PWM
      000000A9H   SFRSYM    DATA     BYTE      PWMCON
      000000AAH   SFRSYM    DATA     BYTE      PWMDUTY
      000000A0H.7 SFRSYM    DATA     BIT       PWR_UP
      000000B8H   SFRSYM    DATA     BIT       PX0
      000000B8H.2 SFRSYM    DATA     BIT       PX1
      000000F8H   SFRSYM    DATA     BIT       PX2
      000000F8H.1 SFRSYM    DATA     BIT       PX3
      000000F8H.2 SFRSYM    DATA     BIT       PX4
      000000F8H.3 SFRSYM    DATA     BIT       PX5
      000000A0H   SFRSYM    DATA     BYTE      RADIO
      00000098H.2 SFRSYM    DATA     BIT       RB8
      000000CBH   SFRSYM    DATA     BYTE      RCAP2H
      000000CAH   SFRSYM    DATA     BYTE      RCAP2L
      000000C8H.5 SFRSYM    DATA     BIT       RCLK
      000000ADH   SFRSYM    DATA     BYTE      REGX_CTRL
      000000ACH   SFRSYM    DATA     BYTE      REGX_LSB
      000000ABH   SFRSYM    DATA     BYTE      REGX_MSB
      00000098H.4 SFRSYM    DATA     BIT       REN
      00000098H   SFRSYM    DATA     BIT       RI
      000000D0H.3 SFRSYM    DATA     BIT       RS0
      000000D0H.4 SFRSYM    DATA     BIT       RS1
      000000B1H   SFRSYM    DATA     BYTE      RSTREAS
      00000080H.1 SFRSYM    DATA     BIT       RXD
      00000099H   SFRSYM    DATA     BYTE      SBUF
      00000098H   SFRSYM    DATA     BYTE      SCON
      00000098H.7 SFRSYM    DATA     BIT       SM0
      00000098H.6 SFRSYM    DATA     BIT       SM1
      00000098H.5 SFRSYM    DATA     BIT       SM2
      00000081H   SFRSYM    DATA     BYTE      SP
      0000008FH   SFRSYM    DATA     BYTE      SPC_FNC
      000000B3H   SFRSYM    DATA     BYTE      SPI_CTRL
      000000B2H   SFRSYM    DATA     BYTE      SPI_DATA
      000000B4H   SFRSYM    DATA     BYTE      SPICLK
      00000080H.5 SFRSYM    DATA     BIT       T0
      00000080H.6 SFRSYM    DATA     BIT       T1
      000000BCH   SFRSYM    DATA     BYTE      T1_1V2
      00000090H   SFRSYM    DATA     BIT       T2
LX51 LINKER/LOCATER V4.34a                                                            05/11/2009  20:51:19  PAGE 11


      000000BDH   SFRSYM    DATA     BYTE      T2_1V2
      000000C8H   SFRSYM    DATA     BYTE      T2CON
      00000098H.3 SFRSYM    DATA     BIT       TB8
      000000C8H.4 SFRSYM    DATA     BIT       TCLK
      00000088H   SFRSYM    DATA     BYTE      TCON
      000000B7H   SFRSYM    DATA     BYTE      TEST_MODE
      00000088H.5 SFRSYM    DATA     BIT       TF0
      00000088H.7 SFRSYM    DATA     BIT       TF1
      000000C8H.7 SFRSYM    DATA     BIT       TF2
      0000008CH   SFRSYM    DATA     BYTE      TH0
      0000008DH   SFRSYM    DATA     BYTE      TH1
      000000CDH   SFRSYM    DATA     BYTE      TH2
      00000098H.1 SFRSYM    DATA     BIT       TI
      000000B5H   SFRSYM    DATA     BYTE      TICK_DV
      0000008AH   SFRSYM    DATA     BYTE      TL0
      0000008BH   SFRSYM    DATA     BYTE      TL1
      000000CCH   SFRSYM    DATA     BYTE      TL2
      00000089H   SFRSYM    DATA     BYTE      TMOD
      00000088H.4 SFRSYM    DATA     BIT       TR0
      00000088H.6 SFRSYM    DATA     BIT       TR1
      000000C8H.2 SFRSYM    DATA     BIT       TR2
      00000080H.2 SFRSYM    DATA     BIT       TXD
      000000D8H.3 SFRSYM    DATA     BIT       WDTI
      0000006DH   SYMBOL    DATA     BYTE      ?_BITREV?BYTE
      01000C2BH   SYMBOL    CODE     NEAR LAB  ?C0001
      01000C65H   SYMBOL    CODE     NEAR LAB  ?C0002
      01000C6CH   SYMBOL    CODE     NEAR LAB  ?C0004
      01001306H   SYMBOL    CODE     NEAR LAB  ?C0005
      01001323H   SYMBOL    CODE     NEAR LAB  ?C0006
      0100132AH   SYMBOL    CODE     NEAR LAB  ?C0008
      01001725H   SYMBOL    CODE     NEAR LAB  ?C0009
      010017FDH   SYMBOL    CODE     NEAR LAB  ?C0012
      01001528H   SYMBOL    CODE     NEAR LAB  ?C0013
      010014B7H   SYMBOL    CODE     NEAR LAB  ?C0015
      0100159DH   SYMBOL    CODE     NEAR LAB  ?C0016
      010014D1H   SYMBOL    CODE     NEAR LAB  ?C0017
      01001111H   SYMBOL    CODE     NEAR LAB  ?C0018
      0100122DH   SYMBOL    CODE     NEAR LAB  ?C0020
      01001140H   SYMBOL    CODE     NEAR LAB  ?C0021
      01001211H   SYMBOL    CODE     NEAR LAB  ?C0023
      010011BDH   SYMBOL    CODE     NEAR LAB  ?C0024
      0100123EH   SYMBOL    CODE     NEAR LAB  ?C0027
      01000AA9H   SYMBOL    CODE     NEAR LAB  ?C0028
      01000AC9H   SYMBOL    CODE     NEAR LAB  ?C0031
      01000C63H   SYMBOL    CODE     NEAR LAB  ?C0034
      01001321H   SYMBOL    CODE     NEAR LAB  ?C0035
      010017F4H   SYMBOL    CODE     NEAR LAB  ?C0036
      010014C8H   SYMBOL    CODE     NEAR LAB  ?C0037
      01001208H   SYMBOL    CODE     NEAR LAB  ?C0038
      0100122AH   SYMBOL    CODE     NEAR LAB  ?C0039
      01000ABBH   SYMBOL    CODE     NEAR LAB  ?C0040
      01000B79H   SYMBOL    CODE     NEAR LAB  ?C0041
      01000CF9H   SYMBOL    CODE     NEAR LAB  ?SC_0
      00000048H   SYMBOL    DATA     BYTE      A_IM?354
      00000026H   SYMBOL    DATA     BYTE      A_IM?462
      0000008AH   SYMBOL    IDATA    BYTE      A_IM?578
      00000045H   SYMBOL    DATA     BYTE      A_RE?353
      00000023H   SYMBOL    DATA     BYTE      A_RE?461
      0000007AH   SYMBOL    IDATA    BYTE      A_RE?577
      000000BAH   SYMBOL    IDATA    BYTE      B?473
      000000E3H   SYMBOL    IDATA    BYTE      BR?250
      000000D5H   SYMBOL    IDATA    BYTE      BRI?356
      000000B8H   SYMBOL    IDATA    BYTE      G?472
      000000DDH   SYMBOL    IDATA    BYTE      I?042
      000000E1H   SYMBOL    IDATA    BYTE      I?249
LX51 LINKER/LOCATER V4.34a                                                            05/11/2009  20:51:19  PAGE 12


      000000D3H   SYMBOL    IDATA    BYTE      I?355
      000000BEH   SYMBOL    IDATA    BYTE      K?475
      00000037H   SYMBOL    DATA     BYTE      LOG2N?251
      000000D7H   SYMBOL    IDATA    BYTE      LOG2N?357
      000000B6H   SYMBOL    IDATA    BYTE      M?471
      000000BCH   SYMBOL    IDATA    BYTE      MT?474
      0000002FH   SYMBOL    DATA     BYTE      N?246
      00000043H   SYMBOL    DATA     BYTE      N?352
      00000021H   SYMBOL    DATA     BYTE      N?460
      00000078H   SYMBOL    IDATA    BYTE      N?576
      0000006DH   SYMBOL    DATA     BYTE      NUMBITS?041
      000000E9H   SYMBOL    IDATA    BYTE      RES?145
      000000DFH   SYMBOL    IDATA    BYTE      REV?043
      000000DBH   SYMBOL    IDATA    BYTE      T_IM?359
      000000B4H   SYMBOL    IDATA    BYTE      T_IM?470
      000000D9H   SYMBOL    IDATA    BYTE      T_RE?358
      000000B2H   SYMBOL    IDATA    BYTE      T_RE?469
      000000B0H   SYMBOL    IDATA    BYTE      U_IM?468
      000000AEH   SYMBOL    IDATA    BYTE      U_RE?467
      00000034H   SYMBOL    DATA     BYTE      W_IM?248
      0000002CH   SYMBOL    DATA     BYTE      W_IM?464
      000000ACH   SYMBOL    IDATA    BYTE      W_IM?466
      000000A2H   SYMBOL    IDATA    BYTE      W_IM?580
      00000031H   SYMBOL    DATA     BYTE      W_RE?247
      00000029H   SYMBOL    DATA     BYTE      W_RE?463
      000000AAH   SYMBOL    IDATA    BYTE      W_RE?465
      0000009AH   SYMBOL    IDATA    BYTE      W_RE?579

      01000C18H   BLOCK     CODE     NEAR LAB  LVL=0
      01000C18H   LINE      CODE     ---       #386
      01000C1AH   LINE      CODE     ---       #387
      01000C1CH   LINE      CODE     ---       #389
      01000C1EH   LINE      CODE     ---       #390
      01000C20H   LINE      CODE     ---       #396
      01000C21H   LINE      CODE     ---       #397
      01000C23H   LINE      CODE     ---       #398
      01000C24H   LINE      CODE     ---       #399
      01000C25H   LINE      CODE     ---       #400
      01000C26H   LINE      CODE     ---       #403
      01000C28H   LINE      CODE     ---       #404
      01000C29H   LINE      CODE     ---       #405
      01000C2AH   LINE      CODE     ---       #406
      01000C2BH   LINE      CODE     ---       #408
      01000C2CH   LINE      CODE     ---       #409
      01000C2EH   LINE      CODE     ---       #410
      01000C2FH   LINE      CODE     ---       #411
      01000C31H   LINE      CODE     ---       #412
      01000C33H   LINE      CODE     ---       #413
      01000C35H   LINE      CODE     ---       #414
      01000C37H   LINE      CODE     ---       #415
      01000C38H   LINE      CODE     ---       #416
      01000C39H   LINE      CODE     ---       #417
      01000C3BH   LINE      CODE     ---       #418
      01000C3DH   LINE      CODE     ---       #419
      01000C3FH   LINE      CODE     ---       #424
      01000C41H   LINE      CODE     ---       #425
      01000C42H   LINE      CODE     ---       #426
      01000C44H   LINE      CODE     ---       #427
      01000C45H   LINE      CODE     ---       #428
      01000C46H   LINE      CODE     ---       #429
      01000C47H   LINE      CODE     ---       #430
      01000C48H   LINE      CODE     ---       #431
      01000C49H   LINE      CODE     ---       #432
      01000C4AH   LINE      CODE     ---       #433
      01000C4CH   LINE      CODE     ---       #434
LX51 LINKER/LOCATER V4.34a                                                            05/11/2009  20:51:19  PAGE 13


      01000C4DH   LINE      CODE     ---       #435
      01000C4EH   LINE      CODE     ---       #436
      01000C4FH   LINE      CODE     ---       #437
      01000C50H   LINE      CODE     ---       #438
      01000C51H   LINE      CODE     ---       #439
      01000C52H   LINE      CODE     ---       #440
      01000C53H   LINE      CODE     ---       #443
      01000C54H   LINE      CODE     ---       #444
      01000C56H   LINE      CODE     ---       #445
      01000C57H   LINE      CODE     ---       #446
      01000C58H   LINE      CODE     ---       #447
      01000C59H   LINE      CODE     ---       #448
      01000C5AH   LINE      CODE     ---       #449
      01000C5BH   LINE      CODE     ---       #452
      01000C5DH   LINE      CODE     ---       #453
      01000C5EH   LINE      CODE     ---       #454
      01000C5FH   LINE      CODE     ---       #455
      01000C60H   LINE      CODE     ---       #456
      01000C62H   LINE      CODE     ---       #457
      01000C63H   LINE      CODE     ---       #459
      01000C65H   LINE      CODE     ---       #463
      01000C67H   LINE      CODE     ---       #464
      01000C68H   LINE      CODE     ---       #465
      01000C69H   LINE      CODE     ---       #466
      01000C6AH   LINE      CODE     ---       #467
      01000C6BH   LINE      CODE     ---       #468
      01000C6CH   LINE      CODE     ---       #473
      ---         BLOCKEND  ---      ---       LVL=0

      01001300H   BLOCK     CODE     NEAR LAB  LVL=0
      01001300H   LINE      CODE     ---       #491
      01001301H   LINE      CODE     ---       #492
      01001303H   LINE      CODE     ---       #493
      01001304H   LINE      CODE     ---       #494
      01001305H   LINE      CODE     ---       #495
      01001306H   LINE      CODE     ---       #497
      01001307H   LINE      CODE     ---       #498
      01001308H   LINE      CODE     ---       #499
      0100130AH   LINE      CODE     ---       #500
      0100130BH   LINE      CODE     ---       #501
      0100130DH   LINE      CODE     ---       #502
      0100130FH   LINE      CODE     ---       #503
      01001311H   LINE      CODE     ---       #506
      01001312H   LINE      CODE     ---       #507
      01001314H   LINE      CODE     ---       #508
      01001315H   LINE      CODE     ---       #509
      01001316H   LINE      CODE     ---       #510
      01001317H   LINE      CODE     ---       #511
      01001318H   LINE      CODE     ---       #512
      01001319H   LINE      CODE     ---       #513
      0100131BH   LINE      CODE     ---       #514
      0100131CH   LINE      CODE     ---       #515
      0100131DH   LINE      CODE     ---       #516
      0100131EH   LINE      CODE     ---       #517
      01001320H   LINE      CODE     ---       #518
      01001321H   LINE      CODE     ---       #520
      01001323H   LINE      CODE     ---       #524
      01001325H   LINE      CODE     ---       #525
      01001326H   LINE      CODE     ---       #526
      01001327H   LINE      CODE     ---       #527
      01001328H   LINE      CODE     ---       #528
      01001329H   LINE      CODE     ---       #529
      0100132AH   LINE      CODE     ---       #538
      ---         BLOCKEND  ---      ---       LVL=0

LX51 LINKER/LOCATER V4.34a                                                            05/11/2009  20:51:19  PAGE 14


      01001700H   BLOCK     CODE     NEAR LAB  LVL=0
      01001700H   LINE      CODE     ---       #555
      01001702H   LINE      CODE     ---       #556
      01001704H   LINE      CODE     ---       #557
      01001706H   LINE      CODE     ---       #558
      01001708H   LINE      CODE     ---       #559
      0100170AH   LINE      CODE     ---       #567
      0100170CH   LINE      CODE     ---       #568
      0100170EH   LINE      CODE     ---       #570
      01001710H   LINE      CODE     ---       #571
      01001712H   LINE      CODE     ---       #573
      01001715H   LINE      CODE     ---       #574
      01001718H   LINE      CODE     ---       #575
      0100171BH   LINE      CODE     ---       #577
      0100171DH   LINE      CODE     ---       #578
      0100171FH   LINE      CODE     ---       #582
      01001720H   LINE      CODE     ---       #583
      01001722H   LINE      CODE     ---       #584
      01001723H   LINE      CODE     ---       #585
      01001724H   LINE      CODE     ---       #586
      01001725H   LINE      CODE     ---       #588
      01001727H   LINE      CODE     ---       #589
      01001729H   LINE      CODE     ---       #590
      0100172BH   LINE      CODE     ---       #591
      0100172DH   LINE      CODE     ---       #592
      01001730H   LINE      CODE     ---       #593
      01001732H   LINE      CODE     ---       #594
      01001734H   LINE      CODE     ---       #595
      01001736H   LINE      CODE     ---       #596
      01001737H   LINE      CODE     ---       #597
      01001738H   LINE      CODE     ---       #598
      01001739H   LINE      CODE     ---       #599
      0100173AH   LINE      CODE     ---       #600
      0100173BH   LINE      CODE     ---       #601
      0100173CH   LINE      CODE     ---       #602
      0100173DH   LINE      CODE     ---       #603
      0100173EH   LINE      CODE     ---       #604
      01001740H   LINE      CODE     ---       #605
      01001741H   LINE      CODE     ---       #606
      01001742H   LINE      CODE     ---       #607
      01001744H   LINE      CODE     ---       #608
      01001745H   LINE      CODE     ---       #609
      01001747H   LINE      CODE     ---       #611
      0100174AH   LINE      CODE     ---       #612
      0100174DH   LINE      CODE     ---       #613
      01001750H   LINE      CODE     ---       #618
      01001752H   LINE      CODE     ---       #619
      01001754H   LINE      CODE     ---       #621
      01001755H   LINE      CODE     ---       #625
      01001757H   LINE      CODE     ---       #626
      01001759H   LINE      CODE     ---       #627
      0100175AH   LINE      CODE     ---       #631
      0100175DH   LINE      CODE     ---       #640
      0100175FH   LINE      CODE     ---       #641
      01001761H   LINE      CODE     ---       #642
      01001762H   LINE      CODE     ---       #643
      01001764H   LINE      CODE     ---       #649
      01001766H   LINE      CODE     ---       #650
      01001767H   LINE      CODE     ---       #651
      01001768H   LINE      CODE     ---       #652
      01001769H   LINE      CODE     ---       #653
      0100176AH   LINE      CODE     ---       #654
      0100176BH   LINE      CODE     ---       #655
      0100176EH   LINE      CODE     ---       #656
      01001771H   LINE      CODE     ---       #657
LX51 LINKER/LOCATER V4.34a                                                            05/11/2009  20:51:19  PAGE 15


      ---         BLOCKEND  ---      ---       LVL=0

      01001780H   BLOCK     CODE     NEAR LAB  LVL=0
      01001780H   LINE      CODE     ---       #666
      01001782H   LINE      CODE     ---       #667
      01001784H   LINE      CODE     ---       #668
      01001787H   LINE      CODE     ---       #670
      01001789H   LINE      CODE     ---       #671
      0100178BH   LINE      CODE     ---       #672
      0100178EH   LINE      CODE     ---       #673
      01001790H   LINE      CODE     ---       #674
      01001792H   LINE      CODE     ---       #675
      01001793H   LINE      CODE     ---       #679
      01001795H   LINE      CODE     ---       #685
      01001797H   LINE      CODE     ---       #686
      01001798H   LINE      CODE     ---       #687
      0100179AH   LINE      CODE     ---       #688
      0100179BH   LINE      CODE     ---       #689
      0100179CH   LINE      CODE     ---       #690
      0100179DH   LINE      CODE     ---       #691
      0100179EH   LINE      CODE     ---       #692
      010017A0H   LINE      CODE     ---       #693
      010017A2H   LINE      CODE     ---       #694
      010017A4H   LINE      CODE     ---       #695
      010017A6H   LINE      CODE     ---       #696
      010017A8H   LINE      CODE     ---       #697
      010017A9H   LINE      CODE     ---       #698
      010017ABH   LINE      CODE     ---       #699
      010017AEH   LINE      CODE     ---       #702
      010017B0H   LINE      CODE     ---       #703
      010017B1H   LINE      CODE     ---       #704
      010017B2H   LINE      CODE     ---       #705
      010017B3H   LINE      CODE     ---       #706
      010017B4H   LINE      CODE     ---       #707
      010017B5H   LINE      CODE     ---       #708
      010017B7H   LINE      CODE     ---       #709
      010017B9H   LINE      CODE     ---       #710
      010017BCH   LINE      CODE     ---       #711
      010017BEH   LINE      CODE     ---       #712
      010017C0H   LINE      CODE     ---       #713
      010017C3H   LINE      CODE     ---       #714
      010017C5H   LINE      CODE     ---       #715
      010017C7H   LINE      CODE     ---       #716
      010017C8H   LINE      CODE     ---       #720
      010017CAH   LINE      CODE     ---       #721
      010017CCH   LINE      CODE     ---       #722
      010017CDH   LINE      CODE     ---       #723
      010017CFH   LINE      CODE     ---       #724
      010017D0H   LINE      CODE     ---       #725
      010017D1H   LINE      CODE     ---       #726
      010017D2H   LINE      CODE     ---       #727
      010017D3H   LINE      CODE     ---       #728
      010017D5H   LINE      CODE     ---       #729
      010017D7H   LINE      CODE     ---       #730
      010017D9H   LINE      CODE     ---       #731
      010017DBH   LINE      CODE     ---       #732
      010017DDH   LINE      CODE     ---       #733
      010017DEH   LINE      CODE     ---       #734
      010017E0H   LINE      CODE     ---       #735
      010017E3H   LINE      CODE     ---       #738
      010017E5H   LINE      CODE     ---       #739
      010017E6H   LINE      CODE     ---       #740
      010017E7H   LINE      CODE     ---       #741
      010017E8H   LINE      CODE     ---       #742
      010017EAH   LINE      CODE     ---       #744
LX51 LINKER/LOCATER V4.34a                                                            05/11/2009  20:51:19  PAGE 16


      010017EDH   LINE      CODE     ---       #745
      010017F0H   LINE      CODE     ---       #746
      010017F3H   LINE      CODE     ---       #747
      010017F4H   LINE      CODE     ---       #750
      010017F7H   LINE      CODE     ---       #751
      010017FAH   LINE      CODE     ---       #752
      010017FDH   LINE      CODE     ---       #763
      ---         BLOCKEND  ---      ---       LVL=0

      01001500H   BLOCK     CODE     NEAR LAB  LVL=0
      01001500H   LINE      CODE     ---       #775
      01001502H   LINE      CODE     ---       #776
      01001504H   LINE      CODE     ---       #777
      01001506H   LINE      CODE     ---       #778
      01001508H   LINE      CODE     ---       #779
      0100150AH   LINE      CODE     ---       #792
      0100150CH   LINE      CODE     ---       #793
      0100150DH   LINE      CODE     ---       #794
      0100150EH   LINE      CODE     ---       #796
      01001510H   LINE      CODE     ---       #797
      01001511H   LINE      CODE     ---       #798
      01001512H   LINE      CODE     ---       #801
      01001515H   LINE      CODE     ---       #802
      01001518H   LINE      CODE     ---       #803
      0100151BH   LINE      CODE     ---       #809
      0100151DH   LINE      CODE     ---       #810
      0100151FH   LINE      CODE     ---       #811
      01001520H   LINE      CODE     ---       #812
      01001522H   LINE      CODE     ---       #816
      01001523H   LINE      CODE     ---       #817
      01001525H   LINE      CODE     ---       #818
      01001526H   LINE      CODE     ---       #819
      01001527H   LINE      CODE     ---       #820
      01001528H   LINE      CODE     ---       #822
      0100152AH   LINE      CODE     ---       #823
      0100152BH   LINE      CODE     ---       #824
      0100152CH   LINE      CODE     ---       #825
      0100152DH   LINE      CODE     ---       #826
      0100152EH   LINE      CODE     ---       #827
      0100152FH   LINE      CODE     ---       #828
      01001530H   LINE      CODE     ---       #829
      01001532H   LINE      CODE     ---       #830
      01001534H   LINE      CODE     ---       #831
      01001536H   LINE      CODE     ---       #832
      01001537H   LINE      CODE     ---       #833
      01001538H   LINE      CODE     ---       #834
      0100153AH   LINE      CODE     ---       #835
      0100153BH   LINE      CODE     ---       #836
      0100153DH   LINE      CODE     ---       #838
      01001540H   LINE      CODE     ---       #839
      01001543H   LINE      CODE     ---       #840
      01001546H   LINE      CODE     ---       #848
      01001548H   LINE      CODE     ---       #849
      01001549H   LINE      CODE     ---       #850
      0100154AH   LINE      CODE     ---       #851
      0100154BH   LINE      CODE     ---       #852
      0100154CH   LINE      CODE     ---       #853
      0100154DH   LINE      CODE     ---       #860
      01001550H   LINE      CODE     ---       #865
      01001552H   LINE      CODE     ---       #866
      01001553H   LINE      CODE     ---       #867
      01001554H   LINE      CODE     ---       #868
      01001555H   LINE      CODE     ---       #869
      01001556H   LINE      CODE     ---       #870
      01001557H   LINE      CODE     ---       #875
LX51 LINKER/LOCATER V4.34a                                                            05/11/2009  20:51:19  PAGE 17


      0100155AH   LINE      CODE     ---       #876
      0100155DH   LINE      CODE     ---       #877
      ---         BLOCKEND  ---      ---       LVL=0

      01001580H   BLOCK     CODE     NEAR LAB  LVL=0
      01001580H   LINE      CODE     ---       #886
      01001582H   LINE      CODE     ---       #887
      01001583H   LINE      CODE     ---       #888
      01001584H   LINE      CODE     ---       #889
      01001585H   LINE      CODE     ---       #890
      01001586H   LINE      CODE     ---       #891
      01001587H   LINE      CODE     ---       #892
      01001588H   LINE      CODE     ---       #893
      01001589H   LINE      CODE     ---       #894
      0100158AH   LINE      CODE     ---       #895
      0100158BH   LINE      CODE     ---       #896
      0100158DH   LINE      CODE     ---       #897
      0100158EH   LINE      CODE     ---       #898
      0100158FH   LINE      CODE     ---       #899
      01001591H   LINE      CODE     ---       #900
      01001592H   LINE      CODE     ---       #901
      01001594H   LINE      CODE     ---       #903
      01001597H   LINE      CODE     ---       #904
      0100159AH   LINE      CODE     ---       #905
      0100159DH   LINE      CODE     ---       #911
      0100159FH   LINE      CODE     ---       #912
      010015A0H   LINE      CODE     ---       #913
      010015A2H   LINE      CODE     ---       #914
      010015A3H   LINE      CODE     ---       #915
      010015A4H   LINE      CODE     ---       #916
      010015A5H   LINE      CODE     ---       #917
      010015A6H   LINE      CODE     ---       #918
      010015A7H   LINE      CODE     ---       #919
      010015A9H   LINE      CODE     ---       #920
      010015ABH   LINE      CODE     ---       #921
      010015ADH   LINE      CODE     ---       #922
      010015AFH   LINE      CODE     ---       #923
      010015B1H   LINE      CODE     ---       #924
      010015B4H   LINE      CODE     ---       #926
      010015B6H   LINE      CODE     ---       #927
      010015B8H   LINE      CODE     ---       #928
      010015B9H   LINE      CODE     ---       #929
      010015BAH   LINE      CODE     ---       #932
      010015BDH   LINE      CODE     ---       #933
      010015C0H   LINE      CODE     ---       #934
      ---         BLOCKEND  ---      ---       LVL=0

      01001400H   BLOCK     CODE     NEAR LAB  LVL=0
      01001400H   LINE      CODE     ---       #943
      01001402H   LINE      CODE     ---       #944
      01001404H   LINE      CODE     ---       #945
      01001406H   LINE      CODE     ---       #946
      01001408H   LINE      CODE     ---       #947
      0100140AH   LINE      CODE     ---       #948
      0100140DH   LINE      CODE     ---       #949
      0100140FH   LINE      CODE     ---       #950
      01001411H   LINE      CODE     ---       #951
      01001412H   LINE      CODE     ---       #952
      01001413H   LINE      CODE     ---       #955
      01001415H   LINE      CODE     ---       #956
      01001416H   LINE      CODE     ---       #957
      01001418H   LINE      CODE     ---       #958
      01001419H   LINE      CODE     ---       #959
      0100141AH   LINE      CODE     ---       #960
      0100141BH   LINE      CODE     ---       #961
LX51 LINKER/LOCATER V4.34a                                                            05/11/2009  20:51:19  PAGE 18


      0100141CH   LINE      CODE     ---       #962
      0100141EH   LINE      CODE     ---       #963
      01001420H   LINE      CODE     ---       #964
      01001422H   LINE      CODE     ---       #965
      01001424H   LINE      CODE     ---       #966
      01001426H   LINE      CODE     ---       #967
      01001429H   LINE      CODE     ---       #968
      0100142AH   LINE      CODE     ---       #969
      0100142CH   LINE      CODE     ---       #970
      0100142DH   LINE      CODE     ---       #971
      0100142FH   LINE      CODE     ---       #972
      01001430H   LINE      CODE     ---       #973
      01001431H   LINE      CODE     ---       #974
      01001432H   LINE      CODE     ---       #975
      01001433H   LINE      CODE     ---       #976
      01001435H   LINE      CODE     ---       #977
      01001437H   LINE      CODE     ---       #978
      01001439H   LINE      CODE     ---       #979
      0100143BH   LINE      CODE     ---       #980
      0100143EH   LINE      CODE     ---       #986
      01001441H   LINE      CODE     ---       #991
      01001443H   LINE      CODE     ---       #992
      01001444H   LINE      CODE     ---       #993
      01001446H   LINE      CODE     ---       #994
      01001447H   LINE      CODE     ---       #995
      01001448H   LINE      CODE     ---       #996
      01001449H   LINE      CODE     ---       #997
      0100144AH   LINE      CODE     ---       #998
      0100144CH   LINE      CODE     ---       #999
      0100144EH   LINE      CODE     ---       #1000
      01001450H   LINE      CODE     ---       #1001
      01001452H   LINE      CODE     ---       #1002
      01001454H   LINE      CODE     ---       #1003
      01001457H   LINE      CODE     ---       #1004
      01001458H   LINE      CODE     ---       #1005
      0100145AH   LINE      CODE     ---       #1006
      0100145BH   LINE      CODE     ---       #1007
      0100145DH   LINE      CODE     ---       #1008
      0100145EH   LINE      CODE     ---       #1009
      0100145FH   LINE      CODE     ---       #1010
      01001460H   LINE      CODE     ---       #1011
      01001461H   LINE      CODE     ---       #1012
      01001463H   LINE      CODE     ---       #1013
      01001465H   LINE      CODE     ---       #1014
      01001467H   LINE      CODE     ---       #1015
      01001469H   LINE      CODE     ---       #1016
      0100146CH   LINE      CODE     ---       #1017
      0100146FH   LINE      CODE     ---       #1018
      01001472H   LINE      CODE     ---       #1019
      ---         BLOCKEND  ---      ---       LVL=0

      01001480H   BLOCK     CODE     NEAR LAB  LVL=0
      01001480H   LINE      CODE     ---       #1030
      01001482H   LINE      CODE     ---       #1031
      01001483H   LINE      CODE     ---       #1032
      01001484H   LINE      CODE     ---       #1033
      01001485H   LINE      CODE     ---       #1034
      01001486H   LINE      CODE     ---       #1035
      01001487H   LINE      CODE     ---       #1036
      01001489H   LINE      CODE     ---       #1037
      0100148AH   LINE      CODE     ---       #1038
      0100148CH   LINE      CODE     ---       #1039
      0100148DH   LINE      CODE     ---       #1040
      0100148EH   LINE      CODE     ---       #1041
      0100148FH   LINE      CODE     ---       #1042
LX51 LINKER/LOCATER V4.34a                                                            05/11/2009  20:51:19  PAGE 19


      01001490H   LINE      CODE     ---       #1043
      01001491H   LINE      CODE     ---       #1044
      01001493H   LINE      CODE     ---       #1045
      01001495H   LINE      CODE     ---       #1046
      01001497H   LINE      CODE     ---       #1047
      01001499H   LINE      CODE     ---       #1048
      0100149BH   LINE      CODE     ---       #1049
      0100149CH   LINE      CODE     ---       #1050
      0100149EH   LINE      CODE     ---       #1051
      010014A1H   LINE      CODE     ---       #1054
      010014A3H   LINE      CODE     ---       #1055
      010014A4H   LINE      CODE     ---       #1056
      010014A5H   LINE      CODE     ---       #1057
      010014A6H   LINE      CODE     ---       #1058
      010014A7H   LINE      CODE     ---       #1059
      010014A9H   LINE      CODE     ---       #1060
      010014ABH   LINE      CODE     ---       #1061
      010014ADH   LINE      CODE     ---       #1062
      010014AFH   LINE      CODE     ---       #1063
      010014B1H   LINE      CODE     ---       #1064
      010014B2H   LINE      CODE     ---       #1065
      010014B4H   LINE      CODE     ---       #1066
      010014B7H   LINE      CODE     ---       #1070
      010014B9H   LINE      CODE     ---       #1071
      010014BAH   LINE      CODE     ---       #1072
      010014BBH   LINE      CODE     ---       #1073
      010014BCH   LINE      CODE     ---       #1074
      010014BEH   LINE      CODE     ---       #1076
      010014C1H   LINE      CODE     ---       #1077
      010014C4H   LINE      CODE     ---       #1078
      010014C7H   LINE      CODE     ---       #1079
      010014C8H   LINE      CODE     ---       #1082
      010014CBH   LINE      CODE     ---       #1083
      010014CEH   LINE      CODE     ---       #1084
      010014D1H   LINE      CODE     ---       #1088
      ---         BLOCKEND  ---      ---       LVL=0

      01001100H   BLOCK     CODE     NEAR LAB  LVL=0
      01001100H   LINE      CODE     ---       #1115
      01001102H   LINE      CODE     ---       #1116
      01001104H   LINE      CODE     ---       #1117
      01001106H   LINE      CODE     ---       #1118
      01001108H   LINE      CODE     ---       #1119
      0100110AH   LINE      CODE     ---       #1130
      0100110CH   LINE      CODE     ---       #1131
      0100110EH   LINE      CODE     ---       #1132
      0100110FH   LINE      CODE     ---       #1133
      01001111H   LINE      CODE     ---       #1135
      01001113H   LINE      CODE     ---       #1136
      01001114H   LINE      CODE     ---       #1137
      01001115H   LINE      CODE     ---       #1138
      01001116H   LINE      CODE     ---       #1139
      01001117H   LINE      CODE     ---       #1140
      01001118H   LINE      CODE     ---       #1141
      01001119H   LINE      CODE     ---       #1142
      0100111BH   LINE      CODE     ---       #1143
      0100111CH   LINE      CODE     ---       #1144
      0100111EH   LINE      CODE     ---       #1145
      01001120H   LINE      CODE     ---       #1146
      01001122H   LINE      CODE     ---       #1148
      01001125H   LINE      CODE     ---       #1149
      01001128H   LINE      CODE     ---       #1150
      0100112BH   LINE      CODE     ---       #1156
      0100112CH   LINE      CODE     ---       #1157
      0100112EH   LINE      CODE     ---       #1158
LX51 LINKER/LOCATER V4.34a                                                            05/11/2009  20:51:19  PAGE 20


      0100112FH   LINE      CODE     ---       #1159
      01001131H   LINE      CODE     ---       #1160
      01001132H   LINE      CODE     ---       #1161
      01001133H   LINE      CODE     ---       #1162
      01001134H   LINE      CODE     ---       #1163
      01001135H   LINE      CODE     ---       #1164
      01001136H   LINE      CODE     ---       #1169
      01001137H   LINE      CODE     ---       #1170
      01001138H   LINE      CODE     ---       #1171
      01001139H   LINE      CODE     ---       #1172
      0100113AH   LINE      CODE     ---       #1173
      0100113BH   LINE      CODE     ---       #1174
      0100113DH   LINE      CODE     ---       #1175
      0100113EH   LINE      CODE     ---       #1176
      0100113FH   LINE      CODE     ---       #1177
      01001140H   LINE      CODE     ---       #1179
      01001141H   LINE      CODE     ---       #1180
      01001143H   LINE      CODE     ---       #1181
      01001144H   LINE      CODE     ---       #1182
      01001146H   LINE      CODE     ---       #1183
      01001148H   LINE      CODE     ---       #1184
      0100114AH   LINE      CODE     ---       #1185
      0100114CH   LINE      CODE     ---       #1186
      0100114DH   LINE      CODE     ---       #1187
      0100114EH   LINE      CODE     ---       #1188
      01001150H   LINE      CODE     ---       #1189
      01001152H   LINE      CODE     ---       #1190
      01001154H   LINE      CODE     ---       #1192
      01001157H   LINE      CODE     ---       #1193
      0100115AH   LINE      CODE     ---       #1194
      0100115DH   LINE      CODE     ---       #1208
      01001160H   LINE      CODE     ---       #1209
      01001163H   LINE      CODE     ---       #1210
      ---         BLOCKEND  ---      ---       LVL=0

      01001180H   BLOCK     CODE     NEAR LAB  LVL=0
      01001180H   LINE      CODE     ---       #1216
      01001182H   LINE      CODE     ---       #1217
      01001183H   LINE      CODE     ---       #1218
      01001185H   LINE      CODE     ---       #1219
      01001186H   LINE      CODE     ---       #1220
      01001187H   LINE      CODE     ---       #1221
      01001188H   LINE      CODE     ---       #1222
      01001189H   LINE      CODE     ---       #1223
      0100118AH   LINE      CODE     ---       #1224
      0100118CH   LINE      CODE     ---       #1225
      0100118EH   LINE      CODE     ---       #1226
      01001190H   LINE      CODE     ---       #1227
      01001192H   LINE      CODE     ---       #1228
      01001194H   LINE      CODE     ---       #1229
      01001197H   LINE      CODE     ---       #1230
      01001199H   LINE      CODE     ---       #1231
      0100119BH   LINE      CODE     ---       #1232
      0100119CH   LINE      CODE     ---       #1233
      0100119DH   LINE      CODE     ---       #1236
      0100119FH   LINE      CODE     ---       #1237
      010011A1H   LINE      CODE     ---       #1238
      010011A3H   LINE      CODE     ---       #1239
      010011A5H   LINE      CODE     ---       #1240
      010011A7H   LINE      CODE     ---       #1241
      010011AAH   LINE      CODE     ---       #1242
      010011ACH   LINE      CODE     ---       #1243
      010011AEH   LINE      CODE     ---       #1244
      010011AFH   LINE      CODE     ---       #1245
      010011B0H   LINE      CODE     ---       #1250
LX51 LINKER/LOCATER V4.34a                                                            05/11/2009  20:51:19  PAGE 21


      010011B2H   LINE      CODE     ---       #1251
      010011B3H   LINE      CODE     ---       #1252
      010011B4H   LINE      CODE     ---       #1253
      010011B5H   LINE      CODE     ---       #1254
      010011B6H   LINE      CODE     ---       #1255
      010011B7H   LINE      CODE     ---       #1256
      010011B8H   LINE      CODE     ---       #1257
      010011BAH   LINE      CODE     ---       #1258
      010011BBH   LINE      CODE     ---       #1259
      010011BDH   LINE      CODE     ---       #1261
      010011BFH   LINE      CODE     ---       #1262
      010011C0H   LINE      CODE     ---       #1263
      010011C2H   LINE      CODE     ---       #1264
      010011C3H   LINE      CODE     ---       #1265
      010011C4H   LINE      CODE     ---       #1266
      010011C5H   LINE      CODE     ---       #1267
      010011C6H   LINE      CODE     ---       #1268
      010011C7H   LINE      CODE     ---       #1269
      010011C8H   LINE      CODE     ---       #1270
      010011C9H   LINE      CODE     ---       #1271
      010011CAH   LINE      CODE     ---       #1272
      010011CBH   LINE      CODE     ---       #1273
      010011CCH   LINE      CODE     ---       #1274
      010011CDH   LINE      CODE     ---       #1275
      010011CEH   LINE      CODE     ---       #1276
      010011D0H   LINE      CODE     ---       #1277
      010011D2H   LINE      CODE     ---       #1278
      010011D3H   LINE      CODE     ---       #1279
      010011D4H   LINE      CODE     ---       #1280
      010011D6H   LINE      CODE     ---       #1281
      010011D8H   LINE      CODE     ---       #1282
      010011DAH   LINE      CODE     ---       #1284
      010011DDH   LINE      CODE     ---       #1285
      010011E0H   LINE      CODE     ---       #1286
      010011E3H   LINE      CODE     ---       #1296
      010011E6H   LINE      CODE     ---       #1297
      010011E9H   LINE      CODE     ---       #1298
      ---         BLOCKEND  ---      ---       LVL=0

      01000F00H   BLOCK     CODE     NEAR LAB  LVL=0
      01000F00H   LINE      CODE     ---       #1306
      01000F02H   LINE      CODE     ---       #1307
      01000F03H   LINE      CODE     ---       #1308
      01000F05H   LINE      CODE     ---       #1309
      01000F06H   LINE      CODE     ---       #1310
      01000F07H   LINE      CODE     ---       #1311
      01000F08H   LINE      CODE     ---       #1312
      01000F09H   LINE      CODE     ---       #1313
      01000F0AH   LINE      CODE     ---       #1314
      01000F0BH   LINE      CODE     ---       #1315
      01000F0CH   LINE      CODE     ---       #1316
      01000F0DH   LINE      CODE     ---       #1317
      01000F0FH   LINE      CODE     ---       #1318
      01000F10H   LINE      CODE     ---       #1319
      01000F11H   LINE      CODE     ---       #1320
      01000F12H   LINE      CODE     ---       #1321
      01000F14H   LINE      CODE     ---       #1322
      01000F16H   LINE      CODE     ---       #1323
      01000F18H   LINE      CODE     ---       #1324
      01000F1AH   LINE      CODE     ---       #1325
      01000F1CH   LINE      CODE     ---       #1326
      01000F1FH   LINE      CODE     ---       #1327
      01000F20H   LINE      CODE     ---       #1328
      01000F22H   LINE      CODE     ---       #1336
      01000F24H   LINE      CODE     ---       #1337
LX51 LINKER/LOCATER V4.34a                                                            05/11/2009  20:51:19  PAGE 22


      01000F25H   LINE      CODE     ---       #1338
      01000F26H   LINE      CODE     ---       #1339
      01000F27H   LINE      CODE     ---       #1340
      01000F28H   LINE      CODE     ---       #1341
      01000F29H   LINE      CODE     ---       #1342
      01000F2CH   LINE      CODE     ---       #1343
      01000F2EH   LINE      CODE     ---       #1344
      01000F30H   LINE      CODE     ---       #1345
      01000F32H   LINE      CODE     ---       #1346
      01000F33H   LINE      CODE     ---       #1347
      01000F35H   LINE      CODE     ---       #1348
      01000F36H   LINE      CODE     ---       #1349
      01000F37H   LINE      CODE     ---       #1350
      01000F38H   LINE      CODE     ---       #1351
      01000F39H   LINE      CODE     ---       #1352
      01000F3AH   LINE      CODE     ---       #1353
      01000F3BH   LINE      CODE     ---       #1354
      01000F3CH   LINE      CODE     ---       #1355
      01000F3DH   LINE      CODE     ---       #1356
      01000F3FH   LINE      CODE     ---       #1357
      01000F40H   LINE      CODE     ---       #1358
      01000F41H   LINE      CODE     ---       #1359
      01000F42H   LINE      CODE     ---       #1360
      01000F44H   LINE      CODE     ---       #1361
      01000F46H   LINE      CODE     ---       #1362
      01000F48H   LINE      CODE     ---       #1363
      01000F4AH   LINE      CODE     ---       #1364
      01000F4CH   LINE      CODE     ---       #1365
      01000F4FH   LINE      CODE     ---       #1366
      01000F50H   LINE      CODE     ---       #1367
      01000F52H   LINE      CODE     ---       #1368
      01000F54H   LINE      CODE     ---       #1369
      01000F55H   LINE      CODE     ---       #1370
      01000F56H   LINE      CODE     ---       #1371
      01000F57H   LINE      CODE     ---       #1372
      01000F58H   LINE      CODE     ---       #1373
      01000F59H   LINE      CODE     ---       #1374
      01000F5BH   LINE      CODE     ---       #1375
      01000F5DH   LINE      CODE     ---       #1376
      01000F60H   LINE      CODE     ---       #1377
      01000F62H   LINE      CODE     ---       #1378
      01000F64H   LINE      CODE     ---       #1379
      01000F66H   LINE      CODE     ---       #1380
      01000F68H   LINE      CODE     ---       #1381
      01000F69H   LINE      CODE     ---       #1382
      01000F6AH   LINE      CODE     ---       #1383
      01000F6BH   LINE      CODE     ---       #1384
      01000F6DH   LINE      CODE     ---       #1385
      01000F6EH   LINE      CODE     ---       #1386
      01000F6FH   LINE      CODE     ---       #1387
      01000F70H   LINE      CODE     ---       #1388
      01000F71H   LINE      CODE     ---       #1389
      01000F72H   LINE      CODE     ---       #1392
      01000F75H   LINE      CODE     ---       #1393
      01000F78H   LINE      CODE     ---       #1394
      ---         BLOCKEND  ---      ---       LVL=0

      01000F80H   BLOCK     CODE     NEAR LAB  LVL=0
      01000F80H   LINE      CODE     ---       #1402
      01000F82H   LINE      CODE     ---       #1403
      01000F83H   LINE      CODE     ---       #1404
      01000F84H   LINE      CODE     ---       #1405
      01000F85H   LINE      CODE     ---       #1406
      01000F86H   LINE      CODE     ---       #1407
      01000F87H   LINE      CODE     ---       #1408
LX51 LINKER/LOCATER V4.34a                                                            05/11/2009  20:51:19  PAGE 23


      01000F89H   LINE      CODE     ---       #1409
      01000F8BH   LINE      CODE     ---       #1410
      01000F8EH   LINE      CODE     ---       #1411
      01000F90H   LINE      CODE     ---       #1412
      01000F92H   LINE      CODE     ---       #1413
      01000F94H   LINE      CODE     ---       #1414
      01000F95H   LINE      CODE     ---       #1415
      01000F97H   LINE      CODE     ---       #1416
      01000F98H   LINE      CODE     ---       #1417
      01000F99H   LINE      CODE     ---       #1418
      01000F9AH   LINE      CODE     ---       #1419
      01000F9BH   LINE      CODE     ---       #1420
      01000F9CH   LINE      CODE     ---       #1421
      01000F9DH   LINE      CODE     ---       #1422
      01000F9EH   LINE      CODE     ---       #1423
      01000F9FH   LINE      CODE     ---       #1424
      01000FA1H   LINE      CODE     ---       #1425
      01000FA2H   LINE      CODE     ---       #1426
      01000FA3H   LINE      CODE     ---       #1427
      01000FA4H   LINE      CODE     ---       #1428
      01000FA6H   LINE      CODE     ---       #1429
      01000FA8H   LINE      CODE     ---       #1430
      01000FAAH   LINE      CODE     ---       #1431
      01000FACH   LINE      CODE     ---       #1432
      01000FAEH   LINE      CODE     ---       #1433
      01000FB1H   LINE      CODE     ---       #1434
      01000FB2H   LINE      CODE     ---       #1435
      01000FB4H   LINE      CODE     ---       #1436
      01000FB6H   LINE      CODE     ---       #1437
      01000FB7H   LINE      CODE     ---       #1438
      01000FB8H   LINE      CODE     ---       #1439
      01000FB9H   LINE      CODE     ---       #1440
      01000FBAH   LINE      CODE     ---       #1441
      01000FBBH   LINE      CODE     ---       #1442
      01000FBEH   LINE      CODE     ---       #1443
      01000FC0H   LINE      CODE     ---       #1444
      01000FC1H   LINE      CODE     ---       #1445
      01000FC3H   LINE      CODE     ---       #1446
      01000FC4H   LINE      CODE     ---       #1447
      01000FC6H   LINE      CODE     ---       #1448
      01000FC7H   LINE      CODE     ---       #1449
      01000FC8H   LINE      CODE     ---       #1450
      01000FC9H   LINE      CODE     ---       #1456
      01000FCBH   LINE      CODE     ---       #1457
      01000FCCH   LINE      CODE     ---       #1458
      01000FCEH   LINE      CODE     ---       #1459
      01000FCFH   LINE      CODE     ---       #1460
      01000FD0H   LINE      CODE     ---       #1461
      01000FD1H   LINE      CODE     ---       #1462
      01000FD2H   LINE      CODE     ---       #1463
      01000FD3H   LINE      CODE     ---       #1464
      01000FD5H   LINE      CODE     ---       #1465
      01000FD7H   LINE      CODE     ---       #1466
      01000FD9H   LINE      CODE     ---       #1467
      01000FDBH   LINE      CODE     ---       #1468
      01000FDDH   LINE      CODE     ---       #1469
      01000FE0H   LINE      CODE     ---       #1470
      01000FE2H   LINE      CODE     ---       #1471
      01000FE4H   LINE      CODE     ---       #1472
      01000FE5H   LINE      CODE     ---       #1473
      01000FE6H   LINE      CODE     ---       #1477
      01000FE9H   LINE      CODE     ---       #1478
      01000FECH   LINE      CODE     ---       #1479
      ---         BLOCKEND  ---      ---       LVL=0

LX51 LINKER/LOCATER V4.34a                                                            05/11/2009  20:51:19  PAGE 24


      01000E00H   BLOCK     CODE     NEAR LAB  LVL=0
      01000E00H   LINE      CODE     ---       #1487
      01000E02H   LINE      CODE     ---       #1488
      01000E04H   LINE      CODE     ---       #1489
      01000E06H   LINE      CODE     ---       #1490
      01000E08H   LINE      CODE     ---       #1491
      01000E0AH   LINE      CODE     ---       #1492
      01000E0DH   LINE      CODE     ---       #1493
      01000E0FH   LINE      CODE     ---       #1494
      01000E11H   LINE      CODE     ---       #1495
      01000E12H   LINE      CODE     ---       #1496
      01000E13H   LINE      CODE     ---       #1501
      01000E15H   LINE      CODE     ---       #1502
      01000E16H   LINE      CODE     ---       #1503
      01000E18H   LINE      CODE     ---       #1504
      01000E19H   LINE      CODE     ---       #1505
      01000E1AH   LINE      CODE     ---       #1506
      01000E1BH   LINE      CODE     ---       #1507
      01000E1CH   LINE      CODE     ---       #1508
      01000E1DH   LINE      CODE     ---       #1509
      01000E1EH   LINE      CODE     ---       #1510
      01000E1FH   LINE      CODE     ---       #1511
      01000E21H   LINE      CODE     ---       #1512
      01000E22H   LINE      CODE     ---       #1513
      01000E24H   LINE      CODE     ---       #1514
      01000E25H   LINE      CODE     ---       #1515
      01000E26H   LINE      CODE     ---       #1516
      01000E27H   LINE      CODE     ---       #1517
      01000E28H   LINE      CODE     ---       #1518
      01000E2AH   LINE      CODE     ---       #1519
      01000E2CH   LINE      CODE     ---       #1520
      01000E2EH   LINE      CODE     ---       #1521
      01000E30H   LINE      CODE     ---       #1522
      01000E32H   LINE      CODE     ---       #1523
      01000E33H   LINE      CODE     ---       #1524
      01000E35H   LINE      CODE     ---       #1525
      01000E38H   LINE      CODE     ---       #1529
      01000E3AH   LINE      CODE     ---       #1530
      01000E3BH   LINE      CODE     ---       #1531
      01000E3DH   LINE      CODE     ---       #1532
      01000E3EH   LINE      CODE     ---       #1533
      01000E3FH   LINE      CODE     ---       #1534
      01000E40H   LINE      CODE     ---       #1535
      01000E41H   LINE      CODE     ---       #1536
      01000E42H   LINE      CODE     ---       #1537
      01000E43H   LINE      CODE     ---       #1538
      01000E44H   LINE      CODE     ---       #1539
      01000E46H   LINE      CODE     ---       #1540
      01000E47H   LINE      CODE     ---       #1541
      01000E49H   LINE      CODE     ---       #1542
      01000E4AH   LINE      CODE     ---       #1543
      01000E4BH   LINE      CODE     ---       #1544
      01000E4CH   LINE      CODE     ---       #1545
      01000E4DH   LINE      CODE     ---       #1546
      01000E4FH   LINE      CODE     ---       #1547
      01000E51H   LINE      CODE     ---       #1548
      01000E53H   LINE      CODE     ---       #1549
      01000E55H   LINE      CODE     ---       #1550
      01000E57H   LINE      CODE     ---       #1551
      01000E58H   LINE      CODE     ---       #1552
      01000E5AH   LINE      CODE     ---       #1553
      01000E5DH   LINE      CODE     ---       #1556
      01000E60H   LINE      CODE     ---       #1557
      01000E63H   LINE      CODE     ---       #1558
      ---         BLOCKEND  ---      ---       LVL=0
LX51 LINKER/LOCATER V4.34a                                                            05/11/2009  20:51:19  PAGE 25



      01000E80H   BLOCK     CODE     NEAR LAB  LVL=0
      01000E80H   LINE      CODE     ---       #1566
      01000E81H   LINE      CODE     ---       #1567
      01000E83H   LINE      CODE     ---       #1568
      01000E84H   LINE      CODE     ---       #1569
      01000E86H   LINE      CODE     ---       #1570
      01000E87H   LINE      CODE     ---       #1571
      01000E88H   LINE      CODE     ---       #1572
      01000E89H   LINE      CODE     ---       #1573
      01000E8AH   LINE      CODE     ---       #1574
      01000E8BH   LINE      CODE     ---       #1575
      01000E8CH   LINE      CODE     ---       #1576
      01000E8DH   LINE      CODE     ---       #1577
      01000E8FH   LINE      CODE     ---       #1578
      01000E90H   LINE      CODE     ---       #1579
      01000E92H   LINE      CODE     ---       #1580
      01000E93H   LINE      CODE     ---       #1581
      01000E94H   LINE      CODE     ---       #1582
      01000E95H   LINE      CODE     ---       #1583
      01000E96H   LINE      CODE     ---       #1584
      01000E97H   LINE      CODE     ---       #1585
      01000E98H   LINE      CODE     ---       #1586
      01000E99H   LINE      CODE     ---       #1587
      01000E9AH   LINE      CODE     ---       #1588
      01000E9CH   LINE      CODE     ---       #1589
      01000E9DH   LINE      CODE     ---       #1590
      01000E9EH   LINE      CODE     ---       #1591
      01000E9FH   LINE      CODE     ---       #1592
      01000EA1H   LINE      CODE     ---       #1593
      01000EA3H   LINE      CODE     ---       #1594
      01000EA5H   LINE      CODE     ---       #1595
      01000EA7H   LINE      CODE     ---       #1596
      01000EA9H   LINE      CODE     ---       #1597
      01000EAAH   LINE      CODE     ---       #1598
      01000EACH   LINE      CODE     ---       #1599
      01000EAFH   LINE      CODE     ---       #1604
      01000EB0H   LINE      CODE     ---       #1605
      01000EB2H   LINE      CODE     ---       #1606
      01000EB3H   LINE      CODE     ---       #1607
      01000EB5H   LINE      CODE     ---       #1608
      01000EB6H   LINE      CODE     ---       #1609
      01000EB7H   LINE      CODE     ---       #1610
      01000EB8H   LINE      CODE     ---       #1611
      01000EB9H   LINE      CODE     ---       #1612
      01000EBAH   LINE      CODE     ---       #1613
      01000EBBH   LINE      CODE     ---       #1614
      01000EBCH   LINE      CODE     ---       #1615
      01000EBEH   LINE      CODE     ---       #1616
      01000EBFH   LINE      CODE     ---       #1617
      01000EC1H   LINE      CODE     ---       #1618
      01000EC2H   LINE      CODE     ---       #1619
      01000EC3H   LINE      CODE     ---       #1620
      01000EC4H   LINE      CODE     ---       #1621
      01000EC5H   LINE      CODE     ---       #1622
      01000EC6H   LINE      CODE     ---       #1623
      01000EC7H   LINE      CODE     ---       #1624
      01000EC8H   LINE      CODE     ---       #1625
      01000EC9H   LINE      CODE     ---       #1626
      01000ECBH   LINE      CODE     ---       #1627
      01000ECCH   LINE      CODE     ---       #1628
      01000ECDH   LINE      CODE     ---       #1629
      01000ECEH   LINE      CODE     ---       #1630
      01000ED0H   LINE      CODE     ---       #1631
      01000ED2H   LINE      CODE     ---       #1632
LX51 LINKER/LOCATER V4.34a                                                            05/11/2009  20:51:19  PAGE 26


      01000ED4H   LINE      CODE     ---       #1633
      01000ED6H   LINE      CODE     ---       #1634
      01000ED8H   LINE      CODE     ---       #1635
      01000ED9H   LINE      CODE     ---       #1636
      01000EDBH   LINE      CODE     ---       #1637
      01000EDEH   LINE      CODE     ---       #1644
      01000EE1H   LINE      CODE     ---       #1645
      01000EE4H   LINE      CODE     ---       #1646
      ---         BLOCKEND  ---      ---       LVL=0

      01001200H   BLOCK     CODE     NEAR LAB  LVL=0
      01001200H   LINE      CODE     ---       #1654
      01001202H   LINE      CODE     ---       #1655
      01001203H   LINE      CODE     ---       #1656
      01001204H   LINE      CODE     ---       #1657
      01001205H   LINE      CODE     ---       #1658
      01001207H   LINE      CODE     ---       #1659
      01001208H   LINE      CODE     ---       #1662
      0100120BH   LINE      CODE     ---       #1663
      0100120EH   LINE      CODE     ---       #1664
      01001211H   LINE      CODE     ---       #1668
      01001213H   LINE      CODE     ---       #1669
      01001214H   LINE      CODE     ---       #1670
      01001215H   LINE      CODE     ---       #1671
      01001216H   LINE      CODE     ---       #1672
      01001217H   LINE      CODE     ---       #1673
      01001219H   LINE      CODE     ---       #1674
      0100121AH   LINE      CODE     ---       #1675
      0100121BH   LINE      CODE     ---       #1676
      0100121CH   LINE      CODE     ---       #1677
      0100121DH   LINE      CODE     ---       #1678
      0100121EH   LINE      CODE     ---       #1679
      0100121FH   LINE      CODE     ---       #1680
      01001221H   LINE      CODE     ---       #1681
      01001222H   LINE      CODE     ---       #1682
      01001223H   LINE      CODE     ---       #1683
      01001224H   LINE      CODE     ---       #1684
      01001226H   LINE      CODE     ---       #1685
      01001229H   LINE      CODE     ---       #1689
      0100122AH   LINE      CODE     ---       #1691
      0100122DH   LINE      CODE     ---       #1698
      0100122FH   LINE      CODE     ---       #1699
      01001230H   LINE      CODE     ---       #1700
      01001232H   LINE      CODE     ---       #1701
      01001233H   LINE      CODE     ---       #1702
      01001235H   LINE      CODE     ---       #1703
      01001236H   LINE      CODE     ---       #1704
      01001237H   LINE      CODE     ---       #1705
      01001238H   LINE      CODE     ---       #1706
      01001239H   LINE      CODE     ---       #1707
      0100123AH   LINE      CODE     ---       #1708
      0100123BH   LINE      CODE     ---       #1709
      0100123EH   LINE      CODE     ---       #1716
      ---         BLOCKEND  ---      ---       LVL=0

      01000A7BH   BLOCK     CODE     NEAR LAB  LVL=0
      01000A7BH   LINE      CODE     ---       #1741
      01000A7DH   LINE      CODE     ---       #1742
      01000A7FH   LINE      CODE     ---       #1743
      01000A82H   LINE      CODE     ---       #1747
      01000A85H   LINE      CODE     ---       #1750
      01000A88H   LINE      CODE     ---       #1754
      01000A89H   LINE      CODE     ---       #1755
      01000A8BH   LINE      CODE     ---       #1756
      01000A8DH   LINE      CODE     ---       #1760
LX51 LINKER/LOCATER V4.34a                                                            05/11/2009  20:51:19  PAGE 27


      01000A8EH   LINE      CODE     ---       #1761
      01000A90H   LINE      CODE     ---       #1762
      01000A93H   LINE      CODE     ---       #1765
      01000A95H   LINE      CODE     ---       #1766
      01000A97H   LINE      CODE     ---       #1767
      01000A9AH   LINE      CODE     ---       #1770
      01000A9CH   LINE      CODE     ---       #1771
      01000A9EH   LINE      CODE     ---       #1772
      01000AA0H   LINE      CODE     ---       #1773
      01000AA3H   LINE      CODE     ---       #1776
      01000AA4H   LINE      CODE     ---       #1777
      01000AA6H   LINE      CODE     ---       #1778
      01000AA7H   LINE      CODE     ---       #1779
      01000AA8H   LINE      CODE     ---       #1780
      01000AA9H   LINE      CODE     ---       #1784
      01000AACH   LINE      CODE     ---       #1787
      01000AAEH   LINE      CODE     ---       #1788
      01000AB0H   LINE      CODE     ---       #1789
      01000AB3H   LINE      CODE     ---       #1793
      01000AB5H   LINE      CODE     ---       #1794
      01000AB6H   LINE      CODE     ---       #1795
      01000AB7H   LINE      CODE     ---       #1796
      01000AB8H   LINE      CODE     ---       #1797
      01000ABAH   LINE      CODE     ---       #1798
      01000ABBH   LINE      CODE     ---       #1800
      01000ABCH   LINE      CODE     ---       #1801
      01000ABEH   LINE      CODE     ---       #1802
      01000ABFH   LINE      CODE     ---       #1803
      01000AC1H   LINE      CODE     ---       #1804
      01000AC2H   LINE      CODE     ---       #1805
      01000AC3H   LINE      CODE     ---       #1806
      01000AC5H   LINE      CODE     ---       #1807
      01000AC7H   LINE      CODE     ---       #1808
      01000AC9H   LINE      CODE     ---       #1824
      01000ACBH   LINE      CODE     ---       #1825
      01000ACDH   LINE      CODE     ---       #1826
      01000ACEH   LINE      CODE     ---       #1827
      01000AD0H   LINE      CODE     ---       #1831
      01000AD3H   LINE      CODE     ---       #1832
      01000AD6H   LINE      CODE     ---       #1833
      01000AD9H   LINE      CODE     ---       #1840
      01000ADBH   LINE      CODE     ---       #1841
      01000ADDH   LINE      CODE     ---       #1843
      01000ADFH   LINE      CODE     ---       #1844
      01000AE1H   LINE      CODE     ---       #1846
      01000AE3H   LINE      CODE     ---       #1847
      01000AE5H   LINE      CODE     ---       #1849
      01000AE7H   LINE      CODE     ---       #1850
      01000AE9H   LINE      CODE     ---       #1852
      01000AEBH   LINE      CODE     ---       #1853
      01000AEDH   LINE      CODE     ---       #1856
      01000AF0H   LINE      CODE     ---       #1857
      01000AF3H   LINE      CODE     ---       #1858
      01000AF6H   LINE      CODE     ---       #1859
      01000AF9H   LINE      CODE     ---       #1862
      01000AFBH   LINE      CODE     ---       #1863
      01000AFCH   LINE      CODE     ---       #1864
      01000AFDH   LINE      CODE     ---       #1865
      01000AFEH   LINE      CODE     ---       #1866
      01000AFFH   LINE      CODE     ---       #1867
      01000B00H   LINE      CODE     ---       #1869
      01000B02H   LINE      CODE     ---       #1870
      01000B03H   LINE      CODE     ---       #1871
      01000B04H   LINE      CODE     ---       #1872
      01000B06H   LINE      CODE     ---       #1873
LX51 LINKER/LOCATER V4.34a                                                            05/11/2009  20:51:19  PAGE 28


      01000B07H   LINE      CODE     ---       #1874
      01000B08H   LINE      CODE     ---       #1876
      01000B0BH   LINE      CODE     ---       #1877
      01000B0EH   LINE      CODE     ---       #1878
      01000B11H   LINE      CODE     ---       #1879
      01000B14H   LINE      CODE     ---       #1880
      01000B17H   LINE      CODE     ---       #1881
      01000B1AH   LINE      CODE     ---       #1882
      01000B1DH   LINE      CODE     ---       #1883
      01000B20H   LINE      CODE     ---       #1884
      01000B23H   LINE      CODE     ---       #1885
      01000B25H   LINE      CODE     ---       #1886
      01000B27H   LINE      CODE     ---       #1887
      01000B29H   LINE      CODE     ---       #1888
      01000B2BH   LINE      CODE     ---       #1889
      01000B2DH   LINE      CODE     ---       #1891
      01000B2FH   LINE      CODE     ---       #1892
      01000B31H   LINE      CODE     ---       #1894
      01000B33H   LINE      CODE     ---       #1895
      01000B35H   LINE      CODE     ---       #1897
      01000B38H   LINE      CODE     ---       #1898
      01000B3BH   LINE      CODE     ---       #1899
      01000B3EH   LINE      CODE     ---       #1900
      01000B41H   LINE      CODE     ---       #1904
      01000B43H   LINE      CODE     ---       #1905
      01000B44H   LINE      CODE     ---       #1906
      01000B45H   LINE      CODE     ---       #1907
      01000B46H   LINE      CODE     ---       #1908
      01000B47H   LINE      CODE     ---       #1909
      01000B48H   LINE      CODE     ---       #1911
      01000B4AH   LINE      CODE     ---       #1912
      01000B4BH   LINE      CODE     ---       #1913
      01000B4CH   LINE      CODE     ---       #1914
      01000B4EH   LINE      CODE     ---       #1915
      01000B4FH   LINE      CODE     ---       #1916
      01000B50H   LINE      CODE     ---       #1918
      01000B53H   LINE      CODE     ---       #1919
      01000B56H   LINE      CODE     ---       #1920
      01000B59H   LINE      CODE     ---       #1924
      01000B5BH   LINE      CODE     ---       #1925
      01000B5DH   LINE      CODE     ---       #1927
      01000B5FH   LINE      CODE     ---       #1928
      01000B61H   LINE      CODE     ---       #1930
      01000B63H   LINE      CODE     ---       #1931
      01000B65H   LINE      CODE     ---       #1933
      01000B68H   LINE      CODE     ---       #1934
      01000B6BH   LINE      CODE     ---       #1935
      01000B6EH   LINE      CODE     ---       #1936
      01000B71H   LINE      CODE     ---       #1949
      01000B73H   LINE      CODE     ---       #1950
      01000B75H   LINE      CODE     ---       #1951
      01000B77H   LINE      CODE     ---       #1952
      01000B79H   LINE      CODE     ---       #1957
      01000B7BH   LINE      CODE     ---       #1958
      01000B7DH   LINE      CODE     ---       #1959
      01000B80H   LINE      CODE     ---       #1962
      01000B82H   LINE      CODE     ---       #1963
      01000B84H   LINE      CODE     ---       #1964
      01000B86H   LINE      CODE     ---       #1965
      01000B89H   LINE      CODE     ---       #1969
      ---         BLOCKEND  ---      ---       LVL=0

      ---         MODULE    ---      ---       ISR_RF
      00000039H   PUBLIC    DATA     BYTE      ?_RF_SEND?BYTE
      010018E3H   PUBLIC    CODE     NEAR LAB  _RF_CONFIGURE
LX51 LINKER/LOCATER V4.34a                                                            05/11/2009  20:51:19  PAGE 29


      01001800H   PUBLIC    CODE     NEAR LAB  _RF_SEND
      00000008H   PUBLIC    DATA     BYTE      RF_BUF
      01001958H   PUBLIC    CODE     NEAR LAB  RF_CH1_RECV
      01001921H   PUBLIC    CODE     NEAR LAB  RF_INIT
      0100194FH   PUBLIC    CODE     NEAR LAB  RF_WAIT_MSG
      000000D0H.6 SFRSYM    DATA     BIT       AC
      000000E0H   SFRSYM    DATA     BYTE      ACC
      000000A1H   SFRSYM    DATA     BYTE      ADCCON
      000000A2H   SFRSYM    DATA     BYTE      ADCDATAH
      000000A3H   SFRSYM    DATA     BYTE      ADCDATAL
      000000A4H   SFRSYM    DATA     BYTE      ADCSTATIC
      000000F0H   SFRSYM    DATA     BYTE      B
      000000C8H.1 SFRSYM    DATA     BIT       C_T2
      000000A0H.6 SFRSYM    DATA     BIT       CE
      000000B6H   SFRSYM    DATA     BYTE      CK_CTRL
      0000008EH   SFRSYM    DATA     BYTE      CKCON
      000000A0H.1 SFRSYM    DATA     BIT       CLK1
      000000A0H.5 SFRSYM    DATA     BIT       CLK2
      000000C8H   SFRSYM    DATA     BIT       CP_RL2
      000000C8H   SFRSYM    DATA     BIT       CPRL2
      000000A0H.3 SFRSYM    DATA     BIT       CS
      000000C8H.1 SFRSYM    DATA     BIT       CT2
      000000D0H.7 SFRSYM    DATA     BIT       CY
      000000A0H   SFRSYM    DATA     BIT       DATA?
      000000BEH   SFRSYM    DATA     BYTE      DEV_OFFSET
      00000090H.2 SFRSYM    DATA     BIT       DIN0
      00000090H   SFRSYM    DATA     BIT       DIO0
      00000090H.1 SFRSYM    DATA     BIT       DIO1
      00000080H   SFRSYM    DATA     BIT       DIO2
      00000080H.1 SFRSYM    DATA     BIT       DIO3
      00000080H.2 SFRSYM    DATA     BIT       DIO4
      00000080H.3 SFRSYM    DATA     BIT       DIO5
      00000080H.4 SFRSYM    DATA     BIT       DIO6
      00000080H.5 SFRSYM    DATA     BIT       DIO7
      00000080H.6 SFRSYM    DATA     BIT       DIO8
      00000080H.7 SFRSYM    DATA     BIT       DIO9
      000000A0H.4 SFRSYM    DATA     BIT       DOUT2
      00000083H   SFRSYM    DATA     BYTE      DPH
      00000083H   SFRSYM    DATA     BYTE      DPH0
      00000085H   SFRSYM    DATA     BYTE      DPH1
      00000082H   SFRSYM    DATA     BYTE      DPL
      00000082H   SFRSYM    DATA     BYTE      DPL0
      00000084H   SFRSYM    DATA     BYTE      DPL1
      00000086H   SFRSYM    DATA     BYTE      DPS
      000000A0H.2 SFRSYM    DATA     BIT       DR1
      000000A0H.6 SFRSYM    DATA     BIT       DR2
      000000A0H.6 SFRSYM    DATA     BIT       DR2_CE
      000000A8H.7 SFRSYM    DATA     BIT       EA
      000000D8H   SFRSYM    DATA     BYTE      EICON
      000000E8H   SFRSYM    DATA     BYTE      EIE
      000000F8H   SFRSYM    DATA     BYTE      EIP
      000000A8H.4 SFRSYM    DATA     BIT       ES
      000000A8H.1 SFRSYM    DATA     BIT       ET0
      000000A8H.3 SFRSYM    DATA     BIT       ET1
      000000A8H.5 SFRSYM    DATA     BIT       ET2
      000000E8H.4 SFRSYM    DATA     BIT       EWDI
      000000A8H   SFRSYM    DATA     BIT       EX0
      000000A8H.2 SFRSYM    DATA     BIT       EX1
      000000E8H   SFRSYM    DATA     BIT       EX2
      000000E8H.1 SFRSYM    DATA     BIT       EX3
      000000E8H.2 SFRSYM    DATA     BIT       EX4
      000000E8H.3 SFRSYM    DATA     BIT       EX5
      000000C8H.3 SFRSYM    DATA     BIT       EXEN2
      000000C8H.6 SFRSYM    DATA     BIT       EXF2
      00000091H   SFRSYM    DATA     BYTE      EXIF
LX51 LINKER/LOCATER V4.34a                                                            05/11/2009  20:51:19  PAGE 30


      000000D0H.5 SFRSYM    DATA     BIT       F0
      000000D0H.1 SFRSYM    DATA     BIT       F1
      000000A8H   SFRSYM    DATA     BYTE      IE
      00000088H.1 SFRSYM    DATA     BIT       IE0
      00000088H.3 SFRSYM    DATA     BIT       IE1
      00000080H.3 SFRSYM    DATA     BIT       INT0_N
      00000080H.4 SFRSYM    DATA     BIT       INT1_N
      000000B8H   SFRSYM    DATA     BYTE      IP
      00000088H   SFRSYM    DATA     BIT       IT0
      00000088H.2 SFRSYM    DATA     BIT       IT1
      00000092H   SFRSYM    DATA     BYTE      MPAGE
      000000D0H.2 SFRSYM    DATA     BIT       OV
      000000D0H   SFRSYM    DATA     BIT       P
      00000080H   SFRSYM    DATA     BYTE      P0
      00000080H   SFRSYM    DATA     BIT       P0_0
      00000080H.1 SFRSYM    DATA     BIT       P0_1
      00000080H.2 SFRSYM    DATA     BIT       P0_2
      00000080H.3 SFRSYM    DATA     BIT       P0_3
      00000080H.4 SFRSYM    DATA     BIT       P0_4
      00000080H.5 SFRSYM    DATA     BIT       P0_5
      00000080H.6 SFRSYM    DATA     BIT       P0_6
      00000080H.7 SFRSYM    DATA     BIT       P0_7
      00000095H   SFRSYM    DATA     BYTE      P0_ALT
      00000094H   SFRSYM    DATA     BYTE      P0_DIR
      00000090H   SFRSYM    DATA     BYTE      P1
      00000090H   SFRSYM    DATA     BIT       P1_0
      00000090H.1 SFRSYM    DATA     BIT       P1_1
      00000090H.2 SFRSYM    DATA     BIT       P1_2
      00000097H   SFRSYM    DATA     BYTE      P1_ALT
      00000096H   SFRSYM    DATA     BYTE      P1_DIR
      00000087H   SFRSYM    DATA     BYTE      PCON
      000000B8H.4 SFRSYM    DATA     BIT       PS
      000000D0H   SFRSYM    DATA     BYTE      PSW
      000000B8H.1 SFRSYM    DATA     BIT       PT0
      000000B8H.3 SFRSYM    DATA     BIT       PT1
      000000B8H.5 SFRSYM    DATA     BIT       PT2
      000000F8H.4 SFRSYM    DATA     BIT       PWDI
      00000080H.7 SFRSYM    DATA     BIT       PWM
      000000A9H   SFRSYM    DATA     BYTE      PWMCON
      000000AAH   SFRSYM    DATA     BYTE      PWMDUTY
      000000A0H.7 SFRSYM    DATA     BIT       PWR_UP
      000000B8H   SFRSYM    DATA     BIT       PX0
      000000B8H.2 SFRSYM    DATA     BIT       PX1
      000000F8H   SFRSYM    DATA     BIT       PX2
      000000F8H.1 SFRSYM    DATA     BIT       PX3
      000000F8H.2 SFRSYM    DATA     BIT       PX4
      000000F8H.3 SFRSYM    DATA     BIT       PX5
      000000A0H   SFRSYM    DATA     BYTE      RADIO
      00000098H.2 SFRSYM    DATA     BIT       RB8
      000000CBH   SFRSYM    DATA     BYTE      RCAP2H
      000000CAH   SFRSYM    DATA     BYTE      RCAP2L
      000000C8H.5 SFRSYM    DATA     BIT       RCLK
      000000ADH   SFRSYM    DATA     BYTE      REGX_CTRL
      000000ACH   SFRSYM    DATA     BYTE      REGX_LSB
      000000ABH   SFRSYM    DATA     BYTE      REGX_MSB
      00000098H.4 SFRSYM    DATA     BIT       REN
      00000098H   SFRSYM    DATA     BIT       RI
      000000D0H.3 SFRSYM    DATA     BIT       RS0
      000000D0H.4 SFRSYM    DATA     BIT       RS1
      000000B1H   SFRSYM    DATA     BYTE      RSTREAS
      00000080H.1 SFRSYM    DATA     BIT       RXD
      00000099H   SFRSYM    DATA     BYTE      SBUF
      00000098H   SFRSYM    DATA     BYTE      SCON
      00000098H.7 SFRSYM    DATA     BIT       SM0
      00000098H.6 SFRSYM    DATA     BIT       SM1
LX51 LINKER/LOCATER V4.34a                                                            05/11/2009  20:51:19  PAGE 31


      00000098H.5 SFRSYM    DATA     BIT       SM2
      00000081H   SFRSYM    DATA     BYTE      SP
      0000008FH   SFRSYM    DATA     BYTE      SPC_FNC
      000000B3H   SFRSYM    DATA     BYTE      SPI_CTRL
      000000B2H   SFRSYM    DATA     BYTE      SPI_DATA
      000000B4H   SFRSYM    DATA     BYTE      SPICLK
      00000080H.5 SFRSYM    DATA     BIT       T0
      00000080H.6 SFRSYM    DATA     BIT       T1
      000000BCH   SFRSYM    DATA     BYTE      T1_1V2
      00000090H   SFRSYM    DATA     BIT       T2
      000000BDH   SFRSYM    DATA     BYTE      T2_1V2
      000000C8H   SFRSYM    DATA     BYTE      T2CON
      00000098H.3 SFRSYM    DATA     BIT       TB8
      000000C8H.4 SFRSYM    DATA     BIT       TCLK
      00000088H   SFRSYM    DATA     BYTE      TCON
      000000B7H   SFRSYM    DATA     BYTE      TEST_MODE
      00000088H.5 SFRSYM    DATA     BIT       TF0
      00000088H.7 SFRSYM    DATA     BIT       TF1
      000000C8H.7 SFRSYM    DATA     BIT       TF2
      0000008CH   SFRSYM    DATA     BYTE      TH0
      0000008DH   SFRSYM    DATA     BYTE      TH1
      000000CDH   SFRSYM    DATA     BYTE      TH2
      00000098H.1 SFRSYM    DATA     BIT       TI
      000000B5H   SFRSYM    DATA     BYTE      TICK_DV
      0000008AH   SFRSYM    DATA     BYTE      TL0
      0000008BH   SFRSYM    DATA     BYTE      TL1
      000000CCH   SFRSYM    DATA     BYTE      TL2
      00000089H   SFRSYM    DATA     BYTE      TMOD
      00000088H.4 SFRSYM    DATA     BIT       TR0
      00000088H.6 SFRSYM    DATA     BIT       TR1
      000000C8H.2 SFRSYM    DATA     BIT       TR2
      00000080H.2 SFRSYM    DATA     BIT       TXD
      000000D8H.3 SFRSYM    DATA     BIT       WDTI
      0000005BH   SYMBOL    DATA     BYTE      ?_RF_CONFIGURE?BYTE
      010018F0H   SYMBOL    CODE     NEAR LAB  ?C0002
      01001916H   SYMBOL    CODE     NEAR LAB  ?C0003
      0100180FH   SYMBOL    CODE     NEAR LAB  ?C0006
      01001839H   SYMBOL    CODE     NEAR LAB  ?C0007
      0100183EH   SYMBOL    CODE     NEAR LAB  ?C0009
      01001868H   SYMBOL    CODE     NEAR LAB  ?C0010
      0100197FH   SYMBOL    CODE     NEAR LAB  ?C0015
      01001997H   SYMBOL    CODE     NEAR LAB  ?C0016
      01001951H   SYMBOL    CODE     NEAR LAB  ?C0018
      01001955H   SYMBOL    CODE     NEAR LAB  ?C0019
      0100190BH   SYMBOL    CODE     NEAR LAB  ?C0021
      01001837H   SYMBOL    CODE     NEAR LAB  ?C0022
      01001866H   SYMBOL    CODE     NEAR LAB  ?C0023
      0100198FH   SYMBOL    CODE     NEAR LAB  ?C0024
      00000071H   SYMBOL    DATA     BYTE      ?RF_CH1_RECV?BYTE
      0100199AH   SYMBOL    CODE     NEAR LAB  ?RF_CH1_RECV?OUT
      00000039H   SYMBOL    DATA     BYTE      ADDR?243
      0000003CH   SYMBOL    DATA     BYTE      ADDR_LEN?244
      0000005EH   SYMBOL    DATA     BYTE      I?142
      00000041H   SYMBOL    DATA     BYTE      I?247
      00000071H   SYMBOL    DATA     BYTE      I?348
      0000005BH   SYMBOL    DATA     BYTE      P?141
      0000003DH   SYMBOL    DATA     BYTE      PAYLOAD?245
      00000040H   SYMBOL    DATA     BYTE      PL_LEN?246

      01001921H   BLOCK     CODE     NEAR LAB  LVL=0
      01001921H   LINE      CODE     ---       #265
      01001923H   LINE      CODE     ---       #269
      01001924H   LINE      CODE     ---       #270
      01001925H   LINE      CODE     ---       #271
      01001927H   LINE      CODE     ---       #272
LX51 LINKER/LOCATER V4.34a                                                            05/11/2009  20:51:19  PAGE 32


      0100192AH   LINE      CODE     ---       #275
      0100192CH   LINE      CODE     ---       #278
      0100192EH   LINE      CODE     ---       #281
      ---         BLOCKEND  ---      ---       LVL=0

      010018E3H   BLOCK     CODE     NEAR LAB  LVL=0
      010018E3H   LINE      CODE     ---       #304
      010018E5H   LINE      CODE     ---       #308
      010018E7H   LINE      CODE     ---       #309
      010018E9H   LINE      CODE     ---       #310
      010018EBH   LINE      CODE     ---       #314
      010018ECH   LINE      CODE     ---       #315
      010018EEH   LINE      CODE     ---       #316
      010018F0H   LINE      CODE     ---       #320
      010018F2H   LINE      CODE     ---       #321
      010018F4H   LINE      CODE     ---       #322
      010018F6H   LINE      CODE     ---       #323
      010018F9H   LINE      CODE     ---       #324
      010018FCH   LINE      CODE     ---       #325
      010018FFH   LINE      CODE     ---       #326
      01001900H   LINE      CODE     ---       #327
      01001903H   LINE      CODE     ---       #330
      01001905H   LINE      CODE     ---       #331
      01001907H   LINE      CODE     ---       #332
      01001909H   LINE      CODE     ---       #333
      0100190BH   LINE      CODE     ---       #335
      0100190CH   LINE      CODE     ---       #336
      0100190EH   LINE      CODE     ---       #337
      01001910H   LINE      CODE     ---       #338
      01001912H   LINE      CODE     ---       #339
      01001914H   LINE      CODE     ---       #340
      01001916H   LINE      CODE     ---       #345
      01001918H   LINE      CODE     ---       #348
      ---         BLOCKEND  ---      ---       LVL=0

      01001800H   BLOCK     CODE     NEAR LAB  LVL=0
      01001800H   LINE      CODE     ---       #365
      01001802H   LINE      CODE     ---       #366
      01001804H   LINE      CODE     ---       #367
      01001806H   LINE      CODE     ---       #368
      01001808H   LINE      CODE     ---       #376
      0100180AH   LINE      CODE     ---       #381
      0100180BH   LINE      CODE     ---       #382
      0100180DH   LINE      CODE     ---       #383
      0100180FH   LINE      CODE     ---       #385
      01001810H   LINE      CODE     ---       #386
      01001812H   LINE      CODE     ---       #387
      01001814H   LINE      CODE     ---       #388
      01001816H   LINE      CODE     ---       #389
      01001817H   LINE      CODE     ---       #390
      01001819H   LINE      CODE     ---       #391
      0100181AH   LINE      CODE     ---       #392
      0100181CH   LINE      CODE     ---       #395
      0100181EH   LINE      CODE     ---       #396
      01001820H   LINE      CODE     ---       #397
      01001822H   LINE      CODE     ---       #398
      01001825H   LINE      CODE     ---       #399
      01001828H   LINE      CODE     ---       #400
      0100182BH   LINE      CODE     ---       #401
      0100182CH   LINE      CODE     ---       #402
      0100182FH   LINE      CODE     ---       #403
      01001831H   LINE      CODE     ---       #404
      01001833H   LINE      CODE     ---       #405
      01001835H   LINE      CODE     ---       #406
      01001837H   LINE      CODE     ---       #408
LX51 LINKER/LOCATER V4.34a                                                            05/11/2009  20:51:19  PAGE 33


      01001839H   LINE      CODE     ---       #413
      0100183AH   LINE      CODE     ---       #414
      0100183CH   LINE      CODE     ---       #415
      0100183EH   LINE      CODE     ---       #417
      0100183FH   LINE      CODE     ---       #418
      01001841H   LINE      CODE     ---       #419
      01001843H   LINE      CODE     ---       #420
      01001845H   LINE      CODE     ---       #421
      01001846H   LINE      CODE     ---       #422
      01001848H   LINE      CODE     ---       #423
      01001849H   LINE      CODE     ---       #424
      0100184BH   LINE      CODE     ---       #427
      0100184DH   LINE      CODE     ---       #428
      0100184FH   LINE      CODE     ---       #429
      01001851H   LINE      CODE     ---       #430
      01001854H   LINE      CODE     ---       #431
      01001857H   LINE      CODE     ---       #432
      0100185AH   LINE      CODE     ---       #433
      0100185BH   LINE      CODE     ---       #434
      0100185EH   LINE      CODE     ---       #435
      01001860H   LINE      CODE     ---       #436
      01001862H   LINE      CODE     ---       #437
      01001864H   LINE      CODE     ---       #438
      01001866H   LINE      CODE     ---       #440
      01001868H   LINE      CODE     ---       #445
      0100186AH   LINE      CODE     ---       #448
      ---         BLOCKEND  ---      ---       LVL=0

      01000053H   BLOCK     CODE     NEAR LAB  LVL=0
      01000053H   LINE      CODE     ---       #452
      ---         BLOCKEND  ---      ---       LVL=0

      01001958H   BLOCK     CODE     NEAR LAB  LVL=0
      01001958H   LINE      CODE     ---       #461
      0100195AH   LINE      CODE     ---       #462
      0100195CH   LINE      CODE     ---       #463
      0100195EH   LINE      CODE     ---       #464
      01001960H   LINE      CODE     ---       #465
      01001962H   LINE      CODE     ---       #466
      01001965H   LINE      CODE     ---       #467
      01001967H   LINE      CODE     ---       #468
      01001969H   LINE      CODE     ---       #469
      0100196BH   LINE      CODE     ---       #470
      0100196DH   LINE      CODE     ---       #471
      0100196FH   LINE      CODE     ---       #472
      01001971H   LINE      CODE     ---       #473
      01001973H   LINE      CODE     ---       #474
      01001975H   LINE      CODE     ---       #480
      01001978H   LINE      CODE     ---       #481
      0100197BH   LINE      CODE     ---       #488
      0100197DH   LINE      CODE     ---       #489
      0100197FH   LINE      CODE     ---       #495
      01001982H   LINE      CODE     ---       #498
      01001983H   LINE      CODE     ---       #499
      01001984H   LINE      CODE     ---       #500
      01001987H   LINE      CODE     ---       #501
      01001989H   LINE      CODE     ---       #502
      0100198BH   LINE      CODE     ---       #503
      0100198DH   LINE      CODE     ---       #504
      0100198FH   LINE      CODE     ---       #506
      01001990H   LINE      CODE     ---       #507
      01001992H   LINE      CODE     ---       #508
      01001993H   LINE      CODE     ---       #509
      01001995H   LINE      CODE     ---       #512
      01001997H   LINE      CODE     ---       #516
LX51 LINKER/LOCATER V4.34a                                                            05/11/2009  20:51:19  PAGE 34


      0100199AH   LINE      CODE     ---       #523
      0100199DH   LINE      CODE     ---       #526
      0100199FH   LINE      CODE     ---       #527
      010019A1H   LINE      CODE     ---       #528
      010019A3H   LINE      CODE     ---       #529
      010019A5H   LINE      CODE     ---       #530
      010019A7H   LINE      CODE     ---       #531
      010019A9H   LINE      CODE     ---       #532
      010019ABH   LINE      CODE     ---       #533
      010019ADH   LINE      CODE     ---       #534
      010019AFH   LINE      CODE     ---       #535
      010019B1H   LINE      CODE     ---       #536
      010019B3H   LINE      CODE     ---       #537
      010019B5H   LINE      CODE     ---       #538
      010019B7H   LINE      CODE     ---       #539
      ---         BLOCKEND  ---      ---       LVL=0

      0100194FH   BLOCK     CODE     NEAR LAB  LVL=0
      0100194FH   LINE      CODE     ---       #555
      01001951H   LINE      CODE     ---       #559
      01001953H   LINE      CODE     ---       #560
      01001955H   LINE      CODE     ---       #565
      01001957H   LINE      CODE     ---       #568
      ---         BLOCKEND  ---      ---       LVL=0

      ---         MODULE    ---      ---       ECO_PAGE
      00000050H   PUBLIC    DATA     BYTE      ECO_PAGE_ADDR
      0100193BH   PUBLIC    CODE     NEAR LAB  ECO_PAGE_INIT
      010006EAH   PUBLIC    CODE     NEAR LAB  ECO_PAGE_MANAGER
      0000004CH   PUBLIC    DATA     BYTE      ECO_PAGE_PREV_PID
      0000004EH   PUBLIC    DATA     BYTE      ECO_PAGE_PREV_VID
      000000CCH   PUBLIC    IDATA    BYTE      ECO_PAGE_REGISTER1
      000000CDH   PUBLIC    IDATA    BYTE      ECO_PAGE_REGISTER2
      000000CEH   PUBLIC    IDATA    BYTE      ECO_PAGE_REGISTER3
      000000CFH   PUBLIC    IDATA    BYTE      ECO_PAGE_REGISTER4
      000000D0H   PUBLIC    IDATA    BYTE      ECO_PAGE_REGISTER5
      000000D1H   PUBLIC    IDATA    BYTE      ECO_PAGE_REGISTER6
      000000D2H   PUBLIC    IDATA    BYTE      ECO_PAGE_REGISTER7
      0000004BH   PUBLIC    DATA     BYTE      ECO_PAGE_SPI_CONN
      000000C0H   PUBLIC    IDATA    BYTE      ECO_PAGE_TABLE
      00000052H   PUBLIC    DATA     BYTE      ECO_PAGE_TABLE_INDEX
      000000D0H.6 SFRSYM    DATA     BIT       AC
      000000E0H   SFRSYM    DATA     BYTE      ACC
      000000A1H   SFRSYM    DATA     BYTE      ADCCON
      000000A2H   SFRSYM    DATA     BYTE      ADCDATAH
      000000A3H   SFRSYM    DATA     BYTE      ADCDATAL
      000000A4H   SFRSYM    DATA     BYTE      ADCSTATIC
      000000F0H   SFRSYM    DATA     BYTE      B
      000000C8H.1 SFRSYM    DATA     BIT       C_T2
      000000A0H.6 SFRSYM    DATA     BIT       CE
      000000B6H   SFRSYM    DATA     BYTE      CK_CTRL
      0000008EH   SFRSYM    DATA     BYTE      CKCON
      000000A0H.1 SFRSYM    DATA     BIT       CLK1
      000000A0H.5 SFRSYM    DATA     BIT       CLK2
      000000C8H   SFRSYM    DATA     BIT       CP_RL2
      000000C8H   SFRSYM    DATA     BIT       CPRL2
      000000A0H.3 SFRSYM    DATA     BIT       CS
      000000C8H.1 SFRSYM    DATA     BIT       CT2
      000000D0H.7 SFRSYM    DATA     BIT       CY
      000000A0H   SFRSYM    DATA     BIT       DATA?
      000000BEH   SFRSYM    DATA     BYTE      DEV_OFFSET
      00000090H.2 SFRSYM    DATA     BIT       DIN0
      00000090H   SFRSYM    DATA     BIT       DIO0
      00000090H.1 SFRSYM    DATA     BIT       DIO1
      00000080H   SFRSYM    DATA     BIT       DIO2
LX51 LINKER/LOCATER V4.34a                                                            05/11/2009  20:51:19  PAGE 35


      00000080H.1 SFRSYM    DATA     BIT       DIO3
      00000080H.2 SFRSYM    DATA     BIT       DIO4
      00000080H.3 SFRSYM    DATA     BIT       DIO5
      00000080H.4 SFRSYM    DATA     BIT       DIO6
      00000080H.5 SFRSYM    DATA     BIT       DIO7
      00000080H.6 SFRSYM    DATA     BIT       DIO8
      00000080H.7 SFRSYM    DATA     BIT       DIO9
      000000A0H.4 SFRSYM    DATA     BIT       DOUT2
      00000083H   SFRSYM    DATA     BYTE      DPH
      00000083H   SFRSYM    DATA     BYTE      DPH0
      00000085H   SFRSYM    DATA     BYTE      DPH1
      00000082H   SFRSYM    DATA     BYTE      DPL
      00000082H   SFRSYM    DATA     BYTE      DPL0
      00000084H   SFRSYM    DATA     BYTE      DPL1
      00000086H   SFRSYM    DATA     BYTE      DPS
      000000A0H.2 SFRSYM    DATA     BIT       DR1
      000000A0H.6 SFRSYM    DATA     BIT       DR2
      000000A0H.6 SFRSYM    DATA     BIT       DR2_CE
      000000A8H.7 SFRSYM    DATA     BIT       EA
      000000D8H   SFRSYM    DATA     BYTE      EICON
      000000E8H   SFRSYM    DATA     BYTE      EIE
      000000F8H   SFRSYM    DATA     BYTE      EIP
      000000A8H.4 SFRSYM    DATA     BIT       ES
      000000A8H.1 SFRSYM    DATA     BIT       ET0
      000000A8H.3 SFRSYM    DATA     BIT       ET1
      000000A8H.5 SFRSYM    DATA     BIT       ET2
      000000E8H.4 SFRSYM    DATA     BIT       EWDI
      000000A8H   SFRSYM    DATA     BIT       EX0
      000000A8H.2 SFRSYM    DATA     BIT       EX1
      000000E8H   SFRSYM    DATA     BIT       EX2
      000000E8H.1 SFRSYM    DATA     BIT       EX3
      000000E8H.2 SFRSYM    DATA     BIT       EX4
      000000E8H.3 SFRSYM    DATA     BIT       EX5
      000000C8H.3 SFRSYM    DATA     BIT       EXEN2
      000000C8H.6 SFRSYM    DATA     BIT       EXF2
      00000091H   SFRSYM    DATA     BYTE      EXIF
      000000D0H.5 SFRSYM    DATA     BIT       F0
      000000D0H.1 SFRSYM    DATA     BIT       F1
      000000A8H   SFRSYM    DATA     BYTE      IE
      00000088H.1 SFRSYM    DATA     BIT       IE0
      00000088H.3 SFRSYM    DATA     BIT       IE1
      00000080H.3 SFRSYM    DATA     BIT       INT0_N
      00000080H.4 SFRSYM    DATA     BIT       INT1_N
      000000B8H   SFRSYM    DATA     BYTE      IP
      00000088H   SFRSYM    DATA     BIT       IT0
      00000088H.2 SFRSYM    DATA     BIT       IT1
      00000092H   SFRSYM    DATA     BYTE      MPAGE
      000000D0H.2 SFRSYM    DATA     BIT       OV
      000000D0H   SFRSYM    DATA     BIT       P
      00000080H   SFRSYM    DATA     BYTE      P0
      00000080H   SFRSYM    DATA     BIT       P0_0
      00000080H.1 SFRSYM    DATA     BIT       P0_1
      00000080H.2 SFRSYM    DATA     BIT       P0_2
      00000080H.3 SFRSYM    DATA     BIT       P0_3
      00000080H.4 SFRSYM    DATA     BIT       P0_4
      00000080H.5 SFRSYM    DATA     BIT       P0_5
      00000080H.6 SFRSYM    DATA     BIT       P0_6
      00000080H.7 SFRSYM    DATA     BIT       P0_7
      00000095H   SFRSYM    DATA     BYTE      P0_ALT
      00000094H   SFRSYM    DATA     BYTE      P0_DIR
      00000090H   SFRSYM    DATA     BYTE      P1
      00000090H   SFRSYM    DATA     BIT       P1_0
      00000090H.1 SFRSYM    DATA     BIT       P1_1
      00000090H.2 SFRSYM    DATA     BIT       P1_2
      00000097H   SFRSYM    DATA     BYTE      P1_ALT
LX51 LINKER/LOCATER V4.34a                                                            05/11/2009  20:51:19  PAGE 36


      00000096H   SFRSYM    DATA     BYTE      P1_DIR
      00000087H   SFRSYM    DATA     BYTE      PCON
      000000B8H.4 SFRSYM    DATA     BIT       PS
      000000D0H   SFRSYM    DATA     BYTE      PSW
      000000B8H.1 SFRSYM    DATA     BIT       PT0
      000000B8H.3 SFRSYM    DATA     BIT       PT1
      000000B8H.5 SFRSYM    DATA     BIT       PT2
      000000F8H.4 SFRSYM    DATA     BIT       PWDI
      00000080H.7 SFRSYM    DATA     BIT       PWM
      000000A9H   SFRSYM    DATA     BYTE      PWMCON
      000000AAH   SFRSYM    DATA     BYTE      PWMDUTY
      000000A0H.7 SFRSYM    DATA     BIT       PWR_UP
      000000B8H   SFRSYM    DATA     BIT       PX0
      000000B8H.2 SFRSYM    DATA     BIT       PX1
      000000F8H   SFRSYM    DATA     BIT       PX2
      000000F8H.1 SFRSYM    DATA     BIT       PX3
      000000F8H.2 SFRSYM    DATA     BIT       PX4
      000000F8H.3 SFRSYM    DATA     BIT       PX5
      000000A0H   SFRSYM    DATA     BYTE      RADIO
      00000098H.2 SFRSYM    DATA     BIT       RB8
      000000CBH   SFRSYM    DATA     BYTE      RCAP2H
      000000CAH   SFRSYM    DATA     BYTE      RCAP2L
      000000C8H.5 SFRSYM    DATA     BIT       RCLK
      000000ADH   SFRSYM    DATA     BYTE      REGX_CTRL
      000000ACH   SFRSYM    DATA     BYTE      REGX_LSB
      000000ABH   SFRSYM    DATA     BYTE      REGX_MSB
      00000098H.4 SFRSYM    DATA     BIT       REN
      00000098H   SFRSYM    DATA     BIT       RI
      000000D0H.3 SFRSYM    DATA     BIT       RS0
      000000D0H.4 SFRSYM    DATA     BIT       RS1
      000000B1H   SFRSYM    DATA     BYTE      RSTREAS
      00000080H.1 SFRSYM    DATA     BIT       RXD
      00000099H   SFRSYM    DATA     BYTE      SBUF
      00000098H   SFRSYM    DATA     BYTE      SCON
      00000098H.7 SFRSYM    DATA     BIT       SM0
      00000098H.6 SFRSYM    DATA     BIT       SM1
      00000098H.5 SFRSYM    DATA     BIT       SM2
      00000081H   SFRSYM    DATA     BYTE      SP
      0000008FH   SFRSYM    DATA     BYTE      SPC_FNC
      000000B3H   SFRSYM    DATA     BYTE      SPI_CTRL
      000000B2H   SFRSYM    DATA     BYTE      SPI_DATA
      000000B4H   SFRSYM    DATA     BYTE      SPICLK
      00000080H.5 SFRSYM    DATA     BIT       T0
      00000080H.6 SFRSYM    DATA     BIT       T1
      000000BCH   SFRSYM    DATA     BYTE      T1_1V2
      00000090H   SFRSYM    DATA     BIT       T2
      000000BDH   SFRSYM    DATA     BYTE      T2_1V2
      000000C8H   SFRSYM    DATA     BYTE      T2CON
      00000098H.3 SFRSYM    DATA     BIT       TB8
      000000C8H.4 SFRSYM    DATA     BIT       TCLK
      00000088H   SFRSYM    DATA     BYTE      TCON
      000000B7H   SFRSYM    DATA     BYTE      TEST_MODE
      00000088H.5 SFRSYM    DATA     BIT       TF0
      00000088H.7 SFRSYM    DATA     BIT       TF1
      000000C8H.7 SFRSYM    DATA     BIT       TF2
      0000008CH   SFRSYM    DATA     BYTE      TH0
      0000008DH   SFRSYM    DATA     BYTE      TH1
      000000CDH   SFRSYM    DATA     BYTE      TH2
      00000098H.1 SFRSYM    DATA     BIT       TI
      000000B5H   SFRSYM    DATA     BYTE      TICK_DV
      0000008AH   SFRSYM    DATA     BYTE      TL0
      0000008BH   SFRSYM    DATA     BYTE      TL1
      000000CCH   SFRSYM    DATA     BYTE      TL2
      00000089H   SFRSYM    DATA     BYTE      TMOD
      00000088H.4 SFRSYM    DATA     BIT       TR0
LX51 LINKER/LOCATER V4.34a                                                            05/11/2009  20:51:19  PAGE 37


      00000088H.6 SFRSYM    DATA     BIT       TR1
      000000C8H.2 SFRSYM    DATA     BIT       TR2
      00000080H.2 SFRSYM    DATA     BIT       TXD
      000000D8H.3 SFRSYM    DATA     BIT       WDTI
      0100074CH   SYMBOL    CODE     NEAR LAB  ?C0002
      01000752H   SYMBOL    CODE     NEAR LAB  ?C0003
      01000795H   SYMBOL    CODE     NEAR LAB  ?C0004
      0100078BH   SYMBOL    CODE     NEAR LAB  ?C0005
      0100080FH   SYMBOL    CODE     NEAR LAB  ?C0007
      0100082EH   SYMBOL    CODE     NEAR LAB  ?C0009
      01000869H   SYMBOL    CODE     NEAR LAB  ?C0010
      010008F2H   SYMBOL    CODE     NEAR LAB  ?C0012
      010006F7H   SYMBOL    CODE     NEAR LAB  ?C0013
      01000705H   SYMBOL    CODE     NEAR LAB  ?C0014
      01000710H   SYMBOL    CODE     NEAR LAB  ?C0015
      0100076DH   SYMBOL    CODE     NEAR LAB  ?C0016
      0100077AH   SYMBOL    CODE     NEAR LAB  ?C0017
      01000793H   SYMBOL    CODE     NEAR LAB  ?C0018
      010007A1H   SYMBOL    CODE     NEAR LAB  ?C0019
      010007ACH   SYMBOL    CODE     NEAR LAB  ?C0020
      010007C1H   SYMBOL    CODE     NEAR LAB  ?C0021
      010007DCH   SYMBOL    CODE     NEAR LAB  ?C0022
      0100081AH   SYMBOL    CODE     NEAR LAB  ?C0023
      01000867H   SYMBOL    CODE     NEAR LAB  ?C0024
      0100086FH   SYMBOL    CODE     NEAR LAB  ?C0025
      01000895H   SYMBOL    CODE     NEAR LAB  ?C0026
      010008B0H   SYMBOL    CODE     NEAR LAB  ?C0027
      00000073H   SYMBOL    DATA     BYTE      ?ECO_PAGE_MANAGER?BYTE
      000000E5H   SYMBOL    IDATA    BYTE      I?141
      000000E7H   SYMBOL    IDATA    BYTE      PAGE_INDEX?142
      00000073H   SYMBOL    DATA     BYTE      SEG?140

      0100193BH   BLOCK     CODE     NEAR LAB  LVL=0
      0100193BH   LINE      CODE     ---       #320
      0100193CH   LINE      CODE     ---       #321
      0100193EH   LINE      CODE     ---       #324
      01001940H   LINE      CODE     ---       #325
      01001942H   LINE      CODE     ---       #328
      01001944H   LINE      CODE     ---       #329
      01001946H   LINE      CODE     ---       #332
      01001948H   LINE      CODE     ---       #333
      0100194AH   LINE      CODE     ---       #336
      ---         BLOCKEND  ---      ---       LVL=0

      010006EAH   BLOCK     CODE     NEAR LAB  LVL=0
      010006EAH   LINE      CODE     ---       #551
      010006ECH   LINE      CODE     ---       #552
      010006EEH   LINE      CODE     ---       #553
      010006EFH   LINE      CODE     ---       #554
      010006F0H   LINE      CODE     ---       #555
      010006F1H   LINE      CODE     ---       #568
      010006F3H   LINE      CODE     ---       #569
      010006F5H   LINE      CODE     ---       #570
      010006F7H   LINE      CODE     ---       #572
      010006F8H   LINE      CODE     ---       #573
      010006F9H   LINE      CODE     ---       #574
      010006FAH   LINE      CODE     ---       #575
      010006FBH   LINE      CODE     ---       #576
      010006FCH   LINE      CODE     ---       #577
      010006FEH   LINE      CODE     ---       #578
      01000700H   LINE      CODE     ---       #579
      01000702H   LINE      CODE     ---       #580
      01000703H   LINE      CODE     ---       #581
      01000705H   LINE      CODE     ---       #583
      01000707H   LINE      CODE     ---       #584
LX51 LINKER/LOCATER V4.34a                                                            05/11/2009  20:51:19  PAGE 38


      0100070AH   LINE      CODE     ---       #590
      0100070CH   LINE      CODE     ---       #591
      0100070EH   LINE      CODE     ---       #592
      01000710H   LINE      CODE     ---       #594
      01000711H   LINE      CODE     ---       #595
      01000712H   LINE      CODE     ---       #596
      01000713H   LINE      CODE     ---       #597
      01000714H   LINE      CODE     ---       #598
      01000715H   LINE      CODE     ---       #599
      01000717H   LINE      CODE     ---       #600
      01000718H   LINE      CODE     ---       #601
      0100071AH   LINE      CODE     ---       #602
      0100071CH   LINE      CODE     ---       #603
      0100071EH   LINE      CODE     ---       #604
      0100071FH   LINE      CODE     ---       #605
      01000721H   LINE      CODE     ---       #606
      01000722H   LINE      CODE     ---       #607
      01000723H   LINE      CODE     ---       #608
      01000725H   LINE      CODE     ---       #613
      01000727H   LINE      CODE     ---       #615
      01000728H   LINE      CODE     ---       #617
      01000729H   LINE      CODE     ---       #621
      0100072BH   LINE      CODE     ---       #623
      0100072CH   LINE      CODE     ---       #625
      0100072DH   LINE      CODE     ---       #629
      0100072FH   LINE      CODE     ---       #631
      01000730H   LINE      CODE     ---       #633
      01000731H   LINE      CODE     ---       #637
      01000733H   LINE      CODE     ---       #639
      01000734H   LINE      CODE     ---       #641
      01000735H   LINE      CODE     ---       #645
      01000737H   LINE      CODE     ---       #647
      01000738H   LINE      CODE     ---       #649
      01000739H   LINE      CODE     ---       #653
      0100073BH   LINE      CODE     ---       #655
      0100073CH   LINE      CODE     ---       #657
      0100073DH   LINE      CODE     ---       #661
      0100073FH   LINE      CODE     ---       #663
      01000740H   LINE      CODE     ---       #665
      01000741H   LINE      CODE     ---       #671
      01000744H   LINE      CODE     ---       #673
      01000747H   LINE      CODE     ---       #675
      0100074AH   LINE      CODE     ---       #679
      0100074BH   LINE      CODE     ---       #681
      0100074CH   LINE      CODE     ---       #690
      0100074DH   LINE      CODE     ---       #691
      0100074FH   LINE      CODE     ---       #692
      01000750H   LINE      CODE     ---       #693
      01000751H   LINE      CODE     ---       #694
      01000752H   LINE      CODE     ---       #696
      01000754H   LINE      CODE     ---       #697
      01000755H   LINE      CODE     ---       #698
      01000756H   LINE      CODE     ---       #699
      01000757H   LINE      CODE     ---       #700
      01000758H   LINE      CODE     ---       #701
      01000759H   LINE      CODE     ---       #702
      0100075AH   LINE      CODE     ---       #703
      0100075CH   LINE      CODE     ---       #704
      0100075DH   LINE      CODE     ---       #705
      0100075FH   LINE      CODE     ---       #706
      01000761H   LINE      CODE     ---       #711
      01000762H   LINE      CODE     ---       #712
      01000764H   LINE      CODE     ---       #713
      01000766H   LINE      CODE     ---       #714
      01000767H   LINE      CODE     ---       #715
LX51 LINKER/LOCATER V4.34a                                                            05/11/2009  20:51:19  PAGE 39


      01000769H   LINE      CODE     ---       #716
      0100076BH   LINE      CODE     ---       #717
      0100076DH   LINE      CODE     ---       #719
      0100076EH   LINE      CODE     ---       #720
      0100076FH   LINE      CODE     ---       #721
      01000770H   LINE      CODE     ---       #722
      01000771H   LINE      CODE     ---       #723
      01000772H   LINE      CODE     ---       #724
      01000774H   LINE      CODE     ---       #725
      01000775H   LINE      CODE     ---       #726
      01000777H   LINE      CODE     ---       #727
      01000778H   LINE      CODE     ---       #728
      01000779H   LINE      CODE     ---       #729
      0100077AH   LINE      CODE     ---       #731
      0100077CH   LINE      CODE     ---       #736
      0100077EH   LINE      CODE     ---       #737
      0100077FH   LINE      CODE     ---       #738
      01000780H   LINE      CODE     ---       #739
      01000781H   LINE      CODE     ---       #740
      01000782H   LINE      CODE     ---       #741
      01000783H   LINE      CODE     ---       #742
      01000784H   LINE      CODE     ---       #743
      01000786H   LINE      CODE     ---       #744
      01000787H   LINE      CODE     ---       #745
      01000789H   LINE      CODE     ---       #748
      0100078BH   LINE      CODE     ---       #754
      0100078DH   LINE      CODE     ---       #755
      0100078EH   LINE      CODE     ---       #756
      0100078FH   LINE      CODE     ---       #757
      01000790H   LINE      CODE     ---       #758
      01000792H   LINE      CODE     ---       #759
      01000793H   LINE      CODE     ---       #761
      01000795H   LINE      CODE     ---       #766
      01000797H   LINE      CODE     ---       #767
      01000798H   LINE      CODE     ---       #768
      01000799H   LINE      CODE     ---       #769
      0100079AH   LINE      CODE     ---       #770
      0100079BH   LINE      CODE     ---       #771
      0100079CH   LINE      CODE     ---       #772
      0100079DH   LINE      CODE     ---       #773
      0100079FH   LINE      CODE     ---       #774
      010007A0H   LINE      CODE     ---       #775
      010007A1H   LINE      CODE     ---       #777
      010007A3H   LINE      CODE     ---       #778
      010007A6H   LINE      CODE     ---       #784
      010007A8H   LINE      CODE     ---       #785
      010007AAH   LINE      CODE     ---       #786
      010007ACH   LINE      CODE     ---       #788
      010007ADH   LINE      CODE     ---       #789
      010007AEH   LINE      CODE     ---       #790
      010007AFH   LINE      CODE     ---       #791
      010007B0H   LINE      CODE     ---       #792
      010007B1H   LINE      CODE     ---       #793
      010007B3H   LINE      CODE     ---       #794
      010007B5H   LINE      CODE     ---       #795
      010007B7H   LINE      CODE     ---       #800
      010007B8H   LINE      CODE     ---       #801
      010007BAH   LINE      CODE     ---       #802
      010007BBH   LINE      CODE     ---       #803
      010007BCH   LINE      CODE     ---       #804
      010007BDH   LINE      CODE     ---       #805
      010007BEH   LINE      CODE     ---       #806
      010007BFH   LINE      CODE     ---       #807
      010007C1H   LINE      CODE     ---       #809
      010007C2H   LINE      CODE     ---       #810
LX51 LINKER/LOCATER V4.34a                                                            05/11/2009  20:51:19  PAGE 40


      010007C3H   LINE      CODE     ---       #811
      010007C4H   LINE      CODE     ---       #812
      010007C5H   LINE      CODE     ---       #813
      010007C6H   LINE      CODE     ---       #814
      010007C8H   LINE      CODE     ---       #815
      010007C9H   LINE      CODE     ---       #816
      010007CBH   LINE      CODE     ---       #817
      010007CDH   LINE      CODE     ---       #818
      010007CFH   LINE      CODE     ---       #819
      010007D0H   LINE      CODE     ---       #820
      010007D2H   LINE      CODE     ---       #821
      010007D3H   LINE      CODE     ---       #822
      010007D4H   LINE      CODE     ---       #823
      010007D6H   LINE      CODE     ---       #828
      010007D8H   LINE      CODE     ---       #829
      010007DAH   LINE      CODE     ---       #830
      010007DCH   LINE      CODE     ---       #832
      010007DDH   LINE      CODE     ---       #833
      010007DEH   LINE      CODE     ---       #834
      010007DFH   LINE      CODE     ---       #835
      010007E0H   LINE      CODE     ---       #836
      010007E1H   LINE      CODE     ---       #837
      010007E3H   LINE      CODE     ---       #838
      010007E5H   LINE      CODE     ---       #839
      010007E7H   LINE      CODE     ---       #845
      010007E9H   LINE      CODE     ---       #847
      010007EAH   LINE      CODE     ---       #849
      010007EBH   LINE      CODE     ---       #853
      010007EDH   LINE      CODE     ---       #855
      010007EEH   LINE      CODE     ---       #857
      010007EFH   LINE      CODE     ---       #861
      010007F1H   LINE      CODE     ---       #863
      010007F2H   LINE      CODE     ---       #865
      010007F3H   LINE      CODE     ---       #869
      010007F5H   LINE      CODE     ---       #871
      010007F6H   LINE      CODE     ---       #873
      010007F7H   LINE      CODE     ---       #877
      010007F9H   LINE      CODE     ---       #879
      010007FAH   LINE      CODE     ---       #881
      010007FBH   LINE      CODE     ---       #885
      010007FDH   LINE      CODE     ---       #887
      010007FEH   LINE      CODE     ---       #889
      010007FFH   LINE      CODE     ---       #893
      01000801H   LINE      CODE     ---       #895
      01000802H   LINE      CODE     ---       #897
      01000803H   LINE      CODE     ---       #903
      01000806H   LINE      CODE     ---       #905
      01000809H   LINE      CODE     ---       #907
      0100080CH   LINE      CODE     ---       #911
      0100080DH   LINE      CODE     ---       #913
      0100080EH   LINE      CODE     ---       #917
      0100080FH   LINE      CODE     ---       #926
      01000811H   LINE      CODE     ---       #927
      01000813H   LINE      CODE     ---       #928
      01000814H   LINE      CODE     ---       #929
      01000815H   LINE      CODE     ---       #930
      01000816H   LINE      CODE     ---       #931
      01000817H   LINE      CODE     ---       #932
      01000818H   LINE      CODE     ---       #933
      0100081AH   LINE      CODE     ---       #935
      0100081BH   LINE      CODE     ---       #936
      0100081CH   LINE      CODE     ---       #937
      0100081DH   LINE      CODE     ---       #938
      0100081EH   LINE      CODE     ---       #939
      0100081FH   LINE      CODE     ---       #940
LX51 LINKER/LOCATER V4.34a                                                            05/11/2009  20:51:19  PAGE 41


      01000821H   LINE      CODE     ---       #941
      01000823H   LINE      CODE     ---       #942
      01000825H   LINE      CODE     ---       #947
      01000828H   LINE      CODE     ---       #952
      01000829H   LINE      CODE     ---       #953
      0100082BH   LINE      CODE     ---       #954
      0100082CH   LINE      CODE     ---       #955
      0100082DH   LINE      CODE     ---       #956
      0100082EH   LINE      CODE     ---       #958
      01000830H   LINE      CODE     ---       #959
      01000831H   LINE      CODE     ---       #960
      01000832H   LINE      CODE     ---       #961
      01000833H   LINE      CODE     ---       #962
      01000834H   LINE      CODE     ---       #963
      01000835H   LINE      CODE     ---       #964
      01000836H   LINE      CODE     ---       #965
      01000838H   LINE      CODE     ---       #966
      01000839H   LINE      CODE     ---       #967
      0100083BH   LINE      CODE     ---       #968
      0100083DH   LINE      CODE     ---       #973
      0100083FH   LINE      CODE     ---       #974
      01000841H   LINE      CODE     ---       #975
      01000843H   LINE      CODE     ---       #976
      01000844H   LINE      CODE     ---       #977
      01000845H   LINE      CODE     ---       #978
      01000847H   LINE      CODE     ---       #979
      01000848H   LINE      CODE     ---       #980
      01000849H   LINE      CODE     ---       #981
      0100084AH   LINE      CODE     ---       #982
      0100084BH   LINE      CODE     ---       #983
      0100084CH   LINE      CODE     ---       #984
      0100084DH   LINE      CODE     ---       #985
      01000850H   LINE      CODE     ---       #986
      01000852H   LINE      CODE     ---       #987
      01000853H   LINE      CODE     ---       #988
      01000854H   LINE      CODE     ---       #989
      01000855H   LINE      CODE     ---       #990
      01000856H   LINE      CODE     ---       #991
      01000858H   LINE      CODE     ---       #992
      0100085AH   LINE      CODE     ---       #993
      0100085CH   LINE      CODE     ---       #994
      0100085DH   LINE      CODE     ---       #995
      0100085FH   LINE      CODE     ---       #996
      01000860H   LINE      CODE     ---       #997
      01000861H   LINE      CODE     ---       #1000
      01000862H   LINE      CODE     ---       #1001
      01000863H   LINE      CODE     ---       #1002
      01000864H   LINE      CODE     ---       #1003
      01000866H   LINE      CODE     ---       #1004
      01000867H   LINE      CODE     ---       #1006
      01000869H   LINE      CODE     ---       #1012
      0100086BH   LINE      CODE     ---       #1013
      0100086DH   LINE      CODE     ---       #1014
      0100086FH   LINE      CODE     ---       #1016
      01000870H   LINE      CODE     ---       #1017
      01000871H   LINE      CODE     ---       #1018
      01000872H   LINE      CODE     ---       #1019
      01000873H   LINE      CODE     ---       #1020
      01000874H   LINE      CODE     ---       #1021
      01000876H   LINE      CODE     ---       #1022
      01000877H   LINE      CODE     ---       #1023
      01000879H   LINE      CODE     ---       #1024
      0100087BH   LINE      CODE     ---       #1025
      0100087DH   LINE      CODE     ---       #1026
      0100087EH   LINE      CODE     ---       #1027
LX51 LINKER/LOCATER V4.34a                                                            05/11/2009  20:51:19  PAGE 42


      01000880H   LINE      CODE     ---       #1028
      01000881H   LINE      CODE     ---       #1029
      01000883H   LINE      CODE     ---       #1035
      01000885H   LINE      CODE     ---       #1036
      01000887H   LINE      CODE     ---       #1041
      01000889H   LINE      CODE     ---       #1042
      0100088AH   LINE      CODE     ---       #1043
      0100088CH   LINE      CODE     ---       #1044
      0100088EH   LINE      CODE     ---       #1045
      0100088FH   LINE      CODE     ---       #1046
      01000890H   LINE      CODE     ---       #1047
      01000891H   LINE      CODE     ---       #1048
      01000892H   LINE      CODE     ---       #1049
      01000893H   LINE      CODE     ---       #1050
      01000895H   LINE      CODE     ---       #1052
      01000896H   LINE      CODE     ---       #1053
      01000897H   LINE      CODE     ---       #1054
      01000898H   LINE      CODE     ---       #1055
      01000899H   LINE      CODE     ---       #1056
      0100089AH   LINE      CODE     ---       #1057
      0100089CH   LINE      CODE     ---       #1058
      0100089DH   LINE      CODE     ---       #1059
      0100089FH   LINE      CODE     ---       #1060
      010008A1H   LINE      CODE     ---       #1061
      010008A3H   LINE      CODE     ---       #1062
      010008A4H   LINE      CODE     ---       #1063
      010008A6H   LINE      CODE     ---       #1064
      010008A7H   LINE      CODE     ---       #1065
      010008A8H   LINE      CODE     ---       #1066
      010008AAH   LINE      CODE     ---       #1071
      010008ACH   LINE      CODE     ---       #1072
      010008AEH   LINE      CODE     ---       #1073
      010008B0H   LINE      CODE     ---       #1075
      010008B1H   LINE      CODE     ---       #1076
      010008B2H   LINE      CODE     ---       #1077
      010008B3H   LINE      CODE     ---       #1078
      010008B4H   LINE      CODE     ---       #1079
      010008B5H   LINE      CODE     ---       #1080
      010008B7H   LINE      CODE     ---       #1081
      010008B9H   LINE      CODE     ---       #1082
      010008BBH   LINE      CODE     ---       #1087
      010008BCH   LINE      CODE     ---       #1088
      010008BEH   LINE      CODE     ---       #1089
      010008BFH   LINE      CODE     ---       #1090
      010008C0H   LINE      CODE     ---       #1091
      010008C1H   LINE      CODE     ---       #1092
      010008C2H   LINE      CODE     ---       #1093
      010008C4H   LINE      CODE     ---       #1094
      010008C6H   LINE      CODE     ---       #1095
      010008C9H   LINE      CODE     ---       #1096
      010008CBH   LINE      CODE     ---       #1103
      010008CDH   LINE      CODE     ---       #1105
      010008CEH   LINE      CODE     ---       #1107
      010008CFH   LINE      CODE     ---       #1111
      010008D1H   LINE      CODE     ---       #1113
      010008D2H   LINE      CODE     ---       #1115
      010008D3H   LINE      CODE     ---       #1119
      010008D5H   LINE      CODE     ---       #1121
      010008D6H   LINE      CODE     ---       #1123
      010008D7H   LINE      CODE     ---       #1127
      010008D9H   LINE      CODE     ---       #1129
      010008DAH   LINE      CODE     ---       #1131
      010008DBH   LINE      CODE     ---       #1135
      010008DDH   LINE      CODE     ---       #1137
      010008DEH   LINE      CODE     ---       #1139
LX51 LINKER/LOCATER V4.34a                                                            05/11/2009  20:51:19  PAGE 43


      010008DFH   LINE      CODE     ---       #1143
      010008E1H   LINE      CODE     ---       #1145
      010008E2H   LINE      CODE     ---       #1147
      010008E3H   LINE      CODE     ---       #1151
      010008E5H   LINE      CODE     ---       #1153
      010008E6H   LINE      CODE     ---       #1155
      010008E7H   LINE      CODE     ---       #1159
      010008EAH   LINE      CODE     ---       #1161
      010008EDH   LINE      CODE     ---       #1163
      010008F0H   LINE      CODE     ---       #1167
      010008F1H   LINE      CODE     ---       #1169
      010008F2H   LINE      CODE     ---       #1178
      ---         BLOCKEND  ---      ---       LVL=0

      ---         MODULE    ---      ---       ADC
      01001358H   PUBLIC    CODE     NEAR LAB  _ADC_INIT
      010019DBH   PUBLIC    CODE     NEAR LAB  _ADC_READ
      000000D0H.6 SFRSYM    DATA     BIT       AC
      000000E0H   SFRSYM    DATA     BYTE      ACC
      000000A1H   SFRSYM    DATA     BYTE      ADCCON
      000000A2H   SFRSYM    DATA     BYTE      ADCDATAH
      000000A3H   SFRSYM    DATA     BYTE      ADCDATAL
      000000A4H   SFRSYM    DATA     BYTE      ADCSTATIC
      000000F0H   SFRSYM    DATA     BYTE      B
      000000C8H.1 SFRSYM    DATA     BIT       C_T2
      000000A0H.6 SFRSYM    DATA     BIT       CE
      000000B6H   SFRSYM    DATA     BYTE      CK_CTRL
      0000008EH   SFRSYM    DATA     BYTE      CKCON
      000000A0H.1 SFRSYM    DATA     BIT       CLK1
      000000A0H.5 SFRSYM    DATA     BIT       CLK2
      000000C8H   SFRSYM    DATA     BIT       CP_RL2
      000000C8H   SFRSYM    DATA     BIT       CPRL2
      000000A0H.3 SFRSYM    DATA     BIT       CS
      000000C8H.1 SFRSYM    DATA     BIT       CT2
      000000D0H.7 SFRSYM    DATA     BIT       CY
      000000A0H   SFRSYM    DATA     BIT       DATA?
      000000BEH   SFRSYM    DATA     BYTE      DEV_OFFSET
      00000090H.2 SFRSYM    DATA     BIT       DIN0
      00000090H   SFRSYM    DATA     BIT       DIO0
      00000090H.1 SFRSYM    DATA     BIT       DIO1
      00000080H   SFRSYM    DATA     BIT       DIO2
      00000080H.1 SFRSYM    DATA     BIT       DIO3
      00000080H.2 SFRSYM    DATA     BIT       DIO4
      00000080H.3 SFRSYM    DATA     BIT       DIO5
      00000080H.4 SFRSYM    DATA     BIT       DIO6
      00000080H.5 SFRSYM    DATA     BIT       DIO7
      00000080H.6 SFRSYM    DATA     BIT       DIO8
      00000080H.7 SFRSYM    DATA     BIT       DIO9
      000000A0H.4 SFRSYM    DATA     BIT       DOUT2
      00000083H   SFRSYM    DATA     BYTE      DPH
      00000083H   SFRSYM    DATA     BYTE      DPH0
      00000085H   SFRSYM    DATA     BYTE      DPH1
      00000082H   SFRSYM    DATA     BYTE      DPL
      00000082H   SFRSYM    DATA     BYTE      DPL0
      00000084H   SFRSYM    DATA     BYTE      DPL1
      00000086H   SFRSYM    DATA     BYTE      DPS
      000000A0H.2 SFRSYM    DATA     BIT       DR1
      000000A0H.6 SFRSYM    DATA     BIT       DR2
      000000A0H.6 SFRSYM    DATA     BIT       DR2_CE
      000000A8H.7 SFRSYM    DATA     BIT       EA
      000000D8H   SFRSYM    DATA     BYTE      EICON
      000000E8H   SFRSYM    DATA     BYTE      EIE
      000000F8H   SFRSYM    DATA     BYTE      EIP
      000000A8H.4 SFRSYM    DATA     BIT       ES
      000000A8H.1 SFRSYM    DATA     BIT       ET0
LX51 LINKER/LOCATER V4.34a                                                            05/11/2009  20:51:19  PAGE 44


      000000A8H.3 SFRSYM    DATA     BIT       ET1
      000000A8H.5 SFRSYM    DATA     BIT       ET2
      000000E8H.4 SFRSYM    DATA     BIT       EWDI
      000000A8H   SFRSYM    DATA     BIT       EX0
      000000A8H.2 SFRSYM    DATA     BIT       EX1
      000000E8H   SFRSYM    DATA     BIT       EX2
      000000E8H.1 SFRSYM    DATA     BIT       EX3
      000000E8H.2 SFRSYM    DATA     BIT       EX4
      000000E8H.3 SFRSYM    DATA     BIT       EX5
      000000C8H.3 SFRSYM    DATA     BIT       EXEN2
      000000C8H.6 SFRSYM    DATA     BIT       EXF2
      00000091H   SFRSYM    DATA     BYTE      EXIF
      000000D0H.5 SFRSYM    DATA     BIT       F0
      000000D0H.1 SFRSYM    DATA     BIT       F1
      000000A8H   SFRSYM    DATA     BYTE      IE
      00000088H.1 SFRSYM    DATA     BIT       IE0
      00000088H.3 SFRSYM    DATA     BIT       IE1
      00000080H.3 SFRSYM    DATA     BIT       INT0_N
      00000080H.4 SFRSYM    DATA     BIT       INT1_N
      000000B8H   SFRSYM    DATA     BYTE      IP
      00000088H   SFRSYM    DATA     BIT       IT0
      00000088H.2 SFRSYM    DATA     BIT       IT1
      00000092H   SFRSYM    DATA     BYTE      MPAGE
      000000D0H.2 SFRSYM    DATA     BIT       OV
      000000D0H   SFRSYM    DATA     BIT       P
      00000080H   SFRSYM    DATA     BYTE      P0
      00000080H   SFRSYM    DATA     BIT       P0_0
      00000080H.1 SFRSYM    DATA     BIT       P0_1
      00000080H.2 SFRSYM    DATA     BIT       P0_2
      00000080H.3 SFRSYM    DATA     BIT       P0_3
      00000080H.4 SFRSYM    DATA     BIT       P0_4
      00000080H.5 SFRSYM    DATA     BIT       P0_5
      00000080H.6 SFRSYM    DATA     BIT       P0_6
      00000080H.7 SFRSYM    DATA     BIT       P0_7
      00000095H   SFRSYM    DATA     BYTE      P0_ALT
      00000094H   SFRSYM    DATA     BYTE      P0_DIR
      00000090H   SFRSYM    DATA     BYTE      P1
      00000090H   SFRSYM    DATA     BIT       P1_0
      00000090H.1 SFRSYM    DATA     BIT       P1_1
      00000090H.2 SFRSYM    DATA     BIT       P1_2
      00000097H   SFRSYM    DATA     BYTE      P1_ALT
      00000096H   SFRSYM    DATA     BYTE      P1_DIR
      00000087H   SFRSYM    DATA     BYTE      PCON
      000000B8H.4 SFRSYM    DATA     BIT       PS
      000000D0H   SFRSYM    DATA     BYTE      PSW
      000000B8H.1 SFRSYM    DATA     BIT       PT0
      000000B8H.3 SFRSYM    DATA     BIT       PT1
      000000B8H.5 SFRSYM    DATA     BIT       PT2
      000000F8H.4 SFRSYM    DATA     BIT       PWDI
      00000080H.7 SFRSYM    DATA     BIT       PWM
      000000A9H   SFRSYM    DATA     BYTE      PWMCON
      000000AAH   SFRSYM    DATA     BYTE      PWMDUTY
      000000A0H.7 SFRSYM    DATA     BIT       PWR_UP
      000000B8H   SFRSYM    DATA     BIT       PX0
      000000B8H.2 SFRSYM    DATA     BIT       PX1
      000000F8H   SFRSYM    DATA     BIT       PX2
      000000F8H.1 SFRSYM    DATA     BIT       PX3
      000000F8H.2 SFRSYM    DATA     BIT       PX4
      000000F8H.3 SFRSYM    DATA     BIT       PX5
      000000A0H   SFRSYM    DATA     BYTE      RADIO
      00000098H.2 SFRSYM    DATA     BIT       RB8
      000000CBH   SFRSYM    DATA     BYTE      RCAP2H
      000000CAH   SFRSYM    DATA     BYTE      RCAP2L
      000000C8H.5 SFRSYM    DATA     BIT       RCLK
      000000ADH   SFRSYM    DATA     BYTE      REGX_CTRL
LX51 LINKER/LOCATER V4.34a                                                            05/11/2009  20:51:19  PAGE 45


      000000ACH   SFRSYM    DATA     BYTE      REGX_LSB
      000000ABH   SFRSYM    DATA     BYTE      REGX_MSB
      00000098H.4 SFRSYM    DATA     BIT       REN
      00000098H   SFRSYM    DATA     BIT       RI
      000000D0H.3 SFRSYM    DATA     BIT       RS0
      000000D0H.4 SFRSYM    DATA     BIT       RS1
      000000B1H   SFRSYM    DATA     BYTE      RSTREAS
      00000080H.1 SFRSYM    DATA     BIT       RXD
      00000099H   SFRSYM    DATA     BYTE      SBUF
      00000098H   SFRSYM    DATA     BYTE      SCON
      00000098H.7 SFRSYM    DATA     BIT       SM0
      00000098H.6 SFRSYM    DATA     BIT       SM1
      00000098H.5 SFRSYM    DATA     BIT       SM2
      00000081H   SFRSYM    DATA     BYTE      SP
      0000008FH   SFRSYM    DATA     BYTE      SPC_FNC
      000000B3H   SFRSYM    DATA     BYTE      SPI_CTRL
      000000B2H   SFRSYM    DATA     BYTE      SPI_DATA
      000000B4H   SFRSYM    DATA     BYTE      SPICLK
      00000080H.5 SFRSYM    DATA     BIT       T0
      00000080H.6 SFRSYM    DATA     BIT       T1
      000000BCH   SFRSYM    DATA     BYTE      T1_1V2
      00000090H   SFRSYM    DATA     BIT       T2
      000000BDH   SFRSYM    DATA     BYTE      T2_1V2
      000000C8H   SFRSYM    DATA     BYTE      T2CON
      00000098H.3 SFRSYM    DATA     BIT       TB8
      000000C8H.4 SFRSYM    DATA     BIT       TCLK
      00000088H   SFRSYM    DATA     BYTE      TCON
      000000B7H   SFRSYM    DATA     BYTE      TEST_MODE
      00000088H.5 SFRSYM    DATA     BIT       TF0
      00000088H.7 SFRSYM    DATA     BIT       TF1
      000000C8H.7 SFRSYM    DATA     BIT       TF2
      0000008CH   SFRSYM    DATA     BYTE      TH0
      0000008DH   SFRSYM    DATA     BYTE      TH1
      000000CDH   SFRSYM    DATA     BYTE      TH2
      00000098H.1 SFRSYM    DATA     BIT       TI
      000000B5H   SFRSYM    DATA     BYTE      TICK_DV
      0000008AH   SFRSYM    DATA     BYTE      TL0
      0000008BH   SFRSYM    DATA     BYTE      TL1
      000000CCH   SFRSYM    DATA     BYTE      TL2
      00000089H   SFRSYM    DATA     BYTE      TMOD
      00000088H.4 SFRSYM    DATA     BIT       TR0
      00000088H.6 SFRSYM    DATA     BIT       TR1
      000000C8H.2 SFRSYM    DATA     BIT       TR2
      00000080H.2 SFRSYM    DATA     BIT       TXD
      000000D8H.3 SFRSYM    DATA     BIT       WDTI
      0100166EH   SYMBOL    CODE     NEAR LAB  ?C0002
      0100163EH   SYMBOL    CODE     NEAR LAB  ?C0004
      01001646H   SYMBOL    CODE     NEAR LAB  ?C0005
      0100165AH   SYMBOL    CODE     NEAR LAB  ?C0006
      01001672H   SYMBOL    CODE     NEAR LAB  ?C0007
      010019EAH   SYMBOL    CODE     NEAR LAB  ?C0011
      010019EFH   SYMBOL    CODE     NEAR LAB  ?C0012
      010019F5H   SYMBOL    CODE     NEAR LAB  ?C0013
      01001626H   SYMBOL    CODE     NEAR LAB  P_ADC_READ

      01001358H   BLOCK     CODE     NEAR LAB  LVL=0
      01001358H   LINE      CODE     ---       #206
      0100135BH   LINE      CODE     ---       #209
      0100135CH   LINE      CODE     ---       #210
      0100135EH   LINE      CODE     ---       #213
      01001361H   LINE      CODE     ---       #216
      01001362H   LINE      CODE     ---       #217
      01001364H   LINE      CODE     ---       #220
      01001367H   LINE      CODE     ---       #223
      01001368H   LINE      CODE     ---       #224
LX51 LINKER/LOCATER V4.34a                                                            05/11/2009  20:51:19  PAGE 46


      0100136AH   LINE      CODE     ---       #227
      ---         BLOCKEND  ---      ---       LVL=0

      01001626H   BLOCK     CODE     NEAR LAB  LVL=0
      01001626H   LINE      CODE     ---       #241
      01001628H   LINE      CODE     ---       #242
      0100162AH   LINE      CODE     ---       #243
      0100162BH   LINE      CODE     ---       #248
      0100162CH   LINE      CODE     ---       #249
      0100162DH   LINE      CODE     ---       #250
      0100162EH   LINE      CODE     ---       #253
      01001630H   LINE      CODE     ---       #254
      01001631H   LINE      CODE     ---       #255
      01001632H   LINE      CODE     ---       #256
      01001634H   LINE      CODE     ---       #257
      01001635H   LINE      CODE     ---       #258
      01001637H   LINE      CODE     ---       #259
      01001638H   LINE      CODE     ---       #260
      0100163AH   LINE      CODE     ---       #261
      0100163CH   LINE      CODE     ---       #262
      0100163EH   LINE      CODE     ---       #271
      01001640H   LINE      CODE     ---       #272
      01001642H   LINE      CODE     ---       #273
      01001644H   LINE      CODE     ---       #276
      01001646H   LINE      CODE     ---       #283
      01001648H   LINE      CODE     ---       #284
      01001649H   LINE      CODE     ---       #285
      0100164CH   LINE      CODE     ---       #286
      0100164DH   LINE      CODE     ---       #287
      0100164EH   LINE      CODE     ---       #288
      01001650H   LINE      CODE     ---       #291
      01001652H   LINE      CODE     ---       #292
      01001653H   LINE      CODE     ---       #293
      01001654H   LINE      CODE     ---       #294
      01001655H   LINE      CODE     ---       #295
      01001657H   LINE      CODE     ---       #296
      01001658H   LINE      CODE     ---       #297
      01001659H   LINE      CODE     ---       #298
      0100165AH   LINE      CODE     ---       #305
      0100165CH   LINE      CODE     ---       #306
      0100165DH   LINE      CODE     ---       #307
      01001660H   LINE      CODE     ---       #308
      01001661H   LINE      CODE     ---       #309
      01001662H   LINE      CODE     ---       #310
      01001664H   LINE      CODE     ---       #313
      01001666H   LINE      CODE     ---       #314
      01001667H   LINE      CODE     ---       #315
      01001669H   LINE      CODE     ---       #316
      0100166AH   LINE      CODE     ---       #317
      0100166BH   LINE      CODE     ---       #318
      0100166CH   LINE      CODE     ---       #319
      0100166DH   LINE      CODE     ---       #320
      0100166EH   LINE      CODE     ---       #326
      01001670H   LINE      CODE     ---       #327
      01001672H   LINE      CODE     ---       #331
      ---         BLOCKEND  ---      ---       LVL=0

      010019DBH   BLOCK     CODE     NEAR LAB  LVL=0
      010019DBH   LINE      CODE     ---       #347
      010019DCH   LINE      CODE     ---       #348
      010019DDH   LINE      CODE     ---       #349
      010019DEH   LINE      CODE     ---       #353
      010019E1H   LINE      CODE     ---       #356
      010019E2H   LINE      CODE     ---       #357
      010019E4H   LINE      CODE     ---       #360
LX51 LINKER/LOCATER V4.34a                                                            05/11/2009  20:51:19  PAGE 47


      010019E7H   LINE      CODE     ---       #361
      010019EAH   LINE      CODE     ---       #366
      010019ECH   LINE      CODE     ---       #367
      010019EFH   LINE      CODE     ---       #373
      010019F2H   LINE      CODE     ---       #377
      010019F5H   LINE      CODE     ---       #383
      ---         BLOCKEND  ---      ---       LVL=0

      ---         MODULE    ---      ---       UTILS
      00000053H   PUBLIC    DATA     BYTE      ?_STRNCPY?BYTE
      01000D54H   PUBLIC    CODE     NEAR LAB  _MDELAY
      01000D47H   PUBLIC    CODE     NEAR LAB  _STORE_CPU_RATE
      0100136BH   PUBLIC    CODE     NEAR LAB  _STRNCPY
      010018A6H   PUBLIC    CODE     NEAR LAB  _WDT_LOAD
      00000060H   PUBLIC    DATA     BYTE      MHZ
      000000D0H.6 SFRSYM    DATA     BIT       AC
      000000E0H   SFRSYM    DATA     BYTE      ACC
      000000A1H   SFRSYM    DATA     BYTE      ADCCON
      000000A2H   SFRSYM    DATA     BYTE      ADCDATAH
      000000A3H   SFRSYM    DATA     BYTE      ADCDATAL
      000000A4H   SFRSYM    DATA     BYTE      ADCSTATIC
      000000F0H   SFRSYM    DATA     BYTE      B
      000000C8H.1 SFRSYM    DATA     BIT       C_T2
      000000A0H.6 SFRSYM    DATA     BIT       CE
      000000B6H   SFRSYM    DATA     BYTE      CK_CTRL
      0000008EH   SFRSYM    DATA     BYTE      CKCON
      000000A0H.1 SFRSYM    DATA     BIT       CLK1
      000000A0H.5 SFRSYM    DATA     BIT       CLK2
      000000C8H   SFRSYM    DATA     BIT       CP_RL2
      000000C8H   SFRSYM    DATA     BIT       CPRL2
      000000A0H.3 SFRSYM    DATA     BIT       CS
      000000C8H.1 SFRSYM    DATA     BIT       CT2
      000000D0H.7 SFRSYM    DATA     BIT       CY
      000000A0H   SFRSYM    DATA     BIT       DATA?
      000000BEH   SFRSYM    DATA     BYTE      DEV_OFFSET
      00000090H.2 SFRSYM    DATA     BIT       DIN0
      00000090H   SFRSYM    DATA     BIT       DIO0
      00000090H.1 SFRSYM    DATA     BIT       DIO1
      00000080H   SFRSYM    DATA     BIT       DIO2
      00000080H.1 SFRSYM    DATA     BIT       DIO3
      00000080H.2 SFRSYM    DATA     BIT       DIO4
      00000080H.3 SFRSYM    DATA     BIT       DIO5
      00000080H.4 SFRSYM    DATA     BIT       DIO6
      00000080H.5 SFRSYM    DATA     BIT       DIO7
      00000080H.6 SFRSYM    DATA     BIT       DIO8
      00000080H.7 SFRSYM    DATA     BIT       DIO9
      000000A0H.4 SFRSYM    DATA     BIT       DOUT2
      00000083H   SFRSYM    DATA     BYTE      DPH
      00000083H   SFRSYM    DATA     BYTE      DPH0
      00000085H   SFRSYM    DATA     BYTE      DPH1
      00000082H   SFRSYM    DATA     BYTE      DPL
      00000082H   SFRSYM    DATA     BYTE      DPL0
      00000084H   SFRSYM    DATA     BYTE      DPL1
      00000086H   SFRSYM    DATA     BYTE      DPS
      000000A0H.2 SFRSYM    DATA     BIT       DR1
      000000A0H.6 SFRSYM    DATA     BIT       DR2
      000000A0H.6 SFRSYM    DATA     BIT       DR2_CE
      000000A8H.7 SFRSYM    DATA     BIT       EA
      000000D8H   SFRSYM    DATA     BYTE      EICON
      000000E8H   SFRSYM    DATA     BYTE      EIE
      000000F8H   SFRSYM    DATA     BYTE      EIP
      000000A8H.4 SFRSYM    DATA     BIT       ES
      000000A8H.1 SFRSYM    DATA     BIT       ET0
      000000A8H.3 SFRSYM    DATA     BIT       ET1
      000000A8H.5 SFRSYM    DATA     BIT       ET2
LX51 LINKER/LOCATER V4.34a                                                            05/11/2009  20:51:19  PAGE 48


      000000E8H.4 SFRSYM    DATA     BIT       EWDI
      000000A8H   SFRSYM    DATA     BIT       EX0
      000000A8H.2 SFRSYM    DATA     BIT       EX1
      000000E8H   SFRSYM    DATA     BIT       EX2
      000000E8H.1 SFRSYM    DATA     BIT       EX3
      000000E8H.2 SFRSYM    DATA     BIT       EX4
      000000E8H.3 SFRSYM    DATA     BIT       EX5
      000000C8H.3 SFRSYM    DATA     BIT       EXEN2
      000000C8H.6 SFRSYM    DATA     BIT       EXF2
      00000091H   SFRSYM    DATA     BYTE      EXIF
      000000D0H.5 SFRSYM    DATA     BIT       F0
      000000D0H.1 SFRSYM    DATA     BIT       F1
      000000A8H   SFRSYM    DATA     BYTE      IE
      00000088H.1 SFRSYM    DATA     BIT       IE0
      00000088H.3 SFRSYM    DATA     BIT       IE1
      00000080H.3 SFRSYM    DATA     BIT       INT0_N
      00000080H.4 SFRSYM    DATA     BIT       INT1_N
      000000B8H   SFRSYM    DATA     BYTE      IP
      00000088H   SFRSYM    DATA     BIT       IT0
      00000088H.2 SFRSYM    DATA     BIT       IT1
      00000092H   SFRSYM    DATA     BYTE      MPAGE
      000000D0H.2 SFRSYM    DATA     BIT       OV
      000000D0H   SFRSYM    DATA     BIT       P
      00000080H   SFRSYM    DATA     BYTE      P0
      00000080H   SFRSYM    DATA     BIT       P0_0
      00000080H.1 SFRSYM    DATA     BIT       P0_1
      00000080H.2 SFRSYM    DATA     BIT       P0_2
      00000080H.3 SFRSYM    DATA     BIT       P0_3
      00000080H.4 SFRSYM    DATA     BIT       P0_4
      00000080H.5 SFRSYM    DATA     BIT       P0_5
      00000080H.6 SFRSYM    DATA     BIT       P0_6
      00000080H.7 SFRSYM    DATA     BIT       P0_7
      00000095H   SFRSYM    DATA     BYTE      P0_ALT
      00000094H   SFRSYM    DATA     BYTE      P0_DIR
      00000090H   SFRSYM    DATA     BYTE      P1
      00000090H   SFRSYM    DATA     BIT       P1_0
      00000090H.1 SFRSYM    DATA     BIT       P1_1
      00000090H.2 SFRSYM    DATA     BIT       P1_2
      00000097H   SFRSYM    DATA     BYTE      P1_ALT
      00000096H   SFRSYM    DATA     BYTE      P1_DIR
      00000087H   SFRSYM    DATA     BYTE      PCON
      000000B8H.4 SFRSYM    DATA     BIT       PS
      000000D0H   SFRSYM    DATA     BYTE      PSW
      000000B8H.1 SFRSYM    DATA     BIT       PT0
      000000B8H.3 SFRSYM    DATA     BIT       PT1
      000000B8H.5 SFRSYM    DATA     BIT       PT2
      000000F8H.4 SFRSYM    DATA     BIT       PWDI
      00000080H.7 SFRSYM    DATA     BIT       PWM
      000000A9H   SFRSYM    DATA     BYTE      PWMCON
      000000AAH   SFRSYM    DATA     BYTE      PWMDUTY
      000000A0H.7 SFRSYM    DATA     BIT       PWR_UP
      000000B8H   SFRSYM    DATA     BIT       PX0
      000000B8H.2 SFRSYM    DATA     BIT       PX1
      000000F8H   SFRSYM    DATA     BIT       PX2
      000000F8H.1 SFRSYM    DATA     BIT       PX3
      000000F8H.2 SFRSYM    DATA     BIT       PX4
      000000F8H.3 SFRSYM    DATA     BIT       PX5
      000000A0H   SFRSYM    DATA     BYTE      RADIO
      00000098H.2 SFRSYM    DATA     BIT       RB8
      000000CBH   SFRSYM    DATA     BYTE      RCAP2H
      000000CAH   SFRSYM    DATA     BYTE      RCAP2L
      000000C8H.5 SFRSYM    DATA     BIT       RCLK
      000000ADH   SFRSYM    DATA     BYTE      REGX_CTRL
      000000ACH   SFRSYM    DATA     BYTE      REGX_LSB
      000000ABH   SFRSYM    DATA     BYTE      REGX_MSB
LX51 LINKER/LOCATER V4.34a                                                            05/11/2009  20:51:19  PAGE 49


      00000098H.4 SFRSYM    DATA     BIT       REN
      00000098H   SFRSYM    DATA     BIT       RI
      000000D0H.3 SFRSYM    DATA     BIT       RS0
      000000D0H.4 SFRSYM    DATA     BIT       RS1
      000000B1H   SFRSYM    DATA     BYTE      RSTREAS
      00000080H.1 SFRSYM    DATA     BIT       RXD
      00000099H   SFRSYM    DATA     BYTE      SBUF
      00000098H   SFRSYM    DATA     BYTE      SCON
      00000098H.7 SFRSYM    DATA     BIT       SM0
      00000098H.6 SFRSYM    DATA     BIT       SM1
      00000098H.5 SFRSYM    DATA     BIT       SM2
      00000081H   SFRSYM    DATA     BYTE      SP
      0000008FH   SFRSYM    DATA     BYTE      SPC_FNC
      000000B3H   SFRSYM    DATA     BYTE      SPI_CTRL
      000000B2H   SFRSYM    DATA     BYTE      SPI_DATA
      000000B4H   SFRSYM    DATA     BYTE      SPICLK
      00000080H.5 SFRSYM    DATA     BIT       T0
      00000080H.6 SFRSYM    DATA     BIT       T1
      000000BCH   SFRSYM    DATA     BYTE      T1_1V2
      00000090H   SFRSYM    DATA     BIT       T2
      000000BDH   SFRSYM    DATA     BYTE      T2_1V2
      000000C8H   SFRSYM    DATA     BYTE      T2CON
      00000098H.3 SFRSYM    DATA     BIT       TB8
      000000C8H.4 SFRSYM    DATA     BIT       TCLK
      00000088H   SFRSYM    DATA     BYTE      TCON
      000000B7H   SFRSYM    DATA     BYTE      TEST_MODE
      00000088H.5 SFRSYM    DATA     BIT       TF0
      00000088H.7 SFRSYM    DATA     BIT       TF1
      000000C8H.7 SFRSYM    DATA     BIT       TF2
      0000008CH   SFRSYM    DATA     BYTE      TH0
      0000008DH   SFRSYM    DATA     BYTE      TH1
      000000CDH   SFRSYM    DATA     BYTE      TH2
      00000098H.1 SFRSYM    DATA     BIT       TI
      000000B5H   SFRSYM    DATA     BYTE      TICK_DV
      0000008AH   SFRSYM    DATA     BYTE      TL0
      0000008BH   SFRSYM    DATA     BYTE      TL1
      000000CCH   SFRSYM    DATA     BYTE      TL2
      00000089H   SFRSYM    DATA     BYTE      TMOD
      00000088H.4 SFRSYM    DATA     BIT       TR0
      00000088H.6 SFRSYM    DATA     BIT       TR1
      000000C8H.2 SFRSYM    DATA     BIT       TR2
      00000080H.2 SFRSYM    DATA     BIT       TXD
      000000D8H.3 SFRSYM    DATA     BIT       WDTI
      00000075H   SYMBOL    DATA     BYTE      ?_MDELAY?BYTE
      01000D75H   SYMBOL    CODE     NEAR LAB  ?C0002
      01000D95H   SYMBOL    CODE     NEAR LAB  ?C0004
      01000D81H   SYMBOL    CODE     NEAR LAB  ?C0005
      01000D9CH   SYMBOL    CODE     NEAR LAB  ?C0008
      010018AAH   SYMBOL    CODE     NEAR LAB  ?C0009
      010018AFH   SYMBOL    CODE     NEAR LAB  ?C0010
      01001374H   SYMBOL    CODE     NEAR LAB  ?C0012
      010013AEH   SYMBOL    CODE     NEAR LAB  ?C0015
      01000D93H   SYMBOL    CODE     NEAR LAB  ?C0016
      01000D9AH   SYMBOL    CODE     NEAR LAB  ?C0017
      0100138FH   SYMBOL    CODE     NEAR LAB  ?C0018
      010013A1H   SYMBOL    CODE     NEAR LAB  ?C0019
      010013ACH   SYMBOL    CODE     NEAR LAB  ?C0020
      00000056H   SYMBOL    DATA     BYTE      DST?347
      00000075H   SYMBOL    DATA     BYTE      MSEC?141
      00000059H   SYMBOL    DATA     BYTE      N?348
      00000053H   SYMBOL    DATA     BYTE      SRC?346

      01000D47H   BLOCK     CODE     NEAR LAB  LVL=0
      01000D47H   LINE      CODE     ---       #231
      01000D48H   LINE      CODE     ---       #232
LX51 LINKER/LOCATER V4.34a                                                            05/11/2009  20:51:19  PAGE 50


      01000D49H   LINE      CODE     ---       #233
      01000D4BH   LINE      CODE     ---       #234
      01000D4DH   LINE      CODE     ---       #235
      01000D4FH   LINE      CODE     ---       #236
      01000D51H   LINE      CODE     ---       #237
      01000D53H   LINE      CODE     ---       #240
      ---         BLOCKEND  ---      ---       LVL=0

      01000D54H   BLOCK     CODE     NEAR LAB  LVL=0
      01000D54H   LINE      CODE     ---       #256
      01000D56H   LINE      CODE     ---       #257
      01000D58H   LINE      CODE     ---       #263
      01000D59H   LINE      CODE     ---       #264
      01000D5BH   LINE      CODE     ---       #265
      01000D5CH   LINE      CODE     ---       #266
      01000D5DH   LINE      CODE     ---       #267
      01000D5EH   LINE      CODE     ---       #268
      01000D60H   LINE      CODE     ---       #269
      01000D62H   LINE      CODE     ---       #270
      01000D64H   LINE      CODE     ---       #271
      01000D66H   LINE      CODE     ---       #272
      01000D69H   LINE      CODE     ---       #273
      01000D6AH   LINE      CODE     ---       #274
      01000D6CH   LINE      CODE     ---       #275
      01000D6DH   LINE      CODE     ---       #276
      01000D6EH   LINE      CODE     ---       #277
      01000D6FH   LINE      CODE     ---       #278
      01000D72H   LINE      CODE     ---       #283
      01000D73H   LINE      CODE     ---       #284
      01000D74H   LINE      CODE     ---       #285
      01000D75H   LINE      CODE     ---       #287
      01000D76H   LINE      CODE     ---       #288
      01000D77H   LINE      CODE     ---       #289
      01000D79H   LINE      CODE     ---       #290
      01000D7AH   LINE      CODE     ---       #291
      01000D7CH   LINE      CODE     ---       #292
      01000D7EH   LINE      CODE     ---       #296
      01000D7FH   LINE      CODE     ---       #297
      01000D80H   LINE      CODE     ---       #298
      01000D81H   LINE      CODE     ---       #300
      01000D82H   LINE      CODE     ---       #301
      01000D83H   LINE      CODE     ---       #302
      01000D84H   LINE      CODE     ---       #303
      01000D85H   LINE      CODE     ---       #304
      01000D87H   LINE      CODE     ---       #305
      01000D88H   LINE      CODE     ---       #306
      01000D89H   LINE      CODE     ---       #307
      01000D8BH   LINE      CODE     ---       #308
      01000D8CH   LINE      CODE     ---       #309
      01000D8EH   LINE      CODE     ---       #310
      01000D8FH   LINE      CODE     ---       #311
      01000D92H   LINE      CODE     ---       #312
      01000D93H   LINE      CODE     ---       #314
      01000D95H   LINE      CODE     ---       #316
      01000D96H   LINE      CODE     ---       #317
      01000D99H   LINE      CODE     ---       #318
      01000D9AH   LINE      CODE     ---       #320
      01000D9CH   LINE      CODE     ---       #325
      ---         BLOCKEND  ---      ---       LVL=0

      010018A6H   BLOCK     CODE     NEAR LAB  LVL=0
      010018A6H   LINE      CODE     ---       #341
      010018A8H   LINE      CODE     ---       #342
      010018AAH   LINE      CODE     ---       #348
      010018ACH   LINE      CODE     ---       #349
LX51 LINKER/LOCATER V4.34a                                                            05/11/2009  20:51:19  PAGE 51


      010018AFH   LINE      CODE     ---       #354
      010018B1H   LINE      CODE     ---       #357
      010018B2H   LINE      CODE     ---       #358
      010018B4H   LINE      CODE     ---       #361
      010018B7H   LINE      CODE     ---       #364
      ---         BLOCKEND  ---      ---       LVL=0

      0100136BH   BLOCK     CODE     NEAR LAB  LVL=0
      0100136BH   LINE      CODE     ---       #380
      0100136DH   LINE      CODE     ---       #381
      0100136FH   LINE      CODE     ---       #382
      01001371H   LINE      CODE     ---       #389
      01001372H   LINE      CODE     ---       #390
      01001373H   LINE      CODE     ---       #391
      01001374H   LINE      CODE     ---       #393
      01001375H   LINE      CODE     ---       #394
      01001376H   LINE      CODE     ---       #395
      01001378H   LINE      CODE     ---       #396
      0100137AH   LINE      CODE     ---       #397
      0100137CH   LINE      CODE     ---       #398
      0100137DH   LINE      CODE     ---       #399
      0100137EH   LINE      CODE     ---       #400
      01001380H   LINE      CODE     ---       #401
      01001381H   LINE      CODE     ---       #402
      01001383H   LINE      CODE     ---       #405
      01001385H   LINE      CODE     ---       #406
      01001387H   LINE      CODE     ---       #407
      01001389H   LINE      CODE     ---       #408
      0100138BH   LINE      CODE     ---       #409
      0100138DH   LINE      CODE     ---       #410
      0100138FH   LINE      CODE     ---       #412
      01001390H   LINE      CODE     ---       #413
      01001391H   LINE      CODE     ---       #414
      01001394H   LINE      CODE     ---       #415
      01001395H   LINE      CODE     ---       #416
      01001397H   LINE      CODE     ---       #417
      01001399H   LINE      CODE     ---       #418
      0100139BH   LINE      CODE     ---       #419
      0100139DH   LINE      CODE     ---       #420
      0100139FH   LINE      CODE     ---       #421
      010013A1H   LINE      CODE     ---       #423
      010013A2H   LINE      CODE     ---       #424
      010013A3H   LINE      CODE     ---       #425
      010013A4H   LINE      CODE     ---       #426
      010013A7H   LINE      CODE     ---       #429
      010013A8H   LINE      CODE     ---       #430
      010013ABH   LINE      CODE     ---       #431
      010013ACH   LINE      CODE     ---       #433
      010013AEH   LINE      CODE     ---       #437
      ---         BLOCKEND  ---      ---       LVL=0

      ---         MODULE    ---      ---       SERIAL
      01000003H   PUBLIC    CODE     NEAR LAB  _?INT_PRINT
      01000CFCH   PUBLIC    CODE     NEAR LAB  _PUTC
      01000C99H   PUBLIC    CODE     NEAR LAB  _PUTS
      01000D3DH   PUBLIC    CODE     NEAR LAB  _SERIAL_INIT
      0100192FH   PUBLIC    CODE     NEAR LAB  GETC
      000000D0H.6 SFRSYM    DATA     BIT       AC
      000000E0H   SFRSYM    DATA     BYTE      ACC
      000000A1H   SFRSYM    DATA     BYTE      ADCCON
      000000A2H   SFRSYM    DATA     BYTE      ADCDATAH
      000000A3H   SFRSYM    DATA     BYTE      ADCDATAL
      000000A4H   SFRSYM    DATA     BYTE      ADCSTATIC
      000000F0H   SFRSYM    DATA     BYTE      B
      000000C8H.1 SFRSYM    DATA     BIT       C_T2
LX51 LINKER/LOCATER V4.34a                                                            05/11/2009  20:51:19  PAGE 52


      000000A0H.6 SFRSYM    DATA     BIT       CE
      000000B6H   SFRSYM    DATA     BYTE      CK_CTRL
      0000008EH   SFRSYM    DATA     BYTE      CKCON
      000000A0H.1 SFRSYM    DATA     BIT       CLK1
      000000A0H.5 SFRSYM    DATA     BIT       CLK2
      000000C8H   SFRSYM    DATA     BIT       CP_RL2
      000000C8H   SFRSYM    DATA     BIT       CPRL2
      000000A0H.3 SFRSYM    DATA     BIT       CS
      000000C8H.1 SFRSYM    DATA     BIT       CT2
      000000D0H.7 SFRSYM    DATA     BIT       CY
      000000A0H   SFRSYM    DATA     BIT       DATA?
      000000BEH   SFRSYM    DATA     BYTE      DEV_OFFSET
      00000090H.2 SFRSYM    DATA     BIT       DIN0
      00000090H   SFRSYM    DATA     BIT       DIO0
      00000090H.1 SFRSYM    DATA     BIT       DIO1
      00000080H   SFRSYM    DATA     BIT       DIO2
      00000080H.1 SFRSYM    DATA     BIT       DIO3
      00000080H.2 SFRSYM    DATA     BIT       DIO4
      00000080H.3 SFRSYM    DATA     BIT       DIO5
      00000080H.4 SFRSYM    DATA     BIT       DIO6
      00000080H.5 SFRSYM    DATA     BIT       DIO7
      00000080H.6 SFRSYM    DATA     BIT       DIO8
      00000080H.7 SFRSYM    DATA     BIT       DIO9
      000000A0H.4 SFRSYM    DATA     BIT       DOUT2
      00000083H   SFRSYM    DATA     BYTE      DPH
      00000083H   SFRSYM    DATA     BYTE      DPH0
      00000085H   SFRSYM    DATA     BYTE      DPH1
      00000082H   SFRSYM    DATA     BYTE      DPL
      00000082H   SFRSYM    DATA     BYTE      DPL0
      00000084H   SFRSYM    DATA     BYTE      DPL1
      00000086H   SFRSYM    DATA     BYTE      DPS
      000000A0H.2 SFRSYM    DATA     BIT       DR1
      000000A0H.6 SFRSYM    DATA     BIT       DR2
      000000A0H.6 SFRSYM    DATA     BIT       DR2_CE
      000000A8H.7 SFRSYM    DATA     BIT       EA
      000000D8H   SFRSYM    DATA     BYTE      EICON
      000000E8H   SFRSYM    DATA     BYTE      EIE
      000000F8H   SFRSYM    DATA     BYTE      EIP
      000000A8H.4 SFRSYM    DATA     BIT       ES
      000000A8H.1 SFRSYM    DATA     BIT       ET0
      000000A8H.3 SFRSYM    DATA     BIT       ET1
      000000A8H.5 SFRSYM    DATA     BIT       ET2
      000000E8H.4 SFRSYM    DATA     BIT       EWDI
      000000A8H   SFRSYM    DATA     BIT       EX0
      000000A8H.2 SFRSYM    DATA     BIT       EX1
      000000E8H   SFRSYM    DATA     BIT       EX2
      000000E8H.1 SFRSYM    DATA     BIT       EX3
      000000E8H.2 SFRSYM    DATA     BIT       EX4
      000000E8H.3 SFRSYM    DATA     BIT       EX5
      000000C8H.3 SFRSYM    DATA     BIT       EXEN2
      000000C8H.6 SFRSYM    DATA     BIT       EXF2
      00000091H   SFRSYM    DATA     BYTE      EXIF
      000000D0H.5 SFRSYM    DATA     BIT       F0
      000000D0H.1 SFRSYM    DATA     BIT       F1
      000000A8H   SFRSYM    DATA     BYTE      IE
      00000088H.1 SFRSYM    DATA     BIT       IE0
      00000088H.3 SFRSYM    DATA     BIT       IE1
      00000080H.3 SFRSYM    DATA     BIT       INT0_N
      00000080H.4 SFRSYM    DATA     BIT       INT1_N
      000000B8H   SFRSYM    DATA     BYTE      IP
      00000088H   SFRSYM    DATA     BIT       IT0
      00000088H.2 SFRSYM    DATA     BIT       IT1
      00000092H   SFRSYM    DATA     BYTE      MPAGE
      000000D0H.2 SFRSYM    DATA     BIT       OV
      000000D0H   SFRSYM    DATA     BIT       P
LX51 LINKER/LOCATER V4.34a                                                            05/11/2009  20:51:19  PAGE 53


      00000080H   SFRSYM    DATA     BYTE      P0
      00000080H   SFRSYM    DATA     BIT       P0_0
      00000080H.1 SFRSYM    DATA     BIT       P0_1
      00000080H.2 SFRSYM    DATA     BIT       P0_2
      00000080H.3 SFRSYM    DATA     BIT       P0_3
      00000080H.4 SFRSYM    DATA     BIT       P0_4
      00000080H.5 SFRSYM    DATA     BIT       P0_5
      00000080H.6 SFRSYM    DATA     BIT       P0_6
      00000080H.7 SFRSYM    DATA     BIT       P0_7
      00000095H   SFRSYM    DATA     BYTE      P0_ALT
      00000094H   SFRSYM    DATA     BYTE      P0_DIR
      00000090H   SFRSYM    DATA     BYTE      P1
      00000090H   SFRSYM    DATA     BIT       P1_0
      00000090H.1 SFRSYM    DATA     BIT       P1_1
      00000090H.2 SFRSYM    DATA     BIT       P1_2
      00000097H   SFRSYM    DATA     BYTE      P1_ALT
      00000096H   SFRSYM    DATA     BYTE      P1_DIR
      00000087H   SFRSYM    DATA     BYTE      PCON
      000000B8H.4 SFRSYM    DATA     BIT       PS
      000000D0H   SFRSYM    DATA     BYTE      PSW
      000000B8H.1 SFRSYM    DATA     BIT       PT0
      000000B8H.3 SFRSYM    DATA     BIT       PT1
      000000B8H.5 SFRSYM    DATA     BIT       PT2
      000000F8H.4 SFRSYM    DATA     BIT       PWDI
      00000080H.7 SFRSYM    DATA     BIT       PWM
      000000A9H   SFRSYM    DATA     BYTE      PWMCON
      000000AAH   SFRSYM    DATA     BYTE      PWMDUTY
      000000A0H.7 SFRSYM    DATA     BIT       PWR_UP
      000000B8H   SFRSYM    DATA     BIT       PX0
      000000B8H.2 SFRSYM    DATA     BIT       PX1
      000000F8H   SFRSYM    DATA     BIT       PX2
      000000F8H.1 SFRSYM    DATA     BIT       PX3
      000000F8H.2 SFRSYM    DATA     BIT       PX4
      000000F8H.3 SFRSYM    DATA     BIT       PX5
      000000A0H   SFRSYM    DATA     BYTE      RADIO
      00000098H.2 SFRSYM    DATA     BIT       RB8
      000000CBH   SFRSYM    DATA     BYTE      RCAP2H
      000000CAH   SFRSYM    DATA     BYTE      RCAP2L
      000000C8H.5 SFRSYM    DATA     BIT       RCLK
      000000ADH   SFRSYM    DATA     BYTE      REGX_CTRL
      000000ACH   SFRSYM    DATA     BYTE      REGX_LSB
      000000ABH   SFRSYM    DATA     BYTE      REGX_MSB
      00000098H.4 SFRSYM    DATA     BIT       REN
      00000098H   SFRSYM    DATA     BIT       RI
      000000D0H.3 SFRSYM    DATA     BIT       RS0
      000000D0H.4 SFRSYM    DATA     BIT       RS1
      000000B1H   SFRSYM    DATA     BYTE      RSTREAS
      00000080H.1 SFRSYM    DATA     BIT       RXD
      00000099H   SFRSYM    DATA     BYTE      SBUF
      00000098H   SFRSYM    DATA     BYTE      SCON
      00000098H.7 SFRSYM    DATA     BIT       SM0
      00000098H.6 SFRSYM    DATA     BIT       SM1
      00000098H.5 SFRSYM    DATA     BIT       SM2
      00000081H   SFRSYM    DATA     BYTE      SP
      0000008FH   SFRSYM    DATA     BYTE      SPC_FNC
      000000B3H   SFRSYM    DATA     BYTE      SPI_CTRL
      000000B2H   SFRSYM    DATA     BYTE      SPI_DATA
      000000B4H   SFRSYM    DATA     BYTE      SPICLK
      00000080H.5 SFRSYM    DATA     BIT       T0
      00000080H.6 SFRSYM    DATA     BIT       T1
      000000BCH   SFRSYM    DATA     BYTE      T1_1V2
      00000090H   SFRSYM    DATA     BIT       T2
      000000BDH   SFRSYM    DATA     BYTE      T2_1V2
      000000C8H   SFRSYM    DATA     BYTE      T2CON
      00000098H.3 SFRSYM    DATA     BIT       TB8
LX51 LINKER/LOCATER V4.34a                                                            05/11/2009  20:51:19  PAGE 54


      000000C8H.4 SFRSYM    DATA     BIT       TCLK
      00000088H   SFRSYM    DATA     BYTE      TCON
      000000B7H   SFRSYM    DATA     BYTE      TEST_MODE
      00000088H.5 SFRSYM    DATA     BIT       TF0
      00000088H.7 SFRSYM    DATA     BIT       TF1
      000000C8H.7 SFRSYM    DATA     BIT       TF2
      0000008CH   SFRSYM    DATA     BYTE      TH0
      0000008DH   SFRSYM    DATA     BYTE      TH1
      000000CDH   SFRSYM    DATA     BYTE      TH2
      00000098H.1 SFRSYM    DATA     BIT       TI
      000000B5H   SFRSYM    DATA     BYTE      TICK_DV
      0000008AH   SFRSYM    DATA     BYTE      TL0
      0000008BH   SFRSYM    DATA     BYTE      TL1
      000000CCH   SFRSYM    DATA     BYTE      TL2
      00000089H   SFRSYM    DATA     BYTE      TMOD
      00000088H.4 SFRSYM    DATA     BIT       TR0
      00000088H.6 SFRSYM    DATA     BIT       TR1
      000000C8H.2 SFRSYM    DATA     BIT       TR2
      00000080H.2 SFRSYM    DATA     BIT       TXD
      000000D8H.3 SFRSYM    DATA     BIT       WDTI
      00000064H   SYMBOL    DATA     BYTE      ?_PUTS?BYTE
      01000D38H   SYMBOL    CODE     NEAR LAB  ?C0001
      01000D24H   SYMBOL    CODE     NEAR LAB  ?C0002
      01000D2CH   SYMBOL    CODE     NEAR LAB  ?C0003
      01000D34H   SYMBOL    CODE     NEAR LAB  ?C0004
      01000D3CH   SYMBOL    CODE     NEAR LAB  ?C0005
      01000CF3H   SYMBOL    CODE     NEAR LAB  ?C0007
      01000CF6H   SYMBOL    CODE     NEAR LAB  ?C0008
      01001919H   SYMBOL    CODE     NEAR LAB  ?C0010
      0100191CH   SYMBOL    CODE     NEAR LAB  ?C0011
      01001920H   SYMBOL    CODE     NEAR LAB  ?C0012
      01000C9FH   SYMBOL    CODE     NEAR LAB  ?C0014
      01000CBDH   SYMBOL    CODE     NEAR LAB  ?C0016
      01001932H   SYMBOL    CODE     NEAR LAB  ?C0017
      01000023H   SYMBOL    CODE     NEAR LAB  ?C0018
      01000CB2H   SYMBOL    CODE     NEAR LAB  ?C0020
      01000CF1H   SYMBOL    CODE     NEAR LAB  _SERIAL_WRITE
      01000D00H   SYMBOL    CODE     NEAR LAB  _SETUP_BAUDRATE
      00000064H   SYMBOL    DATA     BYTE      S?544
      01001919H   SYMBOL    CODE     NEAR LAB  SERIAL_READ

      01000D00H   BLOCK     CODE     NEAR LAB  LVL=0
      01000D00H   LINE      CODE     ---       #221
      01000D03H   LINE      CODE     ---       #224
      01000D05H   LINE      CODE     ---       #227
      01000D07H   LINE      CODE     ---       #230
      01000D09H   LINE      CODE     ---       #233
      01000D0CH   LINE      CODE     ---       #237
      01000D0FH   LINE      CODE     ---       #240
      01000D12H   LINE      CODE     ---       #244
      01000D13H   LINE      CODE     ---       #245
      01000D15H   LINE      CODE     ---       #246
      01000D24H   LINE      CODE     ---       #258
      01000D27H   LINE      CODE     ---       #261
      01000D2AH   LINE      CODE     ---       #264
      01000D2CH   LINE      CODE     ---       #270
      01000D2FH   LINE      CODE     ---       #273
      01000D32H   LINE      CODE     ---       #276
      01000D34H   LINE      CODE     ---       #283
      01000D35H   LINE      CODE     ---       #284
      01000D36H   LINE      CODE     ---       #285
      01000D37H   LINE      CODE     ---       #286
      01000D38H   LINE      CODE     ---       #292
      01000D3AH   LINE      CODE     ---       #293
      01000D3CH   LINE      CODE     ---       #297
LX51 LINKER/LOCATER V4.34a                                                            05/11/2009  20:51:19  PAGE 55


      ---         BLOCKEND  ---      ---       LVL=0

      01000D3DH   BLOCK     CODE     NEAR LAB  LVL=0
      01000D3DH   LINE      CODE     ---       #319
      01000D40H   LINE      CODE     ---       #322
      01000D43H   LINE      CODE     ---       #325
      01000D46H   LINE      CODE     ---       #328
      ---         BLOCKEND  ---      ---       LVL=0

      01000CF1H   BLOCK     CODE     NEAR LAB  LVL=0
      01000CF1H   LINE      CODE     ---       #345
      01000CF3H   LINE      CODE     ---       #349
      01000CF6H   LINE      CODE     ---       #354
      01000CF8H   LINE      CODE     ---       #357
      ---         BLOCKEND  ---      ---       LVL=0

      01001919H   BLOCK     CODE     NEAR LAB  LVL=0
      01001919H   LINE      CODE     ---       #375
      0100191CH   LINE      CODE     ---       #380
      0100191EH   LINE      CODE     ---       #383
      01001920H   LINE      CODE     ---       #387
      ---         BLOCKEND  ---      ---       LVL=0

      01000CFCH   BLOCK     CODE     NEAR LAB  LVL=0
      01000CFCH   LINE      CODE     ---       #402
      ---         BLOCKEND  ---      ---       LVL=0

      01000C99H   BLOCK     CODE     NEAR LAB  LVL=0
      01000C99H   LINE      CODE     ---       #413
      01000C9BH   LINE      CODE     ---       #414
      01000C9DH   LINE      CODE     ---       #415
      01000C9FH   LINE      CODE     ---       #421
      01000CA1H   LINE      CODE     ---       #422
      01000CA3H   LINE      CODE     ---       #423
      01000CA5H   LINE      CODE     ---       #424
      01000CA8H   LINE      CODE     ---       #425
      01000CAAH   LINE      CODE     ---       #428
      01000CACH   LINE      CODE     ---       #429
      01000CAEH   LINE      CODE     ---       #430
      01000CB0H   LINE      CODE     ---       #431
      01000CB2H   LINE      CODE     ---       #433
      01000CB3H   LINE      CODE     ---       #434
      01000CB4H   LINE      CODE     ---       #435
      01000CB7H   LINE      CODE     ---       #436
      01000CB8H   LINE      CODE     ---       #437
      01000CBBH   LINE      CODE     ---       #438
      01000CBDH   LINE      CODE     ---       #442
      ---         BLOCKEND  ---      ---       LVL=0

      0100192FH   BLOCK     CODE     NEAR LAB  LVL=0
      0100192FH   LINE      CODE     ---       #456
      01001932H   LINE      CODE     ---       #460
      ---         BLOCKEND  ---      ---       LVL=0

      01000003H   BLOCK     CODE     NEAR LAB  LVL=0
      01000003H   LINE      CODE     ---       #474
      01000005H   LINE      CODE     ---       #475
      01000007H   LINE      CODE     ---       #476
      01000009H   LINE      CODE     ---       #477
      0100000BH   LINE      CODE     ---       #478
      0100000CH   LINE      CODE     ---       #479
      0100000EH   LINE      CODE     ---       #483
      01000010H   LINE      CODE     ---       #484
      01000011H   LINE      CODE     ---       #485
      01000012H   LINE      CODE     ---       #486
LX51 LINKER/LOCATER V4.34a                                                            05/11/2009  20:51:19  PAGE 56


      01000013H   LINE      CODE     ---       #487
      01000014H   LINE      CODE     ---       #488
      01000015H   LINE      CODE     ---       #489
      01000017H   LINE      CODE     ---       #490
      01000019H   LINE      CODE     ---       #491
      0100001CH   LINE      CODE     ---       #492
      0100001DH   LINE      CODE     ---       #493
      0100001EH   LINE      CODE     ---       #494
      01000020H   LINE      CODE     ---       #497
      01000023H   LINE      CODE     ---       #501
      01000025H   LINE      CODE     ---       #502
      01000026H   LINE      CODE     ---       #503
      01000027H   LINE      CODE     ---       #504
      01000028H   LINE      CODE     ---       #505
      01000029H   LINE      CODE     ---       #506
      0100002AH   LINE      CODE     ---       #507
      0100002CH   LINE      CODE     ---       #508
      0100002EH   LINE      CODE     ---       #509
      01000031H   LINE      CODE     ---       #510
      01000032H   LINE      CODE     ---       #511
      01000034H   LINE      CODE     ---       #512
      01000035H   LINE      CODE     ---       #513
      01000038H   LINE      CODE     ---       #516
      0100003AH   LINE      CODE     ---       #517
      0100003CH   LINE      CODE     ---       #518
      ---         BLOCKEND  ---      ---       LVL=0

      ---         MODULE    ---      ---       SPI
      0100004CH   PUBLIC    CODE     NEAR LAB  _SPI_INIT
      01000CD9H   PUBLIC    CODE     NEAR LAB  _SPI_WRITE_THEN_READ
      000000D0H.6 SFRSYM    DATA     BIT       AC
      000000E0H   SFRSYM    DATA     BYTE      ACC
      000000A1H   SFRSYM    DATA     BYTE      ADCCON
      000000A2H   SFRSYM    DATA     BYTE      ADCDATAH
      000000A3H   SFRSYM    DATA     BYTE      ADCDATAL
      000000A4H   SFRSYM    DATA     BYTE      ADCSTATIC
      000000F0H   SFRSYM    DATA     BYTE      B
      000000C8H.1 SFRSYM    DATA     BIT       C_T2
      000000A0H.6 SFRSYM    DATA     BIT       CE
      000000B6H   SFRSYM    DATA     BYTE      CK_CTRL
      0000008EH   SFRSYM    DATA     BYTE      CKCON
      000000A0H.1 SFRSYM    DATA     BIT       CLK1
      000000A0H.5 SFRSYM    DATA     BIT       CLK2
      000000C8H   SFRSYM    DATA     BIT       CP_RL2
      000000C8H   SFRSYM    DATA     BIT       CPRL2
      000000A0H.3 SFRSYM    DATA     BIT       CS
      000000C8H.1 SFRSYM    DATA     BIT       CT2
      000000D0H.7 SFRSYM    DATA     BIT       CY
      000000A0H   SFRSYM    DATA     BIT       DATA?
      000000BEH   SFRSYM    DATA     BYTE      DEV_OFFSET
      00000090H.2 SFRSYM    DATA     BIT       DIN0
      00000090H   SFRSYM    DATA     BIT       DIO0
      00000090H.1 SFRSYM    DATA     BIT       DIO1
      00000080H   SFRSYM    DATA     BIT       DIO2
      00000080H.1 SFRSYM    DATA     BIT       DIO3
      00000080H.2 SFRSYM    DATA     BIT       DIO4
      00000080H.3 SFRSYM    DATA     BIT       DIO5
      00000080H.4 SFRSYM    DATA     BIT       DIO6
      00000080H.5 SFRSYM    DATA     BIT       DIO7
      00000080H.6 SFRSYM    DATA     BIT       DIO8
      00000080H.7 SFRSYM    DATA     BIT       DIO9
      000000A0H.4 SFRSYM    DATA     BIT       DOUT2
      00000083H   SFRSYM    DATA     BYTE      DPH
      00000083H   SFRSYM    DATA     BYTE      DPH0
      00000085H   SFRSYM    DATA     BYTE      DPH1
LX51 LINKER/LOCATER V4.34a                                                            05/11/2009  20:51:19  PAGE 57


      00000082H   SFRSYM    DATA     BYTE      DPL
      00000082H   SFRSYM    DATA     BYTE      DPL0
      00000084H   SFRSYM    DATA     BYTE      DPL1
      00000086H   SFRSYM    DATA     BYTE      DPS
      000000A0H.2 SFRSYM    DATA     BIT       DR1
      000000A0H.6 SFRSYM    DATA     BIT       DR2
      000000A0H.6 SFRSYM    DATA     BIT       DR2_CE
      000000A8H.7 SFRSYM    DATA     BIT       EA
      000000D8H   SFRSYM    DATA     BYTE      EICON
      000000E8H   SFRSYM    DATA     BYTE      EIE
      000000F8H   SFRSYM    DATA     BYTE      EIP
      000000A8H.4 SFRSYM    DATA     BIT       ES
      000000A8H.1 SFRSYM    DATA     BIT       ET0
      000000A8H.3 SFRSYM    DATA     BIT       ET1
      000000A8H.5 SFRSYM    DATA     BIT       ET2
      000000E8H.4 SFRSYM    DATA     BIT       EWDI
      000000A8H   SFRSYM    DATA     BIT       EX0
      000000A8H.2 SFRSYM    DATA     BIT       EX1
      000000E8H   SFRSYM    DATA     BIT       EX2
      000000E8H.1 SFRSYM    DATA     BIT       EX3
      000000E8H.2 SFRSYM    DATA     BIT       EX4
      000000E8H.3 SFRSYM    DATA     BIT       EX5
      000000C8H.3 SFRSYM    DATA     BIT       EXEN2
      000000C8H.6 SFRSYM    DATA     BIT       EXF2
      00000091H   SFRSYM    DATA     BYTE      EXIF
      000000D0H.5 SFRSYM    DATA     BIT       F0
      000000D0H.1 SFRSYM    DATA     BIT       F1
      000000A8H   SFRSYM    DATA     BYTE      IE
      00000088H.1 SFRSYM    DATA     BIT       IE0
      00000088H.3 SFRSYM    DATA     BIT       IE1
      00000080H.3 SFRSYM    DATA     BIT       INT0_N
      00000080H.4 SFRSYM    DATA     BIT       INT1_N
      000000B8H   SFRSYM    DATA     BYTE      IP
      00000088H   SFRSYM    DATA     BIT       IT0
      00000088H.2 SFRSYM    DATA     BIT       IT1
      00000092H   SFRSYM    DATA     BYTE      MPAGE
      000000D0H.2 SFRSYM    DATA     BIT       OV
      000000D0H   SFRSYM    DATA     BIT       P
      00000080H   SFRSYM    DATA     BYTE      P0
      00000080H   SFRSYM    DATA     BIT       P0_0
      00000080H.1 SFRSYM    DATA     BIT       P0_1
      00000080H.2 SFRSYM    DATA     BIT       P0_2
      00000080H.3 SFRSYM    DATA     BIT       P0_3
      00000080H.4 SFRSYM    DATA     BIT       P0_4
      00000080H.5 SFRSYM    DATA     BIT       P0_5
      00000080H.6 SFRSYM    DATA     BIT       P0_6
      00000080H.7 SFRSYM    DATA     BIT       P0_7
      00000095H   SFRSYM    DATA     BYTE      P0_ALT
      00000094H   SFRSYM    DATA     BYTE      P0_DIR
      00000090H   SFRSYM    DATA     BYTE      P1
      00000090H   SFRSYM    DATA     BIT       P1_0
      00000090H.1 SFRSYM    DATA     BIT       P1_1
      00000090H.2 SFRSYM    DATA     BIT       P1_2
      00000097H   SFRSYM    DATA     BYTE      P1_ALT
      00000096H   SFRSYM    DATA     BYTE      P1_DIR
      00000087H   SFRSYM    DATA     BYTE      PCON
      000000B8H.4 SFRSYM    DATA     BIT       PS
      000000D0H   SFRSYM    DATA     BYTE      PSW
      000000B8H.1 SFRSYM    DATA     BIT       PT0
      000000B8H.3 SFRSYM    DATA     BIT       PT1
      000000B8H.5 SFRSYM    DATA     BIT       PT2
      000000F8H.4 SFRSYM    DATA     BIT       PWDI
      00000080H.7 SFRSYM    DATA     BIT       PWM
      000000A9H   SFRSYM    DATA     BYTE      PWMCON
      000000AAH   SFRSYM    DATA     BYTE      PWMDUTY
LX51 LINKER/LOCATER V4.34a                                                            05/11/2009  20:51:19  PAGE 58


      000000A0H.7 SFRSYM    DATA     BIT       PWR_UP
      000000B8H   SFRSYM    DATA     BIT       PX0
      000000B8H.2 SFRSYM    DATA     BIT       PX1
      000000F8H   SFRSYM    DATA     BIT       PX2
      000000F8H.1 SFRSYM    DATA     BIT       PX3
      000000F8H.2 SFRSYM    DATA     BIT       PX4
      000000F8H.3 SFRSYM    DATA     BIT       PX5
      000000A0H   SFRSYM    DATA     BYTE      RADIO
      00000098H.2 SFRSYM    DATA     BIT       RB8
      000000CBH   SFRSYM    DATA     BYTE      RCAP2H
      000000CAH   SFRSYM    DATA     BYTE      RCAP2L
      000000C8H.5 SFRSYM    DATA     BIT       RCLK
      000000ADH   SFRSYM    DATA     BYTE      REGX_CTRL
      000000ACH   SFRSYM    DATA     BYTE      REGX_LSB
      000000ABH   SFRSYM    DATA     BYTE      REGX_MSB
      00000098H.4 SFRSYM    DATA     BIT       REN
      00000098H   SFRSYM    DATA     BIT       RI
      000000D0H.3 SFRSYM    DATA     BIT       RS0
      000000D0H.4 SFRSYM    DATA     BIT       RS1
      000000B1H   SFRSYM    DATA     BYTE      RSTREAS
      00000080H.1 SFRSYM    DATA     BIT       RXD
      00000099H   SFRSYM    DATA     BYTE      SBUF
      00000098H   SFRSYM    DATA     BYTE      SCON
      00000098H.7 SFRSYM    DATA     BIT       SM0
      00000098H.6 SFRSYM    DATA     BIT       SM1
      00000098H.5 SFRSYM    DATA     BIT       SM2
      00000081H   SFRSYM    DATA     BYTE      SP
      0000008FH   SFRSYM    DATA     BYTE      SPC_FNC
      000000B3H   SFRSYM    DATA     BYTE      SPI_CTRL
      000000B2H   SFRSYM    DATA     BYTE      SPI_DATA
      000000B4H   SFRSYM    DATA     BYTE      SPICLK
      00000080H.5 SFRSYM    DATA     BIT       T0
      00000080H.6 SFRSYM    DATA     BIT       T1
      000000BCH   SFRSYM    DATA     BYTE      T1_1V2
      00000090H   SFRSYM    DATA     BIT       T2
      000000BDH   SFRSYM    DATA     BYTE      T2_1V2
      000000C8H   SFRSYM    DATA     BYTE      T2CON
      00000098H.3 SFRSYM    DATA     BIT       TB8
      000000C8H.4 SFRSYM    DATA     BIT       TCLK
      00000088H   SFRSYM    DATA     BYTE      TCON
      000000B7H   SFRSYM    DATA     BYTE      TEST_MODE
      00000088H.5 SFRSYM    DATA     BIT       TF0
      00000088H.7 SFRSYM    DATA     BIT       TF1
      000000C8H.7 SFRSYM    DATA     BIT       TF2
      0000008CH   SFRSYM    DATA     BYTE      TH0
      0000008DH   SFRSYM    DATA     BYTE      TH1
      000000CDH   SFRSYM    DATA     BYTE      TH2
      00000098H.1 SFRSYM    DATA     BIT       TI
      000000B5H   SFRSYM    DATA     BYTE      TICK_DV
      0000008AH   SFRSYM    DATA     BYTE      TL0
      0000008BH   SFRSYM    DATA     BYTE      TL1
      000000CCH   SFRSYM    DATA     BYTE      TL2
      00000089H   SFRSYM    DATA     BYTE      TMOD
      00000088H.4 SFRSYM    DATA     BIT       TR0
      00000088H.6 SFRSYM    DATA     BIT       TR1
      000000C8H.2 SFRSYM    DATA     BIT       TR2
      00000080H.2 SFRSYM    DATA     BIT       TXD
      000000D8H.3 SFRSYM    DATA     BIT       WDTI
      01000CDEH   SYMBOL    CODE     NEAR LAB  ?C0002
      01000CE3H   SYMBOL    CODE     NEAR LAB  ?C0003
      01000CE5H   SYMBOL    CODE     NEAR LAB  ?C0004

      0100004CH   BLOCK     CODE     NEAR LAB  LVL=0
      0100004CH   LINE      CODE     ---       #203
      0100004EH   LINE      CODE     ---       #206
LX51 LINKER/LOCATER V4.34a                                                            05/11/2009  20:51:19  PAGE 59


      01000050H   LINE      CODE     ---       #209
      ---         BLOCKEND  ---      ---       LVL=0

      01000CD9H   BLOCK     CODE     NEAR LAB  LVL=0
      01000CD9H   LINE      CODE     ---       #229
      01000CDCH   LINE      CODE     ---       #232
      01000CDEH   LINE      CODE     ---       #236
      01000CE0H   LINE      CODE     ---       #237
      01000CE3H   LINE      CODE     ---       #242
      01000CE5H   LINE      CODE     ---       #246
      ---         BLOCKEND  ---      ---       LVL=0

      ---         MODULE    ---      ---       EEPROM
      01000C6DH   PUBLIC    CODE     NEAR LAB  _EEPROM_READ
      0100186BH   PUBLIC    CODE     NEAR LAB  _EEPROM_WRITE
      01000CE6H   PUBLIC    CODE     NEAR LAB  EEPROM_INIT
      0100003DH   PUBLIC    CODE     NEAR LAB  EEPROM_STATUS
      010019B8H   PUBLIC    CODE     NEAR LAB  FLASH_ERASE_ALL
      000000D0H.6 SFRSYM    DATA     BIT       AC
      000000E0H   SFRSYM    DATA     BYTE      ACC
      000000A1H   SFRSYM    DATA     BYTE      ADCCON
      000000A2H   SFRSYM    DATA     BYTE      ADCDATAH
      000000A3H   SFRSYM    DATA     BYTE      ADCDATAL
      000000A4H   SFRSYM    DATA     BYTE      ADCSTATIC
      000000F0H   SFRSYM    DATA     BYTE      B
      000000C8H.1 SFRSYM    DATA     BIT       C_T2
      000000A0H.6 SFRSYM    DATA     BIT       CE
      000000B6H   SFRSYM    DATA     BYTE      CK_CTRL
      0000008EH   SFRSYM    DATA     BYTE      CKCON
      000000A0H.1 SFRSYM    DATA     BIT       CLK1
      000000A0H.5 SFRSYM    DATA     BIT       CLK2
      000000C8H   SFRSYM    DATA     BIT       CP_RL2
      000000C8H   SFRSYM    DATA     BIT       CPRL2
      000000A0H.3 SFRSYM    DATA     BIT       CS
      000000C8H.1 SFRSYM    DATA     BIT       CT2
      000000D0H.7 SFRSYM    DATA     BIT       CY
      000000A0H   SFRSYM    DATA     BIT       DATA?
      000000BEH   SFRSYM    DATA     BYTE      DEV_OFFSET
      00000090H.2 SFRSYM    DATA     BIT       DIN0
      00000090H   SFRSYM    DATA     BIT       DIO0
      00000090H.1 SFRSYM    DATA     BIT       DIO1
      00000080H   SFRSYM    DATA     BIT       DIO2
      00000080H.1 SFRSYM    DATA     BIT       DIO3
      00000080H.2 SFRSYM    DATA     BIT       DIO4
      00000080H.3 SFRSYM    DATA     BIT       DIO5
      00000080H.4 SFRSYM    DATA     BIT       DIO6
      00000080H.5 SFRSYM    DATA     BIT       DIO7
      00000080H.6 SFRSYM    DATA     BIT       DIO8
      00000080H.7 SFRSYM    DATA     BIT       DIO9
      000000A0H.4 SFRSYM    DATA     BIT       DOUT2
      00000083H   SFRSYM    DATA     BYTE      DPH
      00000083H   SFRSYM    DATA     BYTE      DPH0
      00000085H   SFRSYM    DATA     BYTE      DPH1
      00000082H   SFRSYM    DATA     BYTE      DPL
      00000082H   SFRSYM    DATA     BYTE      DPL0
      00000084H   SFRSYM    DATA     BYTE      DPL1
      00000086H   SFRSYM    DATA     BYTE      DPS
      000000A0H.2 SFRSYM    DATA     BIT       DR1
      000000A0H.6 SFRSYM    DATA     BIT       DR2
      000000A0H.6 SFRSYM    DATA     BIT       DR2_CE
      000000A8H.7 SFRSYM    DATA     BIT       EA
      000000D8H   SFRSYM    DATA     BYTE      EICON
      000000E8H   SFRSYM    DATA     BYTE      EIE
      000000F8H   SFRSYM    DATA     BYTE      EIP
      000000A8H.4 SFRSYM    DATA     BIT       ES
LX51 LINKER/LOCATER V4.34a                                                            05/11/2009  20:51:19  PAGE 60


      000000A8H.1 SFRSYM    DATA     BIT       ET0
      000000A8H.3 SFRSYM    DATA     BIT       ET1
      000000A8H.5 SFRSYM    DATA     BIT       ET2
      000000E8H.4 SFRSYM    DATA     BIT       EWDI
      000000A8H   SFRSYM    DATA     BIT       EX0
      000000A8H.2 SFRSYM    DATA     BIT       EX1
      000000E8H   SFRSYM    DATA     BIT       EX2
      000000E8H.1 SFRSYM    DATA     BIT       EX3
      000000E8H.2 SFRSYM    DATA     BIT       EX4
      000000E8H.3 SFRSYM    DATA     BIT       EX5
      000000C8H.3 SFRSYM    DATA     BIT       EXEN2
      000000C8H.6 SFRSYM    DATA     BIT       EXF2
      00000091H   SFRSYM    DATA     BYTE      EXIF
      000000D0H.5 SFRSYM    DATA     BIT       F0
      000000D0H.1 SFRSYM    DATA     BIT       F1
      000000A8H   SFRSYM    DATA     BYTE      IE
      00000088H.1 SFRSYM    DATA     BIT       IE0
      00000088H.3 SFRSYM    DATA     BIT       IE1
      00000080H.3 SFRSYM    DATA     BIT       INT0_N
      00000080H.4 SFRSYM    DATA     BIT       INT1_N
      000000B8H   SFRSYM    DATA     BYTE      IP
      00000088H   SFRSYM    DATA     BIT       IT0
      00000088H.2 SFRSYM    DATA     BIT       IT1
      00000092H   SFRSYM    DATA     BYTE      MPAGE
      000000D0H.2 SFRSYM    DATA     BIT       OV
      000000D0H   SFRSYM    DATA     BIT       P
      00000080H   SFRSYM    DATA     BYTE      P0
      00000080H   SFRSYM    DATA     BIT       P0_0
      00000080H.1 SFRSYM    DATA     BIT       P0_1
      00000080H.2 SFRSYM    DATA     BIT       P0_2
      00000080H.3 SFRSYM    DATA     BIT       P0_3
      00000080H.4 SFRSYM    DATA     BIT       P0_4
      00000080H.5 SFRSYM    DATA     BIT       P0_5
      00000080H.6 SFRSYM    DATA     BIT       P0_6
      00000080H.7 SFRSYM    DATA     BIT       P0_7
      00000095H   SFRSYM    DATA     BYTE      P0_ALT
      00000094H   SFRSYM    DATA     BYTE      P0_DIR
      00000090H   SFRSYM    DATA     BYTE      P1
      00000090H   SFRSYM    DATA     BIT       P1_0
      00000090H.1 SFRSYM    DATA     BIT       P1_1
      00000090H.2 SFRSYM    DATA     BIT       P1_2
      00000097H   SFRSYM    DATA     BYTE      P1_ALT
      00000096H   SFRSYM    DATA     BYTE      P1_DIR
      00000087H   SFRSYM    DATA     BYTE      PCON
      000000B8H.4 SFRSYM    DATA     BIT       PS
      000000D0H   SFRSYM    DATA     BYTE      PSW
      000000B8H.1 SFRSYM    DATA     BIT       PT0
      000000B8H.3 SFRSYM    DATA     BIT       PT1
      000000B8H.5 SFRSYM    DATA     BIT       PT2
      000000F8H.4 SFRSYM    DATA     BIT       PWDI
      00000080H.7 SFRSYM    DATA     BIT       PWM
      000000A9H   SFRSYM    DATA     BYTE      PWMCON
      000000AAH   SFRSYM    DATA     BYTE      PWMDUTY
      000000A0H.7 SFRSYM    DATA     BIT       PWR_UP
      000000B8H   SFRSYM    DATA     BIT       PX0
      000000B8H.2 SFRSYM    DATA     BIT       PX1
      000000F8H   SFRSYM    DATA     BIT       PX2
      000000F8H.1 SFRSYM    DATA     BIT       PX3
      000000F8H.2 SFRSYM    DATA     BIT       PX4
      000000F8H.3 SFRSYM    DATA     BIT       PX5
      000000A0H   SFRSYM    DATA     BYTE      RADIO
      00000098H.2 SFRSYM    DATA     BIT       RB8
      000000CBH   SFRSYM    DATA     BYTE      RCAP2H
      000000CAH   SFRSYM    DATA     BYTE      RCAP2L
      000000C8H.5 SFRSYM    DATA     BIT       RCLK
LX51 LINKER/LOCATER V4.34a                                                            05/11/2009  20:51:19  PAGE 61


      000000ADH   SFRSYM    DATA     BYTE      REGX_CTRL
      000000ACH   SFRSYM    DATA     BYTE      REGX_LSB
      000000ABH   SFRSYM    DATA     BYTE      REGX_MSB
      00000098H.4 SFRSYM    DATA     BIT       REN
      00000098H   SFRSYM    DATA     BIT       RI
      000000D0H.3 SFRSYM    DATA     BIT       RS0
      000000D0H.4 SFRSYM    DATA     BIT       RS1
      000000B1H   SFRSYM    DATA     BYTE      RSTREAS
      00000080H.1 SFRSYM    DATA     BIT       RXD
      00000099H   SFRSYM    DATA     BYTE      SBUF
      00000098H   SFRSYM    DATA     BYTE      SCON
      00000098H.7 SFRSYM    DATA     BIT       SM0
      00000098H.6 SFRSYM    DATA     BIT       SM1
      00000098H.5 SFRSYM    DATA     BIT       SM2
      00000081H   SFRSYM    DATA     BYTE      SP
      0000008FH   SFRSYM    DATA     BYTE      SPC_FNC
      000000B3H   SFRSYM    DATA     BYTE      SPI_CTRL
      000000B2H   SFRSYM    DATA     BYTE      SPI_DATA
      000000B4H   SFRSYM    DATA     BYTE      SPICLK
      00000080H.5 SFRSYM    DATA     BIT       T0
      00000080H.6 SFRSYM    DATA     BIT       T1
      000000BCH   SFRSYM    DATA     BYTE      T1_1V2
      00000090H   SFRSYM    DATA     BIT       T2
      000000BDH   SFRSYM    DATA     BYTE      T2_1V2
      000000C8H   SFRSYM    DATA     BYTE      T2CON
      00000098H.3 SFRSYM    DATA     BIT       TB8
      000000C8H.4 SFRSYM    DATA     BIT       TCLK
      00000088H   SFRSYM    DATA     BYTE      TCON
      000000B7H   SFRSYM    DATA     BYTE      TEST_MODE
      00000088H.5 SFRSYM    DATA     BIT       TF0
      00000088H.7 SFRSYM    DATA     BIT       TF1
      000000C8H.7 SFRSYM    DATA     BIT       TF2
      0000008CH   SFRSYM    DATA     BYTE      TH0
      0000008DH   SFRSYM    DATA     BYTE      TH1
      000000CDH   SFRSYM    DATA     BYTE      TH2
      00000098H.1 SFRSYM    DATA     BIT       TI
      000000B5H   SFRSYM    DATA     BYTE      TICK_DV
      0000008AH   SFRSYM    DATA     BYTE      TL0
      0000008BH   SFRSYM    DATA     BYTE      TL1
      000000CCH   SFRSYM    DATA     BYTE      TL2
      00000089H   SFRSYM    DATA     BYTE      TMOD
      00000088H.4 SFRSYM    DATA     BIT       TR0
      00000088H.6 SFRSYM    DATA     BIT       TR1
      000000C8H.2 SFRSYM    DATA     BIT       TR2
      00000080H.2 SFRSYM    DATA     BIT       TXD
      000000D8H.3 SFRSYM    DATA     BIT       WDTI
      0000006AH   SYMBOL    DATA     BYTE      ?_EEPROM_READ?BYTE
      00000067H   SYMBOL    DATA     BYTE      ?_EEPROM_WRITE?BYTE
      0100004BH   SYMBOL    CODE     NEAR LAB  ?C0002
      01001871H   SYMBOL    CODE     NEAR LAB  ?C0003
      01001878H   SYMBOL    CODE     NEAR LAB  ?C0004
      01000C74H   SYMBOL    CODE     NEAR LAB  ?C0006
      01000C7BH   SYMBOL    CODE     NEAR LAB  ?C0007
      01000C98H   SYMBOL    CODE     NEAR LAB  ?C0008
      010019B8H   SYMBOL    CODE     NEAR LAB  ?C0009
      010019BFH   SYMBOL    CODE     NEAR LAB  ?C0010
      010019D1H   SYMBOL    CODE     NEAR LAB  ?C0012
      00000067H   SYMBOL    DATA     BYTE      ADDR?241
      0000006AH   SYMBOL    DATA     BYTE      ADDR?343
      00000069H   SYMBOL    DATA     BYTE      BYTE?242
      0000006CH   SYMBOL    DATA     BYTE      BYTE?344

      01000CE6H   BLOCK     CODE     NEAR LAB  LVL=0
      01000CE6H   LINE      CODE     ---       #244
      01000CE7H   LINE      CODE     ---       #245
LX51 LINKER/LOCATER V4.34a                                                            05/11/2009  20:51:19  PAGE 62


      01000CE8H   LINE      CODE     ---       #246
      01000CEAH   LINE      CODE     ---       #247
      01000CEDH   LINE      CODE     ---       #251
      01000CF0H   LINE      CODE     ---       #254
      ---         BLOCKEND  ---      ---       LVL=0

      0100003DH   BLOCK     CODE     NEAR LAB  LVL=0
      0100003DH   LINE      CODE     ---       #270
      0100003FH   LINE      CODE     ---       #273
      01000041H   LINE      CODE     ---       #274
      01000044H   LINE      CODE     ---       #278
      01000045H   LINE      CODE     ---       #279
      01000046H   LINE      CODE     ---       #280
      01000049H   LINE      CODE     ---       #284
      0100004BH   LINE      CODE     ---       #291
      ---         BLOCKEND  ---      ---       LVL=0

      0100186BH   BLOCK     CODE     NEAR LAB  LVL=0
      0100186BH   LINE      CODE     ---       #305
      0100186DH   LINE      CODE     ---       #306
      0100186FH   LINE      CODE     ---       #307
      01001871H   LINE      CODE     ---       #313
      01001874H   LINE      CODE     ---       #314
      01001875H   LINE      CODE     ---       #315
      01001878H   LINE      CODE     ---       #320
      0100187AH   LINE      CODE     ---       #323
      0100187CH   LINE      CODE     ---       #324
      0100187FH   LINE      CODE     ---       #327
      01001881H   LINE      CODE     ---       #330
      01001883H   LINE      CODE     ---       #333
      01001885H   LINE      CODE     ---       #334
      01001888H   LINE      CODE     ---       #337
      0100188AH   LINE      CODE     ---       #338
      0100188BH   LINE      CODE     ---       #339
      0100188EH   LINE      CODE     ---       #342
      01001890H   LINE      CODE     ---       #343
      01001892H   LINE      CODE     ---       #344
      01001895H   LINE      CODE     ---       #347
      01001897H   LINE      CODE     ---       #348
      0100189AH   LINE      CODE     ---       #351
      0100189CH   LINE      CODE     ---       #354
      0100189EH   LINE      CODE     ---       #357
      010018A0H   LINE      CODE     ---       #358
      010018A3H   LINE      CODE     ---       #361
      010018A5H   LINE      CODE     ---       #364
      ---         BLOCKEND  ---      ---       LVL=0

      01000C6DH   BLOCK     CODE     NEAR LAB  LVL=0
      01000C6DH   LINE      CODE     ---       #377
      01000C6FH   LINE      CODE     ---       #378
      01000C71H   LINE      CODE     ---       #383
      01000C72H   LINE      CODE     ---       #384
      01000C74H   LINE      CODE     ---       #388
      01000C77H   LINE      CODE     ---       #389
      01000C78H   LINE      CODE     ---       #390
      01000C7BH   LINE      CODE     ---       #395
      01000C7DH   LINE      CODE     ---       #398
      01000C7FH   LINE      CODE     ---       #399
      01000C82H   LINE      CODE     ---       #402
      01000C84H   LINE      CODE     ---       #403
      01000C85H   LINE      CODE     ---       #404
      01000C88H   LINE      CODE     ---       #407
      01000C8AH   LINE      CODE     ---       #408
      01000C8CH   LINE      CODE     ---       #409
      01000C8FH   LINE      CODE     ---       #412
LX51 LINKER/LOCATER V4.34a                                                            05/11/2009  20:51:19  PAGE 63


      01000C90H   LINE      CODE     ---       #413
      01000C91H   LINE      CODE     ---       #414
      01000C94H   LINE      CODE     ---       #415
      01000C96H   LINE      CODE     ---       #418
      01000C98H   LINE      CODE     ---       #424
      ---         BLOCKEND  ---      ---       LVL=0

      010019B8H   BLOCK     CODE     NEAR LAB  LVL=0
      010019B8H   LINE      CODE     ---       #440
      010019BBH   LINE      CODE     ---       #441
      010019BCH   LINE      CODE     ---       #442
      010019BFH   LINE      CODE     ---       #447
      010019C1H   LINE      CODE     ---       #450
      010019C3H   LINE      CODE     ---       #451
      010019C6H   LINE      CODE     ---       #454
      010019C8H   LINE      CODE     ---       #457
      010019CAH   LINE      CODE     ---       #460
      010019CCH   LINE      CODE     ---       #461
      010019CFH   LINE      CODE     ---       #464
      010019D1H   LINE      CODE     ---       #472
      010019D3H   LINE      CODE     ---       #475
      010019D5H   LINE      CODE     ---       #476
      010019D8H   LINE      CODE     ---       #479
      010019DAH   LINE      CODE     ---       #482
      ---         BLOCKEND  ---      ---       LVL=0

      ---         MODULE    ---      ---       ?C_STARTUP
      01000000H   PUBLIC    CODE     ---       ?C_STARTUP

      ---         MODULE    ---      ---       ?C?CLDPTR
      01000056H   PUBLIC    CODE     ---       ?C?CLDPTR

      ---         MODULE    ---      ---       ?C?CLDOPTR
      0100006FH   PUBLIC    CODE     ---       ?C?CLDOPTR

      ---         MODULE    ---      ---       ?C?CSTPTR
      0100009CH   PUBLIC    CODE     ---       ?C?CSTPTR

      ---         MODULE    ---      ---       ?C?IMUL
      010000AEH   PUBLIC    CODE     ---       ?C?IMUL

      ---         MODULE    ---      ---       ?C?UIDIV
      010000C0H   PUBLIC    CODE     ---       ?C?UIDIV

      ---         MODULE    ---      ---       ?C?SIDIV
      01000115H   PUBLIC    CODE     ---       ?C?SIDIV

      ---         MODULE    ---      ---       ?C?ILDOPTR
      0100014BH   PUBLIC    CODE     ---       ?C?ILDOPTR

      ---         MODULE    ---      ---       ?C?ISTOPTR
      01000183H   PUBLIC    CODE     ---       ?C?ISTOPTR

      ---         MODULE    ---      ---       ?C?LMUL
      010001B0H   PUBLIC    CODE     ---       ?C?LMUL

      ---         MODULE    ---      ---       ?C?ULDIV
      0100023BH   PUBLIC    CODE     ---       ?C?ULDIV

      ---         MODULE    ---      ---       ?C?ICASE
      010002CDH   PUBLIC    CODE     ---       ?C?ICASE

      ---         MODULE    ---      ---       ?C_IBP
      00000077H   PUBLIC    DATA     ---       ?C_IBP

LX51 LINKER/LOCATER V4.34a                                                            05/11/2009  20:51:19  PAGE 64


      ---         MODULE    ---      ---       ?C_INIT
      01000BD3H   PUBLIC    CODE     ---       ?C_START

      ---         MODULE    ---      ---       ?C?FCAST
      01000304H   PUBLIC    CODE     ---       ?C?FCASTC
      010002FFH   PUBLIC    CODE     ---       ?C?FCASTI
      010002FAH   PUBLIC    CODE     ---       ?C?FCASTL

      ---         MODULE    ---      ---       ?C?CASTF
      01000338H   PUBLIC    CODE     ---       ?C?CASTF

      ---         MODULE    ---      ---       SIN
      0100093BH   PUBLIC    CODE     ---       _COS
      01000951H   PUBLIC    CODE     ---       _SIN
      0100098DH   PUBLIC    CODE     ---       _TAN

      ---         MODULE    ---      ---       ?C?FPGETOPN
      0100036FH   PUBLIC    CODE     ---       ?C?FPGETOPN2
      010003A4H   PUBLIC    CODE     ---       ?C?FPNANRESULT
      010003AEH   PUBLIC    CODE     ---       ?C?FPOVERFLOW
      01000386H   PUBLIC    CODE     ---       ?C?FPRESULT
      0100039AH   PUBLIC    CODE     ---       ?C?FPRESULT2
      010003ABH   PUBLIC    CODE     ---       ?C?FPUNDERFLOW

      ---         MODULE    ---      ---       ?C?FPADD
      010003C0H   PUBLIC    CODE     ---       ?C?FPADD
      010003BCH   PUBLIC    CODE     ---       ?C?FPSUB

      ---         MODULE    ---      ---       ?C?FPMUL
      010004B1H   PUBLIC    CODE     ---       ?C?FPMUL

      ---         MODULE    ---      ---       ?C?FPDIV
      010005BAH   PUBLIC    CODE     ---       ?C?FPDIV

      ---         MODULE    ---      ---       ?C?FPSERIES
      01000657H   PUBLIC    CODE     ---       ?C?FP2SERIES
      01000666H   PUBLIC    CODE     ---       ?C?FPSERIES

      ---         MODULE    ---      ---       ?C?LNEG
      010006A4H   PUBLIC    CODE     ---       ?C?LNEG

      ---         MODULE    ---      ---       ?C?LLDCODE
      010006B2H   PUBLIC    CODE     ---       ?C?LLDCODE

      ---         MODULE    ---      ---       ?C?LLDXDATA0
      010006C2H   PUBLIC    CODE     ---       ?C?LLDXDATA0

      ---         MODULE    ---      ---       ?C?LLDCODE0
      010006CEH   PUBLIC    CODE     ---       ?C?LLDCODE0

      ---         MODULE    ---      ---       ?C?LSTXDATA
      010006DEH   PUBLIC    CODE     ---       ?C?LSTXDATA

Program Size: data=235.1 xdata=4 const=0 code=5452
LX51 RUN COMPLETE.  0 WARNING(S),  0 ERROR(S)
