; ./eco_page.src generated from: .\eco_page.c
; COMPILER INVOKED BY:
;        C:\Keil\C51\BIN\C51.exe .\eco_page.c BROWSE DEBUG CODE LISTINCLUDE SYMBOLS PREPRINT INCDIR(../../Include) SRC(./eco_page.src)

$NOMOD51

NAME	ECO_PAGE

PWR_UP	BIT	0A0H.7
P0	DATA	080H
P1	DATA	090H
AC	BIT	0D0H.6
T0	BIT	080H.5
SPI_CTRL	DATA	0B3H
T1	BIT	080H.6
EA	BIT	0A8H.7
T2	BIT	090H.0
CE	BIT	0A0H.6
DEV_OFFSET	DATA	0BEH
CLK1	BIT	0A0H.1
DIN0	BIT	090H.2
CLK2	BIT	0A0H.5
DIO0	BIT	090H.0
DPH0	DATA	083H
DIO1	BIT	090H.1
IE	DATA	0A8H
DPH1	DATA	085H
DIO2	BIT	080H.0
DIO3	BIT	080H.1
P0_0	BIT	080H.0
P1_0	BIT	090H.0
DIO4	BIT	080H.2
P0_1	BIT	080H.1
DPL0	DATA	082H
P1_1	BIT	090H.1
DIO5	BIT	080H.3
P0_2	BIT	080H.2
DPL1	DATA	084H
P1_2	BIT	090H.2
DIO6	BIT	080H.4
P0_3	BIT	080H.3
DIO7	BIT	080H.5
P0_4	BIT	080H.4
ADCSTATIC	DATA	0A4H
DIO8	BIT	080H.6
P0_5	BIT	080H.5
EXF2	BIT	0C8H.6
CS	BIT	0A0H.3
DIO9	BIT	080H.7
P0_6	BIT	080H.6
P0_7	BIT	080H.7
ES	BIT	0A8H.4
IP	DATA	0B8H
DATA?	BIT	0A0H.0
RI	BIT	098H.0
CY	BIT	0D0H.7
TI	BIT	098H.1
T1_1V2	DATA	0BCH
SPC_FNC	DATA	08FH
T2_1V2	DATA	0BDH
RCAP2H	DATA	0CBH
PS	BIT	0B8H.4
SP	DATA	081H
OV	BIT	0D0H.2
CK_CTRL	DATA	0B6H
RCAP2L	DATA	0CAH
TICK_DV	DATA	0B5H
RSTREAS	DATA	0B1H
C_T2	BIT	0C8H.1
EWDI	BIT	0E8H.4
ADCCON	DATA	0A1H
RCLK	BIT	0C8H.5
ADCDATAH	DATA	0A2H
EXIF	DATA	091H
TCLK	BIT	0C8H.4
DR2_CE	BIT	0A0H.6
ADCDATAL	DATA	0A3H
SBUF	DATA	099H
PCON	DATA	087H
SCON	DATA	098H
PWDI	BIT	0F8H.4
TMOD	DATA	089H
TCON	DATA	088H
WDTI	BIT	0D8H.3
PWMDUTY	DATA	0AAH
IE0	BIT	088H.1
IE1	BIT	088H.3
P0_DIR	DATA	094H
B	DATA	0F0H
P1_DIR	DATA	096H
P0_ALT	DATA	095H
P1_ALT	DATA	097H
CP_RL2	BIT	0C8H.0
DR1	BIT	0A0H.2
ACC	DATA	0E0H
DR2	BIT	0A0H.6
TEST_MODE	DATA	0B7H
SPICLK	DATA	0B4H
CT2	BIT	0C8H.1
ET0	BIT	0A8H.1
ET1	BIT	0A8H.3
TF0	BIT	088H.5
INT0_N	BIT	080H.3
ET2	BIT	0A8H.5
TF1	BIT	088H.7
INT1_N	BIT	080H.4
TF2	BIT	0C8H.7
RB8	BIT	098H.2
TH0	DATA	08CH
EX0	BIT	0A8H.0
IT0	BIT	088H.0
TH1	DATA	08DH
EX1	BIT	0A8H.2
TB8	BIT	098H.3
IT1	BIT	088H.2
TH2	DATA	0CDH
REGX_CTRL	DATA	0ADH
EX2	BIT	0E8H.0
P	BIT	0D0H.0
EX3	BIT	0E8H.1
SM0	BIT	098H.7
TL0	DATA	08AH
EX4	BIT	0E8H.2
SM1	BIT	098H.6
TL1	DATA	08BH
EX5	BIT	0E8H.3
SM2	BIT	098H.5
TL2	DATA	0CCH
EIE	DATA	0E8H
PT0	BIT	0B8H.1
RS0	BIT	0D0H.3
PT1	BIT	0B8H.3
RS1	BIT	0D0H.4
PT2	BIT	0B8H.5
TR0	BIT	088H.4
PWMCON	DATA	0A9H
TR1	BIT	088H.6
TR2	BIT	0C8H.2
PX0	BIT	0B8H.0
PX1	BIT	0B8H.2
PX2	BIT	0F8H.0
PX3	BIT	0F8H.1
PX4	BIT	0F8H.2
DPH	DATA	083H
PX5	BIT	0F8H.3
EIP	DATA	0F8H
DPL	DATA	082H
EXEN2	BIT	0C8H.3
CPRL2	BIT	0C8H.0
REN	BIT	098H.4
T2CON	DATA	0C8H
DPS	DATA	086H
SPI_DATA	DATA	0B2H
MPAGE	DATA	092H
RXD	BIT	080H.1
DOUT2	BIT	0A0H.4
EICON	DATA	0D8H
CKCON	DATA	08EH
TXD	BIT	080H.2
RADIO	DATA	0A0H
PWM	BIT	080H.7
F0	BIT	0D0H.5
F1	BIT	0D0H.1
REGX_LSB	DATA	0ACH
PSW	DATA	0D0H
REGX_MSB	DATA	0ABH
?PR?eco_page_init?ECO_PAGE               SEGMENT CODE 
?PR?eco_page_manager?ECO_PAGE            SEGMENT CODE 
?DT?eco_page_manager?ECO_PAGE            SEGMENT DATA OVERLAYABLE 
?DT?ECO_PAGE         SEGMENT DATA 
	EXTRN	CODE (_mdelay)
	EXTRN	CODE (_eeprom_read)
	PUBLIC	ECO_PAGE_ADDR
	PUBLIC	eco_page_manager
	PUBLIC	eco_page_init

	RSEG  ?DT?eco_page_manager?ECO_PAGE
?eco_page_manager?BYTE:
	ORG  4
        seg?140:   DS   2
	ORG  0
          i?141:   DS   2
	ORG  2
 page_index?142:   DS   2

	RSEG  ?DT?ECO_PAGE
 ECO_PAGE_TABLE:   DS   10
  ECO_PAGE_ADDR:   DS   2
ECO_PAGE_TABLE_INDEX:   DS   2
; /*
;  * Author(s): Wei-Han Chen (Embedded Platform Lab, NTHU)
;  * Copyright (c) 2009 National Tsing Hua University (NTHU) 
;  * Permission to copy, modify, and distribute this program is granted 
;  * for noncommercial purposes, provided the author(s) and copyright
;  * notice are retained. All other uses require explicit written
;  * permission from NTHU. 
;  *
;  * Eco Paging Library 
;  *
;  * Wei-Han Chen <xwaynec@gmail.com> 
;  * 2009/2/13
;  */
; 
; 
; #include "eco_page.h"
; #include "eeprom/eeprom.h"
; 
; //#define EEPROM_HEADER 3
; //#define ECO_PAGE_ADDR_OFFSET    6
; //#define ECO_ADDR_SHIFT(x)       ((unsigned int)(x) + 3)
; 
; 
; static unsigned char ECO_PAGE_TABLE[10];
; static unsigned int ECO_PAGE_TABLE_INDEX;
; 
; unsigned int ECO_PAGE_ADDR;
; 
; void eco_page_init()

	RSEG  ?PR?eco_page_init?ECO_PAGE
eco_page_init:
			; SOURCE LINE # 29
; {
			; SOURCE LINE # 30
; 	ECO_PAGE_TABLE_INDEX = 5;
			; SOURCE LINE # 31
	MOV  	ECO_PAGE_TABLE_INDEX,#00H
	MOV  	ECO_PAGE_TABLE_INDEX+01H,#05H
; 
; 	ECO_PAGE_ADDR = 0;
			; SOURCE LINE # 33
	CLR  	A
	MOV  	ECO_PAGE_ADDR,A
	MOV  	ECO_PAGE_ADDR+01H,A
; 
; 	ECO_PAGE_TABLE[0] = -1; 
			; SOURCE LINE # 35
	MOV  	ECO_PAGE_TABLE,#0FFH
; 	ECO_PAGE_TABLE[1] = -1; 
			; SOURCE LINE # 36
	MOV  	ECO_PAGE_TABLE+01H,#0FFH
; 	ECO_PAGE_TABLE[2] = 8;
			; SOURCE LINE # 37
	MOV  	ECO_PAGE_TABLE+02H,#08H
; 	ECO_PAGE_TABLE[3] = -1; 
			; SOURCE LINE # 38
	MOV  	ECO_PAGE_TABLE+03H,#0FFH
; 	ECO_PAGE_TABLE[4] = -1; 
			; SOURCE LINE # 39
	MOV  	ECO_PAGE_TABLE+04H,#0FFH
; 	ECO_PAGE_TABLE[5] = -1; 
			; SOURCE LINE # 40
	MOV  	ECO_PAGE_TABLE+05H,#0FFH
; 	ECO_PAGE_TABLE[6] = -1; 
			; SOURCE LINE # 41
	MOV  	ECO_PAGE_TABLE+06H,#0FFH
; 	ECO_PAGE_TABLE[7] = -1; 
			; SOURCE LINE # 42
	MOV  	ECO_PAGE_TABLE+07H,#0FFH
; 	ECO_PAGE_TABLE[8] = -1; 
			; SOURCE LINE # 43
	MOV  	ECO_PAGE_TABLE+08H,#0FFH
; 	ECO_PAGE_TABLE[9] = -1; 
			; SOURCE LINE # 44
	MOV  	ECO_PAGE_TABLE+09H,#0FFH
; }
			; SOURCE LINE # 45
	RET  	
; END OF eco_page_init

; 
; 
; void eco_page_manager()

	RSEG  ?PR?eco_page_manager?ECO_PAGE
eco_page_manager:
	USING	0
			; SOURCE LINE # 48
; {
			; SOURCE LINE # 49
; 	unsigned int i;
; 	unsigned int page_index = -1; 
			; SOURCE LINE # 51
	MOV  	A,#0FFH
	MOV  	page_index?142,A
	MOV  	page_index?142+01H,A
; 
; 	//Check POP instruction 
; 	for(i=0;i<10;i++)
			; SOURCE LINE # 54
	CLR  	A
	MOV  	i?141,A
	MOV  	i?141+01H,A
?C0002:
; 	{    
			; SOURCE LINE # 55
; 		blink_led();
			; SOURCE LINE # 56
	XRL  	P0,#020H
; 		mdelay(400);
			; SOURCE LINE # 57
	MOV  	R7,#090H
	MOV  	R6,#01H
	LCALL	_mdelay
; 	}    
			; SOURCE LINE # 58
	INC  	i?141+01H
	MOV  	A,i?141+01H
	JNZ  	?C0018
	INC  	i?141
?C0018:
	CLR  	C
	SUBB 	A,#0AH
	MOV  	A,i?141
	SUBB 	A,#00H
	JC   	?C0002
?C0003:
; 
; 	mdelay(1000);
			; SOURCE LINE # 60
	MOV  	R7,#0E8H
	MOV  	R6,#03H
	LCALL	_mdelay
; 
; 	//Check Table   
; 	for(i=0;i<10;i++)
			; SOURCE LINE # 63
	CLR  	A
	MOV  	i?141,A
	MOV  	i?141+01H,A
?C0005:
; 	{   
			; SOURCE LINE # 64
; 		if(ECO_PAGE_ADDR == (ECO_PAGE_TABLE[i] << 8)) 
			; SOURCE LINE # 65
	MOV  	A,#LOW (ECO_PAGE_TABLE)
	ADD  	A,i?141+01H
	MOV  	R0,A
	MOV  	A,@R0
	MOV  	R6,A
	CLR  	A
	CJNE 	A,ECO_PAGE_ADDR+01H,?C0007
	MOV  	A,R6
	CJNE 	A,ECO_PAGE_ADDR,?C0007
; 		{   
			; SOURCE LINE # 66
; 			page_index = i;
			; SOURCE LINE # 67
	MOV  	page_index?142,i?141
	MOV  	page_index?142+01H,i?141+01H
; 			break;    
			; SOURCE LINE # 68
	SJMP 	?C0006
; 		}    
			; SOURCE LINE # 69
; 	}
			; SOURCE LINE # 70
?C0007:
	INC  	i?141+01H
	MOV  	A,i?141+01H
	JNZ  	?C0020
	INC  	i?141
?C0020:
	XRL  	A,#0AH
	ORL  	A,i?141
	JNZ  	?C0005
?C0006:
; 
; 
; 	if(page_index != -1) 
			; SOURCE LINE # 73
	MOV  	A,page_index?142+01H
	CPL  	A
	JNZ  	?C0021
	MOV  	A,page_index?142
	CPL  	A
?C0021:
	JZ   	?C0009
; 	{   
			; SOURCE LINE # 74
; 		//memory page is in ram
; 		for(i=0;i<4;i++)
			; SOURCE LINE # 76
	CLR  	A
	MOV  	i?141,A
	MOV  	i?141+01H,A
?C0010:
; 		{   
			; SOURCE LINE # 77
; 			blink_led();
			; SOURCE LINE # 78
	XRL  	P0,#020H
; 			mdelay(400);
			; SOURCE LINE # 79
	MOV  	R7,#090H
	MOV  	R6,#01H
	LCALL	_mdelay
; 		} 
			; SOURCE LINE # 80
	INC  	i?141+01H
	MOV  	A,i?141+01H
	JNZ  	?C0022
	INC  	i?141
?C0022:
	CLR  	C
	SUBB 	A,#04H
	MOV  	A,i?141
	SUBB 	A,#00H
	JC   	?C0010
?C0011:
; 
; 		ECO_PAGE_ADDR = (page_index + ECO_PAGE_ADDR_OFFSET) << 8;
			; SOURCE LINE # 82
	MOV  	A,page_index?142+01H
	ADD  	A,#06H
	MOV  	R7,A
	CLR  	A
	ADDC 	A,page_index?142
	MOV  	A,R7
	MOV  	ECO_PAGE_ADDR+01H,#00H
	MOV  	ECO_PAGE_ADDR,A
; 
; #pragma asm
; 		//eco_page_function_call
	  
; 		//MOV     DPH,ECO_PAGE_ADDR
	  
; 		//MOV     DPL,ECO_PAGE_ADDR+01H
	  
; 		//LCALL	?C?ICALL2
	  
; #pragma endasm
; 	}   
			; SOURCE LINE # 90
	SJMP 	?C0013
?C0009:
; 	else
; 	{
			; SOURCE LINE # 92
; 		//page fault
; 		/* Move Data from EEPROM to iRAM */
; 		unsigned char xdata *seg = (unsigned char xdata *)((ECO_PAGE_TABLE_INDEX + ECO_PAGE_ADDR_OFFSET)<<8);
			; SOURCE LINE # 95
	MOV  	A,ECO_PAGE_TABLE_INDEX+01H
	ADD  	A,#06H
	MOV  	R7,A
	MOV  	A,R7
	MOV  	seg?140,A
	MOV  	seg?140+01H,#00H
; 
; 		for(i=0;i<256;i++)
			; SOURCE LINE # 97
	CLR  	A
	MOV  	i?141,A
	MOV  	i?141+01H,A
?C0014:
; 		{
			; SOURCE LINE # 98
; 			*(seg+i) = eeprom_read(ECO_ADDR_SHIFT(ECO_PAGE_ADDR) +i);
			; SOURCE LINE # 99
	MOV  	A,ECO_PAGE_ADDR+01H
	ADD  	A,#03H
	XCH  	A,R7
	CLR  	A
	ADDC 	A,ECO_PAGE_ADDR
	XCH  	A,R7
	ADD  	A,i?141+01H
	XCH  	A,R7
	ADDC 	A,i?141
	MOV  	R6,A
	LCALL	_eeprom_read
	MOV  	A,seg?140+01H
	ADD  	A,i?141+01H
	MOV  	DPL,A
	MOV  	A,seg?140
	ADDC 	A,i?141
	MOV  	DPH,A
	MOV  	A,R7
	MOVX 	@DPTR,A
; 		}
			; SOURCE LINE # 100
	INC  	i?141+01H
	MOV  	A,i?141+01H
	JNZ  	?C0023
	INC  	i?141
?C0023:
	CLR  	C
	MOV  	A,i?141
	SUBB 	A,#01H
	JC   	?C0014
?C0015:
; 
; 		//Update Page Table
; 		ECO_PAGE_TABLE[ECO_PAGE_TABLE_INDEX] = ECO_PAGE_ADDR >> 8;
			; SOURCE LINE # 103
	MOV  	A,ECO_PAGE_ADDR
	MOV  	R7,A
	MOV  	A,#LOW (ECO_PAGE_TABLE)
	ADD  	A,ECO_PAGE_TABLE_INDEX+01H
	MOV  	R0,A
	MOV  	@R0,AR7
; 
; 		//Update Page Address
; 		ECO_PAGE_ADDR = ((ECO_PAGE_TABLE_INDEX + ECO_PAGE_ADDR_OFFSET) << 8);
			; SOURCE LINE # 106
	MOV  	A,ECO_PAGE_TABLE_INDEX+01H
	ADD  	A,#06H
	MOV  	R7,A
	CLR  	A
	ADDC 	A,ECO_PAGE_TABLE_INDEX
	MOV  	A,R7
	MOV  	ECO_PAGE_ADDR+01H,#00H
	MOV  	ECO_PAGE_ADDR,A
; 
; 		ECO_PAGE_TABLE_INDEX++;
			; SOURCE LINE # 108
	INC  	ECO_PAGE_TABLE_INDEX+01H
	MOV  	A,ECO_PAGE_TABLE_INDEX+01H
	JNZ  	?C0024
	INC  	ECO_PAGE_TABLE_INDEX
?C0024:
; 
; 		//Jump  to Function Address     
; 
; #pragma asm
; 		//MOV     DPH,ECO_PAGE_ADDR
	  
; 		//MOV     DPL,ECO_PAGE_ADDR+01H
	  
; 		//LCALL        ?C?ICALL2               
	  
; #pragma endasm
; 
; 	}
			; SOURCE LINE # 118
?C0013:
; 
; 	mdelay(1);
			; SOURCE LINE # 120
	MOV  	R7,#01H
	MOV  	R6,#00H
	LJMP 	_mdelay
; END OF eco_page_manager

	END
