LX51 LINKER/LOCATER V4.34a                                                              04/22/2009  16:13:56  PAGE 1


LX51 LINKER/LOCATER V4.34a, INVOKED BY:
C:\KEIL\C51\BIN\LX51.EXE MAIN.OBJ, ISR_RF.OBJ, ECO_PAGE.OBJ, ADC.OBJ, UTILS.OBJ, SERIAL.OBJ, SPI.OBJ, EEPROM.OBJ, C51S.L
>> IB TO MAIN SEGMENTS (?PR?_RF_SEND?ISR_RF (C:0X1000)) SEGMENTS (?PR?BLINK2?MAIN (C:0X1100)) SEGMENTS (?PR?BLINK4?MAIN 
>> (C:0X1155)) SEGMENTS (?PR?BLINK6?MAIN (C:0X11AA))


CPU MODE:     8051 MODE


INPUT MODULES INCLUDED:
  MAIN.OBJ (MAIN)
         COMMENT TYPE 0: AX51 V3.06a
  ISR_RF.OBJ (ISR_RF)
         COMMENT TYPE 0: AX51 V3.06a
  ECO_PAGE.OBJ (ECO_PAGE)
         COMMENT TYPE 0: AX51 V3.06a
  ADC.OBJ (ADC)
         COMMENT TYPE 0: AX51 V3.06a
  UTILS.OBJ (UTILS)
         COMMENT TYPE 0: AX51 V3.06a
  SERIAL.OBJ (SERIAL)
         COMMENT TYPE 0: AX51 V3.06a
  SPI.OBJ (SPI)
         COMMENT TYPE 0: AX51 V3.06a
  EEPROM.OBJ (EEPROM)
         COMMENT TYPE 0: AX51 V3.06a
  C51S.LIB (?C_STARTUP)
         COMMENT TYPE 1: A51 / ASM51 Assembler
  C51S.LIB (?C?CLDPTR)
         COMMENT TYPE 1: A51 / ASM51 Assembler
  C51S.LIB (?C?CLDOPTR)
         COMMENT TYPE 1: A51 / ASM51 Assembler
  C51S.LIB (?C?CSTPTR)
         COMMENT TYPE 1: A51 / ASM51 Assembler
  C51S.LIB (?C?UIDIV)
         COMMENT TYPE 1: A51 / ASM51 Assembler
  C51S.LIB (?C?LMUL)
         COMMENT TYPE 1: A51 / ASM51 Assembler
  C51S.LIB (?C?ULDIV)
         COMMENT TYPE 1: A51 / ASM51 Assembler
  C51S.LIB (?C?ICASE)
         COMMENT TYPE 1: A51 / ASM51 Assembler
  C51S.LIB (?C?ICALL)
         COMMENT TYPE 1: A51 / ASM51 Assembler
  C51S.LIB (?C_IBP)
         COMMENT TYPE 1: A51 / ASM51 Assembler
  C51S.LIB (?C_INIT)
         COMMENT TYPE 1: A51 / ASM51 Assembler


ACTIVE MEMORY CLASSES OF MODULE:  MAIN (MAIN)

BASE        START       END         USED      MEMORY CLASS
==========================================================
C:000000H   C:000000H   C:00FFFFH   000906H   CODE
I:000000H   I:000000H   I:00007FH   00007BH   DATA
I:000000H   I:000000H   I:0000FFH   00000FH   IDATA


MEMORY MAP OF MODULE:  MAIN (MAIN)


START     STOP      LENGTH    ALIGN  RELOC    MEMORY CLASS   SEGMENT NAME
=========================================================================

* * * * * * * * * * *   D A T A   M E M O R Y   * * * * * * * * * * * * *
LX51 LINKER/LOCATER V4.34a                                                            04/22/2009  16:13:56  PAGE 2


000000H   000007H   000008H   ---    AT..     DATA           "REG BANK 0"
000008H   00001FH   000018H   BYTE   UNIT     DATA           ?DT?ISR_RF
000020H   000034H   000015H   BYTE   UNIT     DATA           ?DT?MAIN
000035H   000042H   00000EH   BYTE   UNIT     DATA           ?DT?ECO_PAGE
000043H   00004CH   00000AH   BYTE   UNIT     DATA           ?DT?_RF_SEND?ISR_RF
00004DH   000054H   000008H   BYTE   UNIT     DATA           ?DT?_STRNCPY?UTILS
000055H   00005AH   000006H   BYTE   UNIT     DATA           ?DT?ECO_PAGE_MANAGER?ECO_PAGE
00005BH   00005FH   000005H   BYTE   UNIT     DATA           ?DT?_RF_CONFIGURE?ISR_RF
000060H   000063H   000004H   BYTE   UNIT     DATA           ?DT?UTILS
000064H   000066H   000003H   BYTE   UNIT     DATA           ?DT?MAIN?MAIN
000067H   000069H   000003H   BYTE   UNIT     DATA           ?DT?_PUTS?SERIAL
00006AH   00006CH   000003H   BYTE   UNIT     DATA           ?DT?_EEPROM_WRITE?EEPROM
00006DH   00006FH   000003H   BYTE   UNIT     DATA           ?DT?_EEPROM_READ?EEPROM
000070H   000071H   000002H   BYTE   UNIT     DATA           ?DT?BLINK2?MAIN
000072H   000073H   000002H   BYTE   UNIT     DATA           ?DT?BLINK4?MAIN
000074H   000075H   000002H   BYTE   UNIT     DATA           ?DT?BLINK6?MAIN
000076H   000077H   000002H   BYTE   UNIT     DATA           ?DT?RF_CH1_RECV?ISR_RF
000078H   000079H   000002H   BYTE   UNIT     DATA           ?DT?_MDELAY?UTILS
00007AH   00007AH   000001H   BYTE   UNIT     DATA           ?C?LIB_DATA
00007BH   000081H   000007H   BYTE   UNIT     IDATA          ?ID?MAIN
000082H   000088H   000007H   BYTE   UNIT     IDATA          ?ID?ECO_PAGE
000089H   000089H   000001H   BYTE   UNIT     IDATA          ?STACK

* * * * * * * * * * *   C O D E   M E M O R Y   * * * * * * * * * * * * *
000000H   000002H   000003H   ---    OFFS..   CODE           ?CO??C_STARTUP?0
000003H   00004FH   00004DH   BYTE   UNIT     CODE           ?PR?P_ADC_READ?ADC
000050H   000052H   000003H   BYTE   UNIT     CODE           ?PR?_PUTC?SERIAL
000053H   000055H   000003H   ---    OFFS..   CODE           ?CO?ISR_RF?11
000056H   000252H   0001FDH   BYTE   UNIT     CODE           ?C?LIB_CODE
000253H   0003ABH   000159H   BYTE   UNIT     CODE           ?PR?ECO_PAGE_MANAGER?ECO_PAGE
0003ACH   00045AH   0000AFH   BYTE   UNIT     CODE           ?PR?MAIN?MAIN
00045BH   0004E6H   00008CH   BYTE   UNIT     CODE           ?C_C51STARTUP
0004E7H   000546H   000060H   BYTE   UNIT     CODE           ?PR?RF_CH1_RECV?ISR_RF
000547H   00058FH   000049H   BYTE   UNIT     CODE           ?PR?_MDELAY?UTILS
000590H   0005D3H   000044H   BYTE   UNIT     CODE           ?PR?_STRNCPY?UTILS
0005D4H   000610H   00003DH   BYTE   UNIT     CODE           ?PR?_SETUP_BAUDRATE?SERIAL
000611H   00064BH   00003BH   BYTE   UNIT     CODE           ?PR?_EEPROM_WRITE?EEPROM
00064CH   000685H   00003AH   BYTE   UNIT     CODE           ?PR?_?INT_PRINT?SERIAL
000686H   0006BBH   000036H   BYTE   UNIT     CODE           ?C_INITSEG
0006BCH   0006F1H   000036H   BYTE   UNIT     CODE           ?PR?_RF_CONFIGURE?ISR_RF
0006F2H   00071DH   00002CH   BYTE   UNIT     CODE           ?PR?_EEPROM_READ?EEPROM
00071EH   000742H   000025H   BYTE   UNIT     CODE           ?PR?_PUTS?SERIAL
000743H   000765H   000023H   BYTE   UNIT     CODE           ?PR?FLASH_ERASE_ALL?EEPROM
000766H   000780H   00001BH   BYTE   UNIT     CODE           ?PR?_ADC_READ?ADC
000781H   000793H   000013H   BYTE   UNIT     CODE           ?PR?_ADC_INIT?ADC
000794H   0007A5H   000012H   BYTE   UNIT     CODE           ?PR?_WDT_LOAD?UTILS
0007A6H   0007B4H   00000FH   BYTE   UNIT     CODE           ?PR?EEPROM_STATUS?EEPROM
0007B5H   0007C2H   00000EH   BYTE   UNIT     CODE           ?PR?RF_INIT?ISR_RF
0007C3H   0007CFH   00000DH   BYTE   UNIT     CODE           ?PR?_STORE_CPU_RATE?UTILS
0007D0H   0007DCH   00000DH   BYTE   UNIT     CODE           ?PR?_SPI_WRITE_THEN_READ?SPI
0007DDH   0007E8H   00000CH   BYTE   UNIT     CODE           ?PR?ECO_PAGE_INIT?ECO_PAGE
0007E9H   0007F3H   00000BH   BYTE   UNIT     CODE           ?PR?EEPROM_INIT?EEPROM
0007F4H   0007FDH   00000AH   BYTE   UNIT     CODE           ?PR?_SERIAL_INIT?SERIAL
0007FEH   000806H   000009H   BYTE   UNIT     CODE           ?PR?RF_WAIT_MSG?ISR_RF
000807H   00080EH   000008H   BYTE   UNIT     CODE           ?PR?_SERIAL_WRITE?SERIAL
00080FH   000816H   000008H   BYTE   UNIT     CODE           ?PR?SERIAL_READ?SERIAL
000817H   00081BH   000005H   BYTE   UNIT     CODE           ?PR?_SPI_INIT?SPI
00081CH   00081FH   000004H   BYTE   UNIT     CODE           ?PR?GETC?SERIAL
000820H   000FFFH   0007E0H   ---    ---      **GAP**
001000H   00106AH   00006BH   BYTE   UNIT     CODE           ?PR?_RF_SEND?ISR_RF
00106BH   0010FFH   000095H   ---    ---      **GAP**
001100H   001128H   000029H   BYTE   UNIT     CODE           ?PR?BLINK2?MAIN
001129H   001154H   00002CH   ---    ---      **GAP**
001155H   00117DH   000029H   BYTE   UNIT     CODE           ?PR?BLINK4?MAIN
00117EH   0011A9H   00002CH   ---    ---      **GAP**
LX51 LINKER/LOCATER V4.34a                                                            04/22/2009  16:13:56  PAGE 3


0011AAH   0011D2H   000029H   BYTE   UNIT     CODE           ?PR?BLINK6?MAIN



PUBLIC SYMBOLS OF MODULE:  MAIN (MAIN)


      VALUE       CLASS    TYPE      PUBLIC SYMBOL NAME
      =================================================
      00000043H   DATA     BYTE      ?_RF_SEND?BYTE
      0000004DH   DATA     BYTE      ?_STRNCPY?BYTE
      0100006FH   CODE     ---       ?C?CLDOPTR
      01000056H   CODE     ---       ?C?CLDPTR
      00000000H   NUMBER   ---       ?C?CODESEG
      0100009CH   CODE     ---       ?C?CSTPTR
      0100024DH   CODE     ---       ?C?ICALL
      01000251H   CODE     ---       ?C?ICALL2
      01000220H   CODE     ---       ?C?ICASE
      01000103H   CODE     ---       ?C?LMUL
      010000AEH   CODE     ---       ?C?UIDIV
      0100018EH   CODE     ---       ?C?ULDIV
      00000000H   NUMBER   ---       ?C?XDATASEG
      0000007AH   DATA     ---       ?C_IBP
      010004A2H   CODE     ---       ?C_START
      01000000H   CODE     ---       ?C_STARTUP
      0100064CH   CODE     NEAR LAB  _?INT_PRINT
      01000781H   CODE     NEAR LAB  _ADC_INIT
      01000766H   CODE     NEAR LAB  _ADC_READ
      010006F2H   CODE     NEAR LAB  _EEPROM_READ
      01000611H   CODE     NEAR LAB  _EEPROM_WRITE
      01000547H   CODE     NEAR LAB  _MDELAY
      01000050H   CODE     NEAR LAB  _PUTC
      0100071EH   CODE     NEAR LAB  _PUTS
      010006BCH   CODE     NEAR LAB  _RF_CONFIGURE
      01001000H   CODE     NEAR LAB  _RF_SEND
      010007F4H   CODE     NEAR LAB  _SERIAL_INIT
      01000817H   CODE     NEAR LAB  _SPI_INIT
      010007D0H   CODE     NEAR LAB  _SPI_WRITE_THEN_READ
      010007C3H   CODE     NEAR LAB  _STORE_CPU_RATE
      01000590H   CODE     NEAR LAB  _STRNCPY
      01000794H   CODE     NEAR LAB  _WDT_LOAD
*SFR* 000000D0H.6 DATA     BIT       AC
*SFR* 000000E0H   DATA     BYTE      ACC
*SFR* 000000A1H   DATA     BYTE      ADCCON
*SFR* 000000A2H   DATA     BYTE      ADCDATAH
*SFR* 000000A3H   DATA     BYTE      ADCDATAL
*SFR* 000000A4H   DATA     BYTE      ADCSTATIC
*SFR* 000000F0H   DATA     BYTE      B
      01001100H   CODE     NEAR LAB  BLINK2
      01001155H   CODE     NEAR LAB  BLINK4
      010011AAH   CODE     NEAR LAB  BLINK6
*SFR* 000000C8H.1 DATA     BIT       C_T2
*SFR* 000000A0H.6 DATA     BIT       CE
      00000020H   DATA     BYTE      CFG
*SFR* 000000B6H   DATA     BYTE      CK_CTRL
*SFR* 0000008EH   DATA     BYTE      CKCON
*SFR* 000000A0H.1 DATA     BIT       CLK1
*SFR* 000000A0H.5 DATA     BIT       CLK2
*SFR* 000000C8H   DATA     BIT       CP_RL2
*SFR* 000000C8H   DATA     BIT       CPRL2
*SFR* 000000A0H.3 DATA     BIT       CS
*SFR* 000000C8H.1 DATA     BIT       CT2
*SFR* 000000D0H.7 DATA     BIT       CY
*SFR* 000000A0H   DATA     BIT       DATA?
*SFR* 000000BEH   DATA     BYTE      DEV_OFFSET
LX51 LINKER/LOCATER V4.34a                                                            04/22/2009  16:13:56  PAGE 4


*SFR* 00000090H.2 DATA     BIT       DIN0
*SFR* 00000090H   DATA     BIT       DIO0
*SFR* 00000090H.1 DATA     BIT       DIO1
*SFR* 00000080H   DATA     BIT       DIO2
*SFR* 00000080H.1 DATA     BIT       DIO3
*SFR* 00000080H.2 DATA     BIT       DIO4
*SFR* 00000080H.3 DATA     BIT       DIO5
*SFR* 00000080H.4 DATA     BIT       DIO6
*SFR* 00000080H.5 DATA     BIT       DIO7
*SFR* 00000080H.6 DATA     BIT       DIO8
*SFR* 00000080H.7 DATA     BIT       DIO9
*SFR* 000000A0H.4 DATA     BIT       DOUT2
*SFR* 00000083H   DATA     BYTE      DPH
*SFR* 00000083H   DATA     BYTE      DPH0
*SFR* 00000085H   DATA     BYTE      DPH1
*SFR* 00000082H   DATA     BYTE      DPL
*SFR* 00000082H   DATA     BYTE      DPL0
*SFR* 00000084H   DATA     BYTE      DPL1
*SFR* 00000086H   DATA     BYTE      DPS
*SFR* 000000A0H.2 DATA     BIT       DR1
*SFR* 000000A0H.6 DATA     BIT       DR2
*SFR* 000000A0H.6 DATA     BIT       DR2_CE
      00000023H   DATA     BYTE      DST_ADDR
*SFR* 000000A8H.7 DATA     BIT       EA
      00000040H   DATA     BYTE      ECO_PAGE_ADDR
      010007DDH   CODE     NEAR LAB  ECO_PAGE_INIT
      01000253H   CODE     NEAR LAB  ECO_PAGE_MANAGER
      0000003EH   DATA     BYTE      ECO_PAGE_PREV_PID
      0000003FH   DATA     BYTE      ECO_PAGE_PREV_VID
      00000082H   IDATA    BYTE      ECO_PAGE_REGISTER1
      00000083H   IDATA    BYTE      ECO_PAGE_REGISTER2
      00000084H   IDATA    BYTE      ECO_PAGE_REGISTER3
      00000085H   IDATA    BYTE      ECO_PAGE_REGISTER4
      00000086H   IDATA    BYTE      ECO_PAGE_REGISTER5
      00000087H   IDATA    BYTE      ECO_PAGE_REGISTER6
      00000088H   IDATA    BYTE      ECO_PAGE_REGISTER7
      0000003DH   DATA     BYTE      ECO_PAGE_SPI_CONN
      00000035H   DATA     BYTE      ECO_PAGE_TABLE
      00000042H   DATA     BYTE      ECO_PAGE_TABLE_INDEX
      010007E9H   CODE     NEAR LAB  EEPROM_INIT
      010007A6H   CODE     NEAR LAB  EEPROM_STATUS
*SFR* 000000D8H   DATA     BYTE      EICON
*SFR* 000000E8H   DATA     BYTE      EIE
*SFR* 000000F8H   DATA     BYTE      EIP
*SFR* 000000A8H.4 DATA     BIT       ES
*SFR* 000000A8H.1 DATA     BIT       ET0
*SFR* 000000A8H.3 DATA     BIT       ET1
*SFR* 000000A8H.5 DATA     BIT       ET2
*SFR* 000000E8H.4 DATA     BIT       EWDI
*SFR* 000000A8H   DATA     BIT       EX0
*SFR* 000000A8H.2 DATA     BIT       EX1
*SFR* 000000E8H   DATA     BIT       EX2
*SFR* 000000E8H.1 DATA     BIT       EX3
*SFR* 000000E8H.2 DATA     BIT       EX4
*SFR* 000000E8H.3 DATA     BIT       EX5
*SFR* 000000C8H.3 DATA     BIT       EXEN2
*SFR* 000000C8H.6 DATA     BIT       EXF2
*SFR* 00000091H   DATA     BYTE      EXIF
*SFR* 000000D0H.5 DATA     BIT       F0
*SFR* 000000D0H.1 DATA     BIT       F1
      01000743H   CODE     NEAR LAB  FLASH_ERASE_ALL
      0100081CH   CODE     NEAR LAB  GETC
*SFR* 000000A8H   DATA     BYTE      IE
*SFR* 00000088H.1 DATA     BIT       IE0
*SFR* 00000088H.3 DATA     BIT       IE1
LX51 LINKER/LOCATER V4.34a                                                            04/22/2009  16:13:56  PAGE 5


*SFR* 00000080H.3 DATA     BIT       INT0_N
*SFR* 00000080H.4 DATA     BIT       INT1_N
*SFR* 000000B8H   DATA     BYTE      IP
*SFR* 00000088H   DATA     BIT       IT0
*SFR* 00000088H.2 DATA     BIT       IT1
      010003ACH   CODE     NEAR LAB  MAIN
      00000060H   DATA     BYTE      MHZ
*SFR* 00000092H   DATA     BYTE      MPAGE
      0000007BH   IDATA    BYTE      MSG
*SFR* 000000D0H.2 DATA     BIT       OV
*SFR* 000000D0H   DATA     BIT       P
*SFR* 00000080H   DATA     BYTE      P0
*SFR* 00000080H   DATA     BIT       P0_0
*SFR* 00000080H.1 DATA     BIT       P0_1
*SFR* 00000080H.2 DATA     BIT       P0_2
*SFR* 00000080H.3 DATA     BIT       P0_3
*SFR* 00000080H.4 DATA     BIT       P0_4
*SFR* 00000080H.5 DATA     BIT       P0_5
*SFR* 00000080H.6 DATA     BIT       P0_6
*SFR* 00000080H.7 DATA     BIT       P0_7
*SFR* 00000095H   DATA     BYTE      P0_ALT
*SFR* 00000094H   DATA     BYTE      P0_DIR
*SFR* 00000090H   DATA     BYTE      P1
*SFR* 00000090H   DATA     BIT       P1_0
*SFR* 00000090H.1 DATA     BIT       P1_1
*SFR* 00000090H.2 DATA     BIT       P1_2
*SFR* 00000097H   DATA     BYTE      P1_ALT
*SFR* 00000096H   DATA     BYTE      P1_DIR
*SFR* 00000087H   DATA     BYTE      PCON
*SFR* 000000B8H.4 DATA     BIT       PS
*SFR* 000000D0H   DATA     BYTE      PSW
*SFR* 000000B8H.1 DATA     BIT       PT0
*SFR* 000000B8H.3 DATA     BIT       PT1
*SFR* 000000B8H.5 DATA     BIT       PT2
*SFR* 000000F8H.4 DATA     BIT       PWDI
*SFR* 00000080H.7 DATA     BIT       PWM
*SFR* 000000A9H   DATA     BYTE      PWMCON
*SFR* 000000AAH   DATA     BYTE      PWMDUTY
*SFR* 000000A0H.7 DATA     BIT       PWR_UP
*SFR* 000000B8H   DATA     BIT       PX0
*SFR* 000000B8H.2 DATA     BIT       PX1
*SFR* 000000F8H   DATA     BIT       PX2
*SFR* 000000F8H.1 DATA     BIT       PX3
*SFR* 000000F8H.2 DATA     BIT       PX4
*SFR* 000000F8H.3 DATA     BIT       PX5
*SFR* 000000A0H   DATA     BYTE      RADIO
*SFR* 00000098H.2 DATA     BIT       RB8
*SFR* 000000CBH   DATA     BYTE      RCAP2H
*SFR* 000000CAH   DATA     BYTE      RCAP2L
*SFR* 000000C8H.5 DATA     BIT       RCLK
*SFR* 000000ADH   DATA     BYTE      REGX_CTRL
*SFR* 000000ACH   DATA     BYTE      REGX_LSB
*SFR* 000000ABH   DATA     BYTE      REGX_MSB
*SFR* 00000098H.4 DATA     BIT       REN
      00000008H   DATA     BYTE      RF_BUF
      010004E7H   CODE     NEAR LAB  RF_CH1_RECV
      00000026H   DATA     BYTE      RF_DATA
      010007B5H   CODE     NEAR LAB  RF_INIT
      010007FEH   CODE     NEAR LAB  RF_WAIT_MSG
*SFR* 00000098H   DATA     BIT       RI
*SFR* 000000D0H.3 DATA     BIT       RS0
*SFR* 000000D0H.4 DATA     BIT       RS1
*SFR* 000000B1H   DATA     BYTE      RSTREAS
*SFR* 00000080H.1 DATA     BIT       RXD
*SFR* 00000099H   DATA     BYTE      SBUF
LX51 LINKER/LOCATER V4.34a                                                            04/22/2009  16:13:56  PAGE 6


*SFR* 00000098H   DATA     BYTE      SCON
*SFR* 00000098H.7 DATA     BIT       SM0
*SFR* 00000098H.6 DATA     BIT       SM1
*SFR* 00000098H.5 DATA     BIT       SM2
*SFR* 00000081H   DATA     BYTE      SP
*SFR* 0000008FH   DATA     BYTE      SPC_FNC
*SFR* 000000B3H   DATA     BYTE      SPI_CTRL
*SFR* 000000B2H   DATA     BYTE      SPI_DATA
*SFR* 000000B4H   DATA     BYTE      SPICLK
*SFR* 00000080H.5 DATA     BIT       T0
*SFR* 00000080H.6 DATA     BIT       T1
*SFR* 000000BCH   DATA     BYTE      T1_1V2
*SFR* 00000090H   DATA     BIT       T2
*SFR* 000000BDH   DATA     BYTE      T2_1V2
*SFR* 000000C8H   DATA     BYTE      T2CON
*SFR* 00000098H.3 DATA     BIT       TB8
*SFR* 000000C8H.4 DATA     BIT       TCLK
*SFR* 00000088H   DATA     BYTE      TCON
*SFR* 000000B7H   DATA     BYTE      TEST_MODE
*SFR* 00000088H.5 DATA     BIT       TF0
*SFR* 00000088H.7 DATA     BIT       TF1
*SFR* 000000C8H.7 DATA     BIT       TF2
*SFR* 0000008CH   DATA     BYTE      TH0
*SFR* 0000008DH   DATA     BYTE      TH1
*SFR* 000000CDH   DATA     BYTE      TH2
*SFR* 00000098H.1 DATA     BIT       TI
*SFR* 000000B5H   DATA     BYTE      TICK_DV
*SFR* 0000008AH   DATA     BYTE      TL0
*SFR* 0000008BH   DATA     BYTE      TL1
*SFR* 000000CCH   DATA     BYTE      TL2
*SFR* 00000089H   DATA     BYTE      TMOD
*SFR* 00000088H.4 DATA     BIT       TR0
*SFR* 00000088H.6 DATA     BIT       TR1
*SFR* 000000C8H.2 DATA     BIT       TR2
*SFR* 00000080H.2 DATA     BIT       TXD
*SFR* 000000D8H.3 DATA     BIT       WDTI



SYMBOL TABLE OF MODULE:  MAIN (MAIN)

      VALUE       REP       CLASS    TYPE      SYMBOL NAME
      ====================================================
      ---         MODULE    ---      ---       MAIN
      01001100H   PUBLIC    CODE     NEAR LAB  BLINK2
      01001155H   PUBLIC    CODE     NEAR LAB  BLINK4
      010011AAH   PUBLIC    CODE     NEAR LAB  BLINK6
      00000020H   PUBLIC    DATA     BYTE      CFG
      00000023H   PUBLIC    DATA     BYTE      DST_ADDR
      010003ACH   PUBLIC    CODE     NEAR LAB  MAIN
      0000007BH   PUBLIC    IDATA    BYTE      MSG
      00000026H   PUBLIC    DATA     BYTE      RF_DATA
      000000D0H.6 SFRSYM    DATA     BIT       AC
      000000E0H   SFRSYM    DATA     BYTE      ACC
      000000A1H   SFRSYM    DATA     BYTE      ADCCON
      000000A2H   SFRSYM    DATA     BYTE      ADCDATAH
      000000A3H   SFRSYM    DATA     BYTE      ADCDATAL
      000000A4H   SFRSYM    DATA     BYTE      ADCSTATIC
      000000F0H   SFRSYM    DATA     BYTE      B
      000000C8H.1 SFRSYM    DATA     BIT       C_T2
      000000A0H.6 SFRSYM    DATA     BIT       CE
      000000B6H   SFRSYM    DATA     BYTE      CK_CTRL
      0000008EH   SFRSYM    DATA     BYTE      CKCON
      000000A0H.1 SFRSYM    DATA     BIT       CLK1
      000000A0H.5 SFRSYM    DATA     BIT       CLK2
LX51 LINKER/LOCATER V4.34a                                                            04/22/2009  16:13:56  PAGE 7


      000000C8H   SFRSYM    DATA     BIT       CP_RL2
      000000C8H   SFRSYM    DATA     BIT       CPRL2
      000000A0H.3 SFRSYM    DATA     BIT       CS
      000000C8H.1 SFRSYM    DATA     BIT       CT2
      000000D0H.7 SFRSYM    DATA     BIT       CY
      000000A0H   SFRSYM    DATA     BIT       DATA?
      000000BEH   SFRSYM    DATA     BYTE      DEV_OFFSET
      00000090H.2 SFRSYM    DATA     BIT       DIN0
      00000090H   SFRSYM    DATA     BIT       DIO0
      00000090H.1 SFRSYM    DATA     BIT       DIO1
      00000080H   SFRSYM    DATA     BIT       DIO2
      00000080H.1 SFRSYM    DATA     BIT       DIO3
      00000080H.2 SFRSYM    DATA     BIT       DIO4
      00000080H.3 SFRSYM    DATA     BIT       DIO5
      00000080H.4 SFRSYM    DATA     BIT       DIO6
      00000080H.5 SFRSYM    DATA     BIT       DIO7
      00000080H.6 SFRSYM    DATA     BIT       DIO8
      00000080H.7 SFRSYM    DATA     BIT       DIO9
      000000A0H.4 SFRSYM    DATA     BIT       DOUT2
      00000083H   SFRSYM    DATA     BYTE      DPH
      00000083H   SFRSYM    DATA     BYTE      DPH0
      00000085H   SFRSYM    DATA     BYTE      DPH1
      00000082H   SFRSYM    DATA     BYTE      DPL
      00000082H   SFRSYM    DATA     BYTE      DPL0
      00000084H   SFRSYM    DATA     BYTE      DPL1
      00000086H   SFRSYM    DATA     BYTE      DPS
      000000A0H.2 SFRSYM    DATA     BIT       DR1
      000000A0H.6 SFRSYM    DATA     BIT       DR2
      000000A0H.6 SFRSYM    DATA     BIT       DR2_CE
      000000A8H.7 SFRSYM    DATA     BIT       EA
      000000D8H   SFRSYM    DATA     BYTE      EICON
      000000E8H   SFRSYM    DATA     BYTE      EIE
      000000F8H   SFRSYM    DATA     BYTE      EIP
      000000A8H.4 SFRSYM    DATA     BIT       ES
      000000A8H.1 SFRSYM    DATA     BIT       ET0
      000000A8H.3 SFRSYM    DATA     BIT       ET1
      000000A8H.5 SFRSYM    DATA     BIT       ET2
      000000E8H.4 SFRSYM    DATA     BIT       EWDI
      000000A8H   SFRSYM    DATA     BIT       EX0
      000000A8H.2 SFRSYM    DATA     BIT       EX1
      000000E8H   SFRSYM    DATA     BIT       EX2
      000000E8H.1 SFRSYM    DATA     BIT       EX3
      000000E8H.2 SFRSYM    DATA     BIT       EX4
      000000E8H.3 SFRSYM    DATA     BIT       EX5
      000000C8H.3 SFRSYM    DATA     BIT       EXEN2
      000000C8H.6 SFRSYM    DATA     BIT       EXF2
      00000091H   SFRSYM    DATA     BYTE      EXIF
      000000D0H.5 SFRSYM    DATA     BIT       F0
      000000D0H.1 SFRSYM    DATA     BIT       F1
      000000A8H   SFRSYM    DATA     BYTE      IE
      00000088H.1 SFRSYM    DATA     BIT       IE0
      00000088H.3 SFRSYM    DATA     BIT       IE1
      00000080H.3 SFRSYM    DATA     BIT       INT0_N
      00000080H.4 SFRSYM    DATA     BIT       INT1_N
      000000B8H   SFRSYM    DATA     BYTE      IP
      00000088H   SFRSYM    DATA     BIT       IT0
      00000088H.2 SFRSYM    DATA     BIT       IT1
      00000092H   SFRSYM    DATA     BYTE      MPAGE
      000000D0H.2 SFRSYM    DATA     BIT       OV
      000000D0H   SFRSYM    DATA     BIT       P
      00000080H   SFRSYM    DATA     BYTE      P0
      00000080H   SFRSYM    DATA     BIT       P0_0
      00000080H.1 SFRSYM    DATA     BIT       P0_1
      00000080H.2 SFRSYM    DATA     BIT       P0_2
      00000080H.3 SFRSYM    DATA     BIT       P0_3
LX51 LINKER/LOCATER V4.34a                                                            04/22/2009  16:13:56  PAGE 8


      00000080H.4 SFRSYM    DATA     BIT       P0_4
      00000080H.5 SFRSYM    DATA     BIT       P0_5
      00000080H.6 SFRSYM    DATA     BIT       P0_6
      00000080H.7 SFRSYM    DATA     BIT       P0_7
      00000095H   SFRSYM    DATA     BYTE      P0_ALT
      00000094H   SFRSYM    DATA     BYTE      P0_DIR
      00000090H   SFRSYM    DATA     BYTE      P1
      00000090H   SFRSYM    DATA     BIT       P1_0
      00000090H.1 SFRSYM    DATA     BIT       P1_1
      00000090H.2 SFRSYM    DATA     BIT       P1_2
      00000097H   SFRSYM    DATA     BYTE      P1_ALT
      00000096H   SFRSYM    DATA     BYTE      P1_DIR
      00000087H   SFRSYM    DATA     BYTE      PCON
      000000B8H.4 SFRSYM    DATA     BIT       PS
      000000D0H   SFRSYM    DATA     BYTE      PSW
      000000B8H.1 SFRSYM    DATA     BIT       PT0
      000000B8H.3 SFRSYM    DATA     BIT       PT1
      000000B8H.5 SFRSYM    DATA     BIT       PT2
      000000F8H.4 SFRSYM    DATA     BIT       PWDI
      00000080H.7 SFRSYM    DATA     BIT       PWM
      000000A9H   SFRSYM    DATA     BYTE      PWMCON
      000000AAH   SFRSYM    DATA     BYTE      PWMDUTY
      000000A0H.7 SFRSYM    DATA     BIT       PWR_UP
      000000B8H   SFRSYM    DATA     BIT       PX0
      000000B8H.2 SFRSYM    DATA     BIT       PX1
      000000F8H   SFRSYM    DATA     BIT       PX2
      000000F8H.1 SFRSYM    DATA     BIT       PX3
      000000F8H.2 SFRSYM    DATA     BIT       PX4
      000000F8H.3 SFRSYM    DATA     BIT       PX5
      000000A0H   SFRSYM    DATA     BYTE      RADIO
      00000098H.2 SFRSYM    DATA     BIT       RB8
      000000CBH   SFRSYM    DATA     BYTE      RCAP2H
      000000CAH   SFRSYM    DATA     BYTE      RCAP2L
      000000C8H.5 SFRSYM    DATA     BIT       RCLK
      000000ADH   SFRSYM    DATA     BYTE      REGX_CTRL
      000000ACH   SFRSYM    DATA     BYTE      REGX_LSB
      000000ABH   SFRSYM    DATA     BYTE      REGX_MSB
      00000098H.4 SFRSYM    DATA     BIT       REN
      00000098H   SFRSYM    DATA     BIT       RI
      000000D0H.3 SFRSYM    DATA     BIT       RS0
      000000D0H.4 SFRSYM    DATA     BIT       RS1
      000000B1H   SFRSYM    DATA     BYTE      RSTREAS
      00000080H.1 SFRSYM    DATA     BIT       RXD
      00000099H   SFRSYM    DATA     BYTE      SBUF
      00000098H   SFRSYM    DATA     BYTE      SCON
      00000098H.7 SFRSYM    DATA     BIT       SM0
      00000098H.6 SFRSYM    DATA     BIT       SM1
      00000098H.5 SFRSYM    DATA     BIT       SM2
      00000081H   SFRSYM    DATA     BYTE      SP
      0000008FH   SFRSYM    DATA     BYTE      SPC_FNC
      000000B3H   SFRSYM    DATA     BYTE      SPI_CTRL
      000000B2H   SFRSYM    DATA     BYTE      SPI_DATA
      000000B4H   SFRSYM    DATA     BYTE      SPICLK
      00000080H.5 SFRSYM    DATA     BIT       T0
      00000080H.6 SFRSYM    DATA     BIT       T1
      000000BCH   SFRSYM    DATA     BYTE      T1_1V2
      00000090H   SFRSYM    DATA     BIT       T2
      000000BDH   SFRSYM    DATA     BYTE      T2_1V2
      000000C8H   SFRSYM    DATA     BYTE      T2CON
      00000098H.3 SFRSYM    DATA     BIT       TB8
      000000C8H.4 SFRSYM    DATA     BIT       TCLK
      00000088H   SFRSYM    DATA     BYTE      TCON
      000000B7H   SFRSYM    DATA     BYTE      TEST_MODE
      00000088H.5 SFRSYM    DATA     BIT       TF0
      00000088H.7 SFRSYM    DATA     BIT       TF1
LX51 LINKER/LOCATER V4.34a                                                            04/22/2009  16:13:56  PAGE 9


      000000C8H.7 SFRSYM    DATA     BIT       TF2
      0000008CH   SFRSYM    DATA     BYTE      TH0
      0000008DH   SFRSYM    DATA     BYTE      TH1
      000000CDH   SFRSYM    DATA     BYTE      TH2
      00000098H.1 SFRSYM    DATA     BIT       TI
      000000B5H   SFRSYM    DATA     BYTE      TICK_DV
      0000008AH   SFRSYM    DATA     BYTE      TL0
      0000008BH   SFRSYM    DATA     BYTE      TL1
      000000CCH   SFRSYM    DATA     BYTE      TL2
      00000089H   SFRSYM    DATA     BYTE      TMOD
      00000088H.4 SFRSYM    DATA     BIT       TR0
      00000088H.6 SFRSYM    DATA     BIT       TR1
      000000C8H.2 SFRSYM    DATA     BIT       TR2
      00000080H.2 SFRSYM    DATA     BIT       TXD
      000000D8H.3 SFRSYM    DATA     BIT       WDTI
      00000070H   SYMBOL    DATA     BYTE      ?BLINK2?BYTE
      00000072H   SYMBOL    DATA     BYTE      ?BLINK4?BYTE
      00000074H   SYMBOL    DATA     BYTE      ?BLINK6?BYTE
      01001105H   SYMBOL    CODE     NEAR LAB  ?C0001
      01001122H   SYMBOL    CODE     NEAR LAB  ?C0002
      0100115AH   SYMBOL    CODE     NEAR LAB  ?C0005
      01001177H   SYMBOL    CODE     NEAR LAB  ?C0006
      010011AFH   SYMBOL    CODE     NEAR LAB  ?C0009
      010011CCH   SYMBOL    CODE     NEAR LAB  ?C0010
      010003ECH   SYMBOL    CODE     NEAR LAB  ?C0013
      010003FFH   SYMBOL    CODE     NEAR LAB  ?C0014
      01000406H   SYMBOL    CODE     NEAR LAB  ?C0016
      01001117H   SYMBOL    CODE     NEAR LAB  ?C0019
      0100116CH   SYMBOL    CODE     NEAR LAB  ?C0020
      010011C1H   SYMBOL    CODE     NEAR LAB  ?C0021
      00000064H   SYMBOL    DATA     BYTE      ?MAIN?BYTE
      00000070H   SYMBOL    DATA     BYTE      I?040
      00000072H   SYMBOL    DATA     BYTE      I?141
      00000074H   SYMBOL    DATA     BYTE      I?242
      00000065H   SYMBOL    DATA     BYTE      I?344
      00000064H   SYMBOL    DATA     BYTE      IDX?343

      01001100H   BLOCK     CODE     NEAR LAB  LVL=0
      01001100H   LINE      CODE     ---       #372
      01001101H   LINE      CODE     ---       #373
      01001103H   LINE      CODE     ---       #374
      01001105H   LINE      CODE     ---       #380
      01001108H   LINE      CODE     ---       #383
      0100110AH   LINE      CODE     ---       #384
      0100110CH   LINE      CODE     ---       #385
      0100110FH   LINE      CODE     ---       #388
      01001111H   LINE      CODE     ---       #389
      01001113H   LINE      CODE     ---       #390
      01001115H   LINE      CODE     ---       #391
      01001117H   LINE      CODE     ---       #393
      01001118H   LINE      CODE     ---       #394
      0100111AH   LINE      CODE     ---       #395
      0100111CH   LINE      CODE     ---       #396
      0100111EH   LINE      CODE     ---       #397
      01001120H   LINE      CODE     ---       #398
      01001122H   LINE      CODE     ---       #402
      01001124H   LINE      CODE     ---       #403
      01001126H   LINE      CODE     ---       #404
      ---         BLOCKEND  ---      ---       LVL=0

      01001155H   BLOCK     CODE     NEAR LAB  LVL=0
      01001155H   LINE      CODE     ---       #419
      01001156H   LINE      CODE     ---       #420
      01001158H   LINE      CODE     ---       #421
      0100115AH   LINE      CODE     ---       #427
LX51 LINKER/LOCATER V4.34a                                                            04/22/2009  16:13:56  PAGE 10


      0100115DH   LINE      CODE     ---       #430
      0100115FH   LINE      CODE     ---       #431
      01001161H   LINE      CODE     ---       #432
      01001164H   LINE      CODE     ---       #435
      01001166H   LINE      CODE     ---       #436
      01001168H   LINE      CODE     ---       #437
      0100116AH   LINE      CODE     ---       #438
      0100116CH   LINE      CODE     ---       #440
      0100116DH   LINE      CODE     ---       #441
      0100116FH   LINE      CODE     ---       #442
      01001171H   LINE      CODE     ---       #443
      01001173H   LINE      CODE     ---       #444
      01001175H   LINE      CODE     ---       #445
      01001177H   LINE      CODE     ---       #449
      01001179H   LINE      CODE     ---       #450
      0100117BH   LINE      CODE     ---       #451
      ---         BLOCKEND  ---      ---       LVL=0

      010011AAH   BLOCK     CODE     NEAR LAB  LVL=0
      010011AAH   LINE      CODE     ---       #466
      010011ABH   LINE      CODE     ---       #467
      010011ADH   LINE      CODE     ---       #468
      010011AFH   LINE      CODE     ---       #474
      010011B2H   LINE      CODE     ---       #477
      010011B4H   LINE      CODE     ---       #478
      010011B6H   LINE      CODE     ---       #479
      010011B9H   LINE      CODE     ---       #482
      010011BBH   LINE      CODE     ---       #483
      010011BDH   LINE      CODE     ---       #484
      010011BFH   LINE      CODE     ---       #485
      010011C1H   LINE      CODE     ---       #487
      010011C2H   LINE      CODE     ---       #488
      010011C4H   LINE      CODE     ---       #489
      010011C6H   LINE      CODE     ---       #490
      010011C8H   LINE      CODE     ---       #491
      010011CAH   LINE      CODE     ---       #492
      010011CCH   LINE      CODE     ---       #496
      010011CEH   LINE      CODE     ---       #497
      010011D0H   LINE      CODE     ---       #498
      ---         BLOCKEND  ---      ---       LVL=0

      010003ACH   BLOCK     CODE     NEAR LAB  LVL=0
      010003ACH   LINE      CODE     ---       #514
      010003ADH   LINE      CODE     ---       #515
      010003AFH   LINE      CODE     ---       #516
      010003B1H   LINE      CODE     ---       #519
      010003B3H   LINE      CODE     ---       #520
      010003B4H   LINE      CODE     ---       #521
      010003B7H   LINE      CODE     ---       #524
      010003BAH   LINE      CODE     ---       #527
      010003BDH   LINE      CODE     ---       #533
      010003C0H   LINE      CODE     ---       #536
      010003C2H   LINE      CODE     ---       #537
      010003C4H   LINE      CODE     ---       #538
      010003C6H   LINE      CODE     ---       #539
      010003C9H   LINE      CODE     ---       #542
      010003CBH   LINE      CODE     ---       #543
      010003CDH   LINE      CODE     ---       #544
      010003D0H   LINE      CODE     ---       #547
      010003D3H   LINE      CODE     ---       #553
      010003D5H   LINE      CODE     ---       #554
      010003D7H   LINE      CODE     ---       #557
      010003D8H   LINE      CODE     ---       #558
      010003D9H   LINE      CODE     ---       #559
      010003DAH   LINE      CODE     ---       #563
LX51 LINKER/LOCATER V4.34a                                                            04/22/2009  16:13:56  PAGE 11


      010003DBH   LINE      CODE     ---       #564
      010003DDH   LINE      CODE     ---       #567
      010003DEH   LINE      CODE     ---       #568
      010003E0H   LINE      CODE     ---       #572
      010003E1H   LINE      CODE     ---       #573
      010003E3H   LINE      CODE     ---       #576
      010003E4H   LINE      CODE     ---       #577
      010003E6H   LINE      CODE     ---       #580
      010003E7H   LINE      CODE     ---       #581
      010003E9H   LINE      CODE     ---       #585
      010003ECH   LINE      CODE     ---       #591
      010003EFH   LINE      CODE     ---       #594
      010003F1H   LINE      CODE     ---       #595
      010003F3H   LINE      CODE     ---       #596
      010003F6H   LINE      CODE     ---       #599
      010003F8H   LINE      CODE     ---       #600
      010003FAH   LINE      CODE     ---       #601
      010003FBH   LINE      CODE     ---       #602
      010003FDH   LINE      CODE     ---       #603
      010003FFH   LINE      CODE     ---       #608
      01000401H   LINE      CODE     ---       #609
      01000403H   LINE      CODE     ---       #610
      01000406H   LINE      CODE     ---       #618
      01000409H   LINE      CODE     ---       #619
      0100040CH   LINE      CODE     ---       #620
      0100040FH   LINE      CODE     ---       #621
      01000412H   LINE      CODE     ---       #626
      01000415H   LINE      CODE     ---       #628
      01000418H   LINE      CODE     ---       #630
      0100041BH   LINE      CODE     ---       #632
      0100041EH   LINE      CODE     ---       #637
      01000420H   LINE      CODE     ---       #638
      01000422H   LINE      CODE     ---       #643
      01000424H   LINE      CODE     ---       #644
      01000426H   LINE      CODE     ---       #649
      01000428H   LINE      CODE     ---       #650
      0100042AH   LINE      CODE     ---       #655
      0100042CH   LINE      CODE     ---       #656
      0100042EH   LINE      CODE     ---       #659
      01000431H   LINE      CODE     ---       #660
      01000434H   LINE      CODE     ---       #661
      01000437H   LINE      CODE     ---       #662
      0100043AH   LINE      CODE     ---       #665
      0100043DH   LINE      CODE     ---       #666
      01000440H   LINE      CODE     ---       #667
      01000443H   LINE      CODE     ---       #668
      01000446H   LINE      CODE     ---       #672
      01000448H   LINE      CODE     ---       #673
      0100044AH   LINE      CODE     ---       #674
      0100044DH   LINE      CODE     ---       #676
      01000450H   LINE      CODE     ---       #677
      01000453H   LINE      CODE     ---       #678
      01000456H   LINE      CODE     ---       #679
      01000459H   LINE      CODE     ---       #683
      ---         BLOCKEND  ---      ---       LVL=0

      ---         MODULE    ---      ---       ISR_RF
      00000043H   PUBLIC    DATA     BYTE      ?_RF_SEND?BYTE
      010006BCH   PUBLIC    CODE     NEAR LAB  _RF_CONFIGURE
      01001000H   PUBLIC    CODE     NEAR LAB  _RF_SEND
      00000008H   PUBLIC    DATA     BYTE      RF_BUF
      010004E7H   PUBLIC    CODE     NEAR LAB  RF_CH1_RECV
      010007B5H   PUBLIC    CODE     NEAR LAB  RF_INIT
      010007FEH   PUBLIC    CODE     NEAR LAB  RF_WAIT_MSG
      000000D0H.6 SFRSYM    DATA     BIT       AC
LX51 LINKER/LOCATER V4.34a                                                            04/22/2009  16:13:56  PAGE 12


      000000E0H   SFRSYM    DATA     BYTE      ACC
      000000A1H   SFRSYM    DATA     BYTE      ADCCON
      000000A2H   SFRSYM    DATA     BYTE      ADCDATAH
      000000A3H   SFRSYM    DATA     BYTE      ADCDATAL
      000000A4H   SFRSYM    DATA     BYTE      ADCSTATIC
      000000F0H   SFRSYM    DATA     BYTE      B
      000000C8H.1 SFRSYM    DATA     BIT       C_T2
      000000A0H.6 SFRSYM    DATA     BIT       CE
      000000B6H   SFRSYM    DATA     BYTE      CK_CTRL
      0000008EH   SFRSYM    DATA     BYTE      CKCON
      000000A0H.1 SFRSYM    DATA     BIT       CLK1
      000000A0H.5 SFRSYM    DATA     BIT       CLK2
      000000C8H   SFRSYM    DATA     BIT       CP_RL2
      000000C8H   SFRSYM    DATA     BIT       CPRL2
      000000A0H.3 SFRSYM    DATA     BIT       CS
      000000C8H.1 SFRSYM    DATA     BIT       CT2
      000000D0H.7 SFRSYM    DATA     BIT       CY
      000000A0H   SFRSYM    DATA     BIT       DATA?
      000000BEH   SFRSYM    DATA     BYTE      DEV_OFFSET
      00000090H.2 SFRSYM    DATA     BIT       DIN0
      00000090H   SFRSYM    DATA     BIT       DIO0
      00000090H.1 SFRSYM    DATA     BIT       DIO1
      00000080H   SFRSYM    DATA     BIT       DIO2
      00000080H.1 SFRSYM    DATA     BIT       DIO3
      00000080H.2 SFRSYM    DATA     BIT       DIO4
      00000080H.3 SFRSYM    DATA     BIT       DIO5
      00000080H.4 SFRSYM    DATA     BIT       DIO6
      00000080H.5 SFRSYM    DATA     BIT       DIO7
      00000080H.6 SFRSYM    DATA     BIT       DIO8
      00000080H.7 SFRSYM    DATA     BIT       DIO9
      000000A0H.4 SFRSYM    DATA     BIT       DOUT2
      00000083H   SFRSYM    DATA     BYTE      DPH
      00000083H   SFRSYM    DATA     BYTE      DPH0
      00000085H   SFRSYM    DATA     BYTE      DPH1
      00000082H   SFRSYM    DATA     BYTE      DPL
      00000082H   SFRSYM    DATA     BYTE      DPL0
      00000084H   SFRSYM    DATA     BYTE      DPL1
      00000086H   SFRSYM    DATA     BYTE      DPS
      000000A0H.2 SFRSYM    DATA     BIT       DR1
      000000A0H.6 SFRSYM    DATA     BIT       DR2
      000000A0H.6 SFRSYM    DATA     BIT       DR2_CE
      000000A8H.7 SFRSYM    DATA     BIT       EA
      000000D8H   SFRSYM    DATA     BYTE      EICON
      000000E8H   SFRSYM    DATA     BYTE      EIE
      000000F8H   SFRSYM    DATA     BYTE      EIP
      000000A8H.4 SFRSYM    DATA     BIT       ES
      000000A8H.1 SFRSYM    DATA     BIT       ET0
      000000A8H.3 SFRSYM    DATA     BIT       ET1
      000000A8H.5 SFRSYM    DATA     BIT       ET2
      000000E8H.4 SFRSYM    DATA     BIT       EWDI
      000000A8H   SFRSYM    DATA     BIT       EX0
      000000A8H.2 SFRSYM    DATA     BIT       EX1
      000000E8H   SFRSYM    DATA     BIT       EX2
      000000E8H.1 SFRSYM    DATA     BIT       EX3
      000000E8H.2 SFRSYM    DATA     BIT       EX4
      000000E8H.3 SFRSYM    DATA     BIT       EX5
      000000C8H.3 SFRSYM    DATA     BIT       EXEN2
      000000C8H.6 SFRSYM    DATA     BIT       EXF2
      00000091H   SFRSYM    DATA     BYTE      EXIF
      000000D0H.5 SFRSYM    DATA     BIT       F0
      000000D0H.1 SFRSYM    DATA     BIT       F1
      000000A8H   SFRSYM    DATA     BYTE      IE
      00000088H.1 SFRSYM    DATA     BIT       IE0
      00000088H.3 SFRSYM    DATA     BIT       IE1
      00000080H.3 SFRSYM    DATA     BIT       INT0_N
LX51 LINKER/LOCATER V4.34a                                                            04/22/2009  16:13:56  PAGE 13


      00000080H.4 SFRSYM    DATA     BIT       INT1_N
      000000B8H   SFRSYM    DATA     BYTE      IP
      00000088H   SFRSYM    DATA     BIT       IT0
      00000088H.2 SFRSYM    DATA     BIT       IT1
      00000092H   SFRSYM    DATA     BYTE      MPAGE
      000000D0H.2 SFRSYM    DATA     BIT       OV
      000000D0H   SFRSYM    DATA     BIT       P
      00000080H   SFRSYM    DATA     BYTE      P0
      00000080H   SFRSYM    DATA     BIT       P0_0
      00000080H.1 SFRSYM    DATA     BIT       P0_1
      00000080H.2 SFRSYM    DATA     BIT       P0_2
      00000080H.3 SFRSYM    DATA     BIT       P0_3
      00000080H.4 SFRSYM    DATA     BIT       P0_4
      00000080H.5 SFRSYM    DATA     BIT       P0_5
      00000080H.6 SFRSYM    DATA     BIT       P0_6
      00000080H.7 SFRSYM    DATA     BIT       P0_7
      00000095H   SFRSYM    DATA     BYTE      P0_ALT
      00000094H   SFRSYM    DATA     BYTE      P0_DIR
      00000090H   SFRSYM    DATA     BYTE      P1
      00000090H   SFRSYM    DATA     BIT       P1_0
      00000090H.1 SFRSYM    DATA     BIT       P1_1
      00000090H.2 SFRSYM    DATA     BIT       P1_2
      00000097H   SFRSYM    DATA     BYTE      P1_ALT
      00000096H   SFRSYM    DATA     BYTE      P1_DIR
      00000087H   SFRSYM    DATA     BYTE      PCON
      000000B8H.4 SFRSYM    DATA     BIT       PS
      000000D0H   SFRSYM    DATA     BYTE      PSW
      000000B8H.1 SFRSYM    DATA     BIT       PT0
      000000B8H.3 SFRSYM    DATA     BIT       PT1
      000000B8H.5 SFRSYM    DATA     BIT       PT2
      000000F8H.4 SFRSYM    DATA     BIT       PWDI
      00000080H.7 SFRSYM    DATA     BIT       PWM
      000000A9H   SFRSYM    DATA     BYTE      PWMCON
      000000AAH   SFRSYM    DATA     BYTE      PWMDUTY
      000000A0H.7 SFRSYM    DATA     BIT       PWR_UP
      000000B8H   SFRSYM    DATA     BIT       PX0
      000000B8H.2 SFRSYM    DATA     BIT       PX1
      000000F8H   SFRSYM    DATA     BIT       PX2
      000000F8H.1 SFRSYM    DATA     BIT       PX3
      000000F8H.2 SFRSYM    DATA     BIT       PX4
      000000F8H.3 SFRSYM    DATA     BIT       PX5
      000000A0H   SFRSYM    DATA     BYTE      RADIO
      00000098H.2 SFRSYM    DATA     BIT       RB8
      000000CBH   SFRSYM    DATA     BYTE      RCAP2H
      000000CAH   SFRSYM    DATA     BYTE      RCAP2L
      000000C8H.5 SFRSYM    DATA     BIT       RCLK
      000000ADH   SFRSYM    DATA     BYTE      REGX_CTRL
      000000ACH   SFRSYM    DATA     BYTE      REGX_LSB
      000000ABH   SFRSYM    DATA     BYTE      REGX_MSB
      00000098H.4 SFRSYM    DATA     BIT       REN
      00000098H   SFRSYM    DATA     BIT       RI
      000000D0H.3 SFRSYM    DATA     BIT       RS0
      000000D0H.4 SFRSYM    DATA     BIT       RS1
      000000B1H   SFRSYM    DATA     BYTE      RSTREAS
      00000080H.1 SFRSYM    DATA     BIT       RXD
      00000099H   SFRSYM    DATA     BYTE      SBUF
      00000098H   SFRSYM    DATA     BYTE      SCON
      00000098H.7 SFRSYM    DATA     BIT       SM0
      00000098H.6 SFRSYM    DATA     BIT       SM1
      00000098H.5 SFRSYM    DATA     BIT       SM2
      00000081H   SFRSYM    DATA     BYTE      SP
      0000008FH   SFRSYM    DATA     BYTE      SPC_FNC
      000000B3H   SFRSYM    DATA     BYTE      SPI_CTRL
      000000B2H   SFRSYM    DATA     BYTE      SPI_DATA
      000000B4H   SFRSYM    DATA     BYTE      SPICLK
LX51 LINKER/LOCATER V4.34a                                                            04/22/2009  16:13:56  PAGE 14


      00000080H.5 SFRSYM    DATA     BIT       T0
      00000080H.6 SFRSYM    DATA     BIT       T1
      000000BCH   SFRSYM    DATA     BYTE      T1_1V2
      00000090H   SFRSYM    DATA     BIT       T2
      000000BDH   SFRSYM    DATA     BYTE      T2_1V2
      000000C8H   SFRSYM    DATA     BYTE      T2CON
      00000098H.3 SFRSYM    DATA     BIT       TB8
      000000C8H.4 SFRSYM    DATA     BIT       TCLK
      00000088H   SFRSYM    DATA     BYTE      TCON
      000000B7H   SFRSYM    DATA     BYTE      TEST_MODE
      00000088H.5 SFRSYM    DATA     BIT       TF0
      00000088H.7 SFRSYM    DATA     BIT       TF1
      000000C8H.7 SFRSYM    DATA     BIT       TF2
      0000008CH   SFRSYM    DATA     BYTE      TH0
      0000008DH   SFRSYM    DATA     BYTE      TH1
      000000CDH   SFRSYM    DATA     BYTE      TH2
      00000098H.1 SFRSYM    DATA     BIT       TI
      000000B5H   SFRSYM    DATA     BYTE      TICK_DV
      0000008AH   SFRSYM    DATA     BYTE      TL0
      0000008BH   SFRSYM    DATA     BYTE      TL1
      000000CCH   SFRSYM    DATA     BYTE      TL2
      00000089H   SFRSYM    DATA     BYTE      TMOD
      00000088H.4 SFRSYM    DATA     BIT       TR0
      00000088H.6 SFRSYM    DATA     BIT       TR1
      000000C8H.2 SFRSYM    DATA     BIT       TR2
      00000080H.2 SFRSYM    DATA     BIT       TXD
      000000D8H.3 SFRSYM    DATA     BIT       WDTI
      0000005BH   SYMBOL    DATA     BYTE      ?_RF_CONFIGURE?BYTE
      010006C9H   SYMBOL    CODE     NEAR LAB  ?C0002
      010006EFH   SYMBOL    CODE     NEAR LAB  ?C0003
      0100100FH   SYMBOL    CODE     NEAR LAB  ?C0006
      01001039H   SYMBOL    CODE     NEAR LAB  ?C0007
      0100103EH   SYMBOL    CODE     NEAR LAB  ?C0009
      01001068H   SYMBOL    CODE     NEAR LAB  ?C0010
      0100050EH   SYMBOL    CODE     NEAR LAB  ?C0015
      01000526H   SYMBOL    CODE     NEAR LAB  ?C0016
      01000800H   SYMBOL    CODE     NEAR LAB  ?C0018
      01000804H   SYMBOL    CODE     NEAR LAB  ?C0019
      010006E4H   SYMBOL    CODE     NEAR LAB  ?C0021
      01001037H   SYMBOL    CODE     NEAR LAB  ?C0022
      01001066H   SYMBOL    CODE     NEAR LAB  ?C0023
      0100051EH   SYMBOL    CODE     NEAR LAB  ?C0024
      00000076H   SYMBOL    DATA     BYTE      ?RF_CH1_RECV?BYTE
      01000529H   SYMBOL    CODE     NEAR LAB  ?RF_CH1_RECV?OUT
      00000043H   SYMBOL    DATA     BYTE      ADDR?243
      00000046H   SYMBOL    DATA     BYTE      ADDR_LEN?244
      0000005EH   SYMBOL    DATA     BYTE      I?142
      0000004BH   SYMBOL    DATA     BYTE      I?247
      00000076H   SYMBOL    DATA     BYTE      I?348
      0000005BH   SYMBOL    DATA     BYTE      P?141
      00000047H   SYMBOL    DATA     BYTE      PAYLOAD?245
      0000004AH   SYMBOL    DATA     BYTE      PL_LEN?246

      010007B5H   BLOCK     CODE     NEAR LAB  LVL=0
      010007B5H   LINE      CODE     ---       #265
      010007B7H   LINE      CODE     ---       #269
      010007B8H   LINE      CODE     ---       #270
      010007B9H   LINE      CODE     ---       #271
      010007BBH   LINE      CODE     ---       #272
      010007BEH   LINE      CODE     ---       #275
      010007C0H   LINE      CODE     ---       #278
      010007C2H   LINE      CODE     ---       #281
      ---         BLOCKEND  ---      ---       LVL=0

      010006BCH   BLOCK     CODE     NEAR LAB  LVL=0
LX51 LINKER/LOCATER V4.34a                                                            04/22/2009  16:13:56  PAGE 15


      010006BCH   LINE      CODE     ---       #304
      010006BEH   LINE      CODE     ---       #308
      010006C0H   LINE      CODE     ---       #309
      010006C2H   LINE      CODE     ---       #310
      010006C4H   LINE      CODE     ---       #314
      010006C5H   LINE      CODE     ---       #315
      010006C7H   LINE      CODE     ---       #316
      010006C9H   LINE      CODE     ---       #320
      010006CBH   LINE      CODE     ---       #321
      010006CDH   LINE      CODE     ---       #322
      010006CFH   LINE      CODE     ---       #323
      010006D2H   LINE      CODE     ---       #324
      010006D5H   LINE      CODE     ---       #325
      010006D8H   LINE      CODE     ---       #326
      010006D9H   LINE      CODE     ---       #327
      010006DCH   LINE      CODE     ---       #330
      010006DEH   LINE      CODE     ---       #331
      010006E0H   LINE      CODE     ---       #332
      010006E2H   LINE      CODE     ---       #333
      010006E4H   LINE      CODE     ---       #335
      010006E5H   LINE      CODE     ---       #336
      010006E7H   LINE      CODE     ---       #337
      010006E9H   LINE      CODE     ---       #338
      010006EBH   LINE      CODE     ---       #339
      010006EDH   LINE      CODE     ---       #340
      010006EFH   LINE      CODE     ---       #345
      010006F1H   LINE      CODE     ---       #348
      ---         BLOCKEND  ---      ---       LVL=0

      01001000H   BLOCK     CODE     NEAR LAB  LVL=0
      01001000H   LINE      CODE     ---       #365
      01001002H   LINE      CODE     ---       #366
      01001004H   LINE      CODE     ---       #367
      01001006H   LINE      CODE     ---       #368
      01001008H   LINE      CODE     ---       #376
      0100100AH   LINE      CODE     ---       #381
      0100100BH   LINE      CODE     ---       #382
      0100100DH   LINE      CODE     ---       #383
      0100100FH   LINE      CODE     ---       #385
      01001010H   LINE      CODE     ---       #386
      01001012H   LINE      CODE     ---       #387
      01001014H   LINE      CODE     ---       #388
      01001016H   LINE      CODE     ---       #389
      01001017H   LINE      CODE     ---       #390
      01001019H   LINE      CODE     ---       #391
      0100101AH   LINE      CODE     ---       #392
      0100101CH   LINE      CODE     ---       #395
      0100101EH   LINE      CODE     ---       #396
      01001020H   LINE      CODE     ---       #397
      01001022H   LINE      CODE     ---       #398
      01001025H   LINE      CODE     ---       #399
      01001028H   LINE      CODE     ---       #400
      0100102BH   LINE      CODE     ---       #401
      0100102CH   LINE      CODE     ---       #402
      0100102FH   LINE      CODE     ---       #403
      01001031H   LINE      CODE     ---       #404
      01001033H   LINE      CODE     ---       #405
      01001035H   LINE      CODE     ---       #406
      01001037H   LINE      CODE     ---       #408
      01001039H   LINE      CODE     ---       #413
      0100103AH   LINE      CODE     ---       #414
      0100103CH   LINE      CODE     ---       #415
      0100103EH   LINE      CODE     ---       #417
      0100103FH   LINE      CODE     ---       #418
      01001041H   LINE      CODE     ---       #419
LX51 LINKER/LOCATER V4.34a                                                            04/22/2009  16:13:56  PAGE 16


      01001043H   LINE      CODE     ---       #420
      01001045H   LINE      CODE     ---       #421
      01001046H   LINE      CODE     ---       #422
      01001048H   LINE      CODE     ---       #423
      01001049H   LINE      CODE     ---       #424
      0100104BH   LINE      CODE     ---       #427
      0100104DH   LINE      CODE     ---       #428
      0100104FH   LINE      CODE     ---       #429
      01001051H   LINE      CODE     ---       #430
      01001054H   LINE      CODE     ---       #431
      01001057H   LINE      CODE     ---       #432
      0100105AH   LINE      CODE     ---       #433
      0100105BH   LINE      CODE     ---       #434
      0100105EH   LINE      CODE     ---       #435
      01001060H   LINE      CODE     ---       #436
      01001062H   LINE      CODE     ---       #437
      01001064H   LINE      CODE     ---       #438
      01001066H   LINE      CODE     ---       #440
      01001068H   LINE      CODE     ---       #445
      0100106AH   LINE      CODE     ---       #448
      ---         BLOCKEND  ---      ---       LVL=0

      01000053H   BLOCK     CODE     NEAR LAB  LVL=0
      01000053H   LINE      CODE     ---       #452
      ---         BLOCKEND  ---      ---       LVL=0

      010004E7H   BLOCK     CODE     NEAR LAB  LVL=0
      010004E7H   LINE      CODE     ---       #461
      010004E9H   LINE      CODE     ---       #462
      010004EBH   LINE      CODE     ---       #463
      010004EDH   LINE      CODE     ---       #464
      010004EFH   LINE      CODE     ---       #465
      010004F1H   LINE      CODE     ---       #466
      010004F4H   LINE      CODE     ---       #467
      010004F6H   LINE      CODE     ---       #468
      010004F8H   LINE      CODE     ---       #469
      010004FAH   LINE      CODE     ---       #470
      010004FCH   LINE      CODE     ---       #471
      010004FEH   LINE      CODE     ---       #472
      01000500H   LINE      CODE     ---       #473
      01000502H   LINE      CODE     ---       #474
      01000504H   LINE      CODE     ---       #480
      01000507H   LINE      CODE     ---       #481
      0100050AH   LINE      CODE     ---       #488
      0100050CH   LINE      CODE     ---       #489
      0100050EH   LINE      CODE     ---       #495
      01000511H   LINE      CODE     ---       #498
      01000512H   LINE      CODE     ---       #499
      01000513H   LINE      CODE     ---       #500
      01000516H   LINE      CODE     ---       #501
      01000518H   LINE      CODE     ---       #502
      0100051AH   LINE      CODE     ---       #503
      0100051CH   LINE      CODE     ---       #504
      0100051EH   LINE      CODE     ---       #506
      0100051FH   LINE      CODE     ---       #507
      01000521H   LINE      CODE     ---       #508
      01000522H   LINE      CODE     ---       #509
      01000524H   LINE      CODE     ---       #512
      01000526H   LINE      CODE     ---       #516
      01000529H   LINE      CODE     ---       #523
      0100052CH   LINE      CODE     ---       #526
      0100052EH   LINE      CODE     ---       #527
      01000530H   LINE      CODE     ---       #528
      01000532H   LINE      CODE     ---       #529
      01000534H   LINE      CODE     ---       #530
LX51 LINKER/LOCATER V4.34a                                                            04/22/2009  16:13:56  PAGE 17


      01000536H   LINE      CODE     ---       #531
      01000538H   LINE      CODE     ---       #532
      0100053AH   LINE      CODE     ---       #533
      0100053CH   LINE      CODE     ---       #534
      0100053EH   LINE      CODE     ---       #535
      01000540H   LINE      CODE     ---       #536
      01000542H   LINE      CODE     ---       #537
      01000544H   LINE      CODE     ---       #538
      01000546H   LINE      CODE     ---       #539
      ---         BLOCKEND  ---      ---       LVL=0

      010007FEH   BLOCK     CODE     NEAR LAB  LVL=0
      010007FEH   LINE      CODE     ---       #555
      01000800H   LINE      CODE     ---       #559
      01000802H   LINE      CODE     ---       #560
      01000804H   LINE      CODE     ---       #565
      01000806H   LINE      CODE     ---       #568
      ---         BLOCKEND  ---      ---       LVL=0

      ---         MODULE    ---      ---       ECO_PAGE
      00000040H   PUBLIC    DATA     BYTE      ECO_PAGE_ADDR
      010007DDH   PUBLIC    CODE     NEAR LAB  ECO_PAGE_INIT
      01000253H   PUBLIC    CODE     NEAR LAB  ECO_PAGE_MANAGER
      0000003EH   PUBLIC    DATA     BYTE      ECO_PAGE_PREV_PID
      0000003FH   PUBLIC    DATA     BYTE      ECO_PAGE_PREV_VID
      00000082H   PUBLIC    IDATA    BYTE      ECO_PAGE_REGISTER1
      00000083H   PUBLIC    IDATA    BYTE      ECO_PAGE_REGISTER2
      00000084H   PUBLIC    IDATA    BYTE      ECO_PAGE_REGISTER3
      00000085H   PUBLIC    IDATA    BYTE      ECO_PAGE_REGISTER4
      00000086H   PUBLIC    IDATA    BYTE      ECO_PAGE_REGISTER5
      00000087H   PUBLIC    IDATA    BYTE      ECO_PAGE_REGISTER6
      00000088H   PUBLIC    IDATA    BYTE      ECO_PAGE_REGISTER7
      0000003DH   PUBLIC    DATA     BYTE      ECO_PAGE_SPI_CONN
      00000035H   PUBLIC    DATA     BYTE      ECO_PAGE_TABLE
      00000042H   PUBLIC    DATA     BYTE      ECO_PAGE_TABLE_INDEX
      000000D0H.6 SFRSYM    DATA     BIT       AC
      000000E0H   SFRSYM    DATA     BYTE      ACC
      000000A1H   SFRSYM    DATA     BYTE      ADCCON
      000000A2H   SFRSYM    DATA     BYTE      ADCDATAH
      000000A3H   SFRSYM    DATA     BYTE      ADCDATAL
      000000A4H   SFRSYM    DATA     BYTE      ADCSTATIC
      000000F0H   SFRSYM    DATA     BYTE      B
      000000C8H.1 SFRSYM    DATA     BIT       C_T2
      000000A0H.6 SFRSYM    DATA     BIT       CE
      000000B6H   SFRSYM    DATA     BYTE      CK_CTRL
      0000008EH   SFRSYM    DATA     BYTE      CKCON
      000000A0H.1 SFRSYM    DATA     BIT       CLK1
      000000A0H.5 SFRSYM    DATA     BIT       CLK2
      000000C8H   SFRSYM    DATA     BIT       CP_RL2
      000000C8H   SFRSYM    DATA     BIT       CPRL2
      000000A0H.3 SFRSYM    DATA     BIT       CS
      000000C8H.1 SFRSYM    DATA     BIT       CT2
      000000D0H.7 SFRSYM    DATA     BIT       CY
      000000A0H   SFRSYM    DATA     BIT       DATA?
      000000BEH   SFRSYM    DATA     BYTE      DEV_OFFSET
      00000090H.2 SFRSYM    DATA     BIT       DIN0
      00000090H   SFRSYM    DATA     BIT       DIO0
      00000090H.1 SFRSYM    DATA     BIT       DIO1
      00000080H   SFRSYM    DATA     BIT       DIO2
      00000080H.1 SFRSYM    DATA     BIT       DIO3
      00000080H.2 SFRSYM    DATA     BIT       DIO4
      00000080H.3 SFRSYM    DATA     BIT       DIO5
      00000080H.4 SFRSYM    DATA     BIT       DIO6
      00000080H.5 SFRSYM    DATA     BIT       DIO7
      00000080H.6 SFRSYM    DATA     BIT       DIO8
LX51 LINKER/LOCATER V4.34a                                                            04/22/2009  16:13:56  PAGE 18


      00000080H.7 SFRSYM    DATA     BIT       DIO9
      000000A0H.4 SFRSYM    DATA     BIT       DOUT2
      00000083H   SFRSYM    DATA     BYTE      DPH
      00000083H   SFRSYM    DATA     BYTE      DPH0
      00000085H   SFRSYM    DATA     BYTE      DPH1
      00000082H   SFRSYM    DATA     BYTE      DPL
      00000082H   SFRSYM    DATA     BYTE      DPL0
      00000084H   SFRSYM    DATA     BYTE      DPL1
      00000086H   SFRSYM    DATA     BYTE      DPS
      000000A0H.2 SFRSYM    DATA     BIT       DR1
      000000A0H.6 SFRSYM    DATA     BIT       DR2
      000000A0H.6 SFRSYM    DATA     BIT       DR2_CE
      000000A8H.7 SFRSYM    DATA     BIT       EA
      000000D8H   SFRSYM    DATA     BYTE      EICON
      000000E8H   SFRSYM    DATA     BYTE      EIE
      000000F8H   SFRSYM    DATA     BYTE      EIP
      000000A8H.4 SFRSYM    DATA     BIT       ES
      000000A8H.1 SFRSYM    DATA     BIT       ET0
      000000A8H.3 SFRSYM    DATA     BIT       ET1
      000000A8H.5 SFRSYM    DATA     BIT       ET2
      000000E8H.4 SFRSYM    DATA     BIT       EWDI
      000000A8H   SFRSYM    DATA     BIT       EX0
      000000A8H.2 SFRSYM    DATA     BIT       EX1
      000000E8H   SFRSYM    DATA     BIT       EX2
      000000E8H.1 SFRSYM    DATA     BIT       EX3
      000000E8H.2 SFRSYM    DATA     BIT       EX4
      000000E8H.3 SFRSYM    DATA     BIT       EX5
      000000C8H.3 SFRSYM    DATA     BIT       EXEN2
      000000C8H.6 SFRSYM    DATA     BIT       EXF2
      00000091H   SFRSYM    DATA     BYTE      EXIF
      000000D0H.5 SFRSYM    DATA     BIT       F0
      000000D0H.1 SFRSYM    DATA     BIT       F1
      000000A8H   SFRSYM    DATA     BYTE      IE
      00000088H.1 SFRSYM    DATA     BIT       IE0
      00000088H.3 SFRSYM    DATA     BIT       IE1
      00000080H.3 SFRSYM    DATA     BIT       INT0_N
      00000080H.4 SFRSYM    DATA     BIT       INT1_N
      000000B8H   SFRSYM    DATA     BYTE      IP
      00000088H   SFRSYM    DATA     BIT       IT0
      00000088H.2 SFRSYM    DATA     BIT       IT1
      00000092H   SFRSYM    DATA     BYTE      MPAGE
      000000D0H.2 SFRSYM    DATA     BIT       OV
      000000D0H   SFRSYM    DATA     BIT       P
      00000080H   SFRSYM    DATA     BYTE      P0
      00000080H   SFRSYM    DATA     BIT       P0_0
      00000080H.1 SFRSYM    DATA     BIT       P0_1
      00000080H.2 SFRSYM    DATA     BIT       P0_2
      00000080H.3 SFRSYM    DATA     BIT       P0_3
      00000080H.4 SFRSYM    DATA     BIT       P0_4
      00000080H.5 SFRSYM    DATA     BIT       P0_5
      00000080H.6 SFRSYM    DATA     BIT       P0_6
      00000080H.7 SFRSYM    DATA     BIT       P0_7
      00000095H   SFRSYM    DATA     BYTE      P0_ALT
      00000094H   SFRSYM    DATA     BYTE      P0_DIR
      00000090H   SFRSYM    DATA     BYTE      P1
      00000090H   SFRSYM    DATA     BIT       P1_0
      00000090H.1 SFRSYM    DATA     BIT       P1_1
      00000090H.2 SFRSYM    DATA     BIT       P1_2
      00000097H   SFRSYM    DATA     BYTE      P1_ALT
      00000096H   SFRSYM    DATA     BYTE      P1_DIR
      00000087H   SFRSYM    DATA     BYTE      PCON
      000000B8H.4 SFRSYM    DATA     BIT       PS
      000000D0H   SFRSYM    DATA     BYTE      PSW
      000000B8H.1 SFRSYM    DATA     BIT       PT0
      000000B8H.3 SFRSYM    DATA     BIT       PT1
LX51 LINKER/LOCATER V4.34a                                                            04/22/2009  16:13:56  PAGE 19


      000000B8H.5 SFRSYM    DATA     BIT       PT2
      000000F8H.4 SFRSYM    DATA     BIT       PWDI
      00000080H.7 SFRSYM    DATA     BIT       PWM
      000000A9H   SFRSYM    DATA     BYTE      PWMCON
      000000AAH   SFRSYM    DATA     BYTE      PWMDUTY
      000000A0H.7 SFRSYM    DATA     BIT       PWR_UP
      000000B8H   SFRSYM    DATA     BIT       PX0
      000000B8H.2 SFRSYM    DATA     BIT       PX1
      000000F8H   SFRSYM    DATA     BIT       PX2
      000000F8H.1 SFRSYM    DATA     BIT       PX3
      000000F8H.2 SFRSYM    DATA     BIT       PX4
      000000F8H.3 SFRSYM    DATA     BIT       PX5
      000000A0H   SFRSYM    DATA     BYTE      RADIO
      00000098H.2 SFRSYM    DATA     BIT       RB8
      000000CBH   SFRSYM    DATA     BYTE      RCAP2H
      000000CAH   SFRSYM    DATA     BYTE      RCAP2L
      000000C8H.5 SFRSYM    DATA     BIT       RCLK
      000000ADH   SFRSYM    DATA     BYTE      REGX_CTRL
      000000ACH   SFRSYM    DATA     BYTE      REGX_LSB
      000000ABH   SFRSYM    DATA     BYTE      REGX_MSB
      00000098H.4 SFRSYM    DATA     BIT       REN
      00000098H   SFRSYM    DATA     BIT       RI
      000000D0H.3 SFRSYM    DATA     BIT       RS0
      000000D0H.4 SFRSYM    DATA     BIT       RS1
      000000B1H   SFRSYM    DATA     BYTE      RSTREAS
      00000080H.1 SFRSYM    DATA     BIT       RXD
      00000099H   SFRSYM    DATA     BYTE      SBUF
      00000098H   SFRSYM    DATA     BYTE      SCON
      00000098H.7 SFRSYM    DATA     BIT       SM0
      00000098H.6 SFRSYM    DATA     BIT       SM1
      00000098H.5 SFRSYM    DATA     BIT       SM2
      00000081H   SFRSYM    DATA     BYTE      SP
      0000008FH   SFRSYM    DATA     BYTE      SPC_FNC
      000000B3H   SFRSYM    DATA     BYTE      SPI_CTRL
      000000B2H   SFRSYM    DATA     BYTE      SPI_DATA
      000000B4H   SFRSYM    DATA     BYTE      SPICLK
      00000080H.5 SFRSYM    DATA     BIT       T0
      00000080H.6 SFRSYM    DATA     BIT       T1
      000000BCH   SFRSYM    DATA     BYTE      T1_1V2
      00000090H   SFRSYM    DATA     BIT       T2
      000000BDH   SFRSYM    DATA     BYTE      T2_1V2
      000000C8H   SFRSYM    DATA     BYTE      T2CON
      00000098H.3 SFRSYM    DATA     BIT       TB8
      000000C8H.4 SFRSYM    DATA     BIT       TCLK
      00000088H   SFRSYM    DATA     BYTE      TCON
      000000B7H   SFRSYM    DATA     BYTE      TEST_MODE
      00000088H.5 SFRSYM    DATA     BIT       TF0
      00000088H.7 SFRSYM    DATA     BIT       TF1
      000000C8H.7 SFRSYM    DATA     BIT       TF2
      0000008CH   SFRSYM    DATA     BYTE      TH0
      0000008DH   SFRSYM    DATA     BYTE      TH1
      000000CDH   SFRSYM    DATA     BYTE      TH2
      00000098H.1 SFRSYM    DATA     BIT       TI
      000000B5H   SFRSYM    DATA     BYTE      TICK_DV
      0000008AH   SFRSYM    DATA     BYTE      TL0
      0000008BH   SFRSYM    DATA     BYTE      TL1
      000000CCH   SFRSYM    DATA     BYTE      TL2
      00000089H   SFRSYM    DATA     BYTE      TMOD
      00000088H.4 SFRSYM    DATA     BIT       TR0
      00000088H.6 SFRSYM    DATA     BIT       TR1
      000000C8H.2 SFRSYM    DATA     BIT       TR2
      00000080H.2 SFRSYM    DATA     BIT       TXD
      000000D8H.3 SFRSYM    DATA     BIT       WDTI
      01000295H   SYMBOL    CODE     NEAR LAB  ?C0002
      010003ABH   SYMBOL    CODE     NEAR LAB  ?C0003
LX51 LINKER/LOCATER V4.34a                                                            04/22/2009  16:13:56  PAGE 20


      0100029AH   SYMBOL    CODE     NEAR LAB  ?C0004
      010002C5H   SYMBOL    CODE     NEAR LAB  ?C0005
      010002B7H   SYMBOL    CODE     NEAR LAB  ?C0006
      01000310H   SYMBOL    CODE     NEAR LAB  ?C0008
      01000325H   SYMBOL    CODE     NEAR LAB  ?C0010
      01000353H   SYMBOL    CODE     NEAR LAB  ?C0011
      010002BFH   SYMBOL    CODE     NEAR LAB  ?C0015
      010002CDH   SYMBOL    CODE     NEAR LAB  ?C0016
      0100034CH   SYMBOL    CODE     NEAR LAB  ?C0017
      00000055H   SYMBOL    DATA     BYTE      ?ECO_PAGE_MANAGER?BYTE
      00000055H   SYMBOL    DATA     BYTE      I?141
      00000057H   SYMBOL    DATA     BYTE      PAGE_INDEX?142
      00000059H   SYMBOL    DATA     BYTE      SEG?140

      010007DDH   BLOCK     CODE     NEAR LAB  LVL=0
      010007DDH   LINE      CODE     ---       #303
      010007DEH   LINE      CODE     ---       #304
      010007E0H   LINE      CODE     ---       #308
      010007E2H   LINE      CODE     ---       #309
      010007E4H   LINE      CODE     ---       #312
      010007E6H   LINE      CODE     ---       #315
      010007E8H   LINE      CODE     ---       #334
      ---         BLOCKEND  ---      ---       LVL=0

      01000253H   BLOCK     CODE     NEAR LAB  LVL=0
      01000253H   LINE      CODE     ---       #459
      01000255H   LINE      CODE     ---       #460
      01000257H   LINE      CODE     ---       #461
      01000259H   LINE      CODE     ---       #474
      0100025BH   LINE      CODE     ---       #475
      0100025EH   LINE      CODE     ---       #481
      01000260H   LINE      CODE     ---       #482
      01000261H   LINE      CODE     ---       #483
      01000263H   LINE      CODE     ---       #484
      01000264H   LINE      CODE     ---       #485
      01000266H   LINE      CODE     ---       #486
      01000268H   LINE      CODE     ---       #487
      01000269H   LINE      CODE     ---       #488
      0100026AH   LINE      CODE     ---       #489
      0100026CH   LINE      CODE     ---       #491
      0100026EH   LINE      CODE     ---       #492
      0100026FH   LINE      CODE     ---       #493
      01000270H   LINE      CODE     ---       #494
      01000272H   LINE      CODE     ---       #495
      01000273H   LINE      CODE     ---       #496
      01000274H   LINE      CODE     ---       #497
      01000276H   LINE      CODE     ---       #498
      01000277H   LINE      CODE     ---       #499
      01000278H   LINE      CODE     ---       #500
      0100027AH   LINE      CODE     ---       #501
      0100027BH   LINE      CODE     ---       #502
      0100027CH   LINE      CODE     ---       #503
      0100027EH   LINE      CODE     ---       #504
      0100027FH   LINE      CODE     ---       #505
      01000280H   LINE      CODE     ---       #506
      01000282H   LINE      CODE     ---       #507
      01000283H   LINE      CODE     ---       #508
      01000284H   LINE      CODE     ---       #509
      01000286H   LINE      CODE     ---       #510
      01000287H   LINE      CODE     ---       #511
      01000288H   LINE      CODE     ---       #512
      0100028BH   LINE      CODE     ---       #513
      0100028EH   LINE      CODE     ---       #514
      01000291H   LINE      CODE     ---       #515
      01000294H   LINE      CODE     ---       #518
LX51 LINKER/LOCATER V4.34a                                                            04/22/2009  16:13:56  PAGE 21


      01000295H   LINE      CODE     ---       #528
      01000296H   LINE      CODE     ---       #529
      01000298H   LINE      CODE     ---       #530
      0100029AH   LINE      CODE     ---       #536
      0100029CH   LINE      CODE     ---       #537
      0100029EH   LINE      CODE     ---       #538
      010002A0H   LINE      CODE     ---       #539
      010002A1H   LINE      CODE     ---       #540
      010002A2H   LINE      CODE     ---       #541
      010002A3H   LINE      CODE     ---       #542
      010002A4H   LINE      CODE     ---       #543
      010002A5H   LINE      CODE     ---       #544
      010002A6H   LINE      CODE     ---       #545
      010002A8H   LINE      CODE     ---       #546
      010002ABH   LINE      CODE     ---       #547
      010002ACH   LINE      CODE     ---       #548
      010002AFH   LINE      CODE     ---       #553
      010002B2H   LINE      CODE     ---       #554
      010002B5H   LINE      CODE     ---       #557
      010002B7H   LINE      CODE     ---       #563
      010002B9H   LINE      CODE     ---       #564
      010002BBH   LINE      CODE     ---       #565
      010002BDH   LINE      CODE     ---       #566
      010002BFH   LINE      CODE     ---       #568
      010002C1H   LINE      CODE     ---       #569
      010002C3H   LINE      CODE     ---       #570
      010002C5H   LINE      CODE     ---       #575
      010002C7H   LINE      CODE     ---       #576
      010002C8H   LINE      CODE     ---       #577
      010002CAH   LINE      CODE     ---       #578
      010002CCH   LINE      CODE     ---       #579
      010002CDH   LINE      CODE     ---       #581
      010002CFH   LINE      CODE     ---       #587
      010002D1H   LINE      CODE     ---       #588
      010002D3H   LINE      CODE     ---       #593
      010002D5H   LINE      CODE     ---       #594
      010002D7H   LINE      CODE     ---       #595
      010002D8H   LINE      CODE     ---       #596
      010002D9H   LINE      CODE     ---       #597
      010002DAH   LINE      CODE     ---       #598
      010002DCH   LINE      CODE     ---       #599
      010002DDH   LINE      CODE     ---       #600
      010002DFH   LINE      CODE     ---       #601
      010002E1H   LINE      CODE     ---       #602
      010002E2H   LINE      CODE     ---       #603
      010002E3H   LINE      CODE     ---       #604
      010002E5H   LINE      CODE     ---       #609
      010002E7H   LINE      CODE     ---       #612
      010002E9H   LINE      CODE     ---       #613
      010002EAH   LINE      CODE     ---       #614
      010002EBH   LINE      CODE     ---       #615
      010002EDH   LINE      CODE     ---       #616
      010002EEH   LINE      CODE     ---       #617
      010002EFH   LINE      CODE     ---       #618
      010002F1H   LINE      CODE     ---       #619
      010002F2H   LINE      CODE     ---       #620
      010002F3H   LINE      CODE     ---       #621
      010002F5H   LINE      CODE     ---       #622
      010002F6H   LINE      CODE     ---       #623
      010002F7H   LINE      CODE     ---       #624
      010002F9H   LINE      CODE     ---       #625
      010002FAH   LINE      CODE     ---       #626
      010002FBH   LINE      CODE     ---       #627
      010002FDH   LINE      CODE     ---       #628
      010002FEH   LINE      CODE     ---       #629
LX51 LINKER/LOCATER V4.34a                                                            04/22/2009  16:13:56  PAGE 22


      010002FFH   LINE      CODE     ---       #630
      01000301H   LINE      CODE     ---       #631
      01000302H   LINE      CODE     ---       #632
      01000303H   LINE      CODE     ---       #633
      01000306H   LINE      CODE     ---       #634
      01000309H   LINE      CODE     ---       #635
      0100030CH   LINE      CODE     ---       #636
      0100030FH   LINE      CODE     ---       #648
      01000310H   LINE      CODE     ---       #657
      01000312H   LINE      CODE     ---       #658
      01000314H   LINE      CODE     ---       #659
      01000315H   LINE      CODE     ---       #660
      01000316H   LINE      CODE     ---       #661
      01000317H   LINE      CODE     ---       #662
      01000318H   LINE      CODE     ---       #663
      0100031AH   LINE      CODE     ---       #664
      0100031DH   LINE      CODE     ---       #669
      01000320H   LINE      CODE     ---       #674
      01000321H   LINE      CODE     ---       #675
      01000323H   LINE      CODE     ---       #676
      01000325H   LINE      CODE     ---       #682
      01000326H   LINE      CODE     ---       #683
      01000328H   LINE      CODE     ---       #684
      01000329H   LINE      CODE     ---       #685
      0100032AH   LINE      CODE     ---       #686
      0100032CH   LINE      CODE     ---       #687
      0100032DH   LINE      CODE     ---       #688
      0100032FH   LINE      CODE     ---       #689
      01000330H   LINE      CODE     ---       #690
      01000332H   LINE      CODE     ---       #691
      01000333H   LINE      CODE     ---       #692
      01000336H   LINE      CODE     ---       #693
      01000338H   LINE      CODE     ---       #694
      0100033AH   LINE      CODE     ---       #695
      0100033CH   LINE      CODE     ---       #696
      0100033EH   LINE      CODE     ---       #697
      01000340H   LINE      CODE     ---       #698
      01000342H   LINE      CODE     ---       #699
      01000343H   LINE      CODE     ---       #700
      01000344H   LINE      CODE     ---       #703
      01000346H   LINE      CODE     ---       #704
      01000348H   LINE      CODE     ---       #705
      0100034AH   LINE      CODE     ---       #706
      0100034CH   LINE      CODE     ---       #708
      0100034DH   LINE      CODE     ---       #709
      0100034FH   LINE      CODE     ---       #710
      01000351H   LINE      CODE     ---       #711
      01000353H   LINE      CODE     ---       #717
      01000355H   LINE      CODE     ---       #718
      01000356H   LINE      CODE     ---       #719
      01000358H   LINE      CODE     ---       #720
      0100035AH   LINE      CODE     ---       #721
      0100035CH   LINE      CODE     ---       #722
      0100035DH   LINE      CODE     ---       #723
      0100035FH   LINE      CODE     ---       #724
      01000360H   LINE      CODE     ---       #725
      01000362H   LINE      CODE     ---       #730
      01000364H   LINE      CODE     ---       #731
      01000366H   LINE      CODE     ---       #732
      01000368H   LINE      CODE     ---       #733
      01000369H   LINE      CODE     ---       #734
      0100036AH   LINE      CODE     ---       #735
      0100036BH   LINE      CODE     ---       #736
      0100036DH   LINE      CODE     ---       #741
      0100036FH   LINE      CODE     ---       #742
LX51 LINKER/LOCATER V4.34a                                                            04/22/2009  16:13:56  PAGE 23


      01000371H   LINE      CODE     ---       #743
      01000372H   LINE      CODE     ---       #744
      01000373H   LINE      CODE     ---       #745
      01000374H   LINE      CODE     ---       #746
      01000376H   LINE      CODE     ---       #747
      01000377H   LINE      CODE     ---       #748
      01000379H   LINE      CODE     ---       #749
      0100037BH   LINE      CODE     ---       #750
      0100037CH   LINE      CODE     ---       #751
      0100037DH   LINE      CODE     ---       #752
      0100037FH   LINE      CODE     ---       #757
      01000381H   LINE      CODE     ---       #762
      01000383H   LINE      CODE     ---       #766
      01000385H   LINE      CODE     ---       #767
      01000386H   LINE      CODE     ---       #768
      01000387H   LINE      CODE     ---       #769
      01000389H   LINE      CODE     ---       #770
      0100038AH   LINE      CODE     ---       #771
      0100038BH   LINE      CODE     ---       #772
      0100038DH   LINE      CODE     ---       #773
      0100038EH   LINE      CODE     ---       #774
      0100038FH   LINE      CODE     ---       #775
      01000391H   LINE      CODE     ---       #776
      01000392H   LINE      CODE     ---       #777
      01000393H   LINE      CODE     ---       #778
      01000395H   LINE      CODE     ---       #779
      01000396H   LINE      CODE     ---       #780
      01000397H   LINE      CODE     ---       #781
      01000399H   LINE      CODE     ---       #782
      0100039AH   LINE      CODE     ---       #783
      0100039BH   LINE      CODE     ---       #784
      0100039DH   LINE      CODE     ---       #785
      0100039EH   LINE      CODE     ---       #786
      0100039FH   LINE      CODE     ---       #787
      010003A2H   LINE      CODE     ---       #788
      010003A5H   LINE      CODE     ---       #789
      010003A8H   LINE      CODE     ---       #790
      010003ABH   LINE      CODE     ---       #807
      ---         BLOCKEND  ---      ---       LVL=0

      ---         MODULE    ---      ---       ADC
      01000781H   PUBLIC    CODE     NEAR LAB  _ADC_INIT
      01000766H   PUBLIC    CODE     NEAR LAB  _ADC_READ
      000000D0H.6 SFRSYM    DATA     BIT       AC
      000000E0H   SFRSYM    DATA     BYTE      ACC
      000000A1H   SFRSYM    DATA     BYTE      ADCCON
      000000A2H   SFRSYM    DATA     BYTE      ADCDATAH
      000000A3H   SFRSYM    DATA     BYTE      ADCDATAL
      000000A4H   SFRSYM    DATA     BYTE      ADCSTATIC
      000000F0H   SFRSYM    DATA     BYTE      B
      000000C8H.1 SFRSYM    DATA     BIT       C_T2
      000000A0H.6 SFRSYM    DATA     BIT       CE
      000000B6H   SFRSYM    DATA     BYTE      CK_CTRL
      0000008EH   SFRSYM    DATA     BYTE      CKCON
      000000A0H.1 SFRSYM    DATA     BIT       CLK1
      000000A0H.5 SFRSYM    DATA     BIT       CLK2
      000000C8H   SFRSYM    DATA     BIT       CP_RL2
      000000C8H   SFRSYM    DATA     BIT       CPRL2
      000000A0H.3 SFRSYM    DATA     BIT       CS
      000000C8H.1 SFRSYM    DATA     BIT       CT2
      000000D0H.7 SFRSYM    DATA     BIT       CY
      000000A0H   SFRSYM    DATA     BIT       DATA?
      000000BEH   SFRSYM    DATA     BYTE      DEV_OFFSET
      00000090H.2 SFRSYM    DATA     BIT       DIN0
      00000090H   SFRSYM    DATA     BIT       DIO0
LX51 LINKER/LOCATER V4.34a                                                            04/22/2009  16:13:56  PAGE 24


      00000090H.1 SFRSYM    DATA     BIT       DIO1
      00000080H   SFRSYM    DATA     BIT       DIO2
      00000080H.1 SFRSYM    DATA     BIT       DIO3
      00000080H.2 SFRSYM    DATA     BIT       DIO4
      00000080H.3 SFRSYM    DATA     BIT       DIO5
      00000080H.4 SFRSYM    DATA     BIT       DIO6
      00000080H.5 SFRSYM    DATA     BIT       DIO7
      00000080H.6 SFRSYM    DATA     BIT       DIO8
      00000080H.7 SFRSYM    DATA     BIT       DIO9
      000000A0H.4 SFRSYM    DATA     BIT       DOUT2
      00000083H   SFRSYM    DATA     BYTE      DPH
      00000083H   SFRSYM    DATA     BYTE      DPH0
      00000085H   SFRSYM    DATA     BYTE      DPH1
      00000082H   SFRSYM    DATA     BYTE      DPL
      00000082H   SFRSYM    DATA     BYTE      DPL0
      00000084H   SFRSYM    DATA     BYTE      DPL1
      00000086H   SFRSYM    DATA     BYTE      DPS
      000000A0H.2 SFRSYM    DATA     BIT       DR1
      000000A0H.6 SFRSYM    DATA     BIT       DR2
      000000A0H.6 SFRSYM    DATA     BIT       DR2_CE
      000000A8H.7 SFRSYM    DATA     BIT       EA
      000000D8H   SFRSYM    DATA     BYTE      EICON
      000000E8H   SFRSYM    DATA     BYTE      EIE
      000000F8H   SFRSYM    DATA     BYTE      EIP
      000000A8H.4 SFRSYM    DATA     BIT       ES
      000000A8H.1 SFRSYM    DATA     BIT       ET0
      000000A8H.3 SFRSYM    DATA     BIT       ET1
      000000A8H.5 SFRSYM    DATA     BIT       ET2
      000000E8H.4 SFRSYM    DATA     BIT       EWDI
      000000A8H   SFRSYM    DATA     BIT       EX0
      000000A8H.2 SFRSYM    DATA     BIT       EX1
      000000E8H   SFRSYM    DATA     BIT       EX2
      000000E8H.1 SFRSYM    DATA     BIT       EX3
      000000E8H.2 SFRSYM    DATA     BIT       EX4
      000000E8H.3 SFRSYM    DATA     BIT       EX5
      000000C8H.3 SFRSYM    DATA     BIT       EXEN2
      000000C8H.6 SFRSYM    DATA     BIT       EXF2
      00000091H   SFRSYM    DATA     BYTE      EXIF
      000000D0H.5 SFRSYM    DATA     BIT       F0
      000000D0H.1 SFRSYM    DATA     BIT       F1
      000000A8H   SFRSYM    DATA     BYTE      IE
      00000088H.1 SFRSYM    DATA     BIT       IE0
      00000088H.3 SFRSYM    DATA     BIT       IE1
      00000080H.3 SFRSYM    DATA     BIT       INT0_N
      00000080H.4 SFRSYM    DATA     BIT       INT1_N
      000000B8H   SFRSYM    DATA     BYTE      IP
      00000088H   SFRSYM    DATA     BIT       IT0
      00000088H.2 SFRSYM    DATA     BIT       IT1
      00000092H   SFRSYM    DATA     BYTE      MPAGE
      000000D0H.2 SFRSYM    DATA     BIT       OV
      000000D0H   SFRSYM    DATA     BIT       P
      00000080H   SFRSYM    DATA     BYTE      P0
      00000080H   SFRSYM    DATA     BIT       P0_0
      00000080H.1 SFRSYM    DATA     BIT       P0_1
      00000080H.2 SFRSYM    DATA     BIT       P0_2
      00000080H.3 SFRSYM    DATA     BIT       P0_3
      00000080H.4 SFRSYM    DATA     BIT       P0_4
      00000080H.5 SFRSYM    DATA     BIT       P0_5
      00000080H.6 SFRSYM    DATA     BIT       P0_6
      00000080H.7 SFRSYM    DATA     BIT       P0_7
      00000095H   SFRSYM    DATA     BYTE      P0_ALT
      00000094H   SFRSYM    DATA     BYTE      P0_DIR
      00000090H   SFRSYM    DATA     BYTE      P1
      00000090H   SFRSYM    DATA     BIT       P1_0
      00000090H.1 SFRSYM    DATA     BIT       P1_1
LX51 LINKER/LOCATER V4.34a                                                            04/22/2009  16:13:56  PAGE 25


      00000090H.2 SFRSYM    DATA     BIT       P1_2
      00000097H   SFRSYM    DATA     BYTE      P1_ALT
      00000096H   SFRSYM    DATA     BYTE      P1_DIR
      00000087H   SFRSYM    DATA     BYTE      PCON
      000000B8H.4 SFRSYM    DATA     BIT       PS
      000000D0H   SFRSYM    DATA     BYTE      PSW
      000000B8H.1 SFRSYM    DATA     BIT       PT0
      000000B8H.3 SFRSYM    DATA     BIT       PT1
      000000B8H.5 SFRSYM    DATA     BIT       PT2
      000000F8H.4 SFRSYM    DATA     BIT       PWDI
      00000080H.7 SFRSYM    DATA     BIT       PWM
      000000A9H   SFRSYM    DATA     BYTE      PWMCON
      000000AAH   SFRSYM    DATA     BYTE      PWMDUTY
      000000A0H.7 SFRSYM    DATA     BIT       PWR_UP
      000000B8H   SFRSYM    DATA     BIT       PX0
      000000B8H.2 SFRSYM    DATA     BIT       PX1
      000000F8H   SFRSYM    DATA     BIT       PX2
      000000F8H.1 SFRSYM    DATA     BIT       PX3
      000000F8H.2 SFRSYM    DATA     BIT       PX4
      000000F8H.3 SFRSYM    DATA     BIT       PX5
      000000A0H   SFRSYM    DATA     BYTE      RADIO
      00000098H.2 SFRSYM    DATA     BIT       RB8
      000000CBH   SFRSYM    DATA     BYTE      RCAP2H
      000000CAH   SFRSYM    DATA     BYTE      RCAP2L
      000000C8H.5 SFRSYM    DATA     BIT       RCLK
      000000ADH   SFRSYM    DATA     BYTE      REGX_CTRL
      000000ACH   SFRSYM    DATA     BYTE      REGX_LSB
      000000ABH   SFRSYM    DATA     BYTE      REGX_MSB
      00000098H.4 SFRSYM    DATA     BIT       REN
      00000098H   SFRSYM    DATA     BIT       RI
      000000D0H.3 SFRSYM    DATA     BIT       RS0
      000000D0H.4 SFRSYM    DATA     BIT       RS1
      000000B1H   SFRSYM    DATA     BYTE      RSTREAS
      00000080H.1 SFRSYM    DATA     BIT       RXD
      00000099H   SFRSYM    DATA     BYTE      SBUF
      00000098H   SFRSYM    DATA     BYTE      SCON
      00000098H.7 SFRSYM    DATA     BIT       SM0
      00000098H.6 SFRSYM    DATA     BIT       SM1
      00000098H.5 SFRSYM    DATA     BIT       SM2
      00000081H   SFRSYM    DATA     BYTE      SP
      0000008FH   SFRSYM    DATA     BYTE      SPC_FNC
      000000B3H   SFRSYM    DATA     BYTE      SPI_CTRL
      000000B2H   SFRSYM    DATA     BYTE      SPI_DATA
      000000B4H   SFRSYM    DATA     BYTE      SPICLK
      00000080H.5 SFRSYM    DATA     BIT       T0
      00000080H.6 SFRSYM    DATA     BIT       T1
      000000BCH   SFRSYM    DATA     BYTE      T1_1V2
      00000090H   SFRSYM    DATA     BIT       T2
      000000BDH   SFRSYM    DATA     BYTE      T2_1V2
      000000C8H   SFRSYM    DATA     BYTE      T2CON
      00000098H.3 SFRSYM    DATA     BIT       TB8
      000000C8H.4 SFRSYM    DATA     BIT       TCLK
      00000088H   SFRSYM    DATA     BYTE      TCON
      000000B7H   SFRSYM    DATA     BYTE      TEST_MODE
      00000088H.5 SFRSYM    DATA     BIT       TF0
      00000088H.7 SFRSYM    DATA     BIT       TF1
      000000C8H.7 SFRSYM    DATA     BIT       TF2
      0000008CH   SFRSYM    DATA     BYTE      TH0
      0000008DH   SFRSYM    DATA     BYTE      TH1
      000000CDH   SFRSYM    DATA     BYTE      TH2
      00000098H.1 SFRSYM    DATA     BIT       TI
      000000B5H   SFRSYM    DATA     BYTE      TICK_DV
      0000008AH   SFRSYM    DATA     BYTE      TL0
      0000008BH   SFRSYM    DATA     BYTE      TL1
      000000CCH   SFRSYM    DATA     BYTE      TL2
LX51 LINKER/LOCATER V4.34a                                                            04/22/2009  16:13:56  PAGE 26


      00000089H   SFRSYM    DATA     BYTE      TMOD
      00000088H.4 SFRSYM    DATA     BIT       TR0
      00000088H.6 SFRSYM    DATA     BIT       TR1
      000000C8H.2 SFRSYM    DATA     BIT       TR2
      00000080H.2 SFRSYM    DATA     BIT       TXD
      000000D8H.3 SFRSYM    DATA     BIT       WDTI
      0100004BH   SYMBOL    CODE     NEAR LAB  ?C0002
      0100001BH   SYMBOL    CODE     NEAR LAB  ?C0004
      01000023H   SYMBOL    CODE     NEAR LAB  ?C0005
      01000037H   SYMBOL    CODE     NEAR LAB  ?C0006
      0100004FH   SYMBOL    CODE     NEAR LAB  ?C0007
      01000775H   SYMBOL    CODE     NEAR LAB  ?C0011
      0100077AH   SYMBOL    CODE     NEAR LAB  ?C0012
      01000780H   SYMBOL    CODE     NEAR LAB  ?C0013
      01000003H   SYMBOL    CODE     NEAR LAB  P_ADC_READ

      01000781H   BLOCK     CODE     NEAR LAB  LVL=0
      01000781H   LINE      CODE     ---       #206
      01000784H   LINE      CODE     ---       #209
      01000785H   LINE      CODE     ---       #210
      01000787H   LINE      CODE     ---       #213
      0100078AH   LINE      CODE     ---       #216
      0100078BH   LINE      CODE     ---       #217
      0100078DH   LINE      CODE     ---       #220
      01000790H   LINE      CODE     ---       #223
      01000791H   LINE      CODE     ---       #224
      01000793H   LINE      CODE     ---       #227
      ---         BLOCKEND  ---      ---       LVL=0

      01000003H   BLOCK     CODE     NEAR LAB  LVL=0
      01000003H   LINE      CODE     ---       #241
      01000005H   LINE      CODE     ---       #242
      01000007H   LINE      CODE     ---       #243
      01000008H   LINE      CODE     ---       #248
      01000009H   LINE      CODE     ---       #249
      0100000AH   LINE      CODE     ---       #250
      0100000BH   LINE      CODE     ---       #253
      0100000DH   LINE      CODE     ---       #254
      0100000EH   LINE      CODE     ---       #255
      0100000FH   LINE      CODE     ---       #256
      01000011H   LINE      CODE     ---       #257
      01000012H   LINE      CODE     ---       #258
      01000014H   LINE      CODE     ---       #259
      01000015H   LINE      CODE     ---       #260
      01000017H   LINE      CODE     ---       #261
      01000019H   LINE      CODE     ---       #262
      0100001BH   LINE      CODE     ---       #271
      0100001DH   LINE      CODE     ---       #272
      0100001FH   LINE      CODE     ---       #273
      01000021H   LINE      CODE     ---       #276
      01000023H   LINE      CODE     ---       #283
      01000025H   LINE      CODE     ---       #284
      01000026H   LINE      CODE     ---       #285
      01000029H   LINE      CODE     ---       #286
      0100002AH   LINE      CODE     ---       #287
      0100002BH   LINE      CODE     ---       #288
      0100002DH   LINE      CODE     ---       #291
      0100002FH   LINE      CODE     ---       #292
      01000030H   LINE      CODE     ---       #293
      01000031H   LINE      CODE     ---       #294
      01000032H   LINE      CODE     ---       #295
      01000034H   LINE      CODE     ---       #296
      01000035H   LINE      CODE     ---       #297
      01000036H   LINE      CODE     ---       #298
      01000037H   LINE      CODE     ---       #305
LX51 LINKER/LOCATER V4.34a                                                            04/22/2009  16:13:56  PAGE 27


      01000039H   LINE      CODE     ---       #306
      0100003AH   LINE      CODE     ---       #307
      0100003DH   LINE      CODE     ---       #308
      0100003EH   LINE      CODE     ---       #309
      0100003FH   LINE      CODE     ---       #310
      01000041H   LINE      CODE     ---       #313
      01000043H   LINE      CODE     ---       #314
      01000044H   LINE      CODE     ---       #315
      01000046H   LINE      CODE     ---       #316
      01000047H   LINE      CODE     ---       #317
      01000048H   LINE      CODE     ---       #318
      01000049H   LINE      CODE     ---       #319
      0100004AH   LINE      CODE     ---       #320
      0100004BH   LINE      CODE     ---       #326
      0100004DH   LINE      CODE     ---       #327
      0100004FH   LINE      CODE     ---       #331
      ---         BLOCKEND  ---      ---       LVL=0

      01000766H   BLOCK     CODE     NEAR LAB  LVL=0
      01000766H   LINE      CODE     ---       #347
      01000767H   LINE      CODE     ---       #348
      01000768H   LINE      CODE     ---       #349
      01000769H   LINE      CODE     ---       #353
      0100076CH   LINE      CODE     ---       #356
      0100076DH   LINE      CODE     ---       #357
      0100076FH   LINE      CODE     ---       #360
      01000772H   LINE      CODE     ---       #361
      01000775H   LINE      CODE     ---       #366
      01000777H   LINE      CODE     ---       #367
      0100077AH   LINE      CODE     ---       #373
      0100077DH   LINE      CODE     ---       #377
      01000780H   LINE      CODE     ---       #383
      ---         BLOCKEND  ---      ---       LVL=0

      ---         MODULE    ---      ---       UTILS
      0000004DH   PUBLIC    DATA     BYTE      ?_STRNCPY?BYTE
      01000547H   PUBLIC    CODE     NEAR LAB  _MDELAY
      010007C3H   PUBLIC    CODE     NEAR LAB  _STORE_CPU_RATE
      01000590H   PUBLIC    CODE     NEAR LAB  _STRNCPY
      01000794H   PUBLIC    CODE     NEAR LAB  _WDT_LOAD
      00000060H   PUBLIC    DATA     BYTE      MHZ
      000000D0H.6 SFRSYM    DATA     BIT       AC
      000000E0H   SFRSYM    DATA     BYTE      ACC
      000000A1H   SFRSYM    DATA     BYTE      ADCCON
      000000A2H   SFRSYM    DATA     BYTE      ADCDATAH
      000000A3H   SFRSYM    DATA     BYTE      ADCDATAL
      000000A4H   SFRSYM    DATA     BYTE      ADCSTATIC
      000000F0H   SFRSYM    DATA     BYTE      B
      000000C8H.1 SFRSYM    DATA     BIT       C_T2
      000000A0H.6 SFRSYM    DATA     BIT       CE
      000000B6H   SFRSYM    DATA     BYTE      CK_CTRL
      0000008EH   SFRSYM    DATA     BYTE      CKCON
      000000A0H.1 SFRSYM    DATA     BIT       CLK1
      000000A0H.5 SFRSYM    DATA     BIT       CLK2
      000000C8H   SFRSYM    DATA     BIT       CP_RL2
      000000C8H   SFRSYM    DATA     BIT       CPRL2
      000000A0H.3 SFRSYM    DATA     BIT       CS
      000000C8H.1 SFRSYM    DATA     BIT       CT2
      000000D0H.7 SFRSYM    DATA     BIT       CY
      000000A0H   SFRSYM    DATA     BIT       DATA?
      000000BEH   SFRSYM    DATA     BYTE      DEV_OFFSET
      00000090H.2 SFRSYM    DATA     BIT       DIN0
      00000090H   SFRSYM    DATA     BIT       DIO0
      00000090H.1 SFRSYM    DATA     BIT       DIO1
      00000080H   SFRSYM    DATA     BIT       DIO2
LX51 LINKER/LOCATER V4.34a                                                            04/22/2009  16:13:56  PAGE 28


      00000080H.1 SFRSYM    DATA     BIT       DIO3
      00000080H.2 SFRSYM    DATA     BIT       DIO4
      00000080H.3 SFRSYM    DATA     BIT       DIO5
      00000080H.4 SFRSYM    DATA     BIT       DIO6
      00000080H.5 SFRSYM    DATA     BIT       DIO7
      00000080H.6 SFRSYM    DATA     BIT       DIO8
      00000080H.7 SFRSYM    DATA     BIT       DIO9
      000000A0H.4 SFRSYM    DATA     BIT       DOUT2
      00000083H   SFRSYM    DATA     BYTE      DPH
      00000083H   SFRSYM    DATA     BYTE      DPH0
      00000085H   SFRSYM    DATA     BYTE      DPH1
      00000082H   SFRSYM    DATA     BYTE      DPL
      00000082H   SFRSYM    DATA     BYTE      DPL0
      00000084H   SFRSYM    DATA     BYTE      DPL1
      00000086H   SFRSYM    DATA     BYTE      DPS
      000000A0H.2 SFRSYM    DATA     BIT       DR1
      000000A0H.6 SFRSYM    DATA     BIT       DR2
      000000A0H.6 SFRSYM    DATA     BIT       DR2_CE
      000000A8H.7 SFRSYM    DATA     BIT       EA
      000000D8H   SFRSYM    DATA     BYTE      EICON
      000000E8H   SFRSYM    DATA     BYTE      EIE
      000000F8H   SFRSYM    DATA     BYTE      EIP
      000000A8H.4 SFRSYM    DATA     BIT       ES
      000000A8H.1 SFRSYM    DATA     BIT       ET0
      000000A8H.3 SFRSYM    DATA     BIT       ET1
      000000A8H.5 SFRSYM    DATA     BIT       ET2
      000000E8H.4 SFRSYM    DATA     BIT       EWDI
      000000A8H   SFRSYM    DATA     BIT       EX0
      000000A8H.2 SFRSYM    DATA     BIT       EX1
      000000E8H   SFRSYM    DATA     BIT       EX2
      000000E8H.1 SFRSYM    DATA     BIT       EX3
      000000E8H.2 SFRSYM    DATA     BIT       EX4
      000000E8H.3 SFRSYM    DATA     BIT       EX5
      000000C8H.3 SFRSYM    DATA     BIT       EXEN2
      000000C8H.6 SFRSYM    DATA     BIT       EXF2
      00000091H   SFRSYM    DATA     BYTE      EXIF
      000000D0H.5 SFRSYM    DATA     BIT       F0
      000000D0H.1 SFRSYM    DATA     BIT       F1
      000000A8H   SFRSYM    DATA     BYTE      IE
      00000088H.1 SFRSYM    DATA     BIT       IE0
      00000088H.3 SFRSYM    DATA     BIT       IE1
      00000080H.3 SFRSYM    DATA     BIT       INT0_N
      00000080H.4 SFRSYM    DATA     BIT       INT1_N
      000000B8H   SFRSYM    DATA     BYTE      IP
      00000088H   SFRSYM    DATA     BIT       IT0
      00000088H.2 SFRSYM    DATA     BIT       IT1
      00000092H   SFRSYM    DATA     BYTE      MPAGE
      000000D0H.2 SFRSYM    DATA     BIT       OV
      000000D0H   SFRSYM    DATA     BIT       P
      00000080H   SFRSYM    DATA     BYTE      P0
      00000080H   SFRSYM    DATA     BIT       P0_0
      00000080H.1 SFRSYM    DATA     BIT       P0_1
      00000080H.2 SFRSYM    DATA     BIT       P0_2
      00000080H.3 SFRSYM    DATA     BIT       P0_3
      00000080H.4 SFRSYM    DATA     BIT       P0_4
      00000080H.5 SFRSYM    DATA     BIT       P0_5
      00000080H.6 SFRSYM    DATA     BIT       P0_6
      00000080H.7 SFRSYM    DATA     BIT       P0_7
      00000095H   SFRSYM    DATA     BYTE      P0_ALT
      00000094H   SFRSYM    DATA     BYTE      P0_DIR
      00000090H   SFRSYM    DATA     BYTE      P1
      00000090H   SFRSYM    DATA     BIT       P1_0
      00000090H.1 SFRSYM    DATA     BIT       P1_1
      00000090H.2 SFRSYM    DATA     BIT       P1_2
      00000097H   SFRSYM    DATA     BYTE      P1_ALT
LX51 LINKER/LOCATER V4.34a                                                            04/22/2009  16:13:56  PAGE 29


      00000096H   SFRSYM    DATA     BYTE      P1_DIR
      00000087H   SFRSYM    DATA     BYTE      PCON
      000000B8H.4 SFRSYM    DATA     BIT       PS
      000000D0H   SFRSYM    DATA     BYTE      PSW
      000000B8H.1 SFRSYM    DATA     BIT       PT0
      000000B8H.3 SFRSYM    DATA     BIT       PT1
      000000B8H.5 SFRSYM    DATA     BIT       PT2
      000000F8H.4 SFRSYM    DATA     BIT       PWDI
      00000080H.7 SFRSYM    DATA     BIT       PWM
      000000A9H   SFRSYM    DATA     BYTE      PWMCON
      000000AAH   SFRSYM    DATA     BYTE      PWMDUTY
      000000A0H.7 SFRSYM    DATA     BIT       PWR_UP
      000000B8H   SFRSYM    DATA     BIT       PX0
      000000B8H.2 SFRSYM    DATA     BIT       PX1
      000000F8H   SFRSYM    DATA     BIT       PX2
      000000F8H.1 SFRSYM    DATA     BIT       PX3
      000000F8H.2 SFRSYM    DATA     BIT       PX4
      000000F8H.3 SFRSYM    DATA     BIT       PX5
      000000A0H   SFRSYM    DATA     BYTE      RADIO
      00000098H.2 SFRSYM    DATA     BIT       RB8
      000000CBH   SFRSYM    DATA     BYTE      RCAP2H
      000000CAH   SFRSYM    DATA     BYTE      RCAP2L
      000000C8H.5 SFRSYM    DATA     BIT       RCLK
      000000ADH   SFRSYM    DATA     BYTE      REGX_CTRL
      000000ACH   SFRSYM    DATA     BYTE      REGX_LSB
      000000ABH   SFRSYM    DATA     BYTE      REGX_MSB
      00000098H.4 SFRSYM    DATA     BIT       REN
      00000098H   SFRSYM    DATA     BIT       RI
      000000D0H.3 SFRSYM    DATA     BIT       RS0
      000000D0H.4 SFRSYM    DATA     BIT       RS1
      000000B1H   SFRSYM    DATA     BYTE      RSTREAS
      00000080H.1 SFRSYM    DATA     BIT       RXD
      00000099H   SFRSYM    DATA     BYTE      SBUF
      00000098H   SFRSYM    DATA     BYTE      SCON
      00000098H.7 SFRSYM    DATA     BIT       SM0
      00000098H.6 SFRSYM    DATA     BIT       SM1
      00000098H.5 SFRSYM    DATA     BIT       SM2
      00000081H   SFRSYM    DATA     BYTE      SP
      0000008FH   SFRSYM    DATA     BYTE      SPC_FNC
      000000B3H   SFRSYM    DATA     BYTE      SPI_CTRL
      000000B2H   SFRSYM    DATA     BYTE      SPI_DATA
      000000B4H   SFRSYM    DATA     BYTE      SPICLK
      00000080H.5 SFRSYM    DATA     BIT       T0
      00000080H.6 SFRSYM    DATA     BIT       T1
      000000BCH   SFRSYM    DATA     BYTE      T1_1V2
      00000090H   SFRSYM    DATA     BIT       T2
      000000BDH   SFRSYM    DATA     BYTE      T2_1V2
      000000C8H   SFRSYM    DATA     BYTE      T2CON
      00000098H.3 SFRSYM    DATA     BIT       TB8
      000000C8H.4 SFRSYM    DATA     BIT       TCLK
      00000088H   SFRSYM    DATA     BYTE      TCON
      000000B7H   SFRSYM    DATA     BYTE      TEST_MODE
      00000088H.5 SFRSYM    DATA     BIT       TF0
      00000088H.7 SFRSYM    DATA     BIT       TF1
      000000C8H.7 SFRSYM    DATA     BIT       TF2
      0000008CH   SFRSYM    DATA     BYTE      TH0
      0000008DH   SFRSYM    DATA     BYTE      TH1
      000000CDH   SFRSYM    DATA     BYTE      TH2
      00000098H.1 SFRSYM    DATA     BIT       TI
      000000B5H   SFRSYM    DATA     BYTE      TICK_DV
      0000008AH   SFRSYM    DATA     BYTE      TL0
      0000008BH   SFRSYM    DATA     BYTE      TL1
      000000CCH   SFRSYM    DATA     BYTE      TL2
      00000089H   SFRSYM    DATA     BYTE      TMOD
      00000088H.4 SFRSYM    DATA     BIT       TR0
LX51 LINKER/LOCATER V4.34a                                                            04/22/2009  16:13:56  PAGE 30


      00000088H.6 SFRSYM    DATA     BIT       TR1
      000000C8H.2 SFRSYM    DATA     BIT       TR2
      00000080H.2 SFRSYM    DATA     BIT       TXD
      000000D8H.3 SFRSYM    DATA     BIT       WDTI
      00000078H   SYMBOL    DATA     BYTE      ?_MDELAY?BYTE
      01000568H   SYMBOL    CODE     NEAR LAB  ?C0002
      01000588H   SYMBOL    CODE     NEAR LAB  ?C0004
      01000574H   SYMBOL    CODE     NEAR LAB  ?C0005
      0100058FH   SYMBOL    CODE     NEAR LAB  ?C0008
      01000798H   SYMBOL    CODE     NEAR LAB  ?C0009
      0100079DH   SYMBOL    CODE     NEAR LAB  ?C0010
      01000599H   SYMBOL    CODE     NEAR LAB  ?C0012
      010005D3H   SYMBOL    CODE     NEAR LAB  ?C0015
      01000586H   SYMBOL    CODE     NEAR LAB  ?C0016
      0100058DH   SYMBOL    CODE     NEAR LAB  ?C0017
      010005B4H   SYMBOL    CODE     NEAR LAB  ?C0018
      010005C6H   SYMBOL    CODE     NEAR LAB  ?C0019
      010005D1H   SYMBOL    CODE     NEAR LAB  ?C0020
      00000050H   SYMBOL    DATA     BYTE      DST?347
      00000078H   SYMBOL    DATA     BYTE      MSEC?141
      00000053H   SYMBOL    DATA     BYTE      N?348
      0000004DH   SYMBOL    DATA     BYTE      SRC?346

      010007C3H   BLOCK     CODE     NEAR LAB  LVL=0
      010007C3H   LINE      CODE     ---       #231
      010007C4H   LINE      CODE     ---       #232
      010007C5H   LINE      CODE     ---       #233
      010007C7H   LINE      CODE     ---       #234
      010007C9H   LINE      CODE     ---       #235
      010007CBH   LINE      CODE     ---       #236
      010007CDH   LINE      CODE     ---       #237
      010007CFH   LINE      CODE     ---       #240
      ---         BLOCKEND  ---      ---       LVL=0

      01000547H   BLOCK     CODE     NEAR LAB  LVL=0
      01000547H   LINE      CODE     ---       #256
      01000549H   LINE      CODE     ---       #257
      0100054BH   LINE      CODE     ---       #263
      0100054CH   LINE      CODE     ---       #264
      0100054EH   LINE      CODE     ---       #265
      0100054FH   LINE      CODE     ---       #266
      01000550H   LINE      CODE     ---       #267
      01000551H   LINE      CODE     ---       #268
      01000553H   LINE      CODE     ---       #269
      01000555H   LINE      CODE     ---       #270
      01000557H   LINE      CODE     ---       #271
      01000559H   LINE      CODE     ---       #272
      0100055CH   LINE      CODE     ---       #273
      0100055DH   LINE      CODE     ---       #274
      0100055FH   LINE      CODE     ---       #275
      01000560H   LINE      CODE     ---       #276
      01000561H   LINE      CODE     ---       #277
      01000562H   LINE      CODE     ---       #278
      01000565H   LINE      CODE     ---       #283
      01000566H   LINE      CODE     ---       #284
      01000567H   LINE      CODE     ---       #285
      01000568H   LINE      CODE     ---       #287
      01000569H   LINE      CODE     ---       #288
      0100056AH   LINE      CODE     ---       #289
      0100056CH   LINE      CODE     ---       #290
      0100056DH   LINE      CODE     ---       #291
      0100056FH   LINE      CODE     ---       #292
      01000571H   LINE      CODE     ---       #296
      01000572H   LINE      CODE     ---       #297
      01000573H   LINE      CODE     ---       #298
LX51 LINKER/LOCATER V4.34a                                                            04/22/2009  16:13:56  PAGE 31


      01000574H   LINE      CODE     ---       #300
      01000575H   LINE      CODE     ---       #301
      01000576H   LINE      CODE     ---       #302
      01000577H   LINE      CODE     ---       #303
      01000578H   LINE      CODE     ---       #304
      0100057AH   LINE      CODE     ---       #305
      0100057BH   LINE      CODE     ---       #306
      0100057CH   LINE      CODE     ---       #307
      0100057EH   LINE      CODE     ---       #308
      0100057FH   LINE      CODE     ---       #309
      01000581H   LINE      CODE     ---       #310
      01000582H   LINE      CODE     ---       #311
      01000585H   LINE      CODE     ---       #312
      01000586H   LINE      CODE     ---       #314
      01000588H   LINE      CODE     ---       #316
      01000589H   LINE      CODE     ---       #317
      0100058CH   LINE      CODE     ---       #318
      0100058DH   LINE      CODE     ---       #320
      0100058FH   LINE      CODE     ---       #325
      ---         BLOCKEND  ---      ---       LVL=0

      01000794H   BLOCK     CODE     NEAR LAB  LVL=0
      01000794H   LINE      CODE     ---       #341
      01000796H   LINE      CODE     ---       #342
      01000798H   LINE      CODE     ---       #348
      0100079AH   LINE      CODE     ---       #349
      0100079DH   LINE      CODE     ---       #354
      0100079FH   LINE      CODE     ---       #357
      010007A0H   LINE      CODE     ---       #358
      010007A2H   LINE      CODE     ---       #361
      010007A5H   LINE      CODE     ---       #364
      ---         BLOCKEND  ---      ---       LVL=0

      01000590H   BLOCK     CODE     NEAR LAB  LVL=0
      01000590H   LINE      CODE     ---       #380
      01000592H   LINE      CODE     ---       #381
      01000594H   LINE      CODE     ---       #382
      01000596H   LINE      CODE     ---       #389
      01000597H   LINE      CODE     ---       #390
      01000598H   LINE      CODE     ---       #391
      01000599H   LINE      CODE     ---       #393
      0100059AH   LINE      CODE     ---       #394
      0100059BH   LINE      CODE     ---       #395
      0100059DH   LINE      CODE     ---       #396
      0100059FH   LINE      CODE     ---       #397
      010005A1H   LINE      CODE     ---       #398
      010005A2H   LINE      CODE     ---       #399
      010005A3H   LINE      CODE     ---       #400
      010005A5H   LINE      CODE     ---       #401
      010005A6H   LINE      CODE     ---       #402
      010005A8H   LINE      CODE     ---       #405
      010005AAH   LINE      CODE     ---       #406
      010005ACH   LINE      CODE     ---       #407
      010005AEH   LINE      CODE     ---       #408
      010005B0H   LINE      CODE     ---       #409
      010005B2H   LINE      CODE     ---       #410
      010005B4H   LINE      CODE     ---       #412
      010005B5H   LINE      CODE     ---       #413
      010005B6H   LINE      CODE     ---       #414
      010005B9H   LINE      CODE     ---       #415
      010005BAH   LINE      CODE     ---       #416
      010005BCH   LINE      CODE     ---       #417
      010005BEH   LINE      CODE     ---       #418
      010005C0H   LINE      CODE     ---       #419
      010005C2H   LINE      CODE     ---       #420
LX51 LINKER/LOCATER V4.34a                                                            04/22/2009  16:13:56  PAGE 32


      010005C4H   LINE      CODE     ---       #421
      010005C6H   LINE      CODE     ---       #423
      010005C7H   LINE      CODE     ---       #424
      010005C8H   LINE      CODE     ---       #425
      010005C9H   LINE      CODE     ---       #426
      010005CCH   LINE      CODE     ---       #429
      010005CDH   LINE      CODE     ---       #430
      010005D0H   LINE      CODE     ---       #431
      010005D1H   LINE      CODE     ---       #433
      010005D3H   LINE      CODE     ---       #437
      ---         BLOCKEND  ---      ---       LVL=0

      ---         MODULE    ---      ---       SERIAL
      0100064CH   PUBLIC    CODE     NEAR LAB  _?INT_PRINT
      01000050H   PUBLIC    CODE     NEAR LAB  _PUTC
      0100071EH   PUBLIC    CODE     NEAR LAB  _PUTS
      010007F4H   PUBLIC    CODE     NEAR LAB  _SERIAL_INIT
      0100081CH   PUBLIC    CODE     NEAR LAB  GETC
      000000D0H.6 SFRSYM    DATA     BIT       AC
      000000E0H   SFRSYM    DATA     BYTE      ACC
      000000A1H   SFRSYM    DATA     BYTE      ADCCON
      000000A2H   SFRSYM    DATA     BYTE      ADCDATAH
      000000A3H   SFRSYM    DATA     BYTE      ADCDATAL
      000000A4H   SFRSYM    DATA     BYTE      ADCSTATIC
      000000F0H   SFRSYM    DATA     BYTE      B
      000000C8H.1 SFRSYM    DATA     BIT       C_T2
      000000A0H.6 SFRSYM    DATA     BIT       CE
      000000B6H   SFRSYM    DATA     BYTE      CK_CTRL
      0000008EH   SFRSYM    DATA     BYTE      CKCON
      000000A0H.1 SFRSYM    DATA     BIT       CLK1
      000000A0H.5 SFRSYM    DATA     BIT       CLK2
      000000C8H   SFRSYM    DATA     BIT       CP_RL2
      000000C8H   SFRSYM    DATA     BIT       CPRL2
      000000A0H.3 SFRSYM    DATA     BIT       CS
      000000C8H.1 SFRSYM    DATA     BIT       CT2
      000000D0H.7 SFRSYM    DATA     BIT       CY
      000000A0H   SFRSYM    DATA     BIT       DATA?
      000000BEH   SFRSYM    DATA     BYTE      DEV_OFFSET
      00000090H.2 SFRSYM    DATA     BIT       DIN0
      00000090H   SFRSYM    DATA     BIT       DIO0
      00000090H.1 SFRSYM    DATA     BIT       DIO1
      00000080H   SFRSYM    DATA     BIT       DIO2
      00000080H.1 SFRSYM    DATA     BIT       DIO3
      00000080H.2 SFRSYM    DATA     BIT       DIO4
      00000080H.3 SFRSYM    DATA     BIT       DIO5
      00000080H.4 SFRSYM    DATA     BIT       DIO6
      00000080H.5 SFRSYM    DATA     BIT       DIO7
      00000080H.6 SFRSYM    DATA     BIT       DIO8
      00000080H.7 SFRSYM    DATA     BIT       DIO9
      000000A0H.4 SFRSYM    DATA     BIT       DOUT2
      00000083H   SFRSYM    DATA     BYTE      DPH
      00000083H   SFRSYM    DATA     BYTE      DPH0
      00000085H   SFRSYM    DATA     BYTE      DPH1
      00000082H   SFRSYM    DATA     BYTE      DPL
      00000082H   SFRSYM    DATA     BYTE      DPL0
      00000084H   SFRSYM    DATA     BYTE      DPL1
      00000086H   SFRSYM    DATA     BYTE      DPS
      000000A0H.2 SFRSYM    DATA     BIT       DR1
      000000A0H.6 SFRSYM    DATA     BIT       DR2
      000000A0H.6 SFRSYM    DATA     BIT       DR2_CE
      000000A8H.7 SFRSYM    DATA     BIT       EA
      000000D8H   SFRSYM    DATA     BYTE      EICON
      000000E8H   SFRSYM    DATA     BYTE      EIE
      000000F8H   SFRSYM    DATA     BYTE      EIP
      000000A8H.4 SFRSYM    DATA     BIT       ES
LX51 LINKER/LOCATER V4.34a                                                            04/22/2009  16:13:56  PAGE 33


      000000A8H.1 SFRSYM    DATA     BIT       ET0
      000000A8H.3 SFRSYM    DATA     BIT       ET1
      000000A8H.5 SFRSYM    DATA     BIT       ET2
      000000E8H.4 SFRSYM    DATA     BIT       EWDI
      000000A8H   SFRSYM    DATA     BIT       EX0
      000000A8H.2 SFRSYM    DATA     BIT       EX1
      000000E8H   SFRSYM    DATA     BIT       EX2
      000000E8H.1 SFRSYM    DATA     BIT       EX3
      000000E8H.2 SFRSYM    DATA     BIT       EX4
      000000E8H.3 SFRSYM    DATA     BIT       EX5
      000000C8H.3 SFRSYM    DATA     BIT       EXEN2
      000000C8H.6 SFRSYM    DATA     BIT       EXF2
      00000091H   SFRSYM    DATA     BYTE      EXIF
      000000D0H.5 SFRSYM    DATA     BIT       F0
      000000D0H.1 SFRSYM    DATA     BIT       F1
      000000A8H   SFRSYM    DATA     BYTE      IE
      00000088H.1 SFRSYM    DATA     BIT       IE0
      00000088H.3 SFRSYM    DATA     BIT       IE1
      00000080H.3 SFRSYM    DATA     BIT       INT0_N
      00000080H.4 SFRSYM    DATA     BIT       INT1_N
      000000B8H   SFRSYM    DATA     BYTE      IP
      00000088H   SFRSYM    DATA     BIT       IT0
      00000088H.2 SFRSYM    DATA     BIT       IT1
      00000092H   SFRSYM    DATA     BYTE      MPAGE
      000000D0H.2 SFRSYM    DATA     BIT       OV
      000000D0H   SFRSYM    DATA     BIT       P
      00000080H   SFRSYM    DATA     BYTE      P0
      00000080H   SFRSYM    DATA     BIT       P0_0
      00000080H.1 SFRSYM    DATA     BIT       P0_1
      00000080H.2 SFRSYM    DATA     BIT       P0_2
      00000080H.3 SFRSYM    DATA     BIT       P0_3
      00000080H.4 SFRSYM    DATA     BIT       P0_4
      00000080H.5 SFRSYM    DATA     BIT       P0_5
      00000080H.6 SFRSYM    DATA     BIT       P0_6
      00000080H.7 SFRSYM    DATA     BIT       P0_7
      00000095H   SFRSYM    DATA     BYTE      P0_ALT
      00000094H   SFRSYM    DATA     BYTE      P0_DIR
      00000090H   SFRSYM    DATA     BYTE      P1
      00000090H   SFRSYM    DATA     BIT       P1_0
      00000090H.1 SFRSYM    DATA     BIT       P1_1
      00000090H.2 SFRSYM    DATA     BIT       P1_2
      00000097H   SFRSYM    DATA     BYTE      P1_ALT
      00000096H   SFRSYM    DATA     BYTE      P1_DIR
      00000087H   SFRSYM    DATA     BYTE      PCON
      000000B8H.4 SFRSYM    DATA     BIT       PS
      000000D0H   SFRSYM    DATA     BYTE      PSW
      000000B8H.1 SFRSYM    DATA     BIT       PT0
      000000B8H.3 SFRSYM    DATA     BIT       PT1
      000000B8H.5 SFRSYM    DATA     BIT       PT2
      000000F8H.4 SFRSYM    DATA     BIT       PWDI
      00000080H.7 SFRSYM    DATA     BIT       PWM
      000000A9H   SFRSYM    DATA     BYTE      PWMCON
      000000AAH   SFRSYM    DATA     BYTE      PWMDUTY
      000000A0H.7 SFRSYM    DATA     BIT       PWR_UP
      000000B8H   SFRSYM    DATA     BIT       PX0
      000000B8H.2 SFRSYM    DATA     BIT       PX1
      000000F8H   SFRSYM    DATA     BIT       PX2
      000000F8H.1 SFRSYM    DATA     BIT       PX3
      000000F8H.2 SFRSYM    DATA     BIT       PX4
      000000F8H.3 SFRSYM    DATA     BIT       PX5
      000000A0H   SFRSYM    DATA     BYTE      RADIO
      00000098H.2 SFRSYM    DATA     BIT       RB8
      000000CBH   SFRSYM    DATA     BYTE      RCAP2H
      000000CAH   SFRSYM    DATA     BYTE      RCAP2L
      000000C8H.5 SFRSYM    DATA     BIT       RCLK
LX51 LINKER/LOCATER V4.34a                                                            04/22/2009  16:13:56  PAGE 34


      000000ADH   SFRSYM    DATA     BYTE      REGX_CTRL
      000000ACH   SFRSYM    DATA     BYTE      REGX_LSB
      000000ABH   SFRSYM    DATA     BYTE      REGX_MSB
      00000098H.4 SFRSYM    DATA     BIT       REN
      00000098H   SFRSYM    DATA     BIT       RI
      000000D0H.3 SFRSYM    DATA     BIT       RS0
      000000D0H.4 SFRSYM    DATA     BIT       RS1
      000000B1H   SFRSYM    DATA     BYTE      RSTREAS
      00000080H.1 SFRSYM    DATA     BIT       RXD
      00000099H   SFRSYM    DATA     BYTE      SBUF
      00000098H   SFRSYM    DATA     BYTE      SCON
      00000098H.7 SFRSYM    DATA     BIT       SM0
      00000098H.6 SFRSYM    DATA     BIT       SM1
      00000098H.5 SFRSYM    DATA     BIT       SM2
      00000081H   SFRSYM    DATA     BYTE      SP
      0000008FH   SFRSYM    DATA     BYTE      SPC_FNC
      000000B3H   SFRSYM    DATA     BYTE      SPI_CTRL
      000000B2H   SFRSYM    DATA     BYTE      SPI_DATA
      000000B4H   SFRSYM    DATA     BYTE      SPICLK
      00000080H.5 SFRSYM    DATA     BIT       T0
      00000080H.6 SFRSYM    DATA     BIT       T1
      000000BCH   SFRSYM    DATA     BYTE      T1_1V2
      00000090H   SFRSYM    DATA     BIT       T2
      000000BDH   SFRSYM    DATA     BYTE      T2_1V2
      000000C8H   SFRSYM    DATA     BYTE      T2CON
      00000098H.3 SFRSYM    DATA     BIT       TB8
      000000C8H.4 SFRSYM    DATA     BIT       TCLK
      00000088H   SFRSYM    DATA     BYTE      TCON
      000000B7H   SFRSYM    DATA     BYTE      TEST_MODE
      00000088H.5 SFRSYM    DATA     BIT       TF0
      00000088H.7 SFRSYM    DATA     BIT       TF1
      000000C8H.7 SFRSYM    DATA     BIT       TF2
      0000008CH   SFRSYM    DATA     BYTE      TH0
      0000008DH   SFRSYM    DATA     BYTE      TH1
      000000CDH   SFRSYM    DATA     BYTE      TH2
      00000098H.1 SFRSYM    DATA     BIT       TI
      000000B5H   SFRSYM    DATA     BYTE      TICK_DV
      0000008AH   SFRSYM    DATA     BYTE      TL0
      0000008BH   SFRSYM    DATA     BYTE      TL1
      000000CCH   SFRSYM    DATA     BYTE      TL2
      00000089H   SFRSYM    DATA     BYTE      TMOD
      00000088H.4 SFRSYM    DATA     BIT       TR0
      00000088H.6 SFRSYM    DATA     BIT       TR1
      000000C8H.2 SFRSYM    DATA     BIT       TR2
      00000080H.2 SFRSYM    DATA     BIT       TXD
      000000D8H.3 SFRSYM    DATA     BIT       WDTI
      00000067H   SYMBOL    DATA     BYTE      ?_PUTS?BYTE
      0100060CH   SYMBOL    CODE     NEAR LAB  ?C0001
      010005F8H   SYMBOL    CODE     NEAR LAB  ?C0002
      01000600H   SYMBOL    CODE     NEAR LAB  ?C0003
      01000608H   SYMBOL    CODE     NEAR LAB  ?C0004
      01000610H   SYMBOL    CODE     NEAR LAB  ?C0005
      01000809H   SYMBOL    CODE     NEAR LAB  ?C0007
      0100080CH   SYMBOL    CODE     NEAR LAB  ?C0008
      0100080FH   SYMBOL    CODE     NEAR LAB  ?C0010
      01000812H   SYMBOL    CODE     NEAR LAB  ?C0011
      01000816H   SYMBOL    CODE     NEAR LAB  ?C0012
      01000724H   SYMBOL    CODE     NEAR LAB  ?C0014
      01000742H   SYMBOL    CODE     NEAR LAB  ?C0016
      0100081FH   SYMBOL    CODE     NEAR LAB  ?C0017
      0100066CH   SYMBOL    CODE     NEAR LAB  ?C0018
      01000737H   SYMBOL    CODE     NEAR LAB  ?C0020
      01000807H   SYMBOL    CODE     NEAR LAB  _SERIAL_WRITE
      010005D4H   SYMBOL    CODE     NEAR LAB  _SETUP_BAUDRATE
      00000067H   SYMBOL    DATA     BYTE      S?544
LX51 LINKER/LOCATER V4.34a                                                            04/22/2009  16:13:56  PAGE 35


      0100080FH   SYMBOL    CODE     NEAR LAB  SERIAL_READ

      010005D4H   BLOCK     CODE     NEAR LAB  LVL=0
      010005D4H   LINE      CODE     ---       #221
      010005D7H   LINE      CODE     ---       #224
      010005D9H   LINE      CODE     ---       #227
      010005DBH   LINE      CODE     ---       #230
      010005DDH   LINE      CODE     ---       #233
      010005E0H   LINE      CODE     ---       #237
      010005E3H   LINE      CODE     ---       #240
      010005E6H   LINE      CODE     ---       #244
      010005E7H   LINE      CODE     ---       #245
      010005E9H   LINE      CODE     ---       #246
      010005F8H   LINE      CODE     ---       #258
      010005FBH   LINE      CODE     ---       #261
      010005FEH   LINE      CODE     ---       #264
      01000600H   LINE      CODE     ---       #270
      01000603H   LINE      CODE     ---       #273
      01000606H   LINE      CODE     ---       #276
      01000608H   LINE      CODE     ---       #283
      01000609H   LINE      CODE     ---       #284
      0100060AH   LINE      CODE     ---       #285
      0100060BH   LINE      CODE     ---       #286
      0100060CH   LINE      CODE     ---       #292
      0100060EH   LINE      CODE     ---       #293
      01000610H   LINE      CODE     ---       #297
      ---         BLOCKEND  ---      ---       LVL=0

      010007F4H   BLOCK     CODE     NEAR LAB  LVL=0
      010007F4H   LINE      CODE     ---       #319
      010007F7H   LINE      CODE     ---       #322
      010007FAH   LINE      CODE     ---       #325
      010007FDH   LINE      CODE     ---       #328
      ---         BLOCKEND  ---      ---       LVL=0

      01000807H   BLOCK     CODE     NEAR LAB  LVL=0
      01000807H   LINE      CODE     ---       #345
      01000809H   LINE      CODE     ---       #349
      0100080CH   LINE      CODE     ---       #354
      0100080EH   LINE      CODE     ---       #357
      ---         BLOCKEND  ---      ---       LVL=0

      0100080FH   BLOCK     CODE     NEAR LAB  LVL=0
      0100080FH   LINE      CODE     ---       #375
      01000812H   LINE      CODE     ---       #380
      01000814H   LINE      CODE     ---       #383
      01000816H   LINE      CODE     ---       #387
      ---         BLOCKEND  ---      ---       LVL=0

      01000050H   BLOCK     CODE     NEAR LAB  LVL=0
      01000050H   LINE      CODE     ---       #402
      ---         BLOCKEND  ---      ---       LVL=0

      0100071EH   BLOCK     CODE     NEAR LAB  LVL=0
      0100071EH   LINE      CODE     ---       #413
      01000720H   LINE      CODE     ---       #414
      01000722H   LINE      CODE     ---       #415
      01000724H   LINE      CODE     ---       #421
      01000726H   LINE      CODE     ---       #422
      01000728H   LINE      CODE     ---       #423
      0100072AH   LINE      CODE     ---       #424
      0100072DH   LINE      CODE     ---       #425
      0100072FH   LINE      CODE     ---       #428
      01000731H   LINE      CODE     ---       #429
      01000733H   LINE      CODE     ---       #430
LX51 LINKER/LOCATER V4.34a                                                            04/22/2009  16:13:56  PAGE 36


      01000735H   LINE      CODE     ---       #431
      01000737H   LINE      CODE     ---       #433
      01000738H   LINE      CODE     ---       #434
      01000739H   LINE      CODE     ---       #435
      0100073CH   LINE      CODE     ---       #436
      0100073DH   LINE      CODE     ---       #437
      01000740H   LINE      CODE     ---       #438
      01000742H   LINE      CODE     ---       #442
      ---         BLOCKEND  ---      ---       LVL=0

      0100081CH   BLOCK     CODE     NEAR LAB  LVL=0
      0100081CH   LINE      CODE     ---       #456
      0100081FH   LINE      CODE     ---       #460
      ---         BLOCKEND  ---      ---       LVL=0

      0100064CH   BLOCK     CODE     NEAR LAB  LVL=0
      0100064CH   LINE      CODE     ---       #474
      0100064EH   LINE      CODE     ---       #475
      01000650H   LINE      CODE     ---       #476
      01000652H   LINE      CODE     ---       #477
      01000654H   LINE      CODE     ---       #478
      01000655H   LINE      CODE     ---       #479
      01000657H   LINE      CODE     ---       #483
      01000659H   LINE      CODE     ---       #484
      0100065AH   LINE      CODE     ---       #485
      0100065BH   LINE      CODE     ---       #486
      0100065CH   LINE      CODE     ---       #487
      0100065DH   LINE      CODE     ---       #488
      0100065EH   LINE      CODE     ---       #489
      01000660H   LINE      CODE     ---       #490
      01000662H   LINE      CODE     ---       #491
      01000665H   LINE      CODE     ---       #492
      01000666H   LINE      CODE     ---       #493
      01000667H   LINE      CODE     ---       #494
      01000669H   LINE      CODE     ---       #497
      0100066CH   LINE      CODE     ---       #501
      0100066EH   LINE      CODE     ---       #502
      0100066FH   LINE      CODE     ---       #503
      01000670H   LINE      CODE     ---       #504
      01000671H   LINE      CODE     ---       #505
      01000672H   LINE      CODE     ---       #506
      01000673H   LINE      CODE     ---       #507
      01000675H   LINE      CODE     ---       #508
      01000677H   LINE      CODE     ---       #509
      0100067AH   LINE      CODE     ---       #510
      0100067BH   LINE      CODE     ---       #511
      0100067DH   LINE      CODE     ---       #512
      0100067EH   LINE      CODE     ---       #513
      01000681H   LINE      CODE     ---       #516
      01000683H   LINE      CODE     ---       #517
      01000685H   LINE      CODE     ---       #518
      ---         BLOCKEND  ---      ---       LVL=0

      ---         MODULE    ---      ---       SPI
      01000817H   PUBLIC    CODE     NEAR LAB  _SPI_INIT
      010007D0H   PUBLIC    CODE     NEAR LAB  _SPI_WRITE_THEN_READ
      000000D0H.6 SFRSYM    DATA     BIT       AC
      000000E0H   SFRSYM    DATA     BYTE      ACC
      000000A1H   SFRSYM    DATA     BYTE      ADCCON
      000000A2H   SFRSYM    DATA     BYTE      ADCDATAH
      000000A3H   SFRSYM    DATA     BYTE      ADCDATAL
      000000A4H   SFRSYM    DATA     BYTE      ADCSTATIC
      000000F0H   SFRSYM    DATA     BYTE      B
      000000C8H.1 SFRSYM    DATA     BIT       C_T2
      000000A0H.6 SFRSYM    DATA     BIT       CE
LX51 LINKER/LOCATER V4.34a                                                            04/22/2009  16:13:56  PAGE 37


      000000B6H   SFRSYM    DATA     BYTE      CK_CTRL
      0000008EH   SFRSYM    DATA     BYTE      CKCON
      000000A0H.1 SFRSYM    DATA     BIT       CLK1
      000000A0H.5 SFRSYM    DATA     BIT       CLK2
      000000C8H   SFRSYM    DATA     BIT       CP_RL2
      000000C8H   SFRSYM    DATA     BIT       CPRL2
      000000A0H.3 SFRSYM    DATA     BIT       CS
      000000C8H.1 SFRSYM    DATA     BIT       CT2
      000000D0H.7 SFRSYM    DATA     BIT       CY
      000000A0H   SFRSYM    DATA     BIT       DATA?
      000000BEH   SFRSYM    DATA     BYTE      DEV_OFFSET
      00000090H.2 SFRSYM    DATA     BIT       DIN0
      00000090H   SFRSYM    DATA     BIT       DIO0
      00000090H.1 SFRSYM    DATA     BIT       DIO1
      00000080H   SFRSYM    DATA     BIT       DIO2
      00000080H.1 SFRSYM    DATA     BIT       DIO3
      00000080H.2 SFRSYM    DATA     BIT       DIO4
      00000080H.3 SFRSYM    DATA     BIT       DIO5
      00000080H.4 SFRSYM    DATA     BIT       DIO6
      00000080H.5 SFRSYM    DATA     BIT       DIO7
      00000080H.6 SFRSYM    DATA     BIT       DIO8
      00000080H.7 SFRSYM    DATA     BIT       DIO9
      000000A0H.4 SFRSYM    DATA     BIT       DOUT2
      00000083H   SFRSYM    DATA     BYTE      DPH
      00000083H   SFRSYM    DATA     BYTE      DPH0
      00000085H   SFRSYM    DATA     BYTE      DPH1
      00000082H   SFRSYM    DATA     BYTE      DPL
      00000082H   SFRSYM    DATA     BYTE      DPL0
      00000084H   SFRSYM    DATA     BYTE      DPL1
      00000086H   SFRSYM    DATA     BYTE      DPS
      000000A0H.2 SFRSYM    DATA     BIT       DR1
      000000A0H.6 SFRSYM    DATA     BIT       DR2
      000000A0H.6 SFRSYM    DATA     BIT       DR2_CE
      000000A8H.7 SFRSYM    DATA     BIT       EA
      000000D8H   SFRSYM    DATA     BYTE      EICON
      000000E8H   SFRSYM    DATA     BYTE      EIE
      000000F8H   SFRSYM    DATA     BYTE      EIP
      000000A8H.4 SFRSYM    DATA     BIT       ES
      000000A8H.1 SFRSYM    DATA     BIT       ET0
      000000A8H.3 SFRSYM    DATA     BIT       ET1
      000000A8H.5 SFRSYM    DATA     BIT       ET2
      000000E8H.4 SFRSYM    DATA     BIT       EWDI
      000000A8H   SFRSYM    DATA     BIT       EX0
      000000A8H.2 SFRSYM    DATA     BIT       EX1
      000000E8H   SFRSYM    DATA     BIT       EX2
      000000E8H.1 SFRSYM    DATA     BIT       EX3
      000000E8H.2 SFRSYM    DATA     BIT       EX4
      000000E8H.3 SFRSYM    DATA     BIT       EX5
      000000C8H.3 SFRSYM    DATA     BIT       EXEN2
      000000C8H.6 SFRSYM    DATA     BIT       EXF2
      00000091H   SFRSYM    DATA     BYTE      EXIF
      000000D0H.5 SFRSYM    DATA     BIT       F0
      000000D0H.1 SFRSYM    DATA     BIT       F1
      000000A8H   SFRSYM    DATA     BYTE      IE
      00000088H.1 SFRSYM    DATA     BIT       IE0
      00000088H.3 SFRSYM    DATA     BIT       IE1
      00000080H.3 SFRSYM    DATA     BIT       INT0_N
      00000080H.4 SFRSYM    DATA     BIT       INT1_N
      000000B8H   SFRSYM    DATA     BYTE      IP
      00000088H   SFRSYM    DATA     BIT       IT0
      00000088H.2 SFRSYM    DATA     BIT       IT1
      00000092H   SFRSYM    DATA     BYTE      MPAGE
      000000D0H.2 SFRSYM    DATA     BIT       OV
      000000D0H   SFRSYM    DATA     BIT       P
      00000080H   SFRSYM    DATA     BYTE      P0
LX51 LINKER/LOCATER V4.34a                                                            04/22/2009  16:13:56  PAGE 38


      00000080H   SFRSYM    DATA     BIT       P0_0
      00000080H.1 SFRSYM    DATA     BIT       P0_1
      00000080H.2 SFRSYM    DATA     BIT       P0_2
      00000080H.3 SFRSYM    DATA     BIT       P0_3
      00000080H.4 SFRSYM    DATA     BIT       P0_4
      00000080H.5 SFRSYM    DATA     BIT       P0_5
      00000080H.6 SFRSYM    DATA     BIT       P0_6
      00000080H.7 SFRSYM    DATA     BIT       P0_7
      00000095H   SFRSYM    DATA     BYTE      P0_ALT
      00000094H   SFRSYM    DATA     BYTE      P0_DIR
      00000090H   SFRSYM    DATA     BYTE      P1
      00000090H   SFRSYM    DATA     BIT       P1_0
      00000090H.1 SFRSYM    DATA     BIT       P1_1
      00000090H.2 SFRSYM    DATA     BIT       P1_2
      00000097H   SFRSYM    DATA     BYTE      P1_ALT
      00000096H   SFRSYM    DATA     BYTE      P1_DIR
      00000087H   SFRSYM    DATA     BYTE      PCON
      000000B8H.4 SFRSYM    DATA     BIT       PS
      000000D0H   SFRSYM    DATA     BYTE      PSW
      000000B8H.1 SFRSYM    DATA     BIT       PT0
      000000B8H.3 SFRSYM    DATA     BIT       PT1
      000000B8H.5 SFRSYM    DATA     BIT       PT2
      000000F8H.4 SFRSYM    DATA     BIT       PWDI
      00000080H.7 SFRSYM    DATA     BIT       PWM
      000000A9H   SFRSYM    DATA     BYTE      PWMCON
      000000AAH   SFRSYM    DATA     BYTE      PWMDUTY
      000000A0H.7 SFRSYM    DATA     BIT       PWR_UP
      000000B8H   SFRSYM    DATA     BIT       PX0
      000000B8H.2 SFRSYM    DATA     BIT       PX1
      000000F8H   SFRSYM    DATA     BIT       PX2
      000000F8H.1 SFRSYM    DATA     BIT       PX3
      000000F8H.2 SFRSYM    DATA     BIT       PX4
      000000F8H.3 SFRSYM    DATA     BIT       PX5
      000000A0H   SFRSYM    DATA     BYTE      RADIO
      00000098H.2 SFRSYM    DATA     BIT       RB8
      000000CBH   SFRSYM    DATA     BYTE      RCAP2H
      000000CAH   SFRSYM    DATA     BYTE      RCAP2L
      000000C8H.5 SFRSYM    DATA     BIT       RCLK
      000000ADH   SFRSYM    DATA     BYTE      REGX_CTRL
      000000ACH   SFRSYM    DATA     BYTE      REGX_LSB
      000000ABH   SFRSYM    DATA     BYTE      REGX_MSB
      00000098H.4 SFRSYM    DATA     BIT       REN
      00000098H   SFRSYM    DATA     BIT       RI
      000000D0H.3 SFRSYM    DATA     BIT       RS0
      000000D0H.4 SFRSYM    DATA     BIT       RS1
      000000B1H   SFRSYM    DATA     BYTE      RSTREAS
      00000080H.1 SFRSYM    DATA     BIT       RXD
      00000099H   SFRSYM    DATA     BYTE      SBUF
      00000098H   SFRSYM    DATA     BYTE      SCON
      00000098H.7 SFRSYM    DATA     BIT       SM0
      00000098H.6 SFRSYM    DATA     BIT       SM1
      00000098H.5 SFRSYM    DATA     BIT       SM2
      00000081H   SFRSYM    DATA     BYTE      SP
      0000008FH   SFRSYM    DATA     BYTE      SPC_FNC
      000000B3H   SFRSYM    DATA     BYTE      SPI_CTRL
      000000B2H   SFRSYM    DATA     BYTE      SPI_DATA
      000000B4H   SFRSYM    DATA     BYTE      SPICLK
      00000080H.5 SFRSYM    DATA     BIT       T0
      00000080H.6 SFRSYM    DATA     BIT       T1
      000000BCH   SFRSYM    DATA     BYTE      T1_1V2
      00000090H   SFRSYM    DATA     BIT       T2
      000000BDH   SFRSYM    DATA     BYTE      T2_1V2
      000000C8H   SFRSYM    DATA     BYTE      T2CON
      00000098H.3 SFRSYM    DATA     BIT       TB8
      000000C8H.4 SFRSYM    DATA     BIT       TCLK
LX51 LINKER/LOCATER V4.34a                                                            04/22/2009  16:13:56  PAGE 39


      00000088H   SFRSYM    DATA     BYTE      TCON
      000000B7H   SFRSYM    DATA     BYTE      TEST_MODE
      00000088H.5 SFRSYM    DATA     BIT       TF0
      00000088H.7 SFRSYM    DATA     BIT       TF1
      000000C8H.7 SFRSYM    DATA     BIT       TF2
      0000008CH   SFRSYM    DATA     BYTE      TH0
      0000008DH   SFRSYM    DATA     BYTE      TH1
      000000CDH   SFRSYM    DATA     BYTE      TH2
      00000098H.1 SFRSYM    DATA     BIT       TI
      000000B5H   SFRSYM    DATA     BYTE      TICK_DV
      0000008AH   SFRSYM    DATA     BYTE      TL0
      0000008BH   SFRSYM    DATA     BYTE      TL1
      000000CCH   SFRSYM    DATA     BYTE      TL2
      00000089H   SFRSYM    DATA     BYTE      TMOD
      00000088H.4 SFRSYM    DATA     BIT       TR0
      00000088H.6 SFRSYM    DATA     BIT       TR1
      000000C8H.2 SFRSYM    DATA     BIT       TR2
      00000080H.2 SFRSYM    DATA     BIT       TXD
      000000D8H.3 SFRSYM    DATA     BIT       WDTI
      010007D5H   SYMBOL    CODE     NEAR LAB  ?C0002
      010007DAH   SYMBOL    CODE     NEAR LAB  ?C0003
      010007DCH   SYMBOL    CODE     NEAR LAB  ?C0004

      01000817H   BLOCK     CODE     NEAR LAB  LVL=0
      01000817H   LINE      CODE     ---       #203
      01000819H   LINE      CODE     ---       #206
      0100081BH   LINE      CODE     ---       #209
      ---         BLOCKEND  ---      ---       LVL=0

      010007D0H   BLOCK     CODE     NEAR LAB  LVL=0
      010007D0H   LINE      CODE     ---       #229
      010007D3H   LINE      CODE     ---       #232
      010007D5H   LINE      CODE     ---       #236
      010007D7H   LINE      CODE     ---       #237
      010007DAH   LINE      CODE     ---       #242
      010007DCH   LINE      CODE     ---       #246
      ---         BLOCKEND  ---      ---       LVL=0

      ---         MODULE    ---      ---       EEPROM
      010006F2H   PUBLIC    CODE     NEAR LAB  _EEPROM_READ
      01000611H   PUBLIC    CODE     NEAR LAB  _EEPROM_WRITE
      010007E9H   PUBLIC    CODE     NEAR LAB  EEPROM_INIT
      010007A6H   PUBLIC    CODE     NEAR LAB  EEPROM_STATUS
      01000743H   PUBLIC    CODE     NEAR LAB  FLASH_ERASE_ALL
      000000D0H.6 SFRSYM    DATA     BIT       AC
      000000E0H   SFRSYM    DATA     BYTE      ACC
      000000A1H   SFRSYM    DATA     BYTE      ADCCON
      000000A2H   SFRSYM    DATA     BYTE      ADCDATAH
      000000A3H   SFRSYM    DATA     BYTE      ADCDATAL
      000000A4H   SFRSYM    DATA     BYTE      ADCSTATIC
      000000F0H   SFRSYM    DATA     BYTE      B
      000000C8H.1 SFRSYM    DATA     BIT       C_T2
      000000A0H.6 SFRSYM    DATA     BIT       CE
      000000B6H   SFRSYM    DATA     BYTE      CK_CTRL
      0000008EH   SFRSYM    DATA     BYTE      CKCON
      000000A0H.1 SFRSYM    DATA     BIT       CLK1
      000000A0H.5 SFRSYM    DATA     BIT       CLK2
      000000C8H   SFRSYM    DATA     BIT       CP_RL2
      000000C8H   SFRSYM    DATA     BIT       CPRL2
      000000A0H.3 SFRSYM    DATA     BIT       CS
      000000C8H.1 SFRSYM    DATA     BIT       CT2
      000000D0H.7 SFRSYM    DATA     BIT       CY
      000000A0H   SFRSYM    DATA     BIT       DATA?
      000000BEH   SFRSYM    DATA     BYTE      DEV_OFFSET
      00000090H.2 SFRSYM    DATA     BIT       DIN0
LX51 LINKER/LOCATER V4.34a                                                            04/22/2009  16:13:56  PAGE 40


      00000090H   SFRSYM    DATA     BIT       DIO0
      00000090H.1 SFRSYM    DATA     BIT       DIO1
      00000080H   SFRSYM    DATA     BIT       DIO2
      00000080H.1 SFRSYM    DATA     BIT       DIO3
      00000080H.2 SFRSYM    DATA     BIT       DIO4
      00000080H.3 SFRSYM    DATA     BIT       DIO5
      00000080H.4 SFRSYM    DATA     BIT       DIO6
      00000080H.5 SFRSYM    DATA     BIT       DIO7
      00000080H.6 SFRSYM    DATA     BIT       DIO8
      00000080H.7 SFRSYM    DATA     BIT       DIO9
      000000A0H.4 SFRSYM    DATA     BIT       DOUT2
      00000083H   SFRSYM    DATA     BYTE      DPH
      00000083H   SFRSYM    DATA     BYTE      DPH0
      00000085H   SFRSYM    DATA     BYTE      DPH1
      00000082H   SFRSYM    DATA     BYTE      DPL
      00000082H   SFRSYM    DATA     BYTE      DPL0
      00000084H   SFRSYM    DATA     BYTE      DPL1
      00000086H   SFRSYM    DATA     BYTE      DPS
      000000A0H.2 SFRSYM    DATA     BIT       DR1
      000000A0H.6 SFRSYM    DATA     BIT       DR2
      000000A0H.6 SFRSYM    DATA     BIT       DR2_CE
      000000A8H.7 SFRSYM    DATA     BIT       EA
      000000D8H   SFRSYM    DATA     BYTE      EICON
      000000E8H   SFRSYM    DATA     BYTE      EIE
      000000F8H   SFRSYM    DATA     BYTE      EIP
      000000A8H.4 SFRSYM    DATA     BIT       ES
      000000A8H.1 SFRSYM    DATA     BIT       ET0
      000000A8H.3 SFRSYM    DATA     BIT       ET1
      000000A8H.5 SFRSYM    DATA     BIT       ET2
      000000E8H.4 SFRSYM    DATA     BIT       EWDI
      000000A8H   SFRSYM    DATA     BIT       EX0
      000000A8H.2 SFRSYM    DATA     BIT       EX1
      000000E8H   SFRSYM    DATA     BIT       EX2
      000000E8H.1 SFRSYM    DATA     BIT       EX3
      000000E8H.2 SFRSYM    DATA     BIT       EX4
      000000E8H.3 SFRSYM    DATA     BIT       EX5
      000000C8H.3 SFRSYM    DATA     BIT       EXEN2
      000000C8H.6 SFRSYM    DATA     BIT       EXF2
      00000091H   SFRSYM    DATA     BYTE      EXIF
      000000D0H.5 SFRSYM    DATA     BIT       F0
      000000D0H.1 SFRSYM    DATA     BIT       F1
      000000A8H   SFRSYM    DATA     BYTE      IE
      00000088H.1 SFRSYM    DATA     BIT       IE0
      00000088H.3 SFRSYM    DATA     BIT       IE1
      00000080H.3 SFRSYM    DATA     BIT       INT0_N
      00000080H.4 SFRSYM    DATA     BIT       INT1_N
      000000B8H   SFRSYM    DATA     BYTE      IP
      00000088H   SFRSYM    DATA     BIT       IT0
      00000088H.2 SFRSYM    DATA     BIT       IT1
      00000092H   SFRSYM    DATA     BYTE      MPAGE
      000000D0H.2 SFRSYM    DATA     BIT       OV
      000000D0H   SFRSYM    DATA     BIT       P
      00000080H   SFRSYM    DATA     BYTE      P0
      00000080H   SFRSYM    DATA     BIT       P0_0
      00000080H.1 SFRSYM    DATA     BIT       P0_1
      00000080H.2 SFRSYM    DATA     BIT       P0_2
      00000080H.3 SFRSYM    DATA     BIT       P0_3
      00000080H.4 SFRSYM    DATA     BIT       P0_4
      00000080H.5 SFRSYM    DATA     BIT       P0_5
      00000080H.6 SFRSYM    DATA     BIT       P0_6
      00000080H.7 SFRSYM    DATA     BIT       P0_7
      00000095H   SFRSYM    DATA     BYTE      P0_ALT
      00000094H   SFRSYM    DATA     BYTE      P0_DIR
      00000090H   SFRSYM    DATA     BYTE      P1
      00000090H   SFRSYM    DATA     BIT       P1_0
LX51 LINKER/LOCATER V4.34a                                                            04/22/2009  16:13:56  PAGE 41


      00000090H.1 SFRSYM    DATA     BIT       P1_1
      00000090H.2 SFRSYM    DATA     BIT       P1_2
      00000097H   SFRSYM    DATA     BYTE      P1_ALT
      00000096H   SFRSYM    DATA     BYTE      P1_DIR
      00000087H   SFRSYM    DATA     BYTE      PCON
      000000B8H.4 SFRSYM    DATA     BIT       PS
      000000D0H   SFRSYM    DATA     BYTE      PSW
      000000B8H.1 SFRSYM    DATA     BIT       PT0
      000000B8H.3 SFRSYM    DATA     BIT       PT1
      000000B8H.5 SFRSYM    DATA     BIT       PT2
      000000F8H.4 SFRSYM    DATA     BIT       PWDI
      00000080H.7 SFRSYM    DATA     BIT       PWM
      000000A9H   SFRSYM    DATA     BYTE      PWMCON
      000000AAH   SFRSYM    DATA     BYTE      PWMDUTY
      000000A0H.7 SFRSYM    DATA     BIT       PWR_UP
      000000B8H   SFRSYM    DATA     BIT       PX0
      000000B8H.2 SFRSYM    DATA     BIT       PX1
      000000F8H   SFRSYM    DATA     BIT       PX2
      000000F8H.1 SFRSYM    DATA     BIT       PX3
      000000F8H.2 SFRSYM    DATA     BIT       PX4
      000000F8H.3 SFRSYM    DATA     BIT       PX5
      000000A0H   SFRSYM    DATA     BYTE      RADIO
      00000098H.2 SFRSYM    DATA     BIT       RB8
      000000CBH   SFRSYM    DATA     BYTE      RCAP2H
      000000CAH   SFRSYM    DATA     BYTE      RCAP2L
      000000C8H.5 SFRSYM    DATA     BIT       RCLK
      000000ADH   SFRSYM    DATA     BYTE      REGX_CTRL
      000000ACH   SFRSYM    DATA     BYTE      REGX_LSB
      000000ABH   SFRSYM    DATA     BYTE      REGX_MSB
      00000098H.4 SFRSYM    DATA     BIT       REN
      00000098H   SFRSYM    DATA     BIT       RI
      000000D0H.3 SFRSYM    DATA     BIT       RS0
      000000D0H.4 SFRSYM    DATA     BIT       RS1
      000000B1H   SFRSYM    DATA     BYTE      RSTREAS
      00000080H.1 SFRSYM    DATA     BIT       RXD
      00000099H   SFRSYM    DATA     BYTE      SBUF
      00000098H   SFRSYM    DATA     BYTE      SCON
      00000098H.7 SFRSYM    DATA     BIT       SM0
      00000098H.6 SFRSYM    DATA     BIT       SM1
      00000098H.5 SFRSYM    DATA     BIT       SM2
      00000081H   SFRSYM    DATA     BYTE      SP
      0000008FH   SFRSYM    DATA     BYTE      SPC_FNC
      000000B3H   SFRSYM    DATA     BYTE      SPI_CTRL
      000000B2H   SFRSYM    DATA     BYTE      SPI_DATA
      000000B4H   SFRSYM    DATA     BYTE      SPICLK
      00000080H.5 SFRSYM    DATA     BIT       T0
      00000080H.6 SFRSYM    DATA     BIT       T1
      000000BCH   SFRSYM    DATA     BYTE      T1_1V2
      00000090H   SFRSYM    DATA     BIT       T2
      000000BDH   SFRSYM    DATA     BYTE      T2_1V2
      000000C8H   SFRSYM    DATA     BYTE      T2CON
      00000098H.3 SFRSYM    DATA     BIT       TB8
      000000C8H.4 SFRSYM    DATA     BIT       TCLK
      00000088H   SFRSYM    DATA     BYTE      TCON
      000000B7H   SFRSYM    DATA     BYTE      TEST_MODE
      00000088H.5 SFRSYM    DATA     BIT       TF0
      00000088H.7 SFRSYM    DATA     BIT       TF1
      000000C8H.7 SFRSYM    DATA     BIT       TF2
      0000008CH   SFRSYM    DATA     BYTE      TH0
      0000008DH   SFRSYM    DATA     BYTE      TH1
      000000CDH   SFRSYM    DATA     BYTE      TH2
      00000098H.1 SFRSYM    DATA     BIT       TI
      000000B5H   SFRSYM    DATA     BYTE      TICK_DV
      0000008AH   SFRSYM    DATA     BYTE      TL0
      0000008BH   SFRSYM    DATA     BYTE      TL1
LX51 LINKER/LOCATER V4.34a                                                            04/22/2009  16:13:56  PAGE 42


      000000CCH   SFRSYM    DATA     BYTE      TL2
      00000089H   SFRSYM    DATA     BYTE      TMOD
      00000088H.4 SFRSYM    DATA     BIT       TR0
      00000088H.6 SFRSYM    DATA     BIT       TR1
      000000C8H.2 SFRSYM    DATA     BIT       TR2
      00000080H.2 SFRSYM    DATA     BIT       TXD
      000000D8H.3 SFRSYM    DATA     BIT       WDTI
      0000006DH   SYMBOL    DATA     BYTE      ?_EEPROM_READ?BYTE
      0000006AH   SYMBOL    DATA     BYTE      ?_EEPROM_WRITE?BYTE
      010007B4H   SYMBOL    CODE     NEAR LAB  ?C0002
      01000617H   SYMBOL    CODE     NEAR LAB  ?C0003
      0100061EH   SYMBOL    CODE     NEAR LAB  ?C0004
      010006F9H   SYMBOL    CODE     NEAR LAB  ?C0006
      01000700H   SYMBOL    CODE     NEAR LAB  ?C0007
      0100071DH   SYMBOL    CODE     NEAR LAB  ?C0008
      01000743H   SYMBOL    CODE     NEAR LAB  ?C0009
      0100074AH   SYMBOL    CODE     NEAR LAB  ?C0010
      0100075CH   SYMBOL    CODE     NEAR LAB  ?C0012
      0000006AH   SYMBOL    DATA     BYTE      ADDR?241
      0000006DH   SYMBOL    DATA     BYTE      ADDR?343
      0000006CH   SYMBOL    DATA     BYTE      BYTE?242
      0000006FH   SYMBOL    DATA     BYTE      BYTE?344

      010007E9H   BLOCK     CODE     NEAR LAB  LVL=0
      010007E9H   LINE      CODE     ---       #244
      010007EAH   LINE      CODE     ---       #245
      010007EBH   LINE      CODE     ---       #246
      010007EDH   LINE      CODE     ---       #247
      010007F0H   LINE      CODE     ---       #251
      010007F3H   LINE      CODE     ---       #254
      ---         BLOCKEND  ---      ---       LVL=0

      010007A6H   BLOCK     CODE     NEAR LAB  LVL=0
      010007A6H   LINE      CODE     ---       #270
      010007A8H   LINE      CODE     ---       #273
      010007AAH   LINE      CODE     ---       #274
      010007ADH   LINE      CODE     ---       #278
      010007AEH   LINE      CODE     ---       #279
      010007AFH   LINE      CODE     ---       #280
      010007B2H   LINE      CODE     ---       #284
      010007B4H   LINE      CODE     ---       #291
      ---         BLOCKEND  ---      ---       LVL=0

      01000611H   BLOCK     CODE     NEAR LAB  LVL=0
      01000611H   LINE      CODE     ---       #305
      01000613H   LINE      CODE     ---       #306
      01000615H   LINE      CODE     ---       #307
      01000617H   LINE      CODE     ---       #313
      0100061AH   LINE      CODE     ---       #314
      0100061BH   LINE      CODE     ---       #315
      0100061EH   LINE      CODE     ---       #320
      01000620H   LINE      CODE     ---       #323
      01000622H   LINE      CODE     ---       #324
      01000625H   LINE      CODE     ---       #327
      01000627H   LINE      CODE     ---       #330
      01000629H   LINE      CODE     ---       #333
      0100062BH   LINE      CODE     ---       #334
      0100062EH   LINE      CODE     ---       #337
      01000630H   LINE      CODE     ---       #338
      01000631H   LINE      CODE     ---       #339
      01000634H   LINE      CODE     ---       #342
      01000636H   LINE      CODE     ---       #343
      01000638H   LINE      CODE     ---       #344
      0100063BH   LINE      CODE     ---       #347
      0100063DH   LINE      CODE     ---       #348
LX51 LINKER/LOCATER V4.34a                                                            04/22/2009  16:13:56  PAGE 43


      01000640H   LINE      CODE     ---       #351
      01000642H   LINE      CODE     ---       #354
      01000644H   LINE      CODE     ---       #357
      01000646H   LINE      CODE     ---       #358
      01000649H   LINE      CODE     ---       #361
      0100064BH   LINE      CODE     ---       #364
      ---         BLOCKEND  ---      ---       LVL=0

      010006F2H   BLOCK     CODE     NEAR LAB  LVL=0
      010006F2H   LINE      CODE     ---       #377
      010006F4H   LINE      CODE     ---       #378
      010006F6H   LINE      CODE     ---       #383
      010006F7H   LINE      CODE     ---       #384
      010006F9H   LINE      CODE     ---       #388
      010006FCH   LINE      CODE     ---       #389
      010006FDH   LINE      CODE     ---       #390
      01000700H   LINE      CODE     ---       #395
      01000702H   LINE      CODE     ---       #398
      01000704H   LINE      CODE     ---       #399
      01000707H   LINE      CODE     ---       #402
      01000709H   LINE      CODE     ---       #403
      0100070AH   LINE      CODE     ---       #404
      0100070DH   LINE      CODE     ---       #407
      0100070FH   LINE      CODE     ---       #408
      01000711H   LINE      CODE     ---       #409
      01000714H   LINE      CODE     ---       #412
      01000715H   LINE      CODE     ---       #413
      01000716H   LINE      CODE     ---       #414
      01000719H   LINE      CODE     ---       #415
      0100071BH   LINE      CODE     ---       #418
      0100071DH   LINE      CODE     ---       #424
      ---         BLOCKEND  ---      ---       LVL=0

      01000743H   BLOCK     CODE     NEAR LAB  LVL=0
      01000743H   LINE      CODE     ---       #440
      01000746H   LINE      CODE     ---       #441
      01000747H   LINE      CODE     ---       #442
      0100074AH   LINE      CODE     ---       #447
      0100074CH   LINE      CODE     ---       #450
      0100074EH   LINE      CODE     ---       #451
      01000751H   LINE      CODE     ---       #454
      01000753H   LINE      CODE     ---       #457
      01000755H   LINE      CODE     ---       #460
      01000757H   LINE      CODE     ---       #461
      0100075AH   LINE      CODE     ---       #464
      0100075CH   LINE      CODE     ---       #472
      0100075EH   LINE      CODE     ---       #475
      01000760H   LINE      CODE     ---       #476
      01000763H   LINE      CODE     ---       #479
      01000765H   LINE      CODE     ---       #482
      ---         BLOCKEND  ---      ---       LVL=0

      ---         MODULE    ---      ---       ?C_STARTUP
      01000000H   PUBLIC    CODE     ---       ?C_STARTUP

      ---         MODULE    ---      ---       ?C?CLDPTR
      01000056H   PUBLIC    CODE     ---       ?C?CLDPTR

      ---         MODULE    ---      ---       ?C?CLDOPTR
      0100006FH   PUBLIC    CODE     ---       ?C?CLDOPTR

      ---         MODULE    ---      ---       ?C?CSTPTR
      0100009CH   PUBLIC    CODE     ---       ?C?CSTPTR

      ---         MODULE    ---      ---       ?C?UIDIV
LX51 LINKER/LOCATER V4.34a                                                            04/22/2009  16:13:56  PAGE 44


      010000AEH   PUBLIC    CODE     ---       ?C?UIDIV

      ---         MODULE    ---      ---       ?C?LMUL
      01000103H   PUBLIC    CODE     ---       ?C?LMUL

      ---         MODULE    ---      ---       ?C?ULDIV
      0100018EH   PUBLIC    CODE     ---       ?C?ULDIV

      ---         MODULE    ---      ---       ?C?ICASE
      01000220H   PUBLIC    CODE     ---       ?C?ICASE

      ---         MODULE    ---      ---       ?C?ICALL
      0100024DH   PUBLIC    CODE     ---       ?C?ICALL
      01000251H   PUBLIC    CODE     ---       ?C?ICALL2

      ---         MODULE    ---      ---       ?C_IBP
      0000007AH   PUBLIC    DATA     ---       ?C_IBP

      ---         MODULE    ---      ---       ?C_INIT
      010004A2H   PUBLIC    CODE     ---       ?C_START

Program Size: data=138.0 xdata=0 const=0 code=2310
LX51 RUN COMPLETE.  0 WARNING(S),  0 ERROR(S)
