; ./main.src generated from: .\main.c
; COMPILER INVOKED BY:
;        C:\Keil\C51\BIN\C51.exe .\main.c BROWSE DEBUG CODE LISTINCLUDE SYMBOLS PREPRINT ROM(LARGE) INCDIR(../../Include) SRC(./main.src)

$NOMOD51

NAME	MAIN

PWR_UP	BIT	0A0H.7
P0	DATA	080H
P1	DATA	090H
AC	BIT	0D0H.6
T0	BIT	080H.5
SPI_CTRL	DATA	0B3H
T1	BIT	080H.6
EA	BIT	0A8H.7
T2	BIT	090H.0
CE	BIT	0A0H.6
DEV_OFFSET	DATA	0BEH
CLK1	BIT	0A0H.1
DIN0	BIT	090H.2
CLK2	BIT	0A0H.5
DIO0	BIT	090H.0
DPH0	DATA	083H
DIO1	BIT	090H.1
IE	DATA	0A8H
DPH1	DATA	085H
DIO2	BIT	080H.0
DIO3	BIT	080H.1
P0_0	BIT	080H.0
P1_0	BIT	090H.0
DIO4	BIT	080H.2
P0_1	BIT	080H.1
DPL0	DATA	082H
P1_1	BIT	090H.1
DIO5	BIT	080H.3
P0_2	BIT	080H.2
DPL1	DATA	084H
P1_2	BIT	090H.2
DIO6	BIT	080H.4
P0_3	BIT	080H.3
DIO7	BIT	080H.5
P0_4	BIT	080H.4
ADCSTATIC	DATA	0A4H
DIO8	BIT	080H.6
P0_5	BIT	080H.5
EXF2	BIT	0C8H.6
CS	BIT	0A0H.3
DIO9	BIT	080H.7
P0_6	BIT	080H.6
P0_7	BIT	080H.7
ES	BIT	0A8H.4
IP	DATA	0B8H
DATA?	BIT	0A0H.0
RI	BIT	098H.0
CY	BIT	0D0H.7
TI	BIT	098H.1
T1_1V2	DATA	0BCH
SPC_FNC	DATA	08FH
T2_1V2	DATA	0BDH
RCAP2H	DATA	0CBH
PS	BIT	0B8H.4
SP	DATA	081H
OV	BIT	0D0H.2
CK_CTRL	DATA	0B6H
RCAP2L	DATA	0CAH
TICK_DV	DATA	0B5H
RSTREAS	DATA	0B1H
C_T2	BIT	0C8H.1
EWDI	BIT	0E8H.4
ADCCON	DATA	0A1H
RCLK	BIT	0C8H.5
ADCDATAH	DATA	0A2H
EXIF	DATA	091H
TCLK	BIT	0C8H.4
DR2_CE	BIT	0A0H.6
ADCDATAL	DATA	0A3H
SBUF	DATA	099H
PCON	DATA	087H
SCON	DATA	098H
PWDI	BIT	0F8H.4
TMOD	DATA	089H
TCON	DATA	088H
WDTI	BIT	0D8H.3
PWMDUTY	DATA	0AAH
IE0	BIT	088H.1
IE1	BIT	088H.3
P0_DIR	DATA	094H
B	DATA	0F0H
P1_DIR	DATA	096H
P0_ALT	DATA	095H
P1_ALT	DATA	097H
CP_RL2	BIT	0C8H.0
DR1	BIT	0A0H.2
ACC	DATA	0E0H
DR2	BIT	0A0H.6
TEST_MODE	DATA	0B7H
SPICLK	DATA	0B4H
CT2	BIT	0C8H.1
ET0	BIT	0A8H.1
ET1	BIT	0A8H.3
TF0	BIT	088H.5
INT0_N	BIT	080H.3
ET2	BIT	0A8H.5
TF1	BIT	088H.7
INT1_N	BIT	080H.4
TF2	BIT	0C8H.7
RB8	BIT	098H.2
TH0	DATA	08CH
EX0	BIT	0A8H.0
IT0	BIT	088H.0
TH1	DATA	08DH
EX1	BIT	0A8H.2
TB8	BIT	098H.3
IT1	BIT	088H.2
TH2	DATA	0CDH
REGX_CTRL	DATA	0ADH
EX2	BIT	0E8H.0
P	BIT	0D0H.0
EX3	BIT	0E8H.1
SM0	BIT	098H.7
TL0	DATA	08AH
EX4	BIT	0E8H.2
SM1	BIT	098H.6
TL1	DATA	08BH
EX5	BIT	0E8H.3
SM2	BIT	098H.5
TL2	DATA	0CCH
EIE	DATA	0E8H
PT0	BIT	0B8H.1
RS0	BIT	0D0H.3
PT1	BIT	0B8H.3
RS1	BIT	0D0H.4
PT2	BIT	0B8H.5
TR0	BIT	088H.4
PWMCON	DATA	0A9H
TR1	BIT	088H.6
TR2	BIT	0C8H.2
PX0	BIT	0B8H.0
PX1	BIT	0B8H.2
PX2	BIT	0F8H.0
PX3	BIT	0F8H.1
PX4	BIT	0F8H.2
DPH	DATA	083H
PX5	BIT	0F8H.3
EIP	DATA	0F8H
DPL	DATA	082H
EXEN2	BIT	0C8H.3
CPRL2	BIT	0C8H.0
REN	BIT	098H.4
T2CON	DATA	0C8H
DPS	DATA	086H
SPI_DATA	DATA	0B2H
MPAGE	DATA	092H
RXD	BIT	080H.1
DOUT2	BIT	0A0H.4
EICON	DATA	0D8H
CKCON	DATA	08EH
TXD	BIT	080H.2
RADIO	DATA	0A0H
PWM	BIT	080H.7
F0	BIT	0D0H.5
F1	BIT	0D0H.1
REGX_LSB	DATA	0ACH
PSW	DATA	0D0H
REGX_MSB	DATA	0ABH
?PR?_log_2?MAIN      SEGMENT CODE 
?DT?_log_2?MAIN      SEGMENT DATA OVERLAYABLE 
?PR?delta_compress?MAIN                  SEGMENT CODE 
?DT?delta_compress?MAIN                  SEGMENT DATA OVERLAYABLE 
?PR?main?MAIN        SEGMENT CODE 
?DT?main?MAIN        SEGMENT DATA OVERLAYABLE 
?C_INITSEG           SEGMENT CODE 
?DT?MAIN             SEGMENT DATA 
?ID?MAIN             SEGMENT IDATA 
?ID?delta_compress?MAIN                  SEGMENT IDATA OVERLAYABLE 
	EXTRN	CODE (_mdelay)
	EXTRN	CODE (_rf_configure)
	EXTRN	CODE (_adc_read)
	EXTRN	CODE (_adc_init)
	EXTRN	CODE (_log)
	EXTRN	CODE (_rf_send)
	EXTRN	DATA (?_rf_send?BYTE)
	EXTRN	CODE (_store_cpu_rate)
	EXTRN	CODE (rf_init)
	EXTRN	CODE (?C?FCASTI)
	EXTRN	CODE (?C?FPDIV)
	EXTRN	CODE (?C?FPADD)
	EXTRN	CODE (?C?CASTF)
	EXTRN	CODE (?C?LSTIDATA)
	EXTRN	CODE (?C?LLDIDATA)
	EXTRN	CODE (?C_STARTUP)
	PUBLIC	rf_data
	PUBLIC	dst_addr
	PUBLIC	msg
	PUBLIC	cfg
	PUBLIC	main
	PUBLIC	delta_compress
	PUBLIC	_log_2

	RSEG  ?DT?main?MAIN
?main?BYTE:
          i?246:   DS   2
	ORG  2
       accx?247:   DS   2

	RSEG  ?DT?_log_2?MAIN
?_log_2?BYTE:
          x?040:   DS   2

	RSEG  ?DT?delta_compress?MAIN
?delta_compress?BYTE:
          i?141:   DS   2
	ORG  2
          j?142:   DS   2
	ORG  4
        now?144:   DS   2
	ORG  6
       prev?145:   DS   2

	RSEG  ?DT?MAIN
            cfg:   DS   3
       dst_addr:   DS   3
        rf_data:   DS   15

	RSEG  ?ID?MAIN
            msg:   DS   54

	RSEG  ?ID?delta_compress?MAIN
      delta?143:   DS   4

	RSEG  ?C_INITSEG
	DB	00FH
	DB	rf_data
	DB	000H
	DB	0A0H
	DB	000H
	DB	000H
	DB	000H
	DB	000H
	DB	000H
	DB	0F2H
	DB	0F2H
	DB	0F2H
	DB	0F2H
	DB	0F2H
	DB	063H
	DB	06FH
	DB	0ECH

	DB	003H
	DB	cfg
	DB	000H
	DW	rf_data + 0

	DB	003H
	DB	dst_addr
	DB	0F1H
	DB	0F1H
	DB	0F1H

; #include "Eco/reg24e1.h"
; #include "Eco/eco_sys.h"
; #include "utils/utils.h"
; #include "serial/serial.h"
; #include "isr/isr_rf.h"
; #include "eeprom/eeprom.h"
; #include "eco_page.h"
; #include "adc/adc.h"
; #include <math.h>
; 
; #define LEN 27
; struct rf_config rf_data = { {0x00}, /* data2 width */
;     {0xA0}, /* data1 width */ 
;     {0x00, 0x00, 0x00, 0x00, 0x00}, /* addr2 */
;     {0xF2, 0xF2, 0xF2, 0xF2, 0xF2}, /* addr1, host addr */
;     {0x63}, /* 24-bit address, 16-bit CRC */
;     {0x6f, 0xEC} };
; struct rf_config *cfg = &rf_data;
; 
; //struct rf_config *cfg = &rf_data;
; char dst_addr[3] = { 0xF1, 0xF1, 0xF1 };
; char idata msg[54];
; 
; int log_2(int x){

	RSEG  ?PR?_log_2?MAIN
_log_2:
	USING	0
			; SOURCE LINE # 24
	MOV  	x?040,R6
	MOV  	x?040+01H,R7
; 
; 	if( x > 0)
			; SOURCE LINE # 26
	SETB 	C
	MOV  	A,x?040+01H
	SUBB 	A,#00H
	MOV  	A,x?040
	XRL  	A,#080H
	SUBB 	A,#080H
	JC   	?C0001
; 		return ((float)log(x))/(float)(log(2)) + 1;
			; SOURCE LINE # 27
	MOV  	R4,x?040
	MOV  	R5,x?040+01H
	MOV  	A,R4
	LCALL	?C?FCASTI
	LCALL	_log
	PUSH 	AR4
	PUSH 	AR5
	PUSH 	AR6
	PUSH 	AR7
	MOV  	R7,#00H
	MOV  	R6,#00H
	MOV  	R5,#00H
	MOV  	R4,#040H
	LCALL	_log
	MOV  	R0,AR4
	MOV  	R1,AR5
	MOV  	R2,AR6
	MOV  	R3,AR7
	POP  	AR7
	POP  	AR6
	POP  	AR5
	POP  	AR4
	LCALL	?C?FPDIV
	CLR  	A
	MOV  	R3,A
	MOV  	R2,A
	MOV  	R1,#080H
	MOV  	R0,#03FH
	SJMP 	?C0023
?C0001:
; 	else if(x == 0)
			; SOURCE LINE # 28
	MOV  	A,x?040+01H
	ORL  	A,x?040
	JNZ  	?C0004
; 		return 0;
			; SOURCE LINE # 29
	MOV  	R6,A
	MOV  	R7,A
	RET  	
?C0004:
; 	else
; 		return ((float)log(-x))/(float)(log(2)) + 2;
			; SOURCE LINE # 31
	CLR  	C
	CLR  	A
	SUBB 	A,x?040+01H
	MOV  	R5,A
	CLR  	A
	SUBB 	A,x?040
	MOV  	R4,A
	LCALL	?C?FCASTI
	LCALL	_log
	PUSH 	AR4
	PUSH 	AR5
	PUSH 	AR6
	PUSH 	AR7
	MOV  	R7,#00H
	MOV  	R6,#00H
	MOV  	R5,#00H
	MOV  	R4,#040H
	LCALL	_log
	MOV  	R0,AR4
	MOV  	R1,AR5
	MOV  	R2,AR6
	MOV  	R3,AR7
	POP  	AR7
	POP  	AR6
	POP  	AR5
	POP  	AR4
	LCALL	?C?FPDIV
	CLR  	A
	MOV  	R3,A
	MOV  	R2,A
	MOV  	R1,A
	MOV  	R0,#040H
?C0023:
	LCALL	?C?FPADD
	LCALL	?C?CASTF
; }
			; SOURCE LINE # 32
?C0002:
	RET  	
; END OF _log_2

; 
; void delta_compress()

	RSEG  ?PR?delta_compress?MAIN
delta_compress:
	USING	0
			; SOURCE LINE # 34
; {
			; SOURCE LINE # 35
; 	int i,j;
; 	float idata delta;
; 	int now,prev;
; 
; 	now = prev = (int)(msg[0]<<8) + msg[1];
			; SOURCE LINE # 40
	MOV  	R0,#LOW (msg)
	MOV  	A,@R0
	MOV  	R7,A
	RLC  	A
	SUBB 	A,ACC
	MOV  	A,R7
	MOV  	R6,A
	INC  	R0
	MOV  	A,@R0
	MOV  	R5,A
	RLC  	A
	SUBB 	A,ACC
	MOV  	R4,A
	CLR  	A
	ADD  	A,R5
	MOV  	R7,A
	MOV  	A,R6
	ADDC 	A,R4
	MOV  	prev?145,A
	MOV  	prev?145+01H,R7
	MOV  	now?144,A
	MOV  	now?144+01H,R7
; 
; 	for(i=2,j=2;i<LEN*2;i+=2,j++)
			; SOURCE LINE # 42
	MOV  	i?141,#00H
	MOV  	i?141+01H,#02H
	MOV  	j?142,#00H
	MOV  	j?142+01H,#02H
?C0006:
	CLR  	C
	MOV  	A,i?141+01H
	SUBB 	A,#036H
	MOV  	A,i?141
	XRL  	A,#080H
	SUBB 	A,#080H
	JNC  	?C0011
; 	{
			; SOURCE LINE # 43
; 		prev = now;
			; SOURCE LINE # 44
	MOV  	prev?145,now?144
	MOV  	prev?145+01H,now?144+01H
; 		now = (int)(msg[i]<<8) + msg[i+1];
			; SOURCE LINE # 45
	MOV  	R5,i?141+01H
	MOV  	A,#LOW (msg)
	ADD  	A,R5
	MOV  	R0,A
	MOV  	A,@R0
	MOV  	R7,A
	MOV  	A,R7
	MOV  	R6,A
	MOV  	A,#LOW (msg+01H)
	ADD  	A,R5
	MOV  	R0,A
	MOV  	A,@R0
	MOV  	R5,A
	RLC  	A
	SUBB 	A,ACC
	MOV  	R4,A
	CLR  	A
	ADD  	A,R5
	MOV  	now?144+01H,A
	MOV  	A,R6
	ADDC 	A,R4
	MOV  	now?144,A
; 		delta = now - prev;
			; SOURCE LINE # 46
	CLR  	C
	MOV  	A,now?144+01H
	SUBB 	A,prev?145+01H
	MOV  	R5,A
	MOV  	A,now?144
	SUBB 	A,prev?145
	MOV  	R4,A
	LCALL	?C?FCASTI
	MOV  	R0,#LOW (delta?143)
	LCALL	?C?LSTIDATA
; 		/*
; 		   int_print(i);
; 		   puts(":");
; 		   int_print(prev);
; 		   puts(" ");
; 		   int_print(now);
; 		   puts(" ");
; 
; 		   int_print(delta);
; 		   puts("\r\n");
; 		 */
; 
; 		if(log_2(delta)>8)
			; SOURCE LINE # 59
	MOV  	R0,#LOW (delta?143)
	LCALL	?C?LLDIDATA
	LCALL	?C?CASTF
	LCALL	_log_2
	SETB 	C
	MOV  	A,R7
	SUBB 	A,#08H
	MOV  	A,R6
	XRL  	A,#080H
	SUBB 	A,#080H
	JC   	?C0009
; 			msg[j] = now;
			; SOURCE LINE # 60
	MOV  	A,#LOW (msg)
	ADD  	A,j?142+01H
	MOV  	R0,A
	MOV  	@R0,now?144+01H
	SJMP 	?C0008
?C0009:
; 		else
; 			msg[j] = delta;
			; SOURCE LINE # 62
	MOV  	R0,#LOW (delta?143)
	LCALL	?C?LLDIDATA
	LCALL	?C?CASTF
	MOV  	A,#LOW (msg)
	ADD  	A,j?142+01H
	MOV  	R0,A
	MOV  	@R0,AR7
; 	}
			; SOURCE LINE # 63
?C0008:
	MOV  	A,#02H
	ADD  	A,i?141+01H
	MOV  	i?141+01H,A
	CLR  	A
	ADDC 	A,i?141
	MOV  	i?141,A
	INC  	j?142+01H
	MOV  	A,j?142+01H
	JNZ  	?C0021
	INC  	j?142
?C0021:
	LJMP 	?C0006
; }
			; SOURCE LINE # 64
?C0011:
	RET  	
; END OF delta_compress

; 
; 
; int main()

	RSEG  ?PR?main?MAIN
main:
	USING	0
			; SOURCE LINE # 67
; {
			; SOURCE LINE # 68
; 
; 	int i;
; 	int accx;
; 	store_cpu_rate(16);
			; SOURCE LINE # 72
	MOV  	R7,#010H
	MOV  	R6,#00H
	LCALL	_store_cpu_rate
; 	/* init led */
; 	P0_DIR &= ~0x28;
			; SOURCE LINE # 74
	ANL  	P0_DIR,#0D7H
; 	P0_ALT &= ~0x28;
			; SOURCE LINE # 75
	ANL  	P0_ALT,#0D7H
; 
; 	//serial_init(19200);
; 
; 	for (i = 0; i < 6; i++) {
			; SOURCE LINE # 79
	CLR  	A
	MOV  	i?246,A
	MOV  	i?246+01H,A
?C0012:
; 		blink_led();
			; SOURCE LINE # 80
	XRL  	P0,#020H
; 		mdelay(400);
			; SOURCE LINE # 81
	MOV  	R7,#090H
	MOV  	R6,#01H
	LCALL	_mdelay
; 	}
			; SOURCE LINE # 82
	INC  	i?246+01H
	MOV  	A,i?246+01H
	JNZ  	?C0022
	INC  	i?246
?C0022:
	CLR  	C
	SUBB 	A,#06H
	MOV  	A,i?246
	XRL  	A,#080H
	SUBB 	A,#080H
	JC   	?C0012
?C0013:
; 	/* init adc */
; 	adc_init(ADC_CLK_D8, ADC_RES_12, EXTREF);
			; SOURCE LINE # 84
	MOV  	R3,#010H
	MOV  	R5,#03H
	MOV  	R7,#020H
	LCALL	_adc_init
; 
; 	/* rf */
; 	rf_init();
			; SOURCE LINE # 87
	LCALL	rf_init
; 	rf_configure(cfg);
			; SOURCE LINE # 88
	MOV  	R3,cfg
	MOV  	R2,cfg+01H
	MOV  	R1,cfg+02H
	LCALL	_rf_configure
?C0015:
; 
; 
; 	while(1)
			; SOURCE LINE # 91
; 	{
			; SOURCE LINE # 92
; 		for(i=0;i<LEN*2;i+=2){
			; SOURCE LINE # 93
	CLR  	A
	MOV  	i?246,A
	MOV  	i?246+01H,A
?C0017:
	CLR  	C
	MOV  	A,i?246+01H
	SUBB 	A,#036H
	MOV  	A,i?246
	XRL  	A,#080H
	SUBB 	A,#080H
	JNC  	?C0018
; 			accx = adc_read(X_AXIS);
			; SOURCE LINE # 94
	MOV  	R7,#03H
	LCALL	_adc_read
	MOV  	accx?247,R6
	MOV  	accx?247+01H,R7
; 			msg[i] = (accx >> 8);
			; SOURCE LINE # 95
	MOV  	A,accx?247
	MOV  	R7,A
	MOV  	R6,i?246+01H
	MOV  	A,#LOW (msg)
	ADD  	A,R6
	MOV  	R0,A
	MOV  	@R0,AR7
; 			msg[i+1] = accx & 0xff;
			; SOURCE LINE # 96
	MOV  	A,#LOW (msg+01H)
	ADD  	A,R6
	MOV  	R0,A
	MOV  	@R0,accx?247+01H
; 			mdelay(5);
			; SOURCE LINE # 97
	MOV  	R7,#05H
	MOV  	R6,#00H
	LCALL	_mdelay
; 		}
			; SOURCE LINE # 98
	MOV  	A,#02H
	ADD  	A,i?246+01H
	MOV  	i?246+01H,A
	CLR  	A
	ADDC 	A,i?246
	MOV  	i?246,A
	SJMP 	?C0017
?C0018:
; 
; 		delta_compress();
			; SOURCE LINE # 100
	LCALL	delta_compress
; 		rf_send(dst_addr, 3, msg, 20);
			; SOURCE LINE # 101
	MOV  	?_rf_send?BYTE+04H,#00H
	MOV  	?_rf_send?BYTE+05H,#HIGH (msg)
	MOV  	?_rf_send?BYTE+06H,#LOW (msg)
	MOV  	?_rf_send?BYTE+07H,#014H
	MOV  	R3,#00H
	MOV  	R2,#HIGH (dst_addr)
	MOV  	R1,#LOW (dst_addr)
	MOV  	R5,#03H
	LCALL	_rf_send
; 		blink_led();
			; SOURCE LINE # 102
	XRL  	P0,#020H
; 		mdelay(20);
			; SOURCE LINE # 103
	MOV  	R7,#014H
	MOV  	R6,#00H
	LCALL	_mdelay
; 	}
			; SOURCE LINE # 104
	SJMP 	?C0015
; END OF main

	END
