LX51 LINKER/LOCATER V4.34a                                                              04/06/2009  20:32:26  PAGE 1


LX51 LINKER/LOCATER V4.34a, INVOKED BY:
C:\KEIL\C51\BIN\LX51.EXE MAIN.OBJ, ISR_RF.OBJ, ECO_PAGE.OBJ, ADC.OBJ, UTILS.OBJ, SERIAL.OBJ, SPI.OBJ, EEPROM.OBJ, C51S.L
>> IB TO MAIN SEGMENTS (?PR?_RF_SEND?ISR_RF (C:0X1000)) SEGMENTS (?PR?BLINK2?MAIN (C:0X1100)) SEGMENTS (?PR?BLINK4?MAIN 
>> (C:0X1155)) SEGMENTS (?PR?BLINK6?MAIN (C:0X11AA))


CPU MODE:     8051 MODE


INPUT MODULES INCLUDED:
  MAIN.OBJ (MAIN)
         COMMENT TYPE 0: AX51 V3.06a
  ISR_RF.OBJ (ISR_RF)
         COMMENT TYPE 0: AX51 V3.06a
  ECO_PAGE.OBJ (ECO_PAGE)
         COMMENT TYPE 0: AX51 V3.06a
  ADC.OBJ (ADC)
         COMMENT TYPE 0: AX51 V3.06a
  UTILS.OBJ (UTILS)
         COMMENT TYPE 0: AX51 V3.06a
  SERIAL.OBJ (SERIAL)
         COMMENT TYPE 0: AX51 V3.06a
  SPI.OBJ (SPI)
         COMMENT TYPE 0: AX51 V3.06a
  EEPROM.OBJ (EEPROM)
         COMMENT TYPE 0: AX51 V3.06a
  C51S.LIB (?C_STARTUP)
         COMMENT TYPE 1: A51 / ASM51 Assembler
  C51S.LIB (?C?CLDPTR)
         COMMENT TYPE 1: A51 / ASM51 Assembler
  C51S.LIB (?C?CLDOPTR)
         COMMENT TYPE 1: A51 / ASM51 Assembler
  C51S.LIB (?C?CSTPTR)
         COMMENT TYPE 1: A51 / ASM51 Assembler
  C51S.LIB (?C?UIDIV)
         COMMENT TYPE 1: A51 / ASM51 Assembler
  C51S.LIB (?C?LMUL)
         COMMENT TYPE 1: A51 / ASM51 Assembler
  C51S.LIB (?C?ULDIV)
         COMMENT TYPE 1: A51 / ASM51 Assembler
  C51S.LIB (?C?ICASE)
         COMMENT TYPE 1: A51 / ASM51 Assembler
  C51S.LIB (?C?ICALL)
         COMMENT TYPE 1: A51 / ASM51 Assembler
  C51S.LIB (?C_IBP)
         COMMENT TYPE 1: A51 / ASM51 Assembler
  C51S.LIB (?C_INIT)
         COMMENT TYPE 1: A51 / ASM51 Assembler


ACTIVE MEMORY CLASSES OF MODULE:  MAIN (MAIN)

BASE        START       END         USED      MEMORY CLASS
==========================================================
C:000000H   C:000000H   C:00FFFFH   000959H   CODE
I:000000H   I:000000H   I:00007FH   00007EH   DATA
I:000000H   I:000000H   I:0000FFH   00000FH   IDATA


MEMORY MAP OF MODULE:  MAIN (MAIN)


START     STOP      LENGTH    ALIGN  RELOC    MEMORY CLASS   SEGMENT NAME
=========================================================================

* * * * * * * * * * *   D A T A   M E M O R Y   * * * * * * * * * * * * *
LX51 LINKER/LOCATER V4.34a                                                            04/06/2009  20:32:26  PAGE 2


000000H   000007H   000008H   ---    AT..     DATA           "REG BANK 0"
000008H   00001FH   000018H   BYTE   UNIT     DATA           ?DT?ISR_RF
000020H   000034H   000015H   BYTE   UNIT     DATA           ?DT?MAIN
000035H   000045H   000011H   BYTE   UNIT     DATA           ?DT?ECO_PAGE
000046H   00004FH   00000AH   BYTE   UNIT     DATA           ?DT?_RF_SEND?ISR_RF
000050H   000057H   000008H   BYTE   UNIT     DATA           ?DT?_STRNCPY?UTILS
000058H   00005DH   000006H   BYTE   UNIT     DATA           ?DT?ECO_PAGE_MANAGER?ECO_PAGE
00005EH   000062H   000005H   BYTE   UNIT     DATA           ?DT?_RF_CONFIGURE?ISR_RF
000063H   000066H   000004H   BYTE   UNIT     DATA           ?DT?UTILS
000067H   000069H   000003H   BYTE   UNIT     DATA           ?DT?MAIN?MAIN
00006AH   00006CH   000003H   BYTE   UNIT     DATA           ?DT?_PUTS?SERIAL
00006DH   00006FH   000003H   BYTE   UNIT     DATA           ?DT?_EEPROM_WRITE?EEPROM
000070H   000072H   000003H   BYTE   UNIT     DATA           ?DT?_EEPROM_READ?EEPROM
000073H   000074H   000002H   BYTE   UNIT     DATA           ?DT?BLINK2?MAIN
000075H   000076H   000002H   BYTE   UNIT     DATA           ?DT?BLINK4?MAIN
000077H   000078H   000002H   BYTE   UNIT     DATA           ?DT?BLINK6?MAIN
000079H   00007AH   000002H   BYTE   UNIT     DATA           ?DT?RF_CH1_RECV?ISR_RF
00007BH   00007CH   000002H   BYTE   UNIT     DATA           ?DT?_MDELAY?UTILS
00007DH   00007DH   000001H   BYTE   UNIT     DATA           ?C?LIB_DATA
00007EH   000084H   000007H   BYTE   UNIT     IDATA          ?ID?MAIN
000085H   00008BH   000007H   BYTE   UNIT     IDATA          ?ID?ECO_PAGE
00008CH   00008CH   000001H   BYTE   UNIT     IDATA          ?STACK

* * * * * * * * * * *   C O D E   M E M O R Y   * * * * * * * * * * * * *
000000H   000002H   000003H   ---    OFFS..   CODE           ?CO??C_STARTUP?0
000003H   00004FH   00004DH   BYTE   UNIT     CODE           ?PR?P_ADC_READ?ADC
000050H   000052H   000003H   BYTE   UNIT     CODE           ?PR?_PUTC?SERIAL
000053H   000055H   000003H   ---    OFFS..   CODE           ?CO?ISR_RF?11
000056H   000252H   0001FDH   BYTE   UNIT     CODE           ?C?LIB_CODE
000253H   0003DCH   00018AH   BYTE   UNIT     CODE           ?PR?ECO_PAGE_MANAGER?ECO_PAGE
0003DDH   00048BH   0000AFH   BYTE   UNIT     CODE           ?PR?MAIN?MAIN
00048CH   000517H   00008CH   BYTE   UNIT     CODE           ?C_C51STARTUP
000518H   000577H   000060H   BYTE   UNIT     CODE           ?PR?RF_CH1_RECV?ISR_RF
000578H   0005C0H   000049H   BYTE   UNIT     CODE           ?PR?_MDELAY?UTILS
0005C1H   000604H   000044H   BYTE   UNIT     CODE           ?PR?_STRNCPY?UTILS
000605H   000641H   00003DH   BYTE   UNIT     CODE           ?PR?_SETUP_BAUDRATE?SERIAL
000642H   00067CH   00003BH   BYTE   UNIT     CODE           ?PR?_EEPROM_WRITE?EEPROM
00067DH   0006B6H   00003AH   BYTE   UNIT     CODE           ?PR?_?INT_PRINT?SERIAL
0006B7H   0006ECH   000036H   BYTE   UNIT     CODE           ?C_INITSEG
0006EDH   000722H   000036H   BYTE   UNIT     CODE           ?PR?_RF_CONFIGURE?ISR_RF
000723H   000750H   00002EH   BYTE   UNIT     CODE           ?PR?ECO_PAGE_INIT?ECO_PAGE
000751H   00077CH   00002CH   BYTE   UNIT     CODE           ?PR?_EEPROM_READ?EEPROM
00077DH   0007A1H   000025H   BYTE   UNIT     CODE           ?PR?_PUTS?SERIAL
0007A2H   0007C4H   000023H   BYTE   UNIT     CODE           ?PR?FLASH_ERASE_ALL?EEPROM
0007C5H   0007DFH   00001BH   BYTE   UNIT     CODE           ?PR?_ADC_READ?ADC
0007E0H   0007F2H   000013H   BYTE   UNIT     CODE           ?PR?_ADC_INIT?ADC
0007F3H   000804H   000012H   BYTE   UNIT     CODE           ?PR?_WDT_LOAD?UTILS
000805H   000813H   00000FH   BYTE   UNIT     CODE           ?PR?EEPROM_STATUS?EEPROM
000814H   000821H   00000EH   BYTE   UNIT     CODE           ?PR?RF_INIT?ISR_RF
000822H   00082EH   00000DH   BYTE   UNIT     CODE           ?PR?_STORE_CPU_RATE?UTILS
00082FH   00083BH   00000DH   BYTE   UNIT     CODE           ?PR?_SPI_WRITE_THEN_READ?SPI
00083CH   000846H   00000BH   BYTE   UNIT     CODE           ?PR?EEPROM_INIT?EEPROM
000847H   000850H   00000AH   BYTE   UNIT     CODE           ?PR?_SERIAL_INIT?SERIAL
000851H   000859H   000009H   BYTE   UNIT     CODE           ?PR?RF_WAIT_MSG?ISR_RF
00085AH   000861H   000008H   BYTE   UNIT     CODE           ?PR?_SERIAL_WRITE?SERIAL
000862H   000869H   000008H   BYTE   UNIT     CODE           ?PR?SERIAL_READ?SERIAL
00086AH   00086EH   000005H   BYTE   UNIT     CODE           ?PR?_SPI_INIT?SPI
00086FH   000872H   000004H   BYTE   UNIT     CODE           ?PR?GETC?SERIAL
000873H   000FFFH   00078DH   ---    ---      **GAP**
001000H   00106AH   00006BH   BYTE   UNIT     CODE           ?PR?_RF_SEND?ISR_RF
00106BH   0010FFH   000095H   ---    ---      **GAP**
001100H   001128H   000029H   BYTE   UNIT     CODE           ?PR?BLINK2?MAIN
001129H   001154H   00002CH   ---    ---      **GAP**
001155H   00117DH   000029H   BYTE   UNIT     CODE           ?PR?BLINK4?MAIN
00117EH   0011A9H   00002CH   ---    ---      **GAP**
LX51 LINKER/LOCATER V4.34a                                                            04/06/2009  20:32:26  PAGE 3


0011AAH   0011D2H   000029H   BYTE   UNIT     CODE           ?PR?BLINK6?MAIN



PUBLIC SYMBOLS OF MODULE:  MAIN (MAIN)


      VALUE       CLASS    TYPE      PUBLIC SYMBOL NAME
      =================================================
      00000046H   DATA     BYTE      ?_RF_SEND?BYTE
      00000050H   DATA     BYTE      ?_STRNCPY?BYTE
      0100006FH   CODE     ---       ?C?CLDOPTR
      01000056H   CODE     ---       ?C?CLDPTR
      00000000H   NUMBER   ---       ?C?CODESEG
      0100009CH   CODE     ---       ?C?CSTPTR
      0100024DH   CODE     ---       ?C?ICALL
      01000251H   CODE     ---       ?C?ICALL2
      01000220H   CODE     ---       ?C?ICASE
      01000103H   CODE     ---       ?C?LMUL
      010000AEH   CODE     ---       ?C?UIDIV
      0100018EH   CODE     ---       ?C?ULDIV
      00000000H   NUMBER   ---       ?C?XDATASEG
      0000007DH   DATA     ---       ?C_IBP
      010004D3H   CODE     ---       ?C_START
      01000000H   CODE     ---       ?C_STARTUP
      0100067DH   CODE     NEAR LAB  _?INT_PRINT
      010007E0H   CODE     NEAR LAB  _ADC_INIT
      010007C5H   CODE     NEAR LAB  _ADC_READ
      01000751H   CODE     NEAR LAB  _EEPROM_READ
      01000642H   CODE     NEAR LAB  _EEPROM_WRITE
      01000578H   CODE     NEAR LAB  _MDELAY
      01000050H   CODE     NEAR LAB  _PUTC
      0100077DH   CODE     NEAR LAB  _PUTS
      010006EDH   CODE     NEAR LAB  _RF_CONFIGURE
      01001000H   CODE     NEAR LAB  _RF_SEND
      01000847H   CODE     NEAR LAB  _SERIAL_INIT
      0100086AH   CODE     NEAR LAB  _SPI_INIT
      0100082FH   CODE     NEAR LAB  _SPI_WRITE_THEN_READ
      01000822H   CODE     NEAR LAB  _STORE_CPU_RATE
      010005C1H   CODE     NEAR LAB  _STRNCPY
      010007F3H   CODE     NEAR LAB  _WDT_LOAD
*SFR* 000000D0H.6 DATA     BIT       AC
*SFR* 000000E0H   DATA     BYTE      ACC
*SFR* 000000A1H   DATA     BYTE      ADCCON
*SFR* 000000A2H   DATA     BYTE      ADCDATAH
*SFR* 000000A3H   DATA     BYTE      ADCDATAL
*SFR* 000000A4H   DATA     BYTE      ADCSTATIC
*SFR* 000000F0H   DATA     BYTE      B
      01001100H   CODE     NEAR LAB  BLINK2
      01001155H   CODE     NEAR LAB  BLINK4
      010011AAH   CODE     NEAR LAB  BLINK6
*SFR* 000000C8H.1 DATA     BIT       C_T2
*SFR* 000000A0H.6 DATA     BIT       CE
      00000020H   DATA     BYTE      CFG
*SFR* 000000B6H   DATA     BYTE      CK_CTRL
*SFR* 0000008EH   DATA     BYTE      CKCON
*SFR* 000000A0H.1 DATA     BIT       CLK1
*SFR* 000000A0H.5 DATA     BIT       CLK2
*SFR* 000000C8H   DATA     BIT       CP_RL2
*SFR* 000000C8H   DATA     BIT       CPRL2
*SFR* 000000A0H.3 DATA     BIT       CS
*SFR* 000000C8H.1 DATA     BIT       CT2
*SFR* 000000D0H.7 DATA     BIT       CY
*SFR* 000000A0H   DATA     BIT       DATA?
*SFR* 000000BEH   DATA     BYTE      DEV_OFFSET
LX51 LINKER/LOCATER V4.34a                                                            04/06/2009  20:32:26  PAGE 4


*SFR* 00000090H.2 DATA     BIT       DIN0
*SFR* 00000090H   DATA     BIT       DIO0
*SFR* 00000090H.1 DATA     BIT       DIO1
*SFR* 00000080H   DATA     BIT       DIO2
*SFR* 00000080H.1 DATA     BIT       DIO3
*SFR* 00000080H.2 DATA     BIT       DIO4
*SFR* 00000080H.3 DATA     BIT       DIO5
*SFR* 00000080H.4 DATA     BIT       DIO6
*SFR* 00000080H.5 DATA     BIT       DIO7
*SFR* 00000080H.6 DATA     BIT       DIO8
*SFR* 00000080H.7 DATA     BIT       DIO9
*SFR* 000000A0H.4 DATA     BIT       DOUT2
*SFR* 00000083H   DATA     BYTE      DPH
*SFR* 00000083H   DATA     BYTE      DPH0
*SFR* 00000085H   DATA     BYTE      DPH1
*SFR* 00000082H   DATA     BYTE      DPL
*SFR* 00000082H   DATA     BYTE      DPL0
*SFR* 00000084H   DATA     BYTE      DPL1
*SFR* 00000086H   DATA     BYTE      DPS
*SFR* 000000A0H.2 DATA     BIT       DR1
*SFR* 000000A0H.6 DATA     BIT       DR2
*SFR* 000000A0H.6 DATA     BIT       DR2_CE
      00000023H   DATA     BYTE      DST_ADDR
*SFR* 000000A8H.7 DATA     BIT       EA
      00000042H   DATA     BYTE      ECO_PAGE_ADDR
      01000723H   CODE     NEAR LAB  ECO_PAGE_INIT
      01000253H   CODE     NEAR LAB  ECO_PAGE_MANAGER
      0000003FH   DATA     BYTE      ECO_PAGE_PREV_PID
      00000041H   DATA     BYTE      ECO_PAGE_PREV_VID
      00000085H   IDATA    BYTE      ECO_PAGE_REGISTER1
      00000086H   IDATA    BYTE      ECO_PAGE_REGISTER2
      00000087H   IDATA    BYTE      ECO_PAGE_REGISTER3
      00000088H   IDATA    BYTE      ECO_PAGE_REGISTER4
      00000089H   IDATA    BYTE      ECO_PAGE_REGISTER5
      0000008AH   IDATA    BYTE      ECO_PAGE_REGISTER6
      0000008BH   IDATA    BYTE      ECO_PAGE_REGISTER7
      00000040H   DATA     BYTE      ECO_PAGE_SPI_CONN
      00000035H   DATA     BYTE      ECO_PAGE_TABLE
      00000044H   DATA     BYTE      ECO_PAGE_TABLE_INDEX
      0100083CH   CODE     NEAR LAB  EEPROM_INIT
      01000805H   CODE     NEAR LAB  EEPROM_STATUS
*SFR* 000000D8H   DATA     BYTE      EICON
*SFR* 000000E8H   DATA     BYTE      EIE
*SFR* 000000F8H   DATA     BYTE      EIP
*SFR* 000000A8H.4 DATA     BIT       ES
*SFR* 000000A8H.1 DATA     BIT       ET0
*SFR* 000000A8H.3 DATA     BIT       ET1
*SFR* 000000A8H.5 DATA     BIT       ET2
*SFR* 000000E8H.4 DATA     BIT       EWDI
*SFR* 000000A8H   DATA     BIT       EX0
*SFR* 000000A8H.2 DATA     BIT       EX1
*SFR* 000000E8H   DATA     BIT       EX2
*SFR* 000000E8H.1 DATA     BIT       EX3
*SFR* 000000E8H.2 DATA     BIT       EX4
*SFR* 000000E8H.3 DATA     BIT       EX5
*SFR* 000000C8H.3 DATA     BIT       EXEN2
*SFR* 000000C8H.6 DATA     BIT       EXF2
*SFR* 00000091H   DATA     BYTE      EXIF
*SFR* 000000D0H.5 DATA     BIT       F0
*SFR* 000000D0H.1 DATA     BIT       F1
      010007A2H   CODE     NEAR LAB  FLASH_ERASE_ALL
      0100086FH   CODE     NEAR LAB  GETC
*SFR* 000000A8H   DATA     BYTE      IE
*SFR* 00000088H.1 DATA     BIT       IE0
*SFR* 00000088H.3 DATA     BIT       IE1
LX51 LINKER/LOCATER V4.34a                                                            04/06/2009  20:32:26  PAGE 5


*SFR* 00000080H.3 DATA     BIT       INT0_N
*SFR* 00000080H.4 DATA     BIT       INT1_N
*SFR* 000000B8H   DATA     BYTE      IP
*SFR* 00000088H   DATA     BIT       IT0
*SFR* 00000088H.2 DATA     BIT       IT1
      010003DDH   CODE     NEAR LAB  MAIN
      00000063H   DATA     BYTE      MHZ
*SFR* 00000092H   DATA     BYTE      MPAGE
      0000007EH   IDATA    BYTE      MSG
*SFR* 000000D0H.2 DATA     BIT       OV
*SFR* 000000D0H   DATA     BIT       P
*SFR* 00000080H   DATA     BYTE      P0
*SFR* 00000080H   DATA     BIT       P0_0
*SFR* 00000080H.1 DATA     BIT       P0_1
*SFR* 00000080H.2 DATA     BIT       P0_2
*SFR* 00000080H.3 DATA     BIT       P0_3
*SFR* 00000080H.4 DATA     BIT       P0_4
*SFR* 00000080H.5 DATA     BIT       P0_5
*SFR* 00000080H.6 DATA     BIT       P0_6
*SFR* 00000080H.7 DATA     BIT       P0_7
*SFR* 00000095H   DATA     BYTE      P0_ALT
*SFR* 00000094H   DATA     BYTE      P0_DIR
*SFR* 00000090H   DATA     BYTE      P1
*SFR* 00000090H   DATA     BIT       P1_0
*SFR* 00000090H.1 DATA     BIT       P1_1
*SFR* 00000090H.2 DATA     BIT       P1_2
*SFR* 00000097H   DATA     BYTE      P1_ALT
*SFR* 00000096H   DATA     BYTE      P1_DIR
*SFR* 00000087H   DATA     BYTE      PCON
*SFR* 000000B8H.4 DATA     BIT       PS
*SFR* 000000D0H   DATA     BYTE      PSW
*SFR* 000000B8H.1 DATA     BIT       PT0
*SFR* 000000B8H.3 DATA     BIT       PT1
*SFR* 000000B8H.5 DATA     BIT       PT2
*SFR* 000000F8H.4 DATA     BIT       PWDI
*SFR* 00000080H.7 DATA     BIT       PWM
*SFR* 000000A9H   DATA     BYTE      PWMCON
*SFR* 000000AAH   DATA     BYTE      PWMDUTY
*SFR* 000000A0H.7 DATA     BIT       PWR_UP
*SFR* 000000B8H   DATA     BIT       PX0
*SFR* 000000B8H.2 DATA     BIT       PX1
*SFR* 000000F8H   DATA     BIT       PX2
*SFR* 000000F8H.1 DATA     BIT       PX3
*SFR* 000000F8H.2 DATA     BIT       PX4
*SFR* 000000F8H.3 DATA     BIT       PX5
*SFR* 000000A0H   DATA     BYTE      RADIO
*SFR* 00000098H.2 DATA     BIT       RB8
*SFR* 000000CBH   DATA     BYTE      RCAP2H
*SFR* 000000CAH   DATA     BYTE      RCAP2L
*SFR* 000000C8H.5 DATA     BIT       RCLK
*SFR* 000000ADH   DATA     BYTE      REGX_CTRL
*SFR* 000000ACH   DATA     BYTE      REGX_LSB
*SFR* 000000ABH   DATA     BYTE      REGX_MSB
*SFR* 00000098H.4 DATA     BIT       REN
      00000008H   DATA     BYTE      RF_BUF
      01000518H   CODE     NEAR LAB  RF_CH1_RECV
      00000026H   DATA     BYTE      RF_DATA
      01000814H   CODE     NEAR LAB  RF_INIT
      01000851H   CODE     NEAR LAB  RF_WAIT_MSG
*SFR* 00000098H   DATA     BIT       RI
*SFR* 000000D0H.3 DATA     BIT       RS0
*SFR* 000000D0H.4 DATA     BIT       RS1
*SFR* 000000B1H   DATA     BYTE      RSTREAS
*SFR* 00000080H.1 DATA     BIT       RXD
*SFR* 00000099H   DATA     BYTE      SBUF
LX51 LINKER/LOCATER V4.34a                                                            04/06/2009  20:32:26  PAGE 6


*SFR* 00000098H   DATA     BYTE      SCON
*SFR* 00000098H.7 DATA     BIT       SM0
*SFR* 00000098H.6 DATA     BIT       SM1
*SFR* 00000098H.5 DATA     BIT       SM2
*SFR* 00000081H   DATA     BYTE      SP
*SFR* 0000008FH   DATA     BYTE      SPC_FNC
*SFR* 000000B3H   DATA     BYTE      SPI_CTRL
*SFR* 000000B2H   DATA     BYTE      SPI_DATA
*SFR* 000000B4H   DATA     BYTE      SPICLK
*SFR* 00000080H.5 DATA     BIT       T0
*SFR* 00000080H.6 DATA     BIT       T1
*SFR* 000000BCH   DATA     BYTE      T1_1V2
*SFR* 00000090H   DATA     BIT       T2
*SFR* 000000BDH   DATA     BYTE      T2_1V2
*SFR* 000000C8H   DATA     BYTE      T2CON
*SFR* 00000098H.3 DATA     BIT       TB8
*SFR* 000000C8H.4 DATA     BIT       TCLK
*SFR* 00000088H   DATA     BYTE      TCON
*SFR* 000000B7H   DATA     BYTE      TEST_MODE
*SFR* 00000088H.5 DATA     BIT       TF0
*SFR* 00000088H.7 DATA     BIT       TF1
*SFR* 000000C8H.7 DATA     BIT       TF2
*SFR* 0000008CH   DATA     BYTE      TH0
*SFR* 0000008DH   DATA     BYTE      TH1
*SFR* 000000CDH   DATA     BYTE      TH2
*SFR* 00000098H.1 DATA     BIT       TI
*SFR* 000000B5H   DATA     BYTE      TICK_DV
*SFR* 0000008AH   DATA     BYTE      TL0
*SFR* 0000008BH   DATA     BYTE      TL1
*SFR* 000000CCH   DATA     BYTE      TL2
*SFR* 00000089H   DATA     BYTE      TMOD
*SFR* 00000088H.4 DATA     BIT       TR0
*SFR* 00000088H.6 DATA     BIT       TR1
*SFR* 000000C8H.2 DATA     BIT       TR2
*SFR* 00000080H.2 DATA     BIT       TXD
*SFR* 000000D8H.3 DATA     BIT       WDTI



SYMBOL TABLE OF MODULE:  MAIN (MAIN)

      VALUE       REP       CLASS    TYPE      SYMBOL NAME
      ====================================================
      ---         MODULE    ---      ---       MAIN
      01001100H   PUBLIC    CODE     NEAR LAB  BLINK2
      01001155H   PUBLIC    CODE     NEAR LAB  BLINK4
      010011AAH   PUBLIC    CODE     NEAR LAB  BLINK6
      00000020H   PUBLIC    DATA     BYTE      CFG
      00000023H   PUBLIC    DATA     BYTE      DST_ADDR
      010003DDH   PUBLIC    CODE     NEAR LAB  MAIN
      0000007EH   PUBLIC    IDATA    BYTE      MSG
      00000026H   PUBLIC    DATA     BYTE      RF_DATA
      000000D0H.6 SFRSYM    DATA     BIT       AC
      000000E0H   SFRSYM    DATA     BYTE      ACC
      000000A1H   SFRSYM    DATA     BYTE      ADCCON
      000000A2H   SFRSYM    DATA     BYTE      ADCDATAH
      000000A3H   SFRSYM    DATA     BYTE      ADCDATAL
      000000A4H   SFRSYM    DATA     BYTE      ADCSTATIC
      000000F0H   SFRSYM    DATA     BYTE      B
      000000C8H.1 SFRSYM    DATA     BIT       C_T2
      000000A0H.6 SFRSYM    DATA     BIT       CE
      000000B6H   SFRSYM    DATA     BYTE      CK_CTRL
      0000008EH   SFRSYM    DATA     BYTE      CKCON
      000000A0H.1 SFRSYM    DATA     BIT       CLK1
      000000A0H.5 SFRSYM    DATA     BIT       CLK2
LX51 LINKER/LOCATER V4.34a                                                            04/06/2009  20:32:26  PAGE 7


      000000C8H   SFRSYM    DATA     BIT       CP_RL2
      000000C8H   SFRSYM    DATA     BIT       CPRL2
      000000A0H.3 SFRSYM    DATA     BIT       CS
      000000C8H.1 SFRSYM    DATA     BIT       CT2
      000000D0H.7 SFRSYM    DATA     BIT       CY
      000000A0H   SFRSYM    DATA     BIT       DATA?
      000000BEH   SFRSYM    DATA     BYTE      DEV_OFFSET
      00000090H.2 SFRSYM    DATA     BIT       DIN0
      00000090H   SFRSYM    DATA     BIT       DIO0
      00000090H.1 SFRSYM    DATA     BIT       DIO1
      00000080H   SFRSYM    DATA     BIT       DIO2
      00000080H.1 SFRSYM    DATA     BIT       DIO3
      00000080H.2 SFRSYM    DATA     BIT       DIO4
      00000080H.3 SFRSYM    DATA     BIT       DIO5
      00000080H.4 SFRSYM    DATA     BIT       DIO6
      00000080H.5 SFRSYM    DATA     BIT       DIO7
      00000080H.6 SFRSYM    DATA     BIT       DIO8
      00000080H.7 SFRSYM    DATA     BIT       DIO9
      000000A0H.4 SFRSYM    DATA     BIT       DOUT2
      00000083H   SFRSYM    DATA     BYTE      DPH
      00000083H   SFRSYM    DATA     BYTE      DPH0
      00000085H   SFRSYM    DATA     BYTE      DPH1
      00000082H   SFRSYM    DATA     BYTE      DPL
      00000082H   SFRSYM    DATA     BYTE      DPL0
      00000084H   SFRSYM    DATA     BYTE      DPL1
      00000086H   SFRSYM    DATA     BYTE      DPS
      000000A0H.2 SFRSYM    DATA     BIT       DR1
      000000A0H.6 SFRSYM    DATA     BIT       DR2
      000000A0H.6 SFRSYM    DATA     BIT       DR2_CE
      000000A8H.7 SFRSYM    DATA     BIT       EA
      000000D8H   SFRSYM    DATA     BYTE      EICON
      000000E8H   SFRSYM    DATA     BYTE      EIE
      000000F8H   SFRSYM    DATA     BYTE      EIP
      000000A8H.4 SFRSYM    DATA     BIT       ES
      000000A8H.1 SFRSYM    DATA     BIT       ET0
      000000A8H.3 SFRSYM    DATA     BIT       ET1
      000000A8H.5 SFRSYM    DATA     BIT       ET2
      000000E8H.4 SFRSYM    DATA     BIT       EWDI
      000000A8H   SFRSYM    DATA     BIT       EX0
      000000A8H.2 SFRSYM    DATA     BIT       EX1
      000000E8H   SFRSYM    DATA     BIT       EX2
      000000E8H.1 SFRSYM    DATA     BIT       EX3
      000000E8H.2 SFRSYM    DATA     BIT       EX4
      000000E8H.3 SFRSYM    DATA     BIT       EX5
      000000C8H.3 SFRSYM    DATA     BIT       EXEN2
      000000C8H.6 SFRSYM    DATA     BIT       EXF2
      00000091H   SFRSYM    DATA     BYTE      EXIF
      000000D0H.5 SFRSYM    DATA     BIT       F0
      000000D0H.1 SFRSYM    DATA     BIT       F1
      000000A8H   SFRSYM    DATA     BYTE      IE
      00000088H.1 SFRSYM    DATA     BIT       IE0
      00000088H.3 SFRSYM    DATA     BIT       IE1
      00000080H.3 SFRSYM    DATA     BIT       INT0_N
      00000080H.4 SFRSYM    DATA     BIT       INT1_N
      000000B8H   SFRSYM    DATA     BYTE      IP
      00000088H   SFRSYM    DATA     BIT       IT0
      00000088H.2 SFRSYM    DATA     BIT       IT1
      00000092H   SFRSYM    DATA     BYTE      MPAGE
      000000D0H.2 SFRSYM    DATA     BIT       OV
      000000D0H   SFRSYM    DATA     BIT       P
      00000080H   SFRSYM    DATA     BYTE      P0
      00000080H   SFRSYM    DATA     BIT       P0_0
      00000080H.1 SFRSYM    DATA     BIT       P0_1
      00000080H.2 SFRSYM    DATA     BIT       P0_2
      00000080H.3 SFRSYM    DATA     BIT       P0_3
LX51 LINKER/LOCATER V4.34a                                                            04/06/2009  20:32:26  PAGE 8


      00000080H.4 SFRSYM    DATA     BIT       P0_4
      00000080H.5 SFRSYM    DATA     BIT       P0_5
      00000080H.6 SFRSYM    DATA     BIT       P0_6
      00000080H.7 SFRSYM    DATA     BIT       P0_7
      00000095H   SFRSYM    DATA     BYTE      P0_ALT
      00000094H   SFRSYM    DATA     BYTE      P0_DIR
      00000090H   SFRSYM    DATA     BYTE      P1
      00000090H   SFRSYM    DATA     BIT       P1_0
      00000090H.1 SFRSYM    DATA     BIT       P1_1
      00000090H.2 SFRSYM    DATA     BIT       P1_2
      00000097H   SFRSYM    DATA     BYTE      P1_ALT
      00000096H   SFRSYM    DATA     BYTE      P1_DIR
      00000087H   SFRSYM    DATA     BYTE      PCON
      000000B8H.4 SFRSYM    DATA     BIT       PS
      000000D0H   SFRSYM    DATA     BYTE      PSW
      000000B8H.1 SFRSYM    DATA     BIT       PT0
      000000B8H.3 SFRSYM    DATA     BIT       PT1
      000000B8H.5 SFRSYM    DATA     BIT       PT2
      000000F8H.4 SFRSYM    DATA     BIT       PWDI
      00000080H.7 SFRSYM    DATA     BIT       PWM
      000000A9H   SFRSYM    DATA     BYTE      PWMCON
      000000AAH   SFRSYM    DATA     BYTE      PWMDUTY
      000000A0H.7 SFRSYM    DATA     BIT       PWR_UP
      000000B8H   SFRSYM    DATA     BIT       PX0
      000000B8H.2 SFRSYM    DATA     BIT       PX1
      000000F8H   SFRSYM    DATA     BIT       PX2
      000000F8H.1 SFRSYM    DATA     BIT       PX3
      000000F8H.2 SFRSYM    DATA     BIT       PX4
      000000F8H.3 SFRSYM    DATA     BIT       PX5
      000000A0H   SFRSYM    DATA     BYTE      RADIO
      00000098H.2 SFRSYM    DATA     BIT       RB8
      000000CBH   SFRSYM    DATA     BYTE      RCAP2H
      000000CAH   SFRSYM    DATA     BYTE      RCAP2L
      000000C8H.5 SFRSYM    DATA     BIT       RCLK
      000000ADH   SFRSYM    DATA     BYTE      REGX_CTRL
      000000ACH   SFRSYM    DATA     BYTE      REGX_LSB
      000000ABH   SFRSYM    DATA     BYTE      REGX_MSB
      00000098H.4 SFRSYM    DATA     BIT       REN
      00000098H   SFRSYM    DATA     BIT       RI
      000000D0H.3 SFRSYM    DATA     BIT       RS0
      000000D0H.4 SFRSYM    DATA     BIT       RS1
      000000B1H   SFRSYM    DATA     BYTE      RSTREAS
      00000080H.1 SFRSYM    DATA     BIT       RXD
      00000099H   SFRSYM    DATA     BYTE      SBUF
      00000098H   SFRSYM    DATA     BYTE      SCON
      00000098H.7 SFRSYM    DATA     BIT       SM0
      00000098H.6 SFRSYM    DATA     BIT       SM1
      00000098H.5 SFRSYM    DATA     BIT       SM2
      00000081H   SFRSYM    DATA     BYTE      SP
      0000008FH   SFRSYM    DATA     BYTE      SPC_FNC
      000000B3H   SFRSYM    DATA     BYTE      SPI_CTRL
      000000B2H   SFRSYM    DATA     BYTE      SPI_DATA
      000000B4H   SFRSYM    DATA     BYTE      SPICLK
      00000080H.5 SFRSYM    DATA     BIT       T0
      00000080H.6 SFRSYM    DATA     BIT       T1
      000000BCH   SFRSYM    DATA     BYTE      T1_1V2
      00000090H   SFRSYM    DATA     BIT       T2
      000000BDH   SFRSYM    DATA     BYTE      T2_1V2
      000000C8H   SFRSYM    DATA     BYTE      T2CON
      00000098H.3 SFRSYM    DATA     BIT       TB8
      000000C8H.4 SFRSYM    DATA     BIT       TCLK
      00000088H   SFRSYM    DATA     BYTE      TCON
      000000B7H   SFRSYM    DATA     BYTE      TEST_MODE
      00000088H.5 SFRSYM    DATA     BIT       TF0
      00000088H.7 SFRSYM    DATA     BIT       TF1
LX51 LINKER/LOCATER V4.34a                                                            04/06/2009  20:32:26  PAGE 9


      000000C8H.7 SFRSYM    DATA     BIT       TF2
      0000008CH   SFRSYM    DATA     BYTE      TH0
      0000008DH   SFRSYM    DATA     BYTE      TH1
      000000CDH   SFRSYM    DATA     BYTE      TH2
      00000098H.1 SFRSYM    DATA     BIT       TI
      000000B5H   SFRSYM    DATA     BYTE      TICK_DV
      0000008AH   SFRSYM    DATA     BYTE      TL0
      0000008BH   SFRSYM    DATA     BYTE      TL1
      000000CCH   SFRSYM    DATA     BYTE      TL2
      00000089H   SFRSYM    DATA     BYTE      TMOD
      00000088H.4 SFRSYM    DATA     BIT       TR0
      00000088H.6 SFRSYM    DATA     BIT       TR1
      000000C8H.2 SFRSYM    DATA     BIT       TR2
      00000080H.2 SFRSYM    DATA     BIT       TXD
      000000D8H.3 SFRSYM    DATA     BIT       WDTI
      00000073H   SYMBOL    DATA     BYTE      ?BLINK2?BYTE
      00000075H   SYMBOL    DATA     BYTE      ?BLINK4?BYTE
      00000077H   SYMBOL    DATA     BYTE      ?BLINK6?BYTE
      01001105H   SYMBOL    CODE     NEAR LAB  ?C0001
      01001122H   SYMBOL    CODE     NEAR LAB  ?C0002
      0100115AH   SYMBOL    CODE     NEAR LAB  ?C0005
      01001177H   SYMBOL    CODE     NEAR LAB  ?C0006
      010011AFH   SYMBOL    CODE     NEAR LAB  ?C0009
      010011CCH   SYMBOL    CODE     NEAR LAB  ?C0010
      0100041DH   SYMBOL    CODE     NEAR LAB  ?C0013
      01000430H   SYMBOL    CODE     NEAR LAB  ?C0014
      01000437H   SYMBOL    CODE     NEAR LAB  ?C0016
      01001117H   SYMBOL    CODE     NEAR LAB  ?C0019
      0100116CH   SYMBOL    CODE     NEAR LAB  ?C0020
      010011C1H   SYMBOL    CODE     NEAR LAB  ?C0021
      00000067H   SYMBOL    DATA     BYTE      ?MAIN?BYTE
      00000073H   SYMBOL    DATA     BYTE      I?040
      00000075H   SYMBOL    DATA     BYTE      I?141
      00000077H   SYMBOL    DATA     BYTE      I?242
      00000068H   SYMBOL    DATA     BYTE      I?344
      00000067H   SYMBOL    DATA     BYTE      IDX?343

      01001100H   BLOCK     CODE     NEAR LAB  LVL=0
      01001100H   LINE      CODE     ---       #372
      01001101H   LINE      CODE     ---       #373
      01001103H   LINE      CODE     ---       #374
      01001105H   LINE      CODE     ---       #380
      01001108H   LINE      CODE     ---       #383
      0100110AH   LINE      CODE     ---       #384
      0100110CH   LINE      CODE     ---       #385
      0100110FH   LINE      CODE     ---       #388
      01001111H   LINE      CODE     ---       #389
      01001113H   LINE      CODE     ---       #390
      01001115H   LINE      CODE     ---       #391
      01001117H   LINE      CODE     ---       #393
      01001118H   LINE      CODE     ---       #394
      0100111AH   LINE      CODE     ---       #395
      0100111CH   LINE      CODE     ---       #396
      0100111EH   LINE      CODE     ---       #397
      01001120H   LINE      CODE     ---       #398
      01001122H   LINE      CODE     ---       #402
      01001124H   LINE      CODE     ---       #403
      01001126H   LINE      CODE     ---       #404
      ---         BLOCKEND  ---      ---       LVL=0

      01001155H   BLOCK     CODE     NEAR LAB  LVL=0
      01001155H   LINE      CODE     ---       #419
      01001156H   LINE      CODE     ---       #420
      01001158H   LINE      CODE     ---       #421
      0100115AH   LINE      CODE     ---       #427
LX51 LINKER/LOCATER V4.34a                                                            04/06/2009  20:32:26  PAGE 10


      0100115DH   LINE      CODE     ---       #430
      0100115FH   LINE      CODE     ---       #431
      01001161H   LINE      CODE     ---       #432
      01001164H   LINE      CODE     ---       #435
      01001166H   LINE      CODE     ---       #436
      01001168H   LINE      CODE     ---       #437
      0100116AH   LINE      CODE     ---       #438
      0100116CH   LINE      CODE     ---       #440
      0100116DH   LINE      CODE     ---       #441
      0100116FH   LINE      CODE     ---       #442
      01001171H   LINE      CODE     ---       #443
      01001173H   LINE      CODE     ---       #444
      01001175H   LINE      CODE     ---       #445
      01001177H   LINE      CODE     ---       #449
      01001179H   LINE      CODE     ---       #450
      0100117BH   LINE      CODE     ---       #451
      ---         BLOCKEND  ---      ---       LVL=0

      010011AAH   BLOCK     CODE     NEAR LAB  LVL=0
      010011AAH   LINE      CODE     ---       #466
      010011ABH   LINE      CODE     ---       #467
      010011ADH   LINE      CODE     ---       #468
      010011AFH   LINE      CODE     ---       #474
      010011B2H   LINE      CODE     ---       #477
      010011B4H   LINE      CODE     ---       #478
      010011B6H   LINE      CODE     ---       #479
      010011B9H   LINE      CODE     ---       #482
      010011BBH   LINE      CODE     ---       #483
      010011BDH   LINE      CODE     ---       #484
      010011BFH   LINE      CODE     ---       #485
      010011C1H   LINE      CODE     ---       #487
      010011C2H   LINE      CODE     ---       #488
      010011C4H   LINE      CODE     ---       #489
      010011C6H   LINE      CODE     ---       #490
      010011C8H   LINE      CODE     ---       #491
      010011CAH   LINE      CODE     ---       #492
      010011CCH   LINE      CODE     ---       #496
      010011CEH   LINE      CODE     ---       #497
      010011D0H   LINE      CODE     ---       #498
      ---         BLOCKEND  ---      ---       LVL=0

      010003DDH   BLOCK     CODE     NEAR LAB  LVL=0
      010003DDH   LINE      CODE     ---       #514
      010003DEH   LINE      CODE     ---       #515
      010003E0H   LINE      CODE     ---       #516
      010003E2H   LINE      CODE     ---       #519
      010003E4H   LINE      CODE     ---       #520
      010003E5H   LINE      CODE     ---       #521
      010003E8H   LINE      CODE     ---       #524
      010003EBH   LINE      CODE     ---       #527
      010003EEH   LINE      CODE     ---       #530
      010003F1H   LINE      CODE     ---       #533
      010003F3H   LINE      CODE     ---       #534
      010003F5H   LINE      CODE     ---       #535
      010003F7H   LINE      CODE     ---       #536
      010003FAH   LINE      CODE     ---       #539
      010003FCH   LINE      CODE     ---       #540
      010003FEH   LINE      CODE     ---       #541
      01000401H   LINE      CODE     ---       #544
      01000404H   LINE      CODE     ---       #550
      01000406H   LINE      CODE     ---       #551
      01000408H   LINE      CODE     ---       #554
      01000409H   LINE      CODE     ---       #555
      0100040AH   LINE      CODE     ---       #556
      0100040BH   LINE      CODE     ---       #560
LX51 LINKER/LOCATER V4.34a                                                            04/06/2009  20:32:26  PAGE 11


      0100040CH   LINE      CODE     ---       #561
      0100040EH   LINE      CODE     ---       #564
      0100040FH   LINE      CODE     ---       #565
      01000411H   LINE      CODE     ---       #569
      01000412H   LINE      CODE     ---       #570
      01000414H   LINE      CODE     ---       #573
      01000415H   LINE      CODE     ---       #574
      01000417H   LINE      CODE     ---       #577
      01000418H   LINE      CODE     ---       #578
      0100041AH   LINE      CODE     ---       #582
      0100041DH   LINE      CODE     ---       #588
      01000420H   LINE      CODE     ---       #591
      01000422H   LINE      CODE     ---       #592
      01000424H   LINE      CODE     ---       #593
      01000427H   LINE      CODE     ---       #596
      01000429H   LINE      CODE     ---       #597
      0100042BH   LINE      CODE     ---       #598
      0100042CH   LINE      CODE     ---       #599
      0100042EH   LINE      CODE     ---       #600
      01000430H   LINE      CODE     ---       #605
      01000432H   LINE      CODE     ---       #606
      01000434H   LINE      CODE     ---       #607
      01000437H   LINE      CODE     ---       #615
      0100043AH   LINE      CODE     ---       #616
      0100043DH   LINE      CODE     ---       #617
      01000440H   LINE      CODE     ---       #618
      01000443H   LINE      CODE     ---       #623
      01000446H   LINE      CODE     ---       #625
      01000449H   LINE      CODE     ---       #627
      0100044CH   LINE      CODE     ---       #629
      0100044FH   LINE      CODE     ---       #634
      01000451H   LINE      CODE     ---       #635
      01000453H   LINE      CODE     ---       #640
      01000455H   LINE      CODE     ---       #641
      01000457H   LINE      CODE     ---       #646
      01000459H   LINE      CODE     ---       #647
      0100045BH   LINE      CODE     ---       #652
      0100045DH   LINE      CODE     ---       #653
      0100045FH   LINE      CODE     ---       #656
      01000462H   LINE      CODE     ---       #657
      01000465H   LINE      CODE     ---       #658
      01000468H   LINE      CODE     ---       #659
      0100046BH   LINE      CODE     ---       #662
      0100046EH   LINE      CODE     ---       #663
      01000471H   LINE      CODE     ---       #664
      01000474H   LINE      CODE     ---       #665
      01000477H   LINE      CODE     ---       #669
      01000479H   LINE      CODE     ---       #670
      0100047BH   LINE      CODE     ---       #671
      0100047EH   LINE      CODE     ---       #673
      01000481H   LINE      CODE     ---       #674
      01000484H   LINE      CODE     ---       #675
      01000487H   LINE      CODE     ---       #676
      0100048AH   LINE      CODE     ---       #680
      ---         BLOCKEND  ---      ---       LVL=0

      ---         MODULE    ---      ---       ISR_RF
      00000046H   PUBLIC    DATA     BYTE      ?_RF_SEND?BYTE
      010006EDH   PUBLIC    CODE     NEAR LAB  _RF_CONFIGURE
      01001000H   PUBLIC    CODE     NEAR LAB  _RF_SEND
      00000008H   PUBLIC    DATA     BYTE      RF_BUF
      01000518H   PUBLIC    CODE     NEAR LAB  RF_CH1_RECV
      01000814H   PUBLIC    CODE     NEAR LAB  RF_INIT
      01000851H   PUBLIC    CODE     NEAR LAB  RF_WAIT_MSG
      000000D0H.6 SFRSYM    DATA     BIT       AC
LX51 LINKER/LOCATER V4.34a                                                            04/06/2009  20:32:26  PAGE 12


      000000E0H   SFRSYM    DATA     BYTE      ACC
      000000A1H   SFRSYM    DATA     BYTE      ADCCON
      000000A2H   SFRSYM    DATA     BYTE      ADCDATAH
      000000A3H   SFRSYM    DATA     BYTE      ADCDATAL
      000000A4H   SFRSYM    DATA     BYTE      ADCSTATIC
      000000F0H   SFRSYM    DATA     BYTE      B
      000000C8H.1 SFRSYM    DATA     BIT       C_T2
      000000A0H.6 SFRSYM    DATA     BIT       CE
      000000B6H   SFRSYM    DATA     BYTE      CK_CTRL
      0000008EH   SFRSYM    DATA     BYTE      CKCON
      000000A0H.1 SFRSYM    DATA     BIT       CLK1
      000000A0H.5 SFRSYM    DATA     BIT       CLK2
      000000C8H   SFRSYM    DATA     BIT       CP_RL2
      000000C8H   SFRSYM    DATA     BIT       CPRL2
      000000A0H.3 SFRSYM    DATA     BIT       CS
      000000C8H.1 SFRSYM    DATA     BIT       CT2
      000000D0H.7 SFRSYM    DATA     BIT       CY
      000000A0H   SFRSYM    DATA     BIT       DATA?
      000000BEH   SFRSYM    DATA     BYTE      DEV_OFFSET
      00000090H.2 SFRSYM    DATA     BIT       DIN0
      00000090H   SFRSYM    DATA     BIT       DIO0
      00000090H.1 SFRSYM    DATA     BIT       DIO1
      00000080H   SFRSYM    DATA     BIT       DIO2
      00000080H.1 SFRSYM    DATA     BIT       DIO3
      00000080H.2 SFRSYM    DATA     BIT       DIO4
      00000080H.3 SFRSYM    DATA     BIT       DIO5
      00000080H.4 SFRSYM    DATA     BIT       DIO6
      00000080H.5 SFRSYM    DATA     BIT       DIO7
      00000080H.6 SFRSYM    DATA     BIT       DIO8
      00000080H.7 SFRSYM    DATA     BIT       DIO9
      000000A0H.4 SFRSYM    DATA     BIT       DOUT2
      00000083H   SFRSYM    DATA     BYTE      DPH
      00000083H   SFRSYM    DATA     BYTE      DPH0
      00000085H   SFRSYM    DATA     BYTE      DPH1
      00000082H   SFRSYM    DATA     BYTE      DPL
      00000082H   SFRSYM    DATA     BYTE      DPL0
      00000084H   SFRSYM    DATA     BYTE      DPL1
      00000086H   SFRSYM    DATA     BYTE      DPS
      000000A0H.2 SFRSYM    DATA     BIT       DR1
      000000A0H.6 SFRSYM    DATA     BIT       DR2
      000000A0H.6 SFRSYM    DATA     BIT       DR2_CE
      000000A8H.7 SFRSYM    DATA     BIT       EA
      000000D8H   SFRSYM    DATA     BYTE      EICON
      000000E8H   SFRSYM    DATA     BYTE      EIE
      000000F8H   SFRSYM    DATA     BYTE      EIP
      000000A8H.4 SFRSYM    DATA     BIT       ES
      000000A8H.1 SFRSYM    DATA     BIT       ET0
      000000A8H.3 SFRSYM    DATA     BIT       ET1
      000000A8H.5 SFRSYM    DATA     BIT       ET2
      000000E8H.4 SFRSYM    DATA     BIT       EWDI
      000000A8H   SFRSYM    DATA     BIT       EX0
      000000A8H.2 SFRSYM    DATA     BIT       EX1
      000000E8H   SFRSYM    DATA     BIT       EX2
      000000E8H.1 SFRSYM    DATA     BIT       EX3
      000000E8H.2 SFRSYM    DATA     BIT       EX4
      000000E8H.3 SFRSYM    DATA     BIT       EX5
      000000C8H.3 SFRSYM    DATA     BIT       EXEN2
      000000C8H.6 SFRSYM    DATA     BIT       EXF2
      00000091H   SFRSYM    DATA     BYTE      EXIF
      000000D0H.5 SFRSYM    DATA     BIT       F0
      000000D0H.1 SFRSYM    DATA     BIT       F1
      000000A8H   SFRSYM    DATA     BYTE      IE
      00000088H.1 SFRSYM    DATA     BIT       IE0
      00000088H.3 SFRSYM    DATA     BIT       IE1
      00000080H.3 SFRSYM    DATA     BIT       INT0_N
LX51 LINKER/LOCATER V4.34a                                                            04/06/2009  20:32:26  PAGE 13


      00000080H.4 SFRSYM    DATA     BIT       INT1_N
      000000B8H   SFRSYM    DATA     BYTE      IP
      00000088H   SFRSYM    DATA     BIT       IT0
      00000088H.2 SFRSYM    DATA     BIT       IT1
      00000092H   SFRSYM    DATA     BYTE      MPAGE
      000000D0H.2 SFRSYM    DATA     BIT       OV
      000000D0H   SFRSYM    DATA     BIT       P
      00000080H   SFRSYM    DATA     BYTE      P0
      00000080H   SFRSYM    DATA     BIT       P0_0
      00000080H.1 SFRSYM    DATA     BIT       P0_1
      00000080H.2 SFRSYM    DATA     BIT       P0_2
      00000080H.3 SFRSYM    DATA     BIT       P0_3
      00000080H.4 SFRSYM    DATA     BIT       P0_4
      00000080H.5 SFRSYM    DATA     BIT       P0_5
      00000080H.6 SFRSYM    DATA     BIT       P0_6
      00000080H.7 SFRSYM    DATA     BIT       P0_7
      00000095H   SFRSYM    DATA     BYTE      P0_ALT
      00000094H   SFRSYM    DATA     BYTE      P0_DIR
      00000090H   SFRSYM    DATA     BYTE      P1
      00000090H   SFRSYM    DATA     BIT       P1_0
      00000090H.1 SFRSYM    DATA     BIT       P1_1
      00000090H.2 SFRSYM    DATA     BIT       P1_2
      00000097H   SFRSYM    DATA     BYTE      P1_ALT
      00000096H   SFRSYM    DATA     BYTE      P1_DIR
      00000087H   SFRSYM    DATA     BYTE      PCON
      000000B8H.4 SFRSYM    DATA     BIT       PS
      000000D0H   SFRSYM    DATA     BYTE      PSW
      000000B8H.1 SFRSYM    DATA     BIT       PT0
      000000B8H.3 SFRSYM    DATA     BIT       PT1
      000000B8H.5 SFRSYM    DATA     BIT       PT2
      000000F8H.4 SFRSYM    DATA     BIT       PWDI
      00000080H.7 SFRSYM    DATA     BIT       PWM
      000000A9H   SFRSYM    DATA     BYTE      PWMCON
      000000AAH   SFRSYM    DATA     BYTE      PWMDUTY
      000000A0H.7 SFRSYM    DATA     BIT       PWR_UP
      000000B8H   SFRSYM    DATA     BIT       PX0
      000000B8H.2 SFRSYM    DATA     BIT       PX1
      000000F8H   SFRSYM    DATA     BIT       PX2
      000000F8H.1 SFRSYM    DATA     BIT       PX3
      000000F8H.2 SFRSYM    DATA     BIT       PX4
      000000F8H.3 SFRSYM    DATA     BIT       PX5
      000000A0H   SFRSYM    DATA     BYTE      RADIO
      00000098H.2 SFRSYM    DATA     BIT       RB8
      000000CBH   SFRSYM    DATA     BYTE      RCAP2H
      000000CAH   SFRSYM    DATA     BYTE      RCAP2L
      000000C8H.5 SFRSYM    DATA     BIT       RCLK
      000000ADH   SFRSYM    DATA     BYTE      REGX_CTRL
      000000ACH   SFRSYM    DATA     BYTE      REGX_LSB
      000000ABH   SFRSYM    DATA     BYTE      REGX_MSB
      00000098H.4 SFRSYM    DATA     BIT       REN
      00000098H   SFRSYM    DATA     BIT       RI
      000000D0H.3 SFRSYM    DATA     BIT       RS0
      000000D0H.4 SFRSYM    DATA     BIT       RS1
      000000B1H   SFRSYM    DATA     BYTE      RSTREAS
      00000080H.1 SFRSYM    DATA     BIT       RXD
      00000099H   SFRSYM    DATA     BYTE      SBUF
      00000098H   SFRSYM    DATA     BYTE      SCON
      00000098H.7 SFRSYM    DATA     BIT       SM0
      00000098H.6 SFRSYM    DATA     BIT       SM1
      00000098H.5 SFRSYM    DATA     BIT       SM2
      00000081H   SFRSYM    DATA     BYTE      SP
      0000008FH   SFRSYM    DATA     BYTE      SPC_FNC
      000000B3H   SFRSYM    DATA     BYTE      SPI_CTRL
      000000B2H   SFRSYM    DATA     BYTE      SPI_DATA
      000000B4H   SFRSYM    DATA     BYTE      SPICLK
LX51 LINKER/LOCATER V4.34a                                                            04/06/2009  20:32:26  PAGE 14


      00000080H.5 SFRSYM    DATA     BIT       T0
      00000080H.6 SFRSYM    DATA     BIT       T1
      000000BCH   SFRSYM    DATA     BYTE      T1_1V2
      00000090H   SFRSYM    DATA     BIT       T2
      000000BDH   SFRSYM    DATA     BYTE      T2_1V2
      000000C8H   SFRSYM    DATA     BYTE      T2CON
      00000098H.3 SFRSYM    DATA     BIT       TB8
      000000C8H.4 SFRSYM    DATA     BIT       TCLK
      00000088H   SFRSYM    DATA     BYTE      TCON
      000000B7H   SFRSYM    DATA     BYTE      TEST_MODE
      00000088H.5 SFRSYM    DATA     BIT       TF0
      00000088H.7 SFRSYM    DATA     BIT       TF1
      000000C8H.7 SFRSYM    DATA     BIT       TF2
      0000008CH   SFRSYM    DATA     BYTE      TH0
      0000008DH   SFRSYM    DATA     BYTE      TH1
      000000CDH   SFRSYM    DATA     BYTE      TH2
      00000098H.1 SFRSYM    DATA     BIT       TI
      000000B5H   SFRSYM    DATA     BYTE      TICK_DV
      0000008AH   SFRSYM    DATA     BYTE      TL0
      0000008BH   SFRSYM    DATA     BYTE      TL1
      000000CCH   SFRSYM    DATA     BYTE      TL2
      00000089H   SFRSYM    DATA     BYTE      TMOD
      00000088H.4 SFRSYM    DATA     BIT       TR0
      00000088H.6 SFRSYM    DATA     BIT       TR1
      000000C8H.2 SFRSYM    DATA     BIT       TR2
      00000080H.2 SFRSYM    DATA     BIT       TXD
      000000D8H.3 SFRSYM    DATA     BIT       WDTI
      0000005EH   SYMBOL    DATA     BYTE      ?_RF_CONFIGURE?BYTE
      010006FAH   SYMBOL    CODE     NEAR LAB  ?C0002
      01000720H   SYMBOL    CODE     NEAR LAB  ?C0003
      0100100FH   SYMBOL    CODE     NEAR LAB  ?C0006
      01001039H   SYMBOL    CODE     NEAR LAB  ?C0007
      0100103EH   SYMBOL    CODE     NEAR LAB  ?C0009
      01001068H   SYMBOL    CODE     NEAR LAB  ?C0010
      0100053FH   SYMBOL    CODE     NEAR LAB  ?C0015
      01000557H   SYMBOL    CODE     NEAR LAB  ?C0016
      01000853H   SYMBOL    CODE     NEAR LAB  ?C0018
      01000857H   SYMBOL    CODE     NEAR LAB  ?C0019
      01000715H   SYMBOL    CODE     NEAR LAB  ?C0021
      01001037H   SYMBOL    CODE     NEAR LAB  ?C0022
      01001066H   SYMBOL    CODE     NEAR LAB  ?C0023
      0100054FH   SYMBOL    CODE     NEAR LAB  ?C0024
      00000079H   SYMBOL    DATA     BYTE      ?RF_CH1_RECV?BYTE
      0100055AH   SYMBOL    CODE     NEAR LAB  ?RF_CH1_RECV?OUT
      00000046H   SYMBOL    DATA     BYTE      ADDR?243
      00000049H   SYMBOL    DATA     BYTE      ADDR_LEN?244
      00000061H   SYMBOL    DATA     BYTE      I?142
      0000004EH   SYMBOL    DATA     BYTE      I?247
      00000079H   SYMBOL    DATA     BYTE      I?348
      0000005EH   SYMBOL    DATA     BYTE      P?141
      0000004AH   SYMBOL    DATA     BYTE      PAYLOAD?245
      0000004DH   SYMBOL    DATA     BYTE      PL_LEN?246

      01000814H   BLOCK     CODE     NEAR LAB  LVL=0
      01000814H   LINE      CODE     ---       #265
      01000816H   LINE      CODE     ---       #269
      01000817H   LINE      CODE     ---       #270
      01000818H   LINE      CODE     ---       #271
      0100081AH   LINE      CODE     ---       #272
      0100081DH   LINE      CODE     ---       #275
      0100081FH   LINE      CODE     ---       #278
      01000821H   LINE      CODE     ---       #281
      ---         BLOCKEND  ---      ---       LVL=0

      010006EDH   BLOCK     CODE     NEAR LAB  LVL=0
LX51 LINKER/LOCATER V4.34a                                                            04/06/2009  20:32:26  PAGE 15


      010006EDH   LINE      CODE     ---       #304
      010006EFH   LINE      CODE     ---       #308
      010006F1H   LINE      CODE     ---       #309
      010006F3H   LINE      CODE     ---       #310
      010006F5H   LINE      CODE     ---       #314
      010006F6H   LINE      CODE     ---       #315
      010006F8H   LINE      CODE     ---       #316
      010006FAH   LINE      CODE     ---       #320
      010006FCH   LINE      CODE     ---       #321
      010006FEH   LINE      CODE     ---       #322
      01000700H   LINE      CODE     ---       #323
      01000703H   LINE      CODE     ---       #324
      01000706H   LINE      CODE     ---       #325
      01000709H   LINE      CODE     ---       #326
      0100070AH   LINE      CODE     ---       #327
      0100070DH   LINE      CODE     ---       #330
      0100070FH   LINE      CODE     ---       #331
      01000711H   LINE      CODE     ---       #332
      01000713H   LINE      CODE     ---       #333
      01000715H   LINE      CODE     ---       #335
      01000716H   LINE      CODE     ---       #336
      01000718H   LINE      CODE     ---       #337
      0100071AH   LINE      CODE     ---       #338
      0100071CH   LINE      CODE     ---       #339
      0100071EH   LINE      CODE     ---       #340
      01000720H   LINE      CODE     ---       #345
      01000722H   LINE      CODE     ---       #348
      ---         BLOCKEND  ---      ---       LVL=0

      01001000H   BLOCK     CODE     NEAR LAB  LVL=0
      01001000H   LINE      CODE     ---       #365
      01001002H   LINE      CODE     ---       #366
      01001004H   LINE      CODE     ---       #367
      01001006H   LINE      CODE     ---       #368
      01001008H   LINE      CODE     ---       #376
      0100100AH   LINE      CODE     ---       #381
      0100100BH   LINE      CODE     ---       #382
      0100100DH   LINE      CODE     ---       #383
      0100100FH   LINE      CODE     ---       #385
      01001010H   LINE      CODE     ---       #386
      01001012H   LINE      CODE     ---       #387
      01001014H   LINE      CODE     ---       #388
      01001016H   LINE      CODE     ---       #389
      01001017H   LINE      CODE     ---       #390
      01001019H   LINE      CODE     ---       #391
      0100101AH   LINE      CODE     ---       #392
      0100101CH   LINE      CODE     ---       #395
      0100101EH   LINE      CODE     ---       #396
      01001020H   LINE      CODE     ---       #397
      01001022H   LINE      CODE     ---       #398
      01001025H   LINE      CODE     ---       #399
      01001028H   LINE      CODE     ---       #400
      0100102BH   LINE      CODE     ---       #401
      0100102CH   LINE      CODE     ---       #402
      0100102FH   LINE      CODE     ---       #403
      01001031H   LINE      CODE     ---       #404
      01001033H   LINE      CODE     ---       #405
      01001035H   LINE      CODE     ---       #406
      01001037H   LINE      CODE     ---       #408
      01001039H   LINE      CODE     ---       #413
      0100103AH   LINE      CODE     ---       #414
      0100103CH   LINE      CODE     ---       #415
      0100103EH   LINE      CODE     ---       #417
      0100103FH   LINE      CODE     ---       #418
      01001041H   LINE      CODE     ---       #419
LX51 LINKER/LOCATER V4.34a                                                            04/06/2009  20:32:26  PAGE 16


      01001043H   LINE      CODE     ---       #420
      01001045H   LINE      CODE     ---       #421
      01001046H   LINE      CODE     ---       #422
      01001048H   LINE      CODE     ---       #423
      01001049H   LINE      CODE     ---       #424
      0100104BH   LINE      CODE     ---       #427
      0100104DH   LINE      CODE     ---       #428
      0100104FH   LINE      CODE     ---       #429
      01001051H   LINE      CODE     ---       #430
      01001054H   LINE      CODE     ---       #431
      01001057H   LINE      CODE     ---       #432
      0100105AH   LINE      CODE     ---       #433
      0100105BH   LINE      CODE     ---       #434
      0100105EH   LINE      CODE     ---       #435
      01001060H   LINE      CODE     ---       #436
      01001062H   LINE      CODE     ---       #437
      01001064H   LINE      CODE     ---       #438
      01001066H   LINE      CODE     ---       #440
      01001068H   LINE      CODE     ---       #445
      0100106AH   LINE      CODE     ---       #448
      ---         BLOCKEND  ---      ---       LVL=0

      01000053H   BLOCK     CODE     NEAR LAB  LVL=0
      01000053H   LINE      CODE     ---       #452
      ---         BLOCKEND  ---      ---       LVL=0

      01000518H   BLOCK     CODE     NEAR LAB  LVL=0
      01000518H   LINE      CODE     ---       #461
      0100051AH   LINE      CODE     ---       #462
      0100051CH   LINE      CODE     ---       #463
      0100051EH   LINE      CODE     ---       #464
      01000520H   LINE      CODE     ---       #465
      01000522H   LINE      CODE     ---       #466
      01000525H   LINE      CODE     ---       #467
      01000527H   LINE      CODE     ---       #468
      01000529H   LINE      CODE     ---       #469
      0100052BH   LINE      CODE     ---       #470
      0100052DH   LINE      CODE     ---       #471
      0100052FH   LINE      CODE     ---       #472
      01000531H   LINE      CODE     ---       #473
      01000533H   LINE      CODE     ---       #474
      01000535H   LINE      CODE     ---       #480
      01000538H   LINE      CODE     ---       #481
      0100053BH   LINE      CODE     ---       #488
      0100053DH   LINE      CODE     ---       #489
      0100053FH   LINE      CODE     ---       #495
      01000542H   LINE      CODE     ---       #498
      01000543H   LINE      CODE     ---       #499
      01000544H   LINE      CODE     ---       #500
      01000547H   LINE      CODE     ---       #501
      01000549H   LINE      CODE     ---       #502
      0100054BH   LINE      CODE     ---       #503
      0100054DH   LINE      CODE     ---       #504
      0100054FH   LINE      CODE     ---       #506
      01000550H   LINE      CODE     ---       #507
      01000552H   LINE      CODE     ---       #508
      01000553H   LINE      CODE     ---       #509
      01000555H   LINE      CODE     ---       #512
      01000557H   LINE      CODE     ---       #516
      0100055AH   LINE      CODE     ---       #523
      0100055DH   LINE      CODE     ---       #526
      0100055FH   LINE      CODE     ---       #527
      01000561H   LINE      CODE     ---       #528
      01000563H   LINE      CODE     ---       #529
      01000565H   LINE      CODE     ---       #530
LX51 LINKER/LOCATER V4.34a                                                            04/06/2009  20:32:26  PAGE 17


      01000567H   LINE      CODE     ---       #531
      01000569H   LINE      CODE     ---       #532
      0100056BH   LINE      CODE     ---       #533
      0100056DH   LINE      CODE     ---       #534
      0100056FH   LINE      CODE     ---       #535
      01000571H   LINE      CODE     ---       #536
      01000573H   LINE      CODE     ---       #537
      01000575H   LINE      CODE     ---       #538
      01000577H   LINE      CODE     ---       #539
      ---         BLOCKEND  ---      ---       LVL=0

      01000851H   BLOCK     CODE     NEAR LAB  LVL=0
      01000851H   LINE      CODE     ---       #555
      01000853H   LINE      CODE     ---       #559
      01000855H   LINE      CODE     ---       #560
      01000857H   LINE      CODE     ---       #565
      01000859H   LINE      CODE     ---       #568
      ---         BLOCKEND  ---      ---       LVL=0

      ---         MODULE    ---      ---       ECO_PAGE
      00000042H   PUBLIC    DATA     BYTE      ECO_PAGE_ADDR
      01000723H   PUBLIC    CODE     NEAR LAB  ECO_PAGE_INIT
      01000253H   PUBLIC    CODE     NEAR LAB  ECO_PAGE_MANAGER
      0000003FH   PUBLIC    DATA     BYTE      ECO_PAGE_PREV_PID
      00000041H   PUBLIC    DATA     BYTE      ECO_PAGE_PREV_VID
      00000085H   PUBLIC    IDATA    BYTE      ECO_PAGE_REGISTER1
      00000086H   PUBLIC    IDATA    BYTE      ECO_PAGE_REGISTER2
      00000087H   PUBLIC    IDATA    BYTE      ECO_PAGE_REGISTER3
      00000088H   PUBLIC    IDATA    BYTE      ECO_PAGE_REGISTER4
      00000089H   PUBLIC    IDATA    BYTE      ECO_PAGE_REGISTER5
      0000008AH   PUBLIC    IDATA    BYTE      ECO_PAGE_REGISTER6
      0000008BH   PUBLIC    IDATA    BYTE      ECO_PAGE_REGISTER7
      00000040H   PUBLIC    DATA     BYTE      ECO_PAGE_SPI_CONN
      00000035H   PUBLIC    DATA     BYTE      ECO_PAGE_TABLE
      00000044H   PUBLIC    DATA     BYTE      ECO_PAGE_TABLE_INDEX
      000000D0H.6 SFRSYM    DATA     BIT       AC
      000000E0H   SFRSYM    DATA     BYTE      ACC
      000000A1H   SFRSYM    DATA     BYTE      ADCCON
      000000A2H   SFRSYM    DATA     BYTE      ADCDATAH
      000000A3H   SFRSYM    DATA     BYTE      ADCDATAL
      000000A4H   SFRSYM    DATA     BYTE      ADCSTATIC
      000000F0H   SFRSYM    DATA     BYTE      B
      000000C8H.1 SFRSYM    DATA     BIT       C_T2
      000000A0H.6 SFRSYM    DATA     BIT       CE
      000000B6H   SFRSYM    DATA     BYTE      CK_CTRL
      0000008EH   SFRSYM    DATA     BYTE      CKCON
      000000A0H.1 SFRSYM    DATA     BIT       CLK1
      000000A0H.5 SFRSYM    DATA     BIT       CLK2
      000000C8H   SFRSYM    DATA     BIT       CP_RL2
      000000C8H   SFRSYM    DATA     BIT       CPRL2
      000000A0H.3 SFRSYM    DATA     BIT       CS
      000000C8H.1 SFRSYM    DATA     BIT       CT2
      000000D0H.7 SFRSYM    DATA     BIT       CY
      000000A0H   SFRSYM    DATA     BIT       DATA?
      000000BEH   SFRSYM    DATA     BYTE      DEV_OFFSET
      00000090H.2 SFRSYM    DATA     BIT       DIN0
      00000090H   SFRSYM    DATA     BIT       DIO0
      00000090H.1 SFRSYM    DATA     BIT       DIO1
      00000080H   SFRSYM    DATA     BIT       DIO2
      00000080H.1 SFRSYM    DATA     BIT       DIO3
      00000080H.2 SFRSYM    DATA     BIT       DIO4
      00000080H.3 SFRSYM    DATA     BIT       DIO5
      00000080H.4 SFRSYM    DATA     BIT       DIO6
      00000080H.5 SFRSYM    DATA     BIT       DIO7
      00000080H.6 SFRSYM    DATA     BIT       DIO8
LX51 LINKER/LOCATER V4.34a                                                            04/06/2009  20:32:26  PAGE 18


      00000080H.7 SFRSYM    DATA     BIT       DIO9
      000000A0H.4 SFRSYM    DATA     BIT       DOUT2
      00000083H   SFRSYM    DATA     BYTE      DPH
      00000083H   SFRSYM    DATA     BYTE      DPH0
      00000085H   SFRSYM    DATA     BYTE      DPH1
      00000082H   SFRSYM    DATA     BYTE      DPL
      00000082H   SFRSYM    DATA     BYTE      DPL0
      00000084H   SFRSYM    DATA     BYTE      DPL1
      00000086H   SFRSYM    DATA     BYTE      DPS
      000000A0H.2 SFRSYM    DATA     BIT       DR1
      000000A0H.6 SFRSYM    DATA     BIT       DR2
      000000A0H.6 SFRSYM    DATA     BIT       DR2_CE
      000000A8H.7 SFRSYM    DATA     BIT       EA
      000000D8H   SFRSYM    DATA     BYTE      EICON
      000000E8H   SFRSYM    DATA     BYTE      EIE
      000000F8H   SFRSYM    DATA     BYTE      EIP
      000000A8H.4 SFRSYM    DATA     BIT       ES
      000000A8H.1 SFRSYM    DATA     BIT       ET0
      000000A8H.3 SFRSYM    DATA     BIT       ET1
      000000A8H.5 SFRSYM    DATA     BIT       ET2
      000000E8H.4 SFRSYM    DATA     BIT       EWDI
      000000A8H   SFRSYM    DATA     BIT       EX0
      000000A8H.2 SFRSYM    DATA     BIT       EX1
      000000E8H   SFRSYM    DATA     BIT       EX2
      000000E8H.1 SFRSYM    DATA     BIT       EX3
      000000E8H.2 SFRSYM    DATA     BIT       EX4
      000000E8H.3 SFRSYM    DATA     BIT       EX5
      000000C8H.3 SFRSYM    DATA     BIT       EXEN2
      000000C8H.6 SFRSYM    DATA     BIT       EXF2
      00000091H   SFRSYM    DATA     BYTE      EXIF
      000000D0H.5 SFRSYM    DATA     BIT       F0
      000000D0H.1 SFRSYM    DATA     BIT       F1
      000000A8H   SFRSYM    DATA     BYTE      IE
      00000088H.1 SFRSYM    DATA     BIT       IE0
      00000088H.3 SFRSYM    DATA     BIT       IE1
      00000080H.3 SFRSYM    DATA     BIT       INT0_N
      00000080H.4 SFRSYM    DATA     BIT       INT1_N
      000000B8H   SFRSYM    DATA     BYTE      IP
      00000088H   SFRSYM    DATA     BIT       IT0
      00000088H.2 SFRSYM    DATA     BIT       IT1
      00000092H   SFRSYM    DATA     BYTE      MPAGE
      000000D0H.2 SFRSYM    DATA     BIT       OV
      000000D0H   SFRSYM    DATA     BIT       P
      00000080H   SFRSYM    DATA     BYTE      P0
      00000080H   SFRSYM    DATA     BIT       P0_0
      00000080H.1 SFRSYM    DATA     BIT       P0_1
      00000080H.2 SFRSYM    DATA     BIT       P0_2
      00000080H.3 SFRSYM    DATA     BIT       P0_3
      00000080H.4 SFRSYM    DATA     BIT       P0_4
      00000080H.5 SFRSYM    DATA     BIT       P0_5
      00000080H.6 SFRSYM    DATA     BIT       P0_6
      00000080H.7 SFRSYM    DATA     BIT       P0_7
      00000095H   SFRSYM    DATA     BYTE      P0_ALT
      00000094H   SFRSYM    DATA     BYTE      P0_DIR
      00000090H   SFRSYM    DATA     BYTE      P1
      00000090H   SFRSYM    DATA     BIT       P1_0
      00000090H.1 SFRSYM    DATA     BIT       P1_1
      00000090H.2 SFRSYM    DATA     BIT       P1_2
      00000097H   SFRSYM    DATA     BYTE      P1_ALT
      00000096H   SFRSYM    DATA     BYTE      P1_DIR
      00000087H   SFRSYM    DATA     BYTE      PCON
      000000B8H.4 SFRSYM    DATA     BIT       PS
      000000D0H   SFRSYM    DATA     BYTE      PSW
      000000B8H.1 SFRSYM    DATA     BIT       PT0
      000000B8H.3 SFRSYM    DATA     BIT       PT1
LX51 LINKER/LOCATER V4.34a                                                            04/06/2009  20:32:26  PAGE 19


      000000B8H.5 SFRSYM    DATA     BIT       PT2
      000000F8H.4 SFRSYM    DATA     BIT       PWDI
      00000080H.7 SFRSYM    DATA     BIT       PWM
      000000A9H   SFRSYM    DATA     BYTE      PWMCON
      000000AAH   SFRSYM    DATA     BYTE      PWMDUTY
      000000A0H.7 SFRSYM    DATA     BIT       PWR_UP
      000000B8H   SFRSYM    DATA     BIT       PX0
      000000B8H.2 SFRSYM    DATA     BIT       PX1
      000000F8H   SFRSYM    DATA     BIT       PX2
      000000F8H.1 SFRSYM    DATA     BIT       PX3
      000000F8H.2 SFRSYM    DATA     BIT       PX4
      000000F8H.3 SFRSYM    DATA     BIT       PX5
      000000A0H   SFRSYM    DATA     BYTE      RADIO
      00000098H.2 SFRSYM    DATA     BIT       RB8
      000000CBH   SFRSYM    DATA     BYTE      RCAP2H
      000000CAH   SFRSYM    DATA     BYTE      RCAP2L
      000000C8H.5 SFRSYM    DATA     BIT       RCLK
      000000ADH   SFRSYM    DATA     BYTE      REGX_CTRL
      000000ACH   SFRSYM    DATA     BYTE      REGX_LSB
      000000ABH   SFRSYM    DATA     BYTE      REGX_MSB
      00000098H.4 SFRSYM    DATA     BIT       REN
      00000098H   SFRSYM    DATA     BIT       RI
      000000D0H.3 SFRSYM    DATA     BIT       RS0
      000000D0H.4 SFRSYM    DATA     BIT       RS1
      000000B1H   SFRSYM    DATA     BYTE      RSTREAS
      00000080H.1 SFRSYM    DATA     BIT       RXD
      00000099H   SFRSYM    DATA     BYTE      SBUF
      00000098H   SFRSYM    DATA     BYTE      SCON
      00000098H.7 SFRSYM    DATA     BIT       SM0
      00000098H.6 SFRSYM    DATA     BIT       SM1
      00000098H.5 SFRSYM    DATA     BIT       SM2
      00000081H   SFRSYM    DATA     BYTE      SP
      0000008FH   SFRSYM    DATA     BYTE      SPC_FNC
      000000B3H   SFRSYM    DATA     BYTE      SPI_CTRL
      000000B2H   SFRSYM    DATA     BYTE      SPI_DATA
      000000B4H   SFRSYM    DATA     BYTE      SPICLK
      00000080H.5 SFRSYM    DATA     BIT       T0
      00000080H.6 SFRSYM    DATA     BIT       T1
      000000BCH   SFRSYM    DATA     BYTE      T1_1V2
      00000090H   SFRSYM    DATA     BIT       T2
      000000BDH   SFRSYM    DATA     BYTE      T2_1V2
      000000C8H   SFRSYM    DATA     BYTE      T2CON
      00000098H.3 SFRSYM    DATA     BIT       TB8
      000000C8H.4 SFRSYM    DATA     BIT       TCLK
      00000088H   SFRSYM    DATA     BYTE      TCON
      000000B7H   SFRSYM    DATA     BYTE      TEST_MODE
      00000088H.5 SFRSYM    DATA     BIT       TF0
      00000088H.7 SFRSYM    DATA     BIT       TF1
      000000C8H.7 SFRSYM    DATA     BIT       TF2
      0000008CH   SFRSYM    DATA     BYTE      TH0
      0000008DH   SFRSYM    DATA     BYTE      TH1
      000000CDH   SFRSYM    DATA     BYTE      TH2
      00000098H.1 SFRSYM    DATA     BIT       TI
      000000B5H   SFRSYM    DATA     BYTE      TICK_DV
      0000008AH   SFRSYM    DATA     BYTE      TL0
      0000008BH   SFRSYM    DATA     BYTE      TL1
      000000CCH   SFRSYM    DATA     BYTE      TL2
      00000089H   SFRSYM    DATA     BYTE      TMOD
      00000088H.4 SFRSYM    DATA     BIT       TR0
      00000088H.6 SFRSYM    DATA     BIT       TR1
      000000C8H.2 SFRSYM    DATA     BIT       TR2
      00000080H.2 SFRSYM    DATA     BIT       TXD
      000000D8H.3 SFRSYM    DATA     BIT       WDTI
      0100029CH   SYMBOL    CODE     NEAR LAB  ?C0002
      010003DCH   SYMBOL    CODE     NEAR LAB  ?C0003
LX51 LINKER/LOCATER V4.34a                                                            04/06/2009  20:32:26  PAGE 20


      010002A1H   SYMBOL    CODE     NEAR LAB  ?C0004
      010002C7H   SYMBOL    CODE     NEAR LAB  ?C0005
      010002B9H   SYMBOL    CODE     NEAR LAB  ?C0006
      01000314H   SYMBOL    CODE     NEAR LAB  ?C0008
      010003D5H   SYMBOL    CODE     NEAR LAB  ?C0009
      01000327H   SYMBOL    CODE     NEAR LAB  ?C0010
      01000342H   SYMBOL    CODE     NEAR LAB  ?C0011
      01000351H   SYMBOL    CODE     NEAR LAB  ?C0013
      0100037FH   SYMBOL    CODE     NEAR LAB  ?C0014
      010002C1H   SYMBOL    CODE     NEAR LAB  ?C0018
      010002CFH   SYMBOL    CODE     NEAR LAB  ?C0019
      01000339H   SYMBOL    CODE     NEAR LAB  ?C0020
      01000378H   SYMBOL    CODE     NEAR LAB  ?C0021
      010003ADH   SYMBOL    CODE     NEAR LAB  ?C0022
      00000058H   SYMBOL    DATA     BYTE      ?ECO_PAGE_MANAGER?BYTE
      00000058H   SYMBOL    DATA     BYTE      I?141
      0000005AH   SYMBOL    DATA     BYTE      PAGE_INDEX?142
      0000005CH   SYMBOL    DATA     BYTE      SEG?140

      01000723H   BLOCK     CODE     NEAR LAB  LVL=0
      01000723H   LINE      CODE     ---       #267
      01000726H   LINE      CODE     ---       #268
      01000729H   LINE      CODE     ---       #274
      0100072AH   LINE      CODE     ---       #275
      0100072CH   LINE      CODE     ---       #276
      0100072EH   LINE      CODE     ---       #279
      01000730H   LINE      CODE     ---       #282
      01000732H   LINE      CODE     ---       #286
      01000735H   LINE      CODE     ---       #289
      01000738H   LINE      CODE     ---       #292
      0100073BH   LINE      CODE     ---       #295
      0100073EH   LINE      CODE     ---       #298
      01000741H   LINE      CODE     ---       #301
      01000744H   LINE      CODE     ---       #304
      01000747H   LINE      CODE     ---       #307
      0100074AH   LINE      CODE     ---       #310
      0100074DH   LINE      CODE     ---       #313
      01000750H   LINE      CODE     ---       #316
      ---         BLOCKEND  ---      ---       LVL=0

      01000253H   BLOCK     CODE     NEAR LAB  LVL=0
      01000253H   LINE      CODE     ---       #332
      01000255H   LINE      CODE     ---       #333
      01000257H   LINE      CODE     ---       #334
      01000259H   LINE      CODE     ---       #348
      0100025BH   LINE      CODE     ---       #349
      0100025DH   LINE      CODE     ---       #350
      0100025EH   LINE      CODE     ---       #351
      01000260H   LINE      CODE     ---       #352
      01000262H   LINE      CODE     ---       #353
      01000265H   LINE      CODE     ---       #359
      01000267H   LINE      CODE     ---       #360
      01000268H   LINE      CODE     ---       #361
      0100026AH   LINE      CODE     ---       #362
      0100026BH   LINE      CODE     ---       #363
      0100026DH   LINE      CODE     ---       #364
      0100026FH   LINE      CODE     ---       #365
      01000270H   LINE      CODE     ---       #366
      01000271H   LINE      CODE     ---       #367
      01000273H   LINE      CODE     ---       #369
      01000275H   LINE      CODE     ---       #370
      01000276H   LINE      CODE     ---       #371
      01000277H   LINE      CODE     ---       #372
      01000279H   LINE      CODE     ---       #373
      0100027AH   LINE      CODE     ---       #374
LX51 LINKER/LOCATER V4.34a                                                            04/06/2009  20:32:26  PAGE 21


      0100027BH   LINE      CODE     ---       #375
      0100027DH   LINE      CODE     ---       #376
      0100027EH   LINE      CODE     ---       #377
      0100027FH   LINE      CODE     ---       #378
      01000281H   LINE      CODE     ---       #379
      01000282H   LINE      CODE     ---       #380
      01000283H   LINE      CODE     ---       #381
      01000285H   LINE      CODE     ---       #382
      01000286H   LINE      CODE     ---       #383
      01000287H   LINE      CODE     ---       #384
      01000289H   LINE      CODE     ---       #385
      0100028AH   LINE      CODE     ---       #386
      0100028BH   LINE      CODE     ---       #387
      0100028DH   LINE      CODE     ---       #388
      0100028EH   LINE      CODE     ---       #389
      0100028FH   LINE      CODE     ---       #390
      01000292H   LINE      CODE     ---       #391
      01000295H   LINE      CODE     ---       #392
      01000298H   LINE      CODE     ---       #393
      0100029BH   LINE      CODE     ---       #396
      0100029CH   LINE      CODE     ---       #407
      0100029DH   LINE      CODE     ---       #408
      0100029FH   LINE      CODE     ---       #409
      010002A1H   LINE      CODE     ---       #421
      010002A3H   LINE      CODE     ---       #422
      010002A5H   LINE      CODE     ---       #423
      010002A6H   LINE      CODE     ---       #424
      010002A7H   LINE      CODE     ---       #425
      010002A9H   LINE      CODE     ---       #426
      010002AAH   LINE      CODE     ---       #427
      010002ACH   LINE      CODE     ---       #428
      010002AEH   LINE      CODE     ---       #429
      010002B1H   LINE      CODE     ---       #434
      010002B4H   LINE      CODE     ---       #435
      010002B7H   LINE      CODE     ---       #438
      010002B9H   LINE      CODE     ---       #444
      010002BBH   LINE      CODE     ---       #445
      010002BDH   LINE      CODE     ---       #446
      010002BFH   LINE      CODE     ---       #447
      010002C1H   LINE      CODE     ---       #449
      010002C3H   LINE      CODE     ---       #450
      010002C5H   LINE      CODE     ---       #451
      010002C7H   LINE      CODE     ---       #456
      010002C9H   LINE      CODE     ---       #457
      010002CAH   LINE      CODE     ---       #458
      010002CCH   LINE      CODE     ---       #459
      010002CEH   LINE      CODE     ---       #460
      010002CFH   LINE      CODE     ---       #462
      010002D1H   LINE      CODE     ---       #468
      010002D3H   LINE      CODE     ---       #469
      010002D5H   LINE      CODE     ---       #474
      010002D7H   LINE      CODE     ---       #475
      010002D9H   LINE      CODE     ---       #476
      010002DAH   LINE      CODE     ---       #477
      010002DBH   LINE      CODE     ---       #478
      010002DCH   LINE      CODE     ---       #479
      010002DEH   LINE      CODE     ---       #480
      010002DFH   LINE      CODE     ---       #481
      010002E1H   LINE      CODE     ---       #482
      010002E3H   LINE      CODE     ---       #483
      010002E4H   LINE      CODE     ---       #484
      010002E5H   LINE      CODE     ---       #485
      010002E7H   LINE      CODE     ---       #490
      010002E9H   LINE      CODE     ---       #493
      010002EBH   LINE      CODE     ---       #494
LX51 LINKER/LOCATER V4.34a                                                            04/06/2009  20:32:26  PAGE 22


      010002ECH   LINE      CODE     ---       #495
      010002EDH   LINE      CODE     ---       #496
      010002EFH   LINE      CODE     ---       #497
      010002F0H   LINE      CODE     ---       #498
      010002F1H   LINE      CODE     ---       #499
      010002F3H   LINE      CODE     ---       #500
      010002F4H   LINE      CODE     ---       #501
      010002F5H   LINE      CODE     ---       #502
      010002F7H   LINE      CODE     ---       #503
      010002F8H   LINE      CODE     ---       #504
      010002F9H   LINE      CODE     ---       #505
      010002FBH   LINE      CODE     ---       #506
      010002FCH   LINE      CODE     ---       #507
      010002FDH   LINE      CODE     ---       #508
      010002FFH   LINE      CODE     ---       #509
      01000300H   LINE      CODE     ---       #510
      01000301H   LINE      CODE     ---       #511
      01000303H   LINE      CODE     ---       #512
      01000304H   LINE      CODE     ---       #513
      01000305H   LINE      CODE     ---       #514
      01000308H   LINE      CODE     ---       #515
      0100030BH   LINE      CODE     ---       #516
      0100030EH   LINE      CODE     ---       #517
      01000311H   LINE      CODE     ---       #529
      01000314H   LINE      CODE     ---       #538
      01000316H   LINE      CODE     ---       #539
      01000318H   LINE      CODE     ---       #540
      01000319H   LINE      CODE     ---       #541
      0100031AH   LINE      CODE     ---       #542
      0100031CH   LINE      CODE     ---       #543
      0100031DH   LINE      CODE     ---       #544
      0100031FH   LINE      CODE     ---       #545
      01000322H   LINE      CODE     ---       #549
      01000323H   LINE      CODE     ---       #550
      01000325H   LINE      CODE     ---       #551
      01000327H   LINE      CODE     ---       #557
      0100032AH   LINE      CODE     ---       #560
      0100032CH   LINE      CODE     ---       #561
      0100032EH   LINE      CODE     ---       #562
      01000331H   LINE      CODE     ---       #565
      01000333H   LINE      CODE     ---       #566
      01000335H   LINE      CODE     ---       #567
      01000337H   LINE      CODE     ---       #568
      01000339H   LINE      CODE     ---       #570
      0100033AH   LINE      CODE     ---       #571
      0100033CH   LINE      CODE     ---       #572
      0100033EH   LINE      CODE     ---       #573
      01000340H   LINE      CODE     ---       #574
      01000342H   LINE      CODE     ---       #578
      01000344H   LINE      CODE     ---       #579
      01000346H   LINE      CODE     ---       #580
      01000349H   LINE      CODE     ---       #584
      0100034CH   LINE      CODE     ---       #589
      0100034DH   LINE      CODE     ---       #590
      0100034FH   LINE      CODE     ---       #591
      01000351H   LINE      CODE     ---       #597
      01000352H   LINE      CODE     ---       #598
      01000354H   LINE      CODE     ---       #599
      01000355H   LINE      CODE     ---       #600
      01000356H   LINE      CODE     ---       #601
      01000358H   LINE      CODE     ---       #602
      01000359H   LINE      CODE     ---       #603
      0100035BH   LINE      CODE     ---       #604
      0100035CH   LINE      CODE     ---       #605
      0100035EH   LINE      CODE     ---       #606
LX51 LINKER/LOCATER V4.34a                                                            04/06/2009  20:32:26  PAGE 23


      0100035FH   LINE      CODE     ---       #607
      01000362H   LINE      CODE     ---       #608
      01000364H   LINE      CODE     ---       #609
      01000366H   LINE      CODE     ---       #610
      01000368H   LINE      CODE     ---       #611
      0100036AH   LINE      CODE     ---       #612
      0100036CH   LINE      CODE     ---       #613
      0100036EH   LINE      CODE     ---       #614
      0100036FH   LINE      CODE     ---       #615
      01000370H   LINE      CODE     ---       #618
      01000372H   LINE      CODE     ---       #619
      01000374H   LINE      CODE     ---       #620
      01000376H   LINE      CODE     ---       #621
      01000378H   LINE      CODE     ---       #623
      01000379H   LINE      CODE     ---       #624
      0100037BH   LINE      CODE     ---       #625
      0100037DH   LINE      CODE     ---       #626
      0100037FH   LINE      CODE     ---       #632
      01000381H   LINE      CODE     ---       #633
      01000382H   LINE      CODE     ---       #634
      01000384H   LINE      CODE     ---       #635
      01000386H   LINE      CODE     ---       #636
      01000387H   LINE      CODE     ---       #637
      01000388H   LINE      CODE     ---       #638
      0100038AH   LINE      CODE     ---       #643
      0100038CH   LINE      CODE     ---       #644
      0100038DH   LINE      CODE     ---       #645
      0100038EH   LINE      CODE     ---       #646
      0100038FH   LINE      CODE     ---       #647
      01000391H   LINE      CODE     ---       #652
      01000393H   LINE      CODE     ---       #653
      01000395H   LINE      CODE     ---       #654
      01000396H   LINE      CODE     ---       #655
      01000397H   LINE      CODE     ---       #656
      01000398H   LINE      CODE     ---       #657
      0100039AH   LINE      CODE     ---       #658
      0100039BH   LINE      CODE     ---       #659
      0100039DH   LINE      CODE     ---       #660
      0100039FH   LINE      CODE     ---       #661
      010003A0H   LINE      CODE     ---       #662
      010003A1H   LINE      CODE     ---       #663
      010003A3H   LINE      CODE     ---       #668
      010003A5H   LINE      CODE     ---       #673
      010003A7H   LINE      CODE     ---       #674
      010003A9H   LINE      CODE     ---       #675
      010003ABH   LINE      CODE     ---       #676
      010003ADH   LINE      CODE     ---       #681
      010003AFH   LINE      CODE     ---       #682
      010003B0H   LINE      CODE     ---       #683
      010003B1H   LINE      CODE     ---       #684
      010003B3H   LINE      CODE     ---       #685
      010003B4H   LINE      CODE     ---       #686
      010003B5H   LINE      CODE     ---       #687
      010003B7H   LINE      CODE     ---       #688
      010003B8H   LINE      CODE     ---       #689
      010003B9H   LINE      CODE     ---       #690
      010003BBH   LINE      CODE     ---       #691
      010003BCH   LINE      CODE     ---       #692
      010003BDH   LINE      CODE     ---       #693
      010003BFH   LINE      CODE     ---       #694
      010003C0H   LINE      CODE     ---       #695
      010003C1H   LINE      CODE     ---       #696
      010003C3H   LINE      CODE     ---       #697
      010003C4H   LINE      CODE     ---       #698
      010003C5H   LINE      CODE     ---       #699
LX51 LINKER/LOCATER V4.34a                                                            04/06/2009  20:32:26  PAGE 24


      010003C7H   LINE      CODE     ---       #700
      010003C8H   LINE      CODE     ---       #701
      010003C9H   LINE      CODE     ---       #702
      010003CCH   LINE      CODE     ---       #703
      010003CFH   LINE      CODE     ---       #704
      010003D2H   LINE      CODE     ---       #705
      010003D5H   LINE      CODE     ---       #722
      010003D7H   LINE      CODE     ---       #723
      010003D9H   LINE      CODE     ---       #724
      010003DCH   LINE      CODE     ---       #729
      ---         BLOCKEND  ---      ---       LVL=0

      ---         MODULE    ---      ---       ADC
      010007E0H   PUBLIC    CODE     NEAR LAB  _ADC_INIT
      010007C5H   PUBLIC    CODE     NEAR LAB  _ADC_READ
      000000D0H.6 SFRSYM    DATA     BIT       AC
      000000E0H   SFRSYM    DATA     BYTE      ACC
      000000A1H   SFRSYM    DATA     BYTE      ADCCON
      000000A2H   SFRSYM    DATA     BYTE      ADCDATAH
      000000A3H   SFRSYM    DATA     BYTE      ADCDATAL
      000000A4H   SFRSYM    DATA     BYTE      ADCSTATIC
      000000F0H   SFRSYM    DATA     BYTE      B
      000000C8H.1 SFRSYM    DATA     BIT       C_T2
      000000A0H.6 SFRSYM    DATA     BIT       CE
      000000B6H   SFRSYM    DATA     BYTE      CK_CTRL
      0000008EH   SFRSYM    DATA     BYTE      CKCON
      000000A0H.1 SFRSYM    DATA     BIT       CLK1
      000000A0H.5 SFRSYM    DATA     BIT       CLK2
      000000C8H   SFRSYM    DATA     BIT       CP_RL2
      000000C8H   SFRSYM    DATA     BIT       CPRL2
      000000A0H.3 SFRSYM    DATA     BIT       CS
      000000C8H.1 SFRSYM    DATA     BIT       CT2
      000000D0H.7 SFRSYM    DATA     BIT       CY
      000000A0H   SFRSYM    DATA     BIT       DATA?
      000000BEH   SFRSYM    DATA     BYTE      DEV_OFFSET
      00000090H.2 SFRSYM    DATA     BIT       DIN0
      00000090H   SFRSYM    DATA     BIT       DIO0
      00000090H.1 SFRSYM    DATA     BIT       DIO1
      00000080H   SFRSYM    DATA     BIT       DIO2
      00000080H.1 SFRSYM    DATA     BIT       DIO3
      00000080H.2 SFRSYM    DATA     BIT       DIO4
      00000080H.3 SFRSYM    DATA     BIT       DIO5
      00000080H.4 SFRSYM    DATA     BIT       DIO6
      00000080H.5 SFRSYM    DATA     BIT       DIO7
      00000080H.6 SFRSYM    DATA     BIT       DIO8
      00000080H.7 SFRSYM    DATA     BIT       DIO9
      000000A0H.4 SFRSYM    DATA     BIT       DOUT2
      00000083H   SFRSYM    DATA     BYTE      DPH
      00000083H   SFRSYM    DATA     BYTE      DPH0
      00000085H   SFRSYM    DATA     BYTE      DPH1
      00000082H   SFRSYM    DATA     BYTE      DPL
      00000082H   SFRSYM    DATA     BYTE      DPL0
      00000084H   SFRSYM    DATA     BYTE      DPL1
      00000086H   SFRSYM    DATA     BYTE      DPS
      000000A0H.2 SFRSYM    DATA     BIT       DR1
      000000A0H.6 SFRSYM    DATA     BIT       DR2
      000000A0H.6 SFRSYM    DATA     BIT       DR2_CE
      000000A8H.7 SFRSYM    DATA     BIT       EA
      000000D8H   SFRSYM    DATA     BYTE      EICON
      000000E8H   SFRSYM    DATA     BYTE      EIE
      000000F8H   SFRSYM    DATA     BYTE      EIP
      000000A8H.4 SFRSYM    DATA     BIT       ES
      000000A8H.1 SFRSYM    DATA     BIT       ET0
      000000A8H.3 SFRSYM    DATA     BIT       ET1
      000000A8H.5 SFRSYM    DATA     BIT       ET2
LX51 LINKER/LOCATER V4.34a                                                            04/06/2009  20:32:26  PAGE 25


      000000E8H.4 SFRSYM    DATA     BIT       EWDI
      000000A8H   SFRSYM    DATA     BIT       EX0
      000000A8H.2 SFRSYM    DATA     BIT       EX1
      000000E8H   SFRSYM    DATA     BIT       EX2
      000000E8H.1 SFRSYM    DATA     BIT       EX3
      000000E8H.2 SFRSYM    DATA     BIT       EX4
      000000E8H.3 SFRSYM    DATA     BIT       EX5
      000000C8H.3 SFRSYM    DATA     BIT       EXEN2
      000000C8H.6 SFRSYM    DATA     BIT       EXF2
      00000091H   SFRSYM    DATA     BYTE      EXIF
      000000D0H.5 SFRSYM    DATA     BIT       F0
      000000D0H.1 SFRSYM    DATA     BIT       F1
      000000A8H   SFRSYM    DATA     BYTE      IE
      00000088H.1 SFRSYM    DATA     BIT       IE0
      00000088H.3 SFRSYM    DATA     BIT       IE1
      00000080H.3 SFRSYM    DATA     BIT       INT0_N
      00000080H.4 SFRSYM    DATA     BIT       INT1_N
      000000B8H   SFRSYM    DATA     BYTE      IP
      00000088H   SFRSYM    DATA     BIT       IT0
      00000088H.2 SFRSYM    DATA     BIT       IT1
      00000092H   SFRSYM    DATA     BYTE      MPAGE
      000000D0H.2 SFRSYM    DATA     BIT       OV
      000000D0H   SFRSYM    DATA     BIT       P
      00000080H   SFRSYM    DATA     BYTE      P0
      00000080H   SFRSYM    DATA     BIT       P0_0
      00000080H.1 SFRSYM    DATA     BIT       P0_1
      00000080H.2 SFRSYM    DATA     BIT       P0_2
      00000080H.3 SFRSYM    DATA     BIT       P0_3
      00000080H.4 SFRSYM    DATA     BIT       P0_4
      00000080H.5 SFRSYM    DATA     BIT       P0_5
      00000080H.6 SFRSYM    DATA     BIT       P0_6
      00000080H.7 SFRSYM    DATA     BIT       P0_7
      00000095H   SFRSYM    DATA     BYTE      P0_ALT
      00000094H   SFRSYM    DATA     BYTE      P0_DIR
      00000090H   SFRSYM    DATA     BYTE      P1
      00000090H   SFRSYM    DATA     BIT       P1_0
      00000090H.1 SFRSYM    DATA     BIT       P1_1
      00000090H.2 SFRSYM    DATA     BIT       P1_2
      00000097H   SFRSYM    DATA     BYTE      P1_ALT
      00000096H   SFRSYM    DATA     BYTE      P1_DIR
      00000087H   SFRSYM    DATA     BYTE      PCON
      000000B8H.4 SFRSYM    DATA     BIT       PS
      000000D0H   SFRSYM    DATA     BYTE      PSW
      000000B8H.1 SFRSYM    DATA     BIT       PT0
      000000B8H.3 SFRSYM    DATA     BIT       PT1
      000000B8H.5 SFRSYM    DATA     BIT       PT2
      000000F8H.4 SFRSYM    DATA     BIT       PWDI
      00000080H.7 SFRSYM    DATA     BIT       PWM
      000000A9H   SFRSYM    DATA     BYTE      PWMCON
      000000AAH   SFRSYM    DATA     BYTE      PWMDUTY
      000000A0H.7 SFRSYM    DATA     BIT       PWR_UP
      000000B8H   SFRSYM    DATA     BIT       PX0
      000000B8H.2 SFRSYM    DATA     BIT       PX1
      000000F8H   SFRSYM    DATA     BIT       PX2
      000000F8H.1 SFRSYM    DATA     BIT       PX3
      000000F8H.2 SFRSYM    DATA     BIT       PX4
      000000F8H.3 SFRSYM    DATA     BIT       PX5
      000000A0H   SFRSYM    DATA     BYTE      RADIO
      00000098H.2 SFRSYM    DATA     BIT       RB8
      000000CBH   SFRSYM    DATA     BYTE      RCAP2H
      000000CAH   SFRSYM    DATA     BYTE      RCAP2L
      000000C8H.5 SFRSYM    DATA     BIT       RCLK
      000000ADH   SFRSYM    DATA     BYTE      REGX_CTRL
      000000ACH   SFRSYM    DATA     BYTE      REGX_LSB
      000000ABH   SFRSYM    DATA     BYTE      REGX_MSB
LX51 LINKER/LOCATER V4.34a                                                            04/06/2009  20:32:26  PAGE 26


      00000098H.4 SFRSYM    DATA     BIT       REN
      00000098H   SFRSYM    DATA     BIT       RI
      000000D0H.3 SFRSYM    DATA     BIT       RS0
      000000D0H.4 SFRSYM    DATA     BIT       RS1
      000000B1H   SFRSYM    DATA     BYTE      RSTREAS
      00000080H.1 SFRSYM    DATA     BIT       RXD
      00000099H   SFRSYM    DATA     BYTE      SBUF
      00000098H   SFRSYM    DATA     BYTE      SCON
      00000098H.7 SFRSYM    DATA     BIT       SM0
      00000098H.6 SFRSYM    DATA     BIT       SM1
      00000098H.5 SFRSYM    DATA     BIT       SM2
      00000081H   SFRSYM    DATA     BYTE      SP
      0000008FH   SFRSYM    DATA     BYTE      SPC_FNC
      000000B3H   SFRSYM    DATA     BYTE      SPI_CTRL
      000000B2H   SFRSYM    DATA     BYTE      SPI_DATA
      000000B4H   SFRSYM    DATA     BYTE      SPICLK
      00000080H.5 SFRSYM    DATA     BIT       T0
      00000080H.6 SFRSYM    DATA     BIT       T1
      000000BCH   SFRSYM    DATA     BYTE      T1_1V2
      00000090H   SFRSYM    DATA     BIT       T2
      000000BDH   SFRSYM    DATA     BYTE      T2_1V2
      000000C8H   SFRSYM    DATA     BYTE      T2CON
      00000098H.3 SFRSYM    DATA     BIT       TB8
      000000C8H.4 SFRSYM    DATA     BIT       TCLK
      00000088H   SFRSYM    DATA     BYTE      TCON
      000000B7H   SFRSYM    DATA     BYTE      TEST_MODE
      00000088H.5 SFRSYM    DATA     BIT       TF0
      00000088H.7 SFRSYM    DATA     BIT       TF1
      000000C8H.7 SFRSYM    DATA     BIT       TF2
      0000008CH   SFRSYM    DATA     BYTE      TH0
      0000008DH   SFRSYM    DATA     BYTE      TH1
      000000CDH   SFRSYM    DATA     BYTE      TH2
      00000098H.1 SFRSYM    DATA     BIT       TI
      000000B5H   SFRSYM    DATA     BYTE      TICK_DV
      0000008AH   SFRSYM    DATA     BYTE      TL0
      0000008BH   SFRSYM    DATA     BYTE      TL1
      000000CCH   SFRSYM    DATA     BYTE      TL2
      00000089H   SFRSYM    DATA     BYTE      TMOD
      00000088H.4 SFRSYM    DATA     BIT       TR0
      00000088H.6 SFRSYM    DATA     BIT       TR1
      000000C8H.2 SFRSYM    DATA     BIT       TR2
      00000080H.2 SFRSYM    DATA     BIT       TXD
      000000D8H.3 SFRSYM    DATA     BIT       WDTI
      0100004BH   SYMBOL    CODE     NEAR LAB  ?C0002
      0100001BH   SYMBOL    CODE     NEAR LAB  ?C0004
      01000023H   SYMBOL    CODE     NEAR LAB  ?C0005
      01000037H   SYMBOL    CODE     NEAR LAB  ?C0006
      0100004FH   SYMBOL    CODE     NEAR LAB  ?C0007
      010007D4H   SYMBOL    CODE     NEAR LAB  ?C0011
      010007D9H   SYMBOL    CODE     NEAR LAB  ?C0012
      010007DFH   SYMBOL    CODE     NEAR LAB  ?C0013
      01000003H   SYMBOL    CODE     NEAR LAB  P_ADC_READ

      010007E0H   BLOCK     CODE     NEAR LAB  LVL=0
      010007E0H   LINE      CODE     ---       #206
      010007E3H   LINE      CODE     ---       #209
      010007E4H   LINE      CODE     ---       #210
      010007E6H   LINE      CODE     ---       #213
      010007E9H   LINE      CODE     ---       #216
      010007EAH   LINE      CODE     ---       #217
      010007ECH   LINE      CODE     ---       #220
      010007EFH   LINE      CODE     ---       #223
      010007F0H   LINE      CODE     ---       #224
      010007F2H   LINE      CODE     ---       #227
      ---         BLOCKEND  ---      ---       LVL=0
LX51 LINKER/LOCATER V4.34a                                                            04/06/2009  20:32:26  PAGE 27



      01000003H   BLOCK     CODE     NEAR LAB  LVL=0
      01000003H   LINE      CODE     ---       #241
      01000005H   LINE      CODE     ---       #242
      01000007H   LINE      CODE     ---       #243
      01000008H   LINE      CODE     ---       #248
      01000009H   LINE      CODE     ---       #249
      0100000AH   LINE      CODE     ---       #250
      0100000BH   LINE      CODE     ---       #253
      0100000DH   LINE      CODE     ---       #254
      0100000EH   LINE      CODE     ---       #255
      0100000FH   LINE      CODE     ---       #256
      01000011H   LINE      CODE     ---       #257
      01000012H   LINE      CODE     ---       #258
      01000014H   LINE      CODE     ---       #259
      01000015H   LINE      CODE     ---       #260
      01000017H   LINE      CODE     ---       #261
      01000019H   LINE      CODE     ---       #262
      0100001BH   LINE      CODE     ---       #271
      0100001DH   LINE      CODE     ---       #272
      0100001FH   LINE      CODE     ---       #273
      01000021H   LINE      CODE     ---       #276
      01000023H   LINE      CODE     ---       #283
      01000025H   LINE      CODE     ---       #284
      01000026H   LINE      CODE     ---       #285
      01000029H   LINE      CODE     ---       #286
      0100002AH   LINE      CODE     ---       #287
      0100002BH   LINE      CODE     ---       #288
      0100002DH   LINE      CODE     ---       #291
      0100002FH   LINE      CODE     ---       #292
      01000030H   LINE      CODE     ---       #293
      01000031H   LINE      CODE     ---       #294
      01000032H   LINE      CODE     ---       #295
      01000034H   LINE      CODE     ---       #296
      01000035H   LINE      CODE     ---       #297
      01000036H   LINE      CODE     ---       #298
      01000037H   LINE      CODE     ---       #305
      01000039H   LINE      CODE     ---       #306
      0100003AH   LINE      CODE     ---       #307
      0100003DH   LINE      CODE     ---       #308
      0100003EH   LINE      CODE     ---       #309
      0100003FH   LINE      CODE     ---       #310
      01000041H   LINE      CODE     ---       #313
      01000043H   LINE      CODE     ---       #314
      01000044H   LINE      CODE     ---       #315
      01000046H   LINE      CODE     ---       #316
      01000047H   LINE      CODE     ---       #317
      01000048H   LINE      CODE     ---       #318
      01000049H   LINE      CODE     ---       #319
      0100004AH   LINE      CODE     ---       #320
      0100004BH   LINE      CODE     ---       #326
      0100004DH   LINE      CODE     ---       #327
      0100004FH   LINE      CODE     ---       #331
      ---         BLOCKEND  ---      ---       LVL=0

      010007C5H   BLOCK     CODE     NEAR LAB  LVL=0
      010007C5H   LINE      CODE     ---       #347
      010007C6H   LINE      CODE     ---       #348
      010007C7H   LINE      CODE     ---       #349
      010007C8H   LINE      CODE     ---       #353
      010007CBH   LINE      CODE     ---       #356
      010007CCH   LINE      CODE     ---       #357
      010007CEH   LINE      CODE     ---       #360
      010007D1H   LINE      CODE     ---       #361
      010007D4H   LINE      CODE     ---       #366
LX51 LINKER/LOCATER V4.34a                                                            04/06/2009  20:32:26  PAGE 28


      010007D6H   LINE      CODE     ---       #367
      010007D9H   LINE      CODE     ---       #373
      010007DCH   LINE      CODE     ---       #377
      010007DFH   LINE      CODE     ---       #383
      ---         BLOCKEND  ---      ---       LVL=0

      ---         MODULE    ---      ---       UTILS
      00000050H   PUBLIC    DATA     BYTE      ?_STRNCPY?BYTE
      01000578H   PUBLIC    CODE     NEAR LAB  _MDELAY
      01000822H   PUBLIC    CODE     NEAR LAB  _STORE_CPU_RATE
      010005C1H   PUBLIC    CODE     NEAR LAB  _STRNCPY
      010007F3H   PUBLIC    CODE     NEAR LAB  _WDT_LOAD
      00000063H   PUBLIC    DATA     BYTE      MHZ
      000000D0H.6 SFRSYM    DATA     BIT       AC
      000000E0H   SFRSYM    DATA     BYTE      ACC
      000000A1H   SFRSYM    DATA     BYTE      ADCCON
      000000A2H   SFRSYM    DATA     BYTE      ADCDATAH
      000000A3H   SFRSYM    DATA     BYTE      ADCDATAL
      000000A4H   SFRSYM    DATA     BYTE      ADCSTATIC
      000000F0H   SFRSYM    DATA     BYTE      B
      000000C8H.1 SFRSYM    DATA     BIT       C_T2
      000000A0H.6 SFRSYM    DATA     BIT       CE
      000000B6H   SFRSYM    DATA     BYTE      CK_CTRL
      0000008EH   SFRSYM    DATA     BYTE      CKCON
      000000A0H.1 SFRSYM    DATA     BIT       CLK1
      000000A0H.5 SFRSYM    DATA     BIT       CLK2
      000000C8H   SFRSYM    DATA     BIT       CP_RL2
      000000C8H   SFRSYM    DATA     BIT       CPRL2
      000000A0H.3 SFRSYM    DATA     BIT       CS
      000000C8H.1 SFRSYM    DATA     BIT       CT2
      000000D0H.7 SFRSYM    DATA     BIT       CY
      000000A0H   SFRSYM    DATA     BIT       DATA?
      000000BEH   SFRSYM    DATA     BYTE      DEV_OFFSET
      00000090H.2 SFRSYM    DATA     BIT       DIN0
      00000090H   SFRSYM    DATA     BIT       DIO0
      00000090H.1 SFRSYM    DATA     BIT       DIO1
      00000080H   SFRSYM    DATA     BIT       DIO2
      00000080H.1 SFRSYM    DATA     BIT       DIO3
      00000080H.2 SFRSYM    DATA     BIT       DIO4
      00000080H.3 SFRSYM    DATA     BIT       DIO5
      00000080H.4 SFRSYM    DATA     BIT       DIO6
      00000080H.5 SFRSYM    DATA     BIT       DIO7
      00000080H.6 SFRSYM    DATA     BIT       DIO8
      00000080H.7 SFRSYM    DATA     BIT       DIO9
      000000A0H.4 SFRSYM    DATA     BIT       DOUT2
      00000083H   SFRSYM    DATA     BYTE      DPH
      00000083H   SFRSYM    DATA     BYTE      DPH0
      00000085H   SFRSYM    DATA     BYTE      DPH1
      00000082H   SFRSYM    DATA     BYTE      DPL
      00000082H   SFRSYM    DATA     BYTE      DPL0
      00000084H   SFRSYM    DATA     BYTE      DPL1
      00000086H   SFRSYM    DATA     BYTE      DPS
      000000A0H.2 SFRSYM    DATA     BIT       DR1
      000000A0H.6 SFRSYM    DATA     BIT       DR2
      000000A0H.6 SFRSYM    DATA     BIT       DR2_CE
      000000A8H.7 SFRSYM    DATA     BIT       EA
      000000D8H   SFRSYM    DATA     BYTE      EICON
      000000E8H   SFRSYM    DATA     BYTE      EIE
      000000F8H   SFRSYM    DATA     BYTE      EIP
      000000A8H.4 SFRSYM    DATA     BIT       ES
      000000A8H.1 SFRSYM    DATA     BIT       ET0
      000000A8H.3 SFRSYM    DATA     BIT       ET1
      000000A8H.5 SFRSYM    DATA     BIT       ET2
      000000E8H.4 SFRSYM    DATA     BIT       EWDI
      000000A8H   SFRSYM    DATA     BIT       EX0
LX51 LINKER/LOCATER V4.34a                                                            04/06/2009  20:32:26  PAGE 29


      000000A8H.2 SFRSYM    DATA     BIT       EX1
      000000E8H   SFRSYM    DATA     BIT       EX2
      000000E8H.1 SFRSYM    DATA     BIT       EX3
      000000E8H.2 SFRSYM    DATA     BIT       EX4
      000000E8H.3 SFRSYM    DATA     BIT       EX5
      000000C8H.3 SFRSYM    DATA     BIT       EXEN2
      000000C8H.6 SFRSYM    DATA     BIT       EXF2
      00000091H   SFRSYM    DATA     BYTE      EXIF
      000000D0H.5 SFRSYM    DATA     BIT       F0
      000000D0H.1 SFRSYM    DATA     BIT       F1
      000000A8H   SFRSYM    DATA     BYTE      IE
      00000088H.1 SFRSYM    DATA     BIT       IE0
      00000088H.3 SFRSYM    DATA     BIT       IE1
      00000080H.3 SFRSYM    DATA     BIT       INT0_N
      00000080H.4 SFRSYM    DATA     BIT       INT1_N
      000000B8H   SFRSYM    DATA     BYTE      IP
      00000088H   SFRSYM    DATA     BIT       IT0
      00000088H.2 SFRSYM    DATA     BIT       IT1
      00000092H   SFRSYM    DATA     BYTE      MPAGE
      000000D0H.2 SFRSYM    DATA     BIT       OV
      000000D0H   SFRSYM    DATA     BIT       P
      00000080H   SFRSYM    DATA     BYTE      P0
      00000080H   SFRSYM    DATA     BIT       P0_0
      00000080H.1 SFRSYM    DATA     BIT       P0_1
      00000080H.2 SFRSYM    DATA     BIT       P0_2
      00000080H.3 SFRSYM    DATA     BIT       P0_3
      00000080H.4 SFRSYM    DATA     BIT       P0_4
      00000080H.5 SFRSYM    DATA     BIT       P0_5
      00000080H.6 SFRSYM    DATA     BIT       P0_6
      00000080H.7 SFRSYM    DATA     BIT       P0_7
      00000095H   SFRSYM    DATA     BYTE      P0_ALT
      00000094H   SFRSYM    DATA     BYTE      P0_DIR
      00000090H   SFRSYM    DATA     BYTE      P1
      00000090H   SFRSYM    DATA     BIT       P1_0
      00000090H.1 SFRSYM    DATA     BIT       P1_1
      00000090H.2 SFRSYM    DATA     BIT       P1_2
      00000097H   SFRSYM    DATA     BYTE      P1_ALT
      00000096H   SFRSYM    DATA     BYTE      P1_DIR
      00000087H   SFRSYM    DATA     BYTE      PCON
      000000B8H.4 SFRSYM    DATA     BIT       PS
      000000D0H   SFRSYM    DATA     BYTE      PSW
      000000B8H.1 SFRSYM    DATA     BIT       PT0
      000000B8H.3 SFRSYM    DATA     BIT       PT1
      000000B8H.5 SFRSYM    DATA     BIT       PT2
      000000F8H.4 SFRSYM    DATA     BIT       PWDI
      00000080H.7 SFRSYM    DATA     BIT       PWM
      000000A9H   SFRSYM    DATA     BYTE      PWMCON
      000000AAH   SFRSYM    DATA     BYTE      PWMDUTY
      000000A0H.7 SFRSYM    DATA     BIT       PWR_UP
      000000B8H   SFRSYM    DATA     BIT       PX0
      000000B8H.2 SFRSYM    DATA     BIT       PX1
      000000F8H   SFRSYM    DATA     BIT       PX2
      000000F8H.1 SFRSYM    DATA     BIT       PX3
      000000F8H.2 SFRSYM    DATA     BIT       PX4
      000000F8H.3 SFRSYM    DATA     BIT       PX5
      000000A0H   SFRSYM    DATA     BYTE      RADIO
      00000098H.2 SFRSYM    DATA     BIT       RB8
      000000CBH   SFRSYM    DATA     BYTE      RCAP2H
      000000CAH   SFRSYM    DATA     BYTE      RCAP2L
      000000C8H.5 SFRSYM    DATA     BIT       RCLK
      000000ADH   SFRSYM    DATA     BYTE      REGX_CTRL
      000000ACH   SFRSYM    DATA     BYTE      REGX_LSB
      000000ABH   SFRSYM    DATA     BYTE      REGX_MSB
      00000098H.4 SFRSYM    DATA     BIT       REN
      00000098H   SFRSYM    DATA     BIT       RI
LX51 LINKER/LOCATER V4.34a                                                            04/06/2009  20:32:26  PAGE 30


      000000D0H.3 SFRSYM    DATA     BIT       RS0
      000000D0H.4 SFRSYM    DATA     BIT       RS1
      000000B1H   SFRSYM    DATA     BYTE      RSTREAS
      00000080H.1 SFRSYM    DATA     BIT       RXD
      00000099H   SFRSYM    DATA     BYTE      SBUF
      00000098H   SFRSYM    DATA     BYTE      SCON
      00000098H.7 SFRSYM    DATA     BIT       SM0
      00000098H.6 SFRSYM    DATA     BIT       SM1
      00000098H.5 SFRSYM    DATA     BIT       SM2
      00000081H   SFRSYM    DATA     BYTE      SP
      0000008FH   SFRSYM    DATA     BYTE      SPC_FNC
      000000B3H   SFRSYM    DATA     BYTE      SPI_CTRL
      000000B2H   SFRSYM    DATA     BYTE      SPI_DATA
      000000B4H   SFRSYM    DATA     BYTE      SPICLK
      00000080H.5 SFRSYM    DATA     BIT       T0
      00000080H.6 SFRSYM    DATA     BIT       T1
      000000BCH   SFRSYM    DATA     BYTE      T1_1V2
      00000090H   SFRSYM    DATA     BIT       T2
      000000BDH   SFRSYM    DATA     BYTE      T2_1V2
      000000C8H   SFRSYM    DATA     BYTE      T2CON
      00000098H.3 SFRSYM    DATA     BIT       TB8
      000000C8H.4 SFRSYM    DATA     BIT       TCLK
      00000088H   SFRSYM    DATA     BYTE      TCON
      000000B7H   SFRSYM    DATA     BYTE      TEST_MODE
      00000088H.5 SFRSYM    DATA     BIT       TF0
      00000088H.7 SFRSYM    DATA     BIT       TF1
      000000C8H.7 SFRSYM    DATA     BIT       TF2
      0000008CH   SFRSYM    DATA     BYTE      TH0
      0000008DH   SFRSYM    DATA     BYTE      TH1
      000000CDH   SFRSYM    DATA     BYTE      TH2
      00000098H.1 SFRSYM    DATA     BIT       TI
      000000B5H   SFRSYM    DATA     BYTE      TICK_DV
      0000008AH   SFRSYM    DATA     BYTE      TL0
      0000008BH   SFRSYM    DATA     BYTE      TL1
      000000CCH   SFRSYM    DATA     BYTE      TL2
      00000089H   SFRSYM    DATA     BYTE      TMOD
      00000088H.4 SFRSYM    DATA     BIT       TR0
      00000088H.6 SFRSYM    DATA     BIT       TR1
      000000C8H.2 SFRSYM    DATA     BIT       TR2
      00000080H.2 SFRSYM    DATA     BIT       TXD
      000000D8H.3 SFRSYM    DATA     BIT       WDTI
      0000007BH   SYMBOL    DATA     BYTE      ?_MDELAY?BYTE
      01000599H   SYMBOL    CODE     NEAR LAB  ?C0002
      010005B9H   SYMBOL    CODE     NEAR LAB  ?C0004
      010005A5H   SYMBOL    CODE     NEAR LAB  ?C0005
      010005C0H   SYMBOL    CODE     NEAR LAB  ?C0008
      010007F7H   SYMBOL    CODE     NEAR LAB  ?C0009
      010007FCH   SYMBOL    CODE     NEAR LAB  ?C0010
      010005CAH   SYMBOL    CODE     NEAR LAB  ?C0012
      01000604H   SYMBOL    CODE     NEAR LAB  ?C0015
      010005B7H   SYMBOL    CODE     NEAR LAB  ?C0016
      010005BEH   SYMBOL    CODE     NEAR LAB  ?C0017
      010005E5H   SYMBOL    CODE     NEAR LAB  ?C0018
      010005F7H   SYMBOL    CODE     NEAR LAB  ?C0019
      01000602H   SYMBOL    CODE     NEAR LAB  ?C0020
      00000053H   SYMBOL    DATA     BYTE      DST?347
      0000007BH   SYMBOL    DATA     BYTE      MSEC?141
      00000056H   SYMBOL    DATA     BYTE      N?348
      00000050H   SYMBOL    DATA     BYTE      SRC?346

      01000822H   BLOCK     CODE     NEAR LAB  LVL=0
      01000822H   LINE      CODE     ---       #231
      01000823H   LINE      CODE     ---       #232
      01000824H   LINE      CODE     ---       #233
      01000826H   LINE      CODE     ---       #234
LX51 LINKER/LOCATER V4.34a                                                            04/06/2009  20:32:26  PAGE 31


      01000828H   LINE      CODE     ---       #235
      0100082AH   LINE      CODE     ---       #236
      0100082CH   LINE      CODE     ---       #237
      0100082EH   LINE      CODE     ---       #240
      ---         BLOCKEND  ---      ---       LVL=0

      01000578H   BLOCK     CODE     NEAR LAB  LVL=0
      01000578H   LINE      CODE     ---       #256
      0100057AH   LINE      CODE     ---       #257
      0100057CH   LINE      CODE     ---       #263
      0100057DH   LINE      CODE     ---       #264
      0100057FH   LINE      CODE     ---       #265
      01000580H   LINE      CODE     ---       #266
      01000581H   LINE      CODE     ---       #267
      01000582H   LINE      CODE     ---       #268
      01000584H   LINE      CODE     ---       #269
      01000586H   LINE      CODE     ---       #270
      01000588H   LINE      CODE     ---       #271
      0100058AH   LINE      CODE     ---       #272
      0100058DH   LINE      CODE     ---       #273
      0100058EH   LINE      CODE     ---       #274
      01000590H   LINE      CODE     ---       #275
      01000591H   LINE      CODE     ---       #276
      01000592H   LINE      CODE     ---       #277
      01000593H   LINE      CODE     ---       #278
      01000596H   LINE      CODE     ---       #283
      01000597H   LINE      CODE     ---       #284
      01000598H   LINE      CODE     ---       #285
      01000599H   LINE      CODE     ---       #287
      0100059AH   LINE      CODE     ---       #288
      0100059BH   LINE      CODE     ---       #289
      0100059DH   LINE      CODE     ---       #290
      0100059EH   LINE      CODE     ---       #291
      010005A0H   LINE      CODE     ---       #292
      010005A2H   LINE      CODE     ---       #296
      010005A3H   LINE      CODE     ---       #297
      010005A4H   LINE      CODE     ---       #298
      010005A5H   LINE      CODE     ---       #300
      010005A6H   LINE      CODE     ---       #301
      010005A7H   LINE      CODE     ---       #302
      010005A8H   LINE      CODE     ---       #303
      010005A9H   LINE      CODE     ---       #304
      010005ABH   LINE      CODE     ---       #305
      010005ACH   LINE      CODE     ---       #306
      010005ADH   LINE      CODE     ---       #307
      010005AFH   LINE      CODE     ---       #308
      010005B0H   LINE      CODE     ---       #309
      010005B2H   LINE      CODE     ---       #310
      010005B3H   LINE      CODE     ---       #311
      010005B6H   LINE      CODE     ---       #312
      010005B7H   LINE      CODE     ---       #314
      010005B9H   LINE      CODE     ---       #316
      010005BAH   LINE      CODE     ---       #317
      010005BDH   LINE      CODE     ---       #318
      010005BEH   LINE      CODE     ---       #320
      010005C0H   LINE      CODE     ---       #325
      ---         BLOCKEND  ---      ---       LVL=0

      010007F3H   BLOCK     CODE     NEAR LAB  LVL=0
      010007F3H   LINE      CODE     ---       #341
      010007F5H   LINE      CODE     ---       #342
      010007F7H   LINE      CODE     ---       #348
      010007F9H   LINE      CODE     ---       #349
      010007FCH   LINE      CODE     ---       #354
      010007FEH   LINE      CODE     ---       #357
LX51 LINKER/LOCATER V4.34a                                                            04/06/2009  20:32:26  PAGE 32


      010007FFH   LINE      CODE     ---       #358
      01000801H   LINE      CODE     ---       #361
      01000804H   LINE      CODE     ---       #364
      ---         BLOCKEND  ---      ---       LVL=0

      010005C1H   BLOCK     CODE     NEAR LAB  LVL=0
      010005C1H   LINE      CODE     ---       #380
      010005C3H   LINE      CODE     ---       #381
      010005C5H   LINE      CODE     ---       #382
      010005C7H   LINE      CODE     ---       #389
      010005C8H   LINE      CODE     ---       #390
      010005C9H   LINE      CODE     ---       #391
      010005CAH   LINE      CODE     ---       #393
      010005CBH   LINE      CODE     ---       #394
      010005CCH   LINE      CODE     ---       #395
      010005CEH   LINE      CODE     ---       #396
      010005D0H   LINE      CODE     ---       #397
      010005D2H   LINE      CODE     ---       #398
      010005D3H   LINE      CODE     ---       #399
      010005D4H   LINE      CODE     ---       #400
      010005D6H   LINE      CODE     ---       #401
      010005D7H   LINE      CODE     ---       #402
      010005D9H   LINE      CODE     ---       #405
      010005DBH   LINE      CODE     ---       #406
      010005DDH   LINE      CODE     ---       #407
      010005DFH   LINE      CODE     ---       #408
      010005E1H   LINE      CODE     ---       #409
      010005E3H   LINE      CODE     ---       #410
      010005E5H   LINE      CODE     ---       #412
      010005E6H   LINE      CODE     ---       #413
      010005E7H   LINE      CODE     ---       #414
      010005EAH   LINE      CODE     ---       #415
      010005EBH   LINE      CODE     ---       #416
      010005EDH   LINE      CODE     ---       #417
      010005EFH   LINE      CODE     ---       #418
      010005F1H   LINE      CODE     ---       #419
      010005F3H   LINE      CODE     ---       #420
      010005F5H   LINE      CODE     ---       #421
      010005F7H   LINE      CODE     ---       #423
      010005F8H   LINE      CODE     ---       #424
      010005F9H   LINE      CODE     ---       #425
      010005FAH   LINE      CODE     ---       #426
      010005FDH   LINE      CODE     ---       #429
      010005FEH   LINE      CODE     ---       #430
      01000601H   LINE      CODE     ---       #431
      01000602H   LINE      CODE     ---       #433
      01000604H   LINE      CODE     ---       #437
      ---         BLOCKEND  ---      ---       LVL=0

      ---         MODULE    ---      ---       SERIAL
      0100067DH   PUBLIC    CODE     NEAR LAB  _?INT_PRINT
      01000050H   PUBLIC    CODE     NEAR LAB  _PUTC
      0100077DH   PUBLIC    CODE     NEAR LAB  _PUTS
      01000847H   PUBLIC    CODE     NEAR LAB  _SERIAL_INIT
      0100086FH   PUBLIC    CODE     NEAR LAB  GETC
      000000D0H.6 SFRSYM    DATA     BIT       AC
      000000E0H   SFRSYM    DATA     BYTE      ACC
      000000A1H   SFRSYM    DATA     BYTE      ADCCON
      000000A2H   SFRSYM    DATA     BYTE      ADCDATAH
      000000A3H   SFRSYM    DATA     BYTE      ADCDATAL
      000000A4H   SFRSYM    DATA     BYTE      ADCSTATIC
      000000F0H   SFRSYM    DATA     BYTE      B
      000000C8H.1 SFRSYM    DATA     BIT       C_T2
      000000A0H.6 SFRSYM    DATA     BIT       CE
      000000B6H   SFRSYM    DATA     BYTE      CK_CTRL
LX51 LINKER/LOCATER V4.34a                                                            04/06/2009  20:32:26  PAGE 33


      0000008EH   SFRSYM    DATA     BYTE      CKCON
      000000A0H.1 SFRSYM    DATA     BIT       CLK1
      000000A0H.5 SFRSYM    DATA     BIT       CLK2
      000000C8H   SFRSYM    DATA     BIT       CP_RL2
      000000C8H   SFRSYM    DATA     BIT       CPRL2
      000000A0H.3 SFRSYM    DATA     BIT       CS
      000000C8H.1 SFRSYM    DATA     BIT       CT2
      000000D0H.7 SFRSYM    DATA     BIT       CY
      000000A0H   SFRSYM    DATA     BIT       DATA?
      000000BEH   SFRSYM    DATA     BYTE      DEV_OFFSET
      00000090H.2 SFRSYM    DATA     BIT       DIN0
      00000090H   SFRSYM    DATA     BIT       DIO0
      00000090H.1 SFRSYM    DATA     BIT       DIO1
      00000080H   SFRSYM    DATA     BIT       DIO2
      00000080H.1 SFRSYM    DATA     BIT       DIO3
      00000080H.2 SFRSYM    DATA     BIT       DIO4
      00000080H.3 SFRSYM    DATA     BIT       DIO5
      00000080H.4 SFRSYM    DATA     BIT       DIO6
      00000080H.5 SFRSYM    DATA     BIT       DIO7
      00000080H.6 SFRSYM    DATA     BIT       DIO8
      00000080H.7 SFRSYM    DATA     BIT       DIO9
      000000A0H.4 SFRSYM    DATA     BIT       DOUT2
      00000083H   SFRSYM    DATA     BYTE      DPH
      00000083H   SFRSYM    DATA     BYTE      DPH0
      00000085H   SFRSYM    DATA     BYTE      DPH1
      00000082H   SFRSYM    DATA     BYTE      DPL
      00000082H   SFRSYM    DATA     BYTE      DPL0
      00000084H   SFRSYM    DATA     BYTE      DPL1
      00000086H   SFRSYM    DATA     BYTE      DPS
      000000A0H.2 SFRSYM    DATA     BIT       DR1
      000000A0H.6 SFRSYM    DATA     BIT       DR2
      000000A0H.6 SFRSYM    DATA     BIT       DR2_CE
      000000A8H.7 SFRSYM    DATA     BIT       EA
      000000D8H   SFRSYM    DATA     BYTE      EICON
      000000E8H   SFRSYM    DATA     BYTE      EIE
      000000F8H   SFRSYM    DATA     BYTE      EIP
      000000A8H.4 SFRSYM    DATA     BIT       ES
      000000A8H.1 SFRSYM    DATA     BIT       ET0
      000000A8H.3 SFRSYM    DATA     BIT       ET1
      000000A8H.5 SFRSYM    DATA     BIT       ET2
      000000E8H.4 SFRSYM    DATA     BIT       EWDI
      000000A8H   SFRSYM    DATA     BIT       EX0
      000000A8H.2 SFRSYM    DATA     BIT       EX1
      000000E8H   SFRSYM    DATA     BIT       EX2
      000000E8H.1 SFRSYM    DATA     BIT       EX3
      000000E8H.2 SFRSYM    DATA     BIT       EX4
      000000E8H.3 SFRSYM    DATA     BIT       EX5
      000000C8H.3 SFRSYM    DATA     BIT       EXEN2
      000000C8H.6 SFRSYM    DATA     BIT       EXF2
      00000091H   SFRSYM    DATA     BYTE      EXIF
      000000D0H.5 SFRSYM    DATA     BIT       F0
      000000D0H.1 SFRSYM    DATA     BIT       F1
      000000A8H   SFRSYM    DATA     BYTE      IE
      00000088H.1 SFRSYM    DATA     BIT       IE0
      00000088H.3 SFRSYM    DATA     BIT       IE1
      00000080H.3 SFRSYM    DATA     BIT       INT0_N
      00000080H.4 SFRSYM    DATA     BIT       INT1_N
      000000B8H   SFRSYM    DATA     BYTE      IP
      00000088H   SFRSYM    DATA     BIT       IT0
      00000088H.2 SFRSYM    DATA     BIT       IT1
      00000092H   SFRSYM    DATA     BYTE      MPAGE
      000000D0H.2 SFRSYM    DATA     BIT       OV
      000000D0H   SFRSYM    DATA     BIT       P
      00000080H   SFRSYM    DATA     BYTE      P0
      00000080H   SFRSYM    DATA     BIT       P0_0
LX51 LINKER/LOCATER V4.34a                                                            04/06/2009  20:32:26  PAGE 34


      00000080H.1 SFRSYM    DATA     BIT       P0_1
      00000080H.2 SFRSYM    DATA     BIT       P0_2
      00000080H.3 SFRSYM    DATA     BIT       P0_3
      00000080H.4 SFRSYM    DATA     BIT       P0_4
      00000080H.5 SFRSYM    DATA     BIT       P0_5
      00000080H.6 SFRSYM    DATA     BIT       P0_6
      00000080H.7 SFRSYM    DATA     BIT       P0_7
      00000095H   SFRSYM    DATA     BYTE      P0_ALT
      00000094H   SFRSYM    DATA     BYTE      P0_DIR
      00000090H   SFRSYM    DATA     BYTE      P1
      00000090H   SFRSYM    DATA     BIT       P1_0
      00000090H.1 SFRSYM    DATA     BIT       P1_1
      00000090H.2 SFRSYM    DATA     BIT       P1_2
      00000097H   SFRSYM    DATA     BYTE      P1_ALT
      00000096H   SFRSYM    DATA     BYTE      P1_DIR
      00000087H   SFRSYM    DATA     BYTE      PCON
      000000B8H.4 SFRSYM    DATA     BIT       PS
      000000D0H   SFRSYM    DATA     BYTE      PSW
      000000B8H.1 SFRSYM    DATA     BIT       PT0
      000000B8H.3 SFRSYM    DATA     BIT       PT1
      000000B8H.5 SFRSYM    DATA     BIT       PT2
      000000F8H.4 SFRSYM    DATA     BIT       PWDI
      00000080H.7 SFRSYM    DATA     BIT       PWM
      000000A9H   SFRSYM    DATA     BYTE      PWMCON
      000000AAH   SFRSYM    DATA     BYTE      PWMDUTY
      000000A0H.7 SFRSYM    DATA     BIT       PWR_UP
      000000B8H   SFRSYM    DATA     BIT       PX0
      000000B8H.2 SFRSYM    DATA     BIT       PX1
      000000F8H   SFRSYM    DATA     BIT       PX2
      000000F8H.1 SFRSYM    DATA     BIT       PX3
      000000F8H.2 SFRSYM    DATA     BIT       PX4
      000000F8H.3 SFRSYM    DATA     BIT       PX5
      000000A0H   SFRSYM    DATA     BYTE      RADIO
      00000098H.2 SFRSYM    DATA     BIT       RB8
      000000CBH   SFRSYM    DATA     BYTE      RCAP2H
      000000CAH   SFRSYM    DATA     BYTE      RCAP2L
      000000C8H.5 SFRSYM    DATA     BIT       RCLK
      000000ADH   SFRSYM    DATA     BYTE      REGX_CTRL
      000000ACH   SFRSYM    DATA     BYTE      REGX_LSB
      000000ABH   SFRSYM    DATA     BYTE      REGX_MSB
      00000098H.4 SFRSYM    DATA     BIT       REN
      00000098H   SFRSYM    DATA     BIT       RI
      000000D0H.3 SFRSYM    DATA     BIT       RS0
      000000D0H.4 SFRSYM    DATA     BIT       RS1
      000000B1H   SFRSYM    DATA     BYTE      RSTREAS
      00000080H.1 SFRSYM    DATA     BIT       RXD
      00000099H   SFRSYM    DATA     BYTE      SBUF
      00000098H   SFRSYM    DATA     BYTE      SCON
      00000098H.7 SFRSYM    DATA     BIT       SM0
      00000098H.6 SFRSYM    DATA     BIT       SM1
      00000098H.5 SFRSYM    DATA     BIT       SM2
      00000081H   SFRSYM    DATA     BYTE      SP
      0000008FH   SFRSYM    DATA     BYTE      SPC_FNC
      000000B3H   SFRSYM    DATA     BYTE      SPI_CTRL
      000000B2H   SFRSYM    DATA     BYTE      SPI_DATA
      000000B4H   SFRSYM    DATA     BYTE      SPICLK
      00000080H.5 SFRSYM    DATA     BIT       T0
      00000080H.6 SFRSYM    DATA     BIT       T1
      000000BCH   SFRSYM    DATA     BYTE      T1_1V2
      00000090H   SFRSYM    DATA     BIT       T2
      000000BDH   SFRSYM    DATA     BYTE      T2_1V2
      000000C8H   SFRSYM    DATA     BYTE      T2CON
      00000098H.3 SFRSYM    DATA     BIT       TB8
      000000C8H.4 SFRSYM    DATA     BIT       TCLK
      00000088H   SFRSYM    DATA     BYTE      TCON
LX51 LINKER/LOCATER V4.34a                                                            04/06/2009  20:32:26  PAGE 35


      000000B7H   SFRSYM    DATA     BYTE      TEST_MODE
      00000088H.5 SFRSYM    DATA     BIT       TF0
      00000088H.7 SFRSYM    DATA     BIT       TF1
      000000C8H.7 SFRSYM    DATA     BIT       TF2
      0000008CH   SFRSYM    DATA     BYTE      TH0
      0000008DH   SFRSYM    DATA     BYTE      TH1
      000000CDH   SFRSYM    DATA     BYTE      TH2
      00000098H.1 SFRSYM    DATA     BIT       TI
      000000B5H   SFRSYM    DATA     BYTE      TICK_DV
      0000008AH   SFRSYM    DATA     BYTE      TL0
      0000008BH   SFRSYM    DATA     BYTE      TL1
      000000CCH   SFRSYM    DATA     BYTE      TL2
      00000089H   SFRSYM    DATA     BYTE      TMOD
      00000088H.4 SFRSYM    DATA     BIT       TR0
      00000088H.6 SFRSYM    DATA     BIT       TR1
      000000C8H.2 SFRSYM    DATA     BIT       TR2
      00000080H.2 SFRSYM    DATA     BIT       TXD
      000000D8H.3 SFRSYM    DATA     BIT       WDTI
      0000006AH   SYMBOL    DATA     BYTE      ?_PUTS?BYTE
      0100063DH   SYMBOL    CODE     NEAR LAB  ?C0001
      01000629H   SYMBOL    CODE     NEAR LAB  ?C0002
      01000631H   SYMBOL    CODE     NEAR LAB  ?C0003
      01000639H   SYMBOL    CODE     NEAR LAB  ?C0004
      01000641H   SYMBOL    CODE     NEAR LAB  ?C0005
      0100085CH   SYMBOL    CODE     NEAR LAB  ?C0007
      0100085FH   SYMBOL    CODE     NEAR LAB  ?C0008
      01000862H   SYMBOL    CODE     NEAR LAB  ?C0010
      01000865H   SYMBOL    CODE     NEAR LAB  ?C0011
      01000869H   SYMBOL    CODE     NEAR LAB  ?C0012
      01000783H   SYMBOL    CODE     NEAR LAB  ?C0014
      010007A1H   SYMBOL    CODE     NEAR LAB  ?C0016
      01000872H   SYMBOL    CODE     NEAR LAB  ?C0017
      0100069DH   SYMBOL    CODE     NEAR LAB  ?C0018
      01000796H   SYMBOL    CODE     NEAR LAB  ?C0020
      0100085AH   SYMBOL    CODE     NEAR LAB  _SERIAL_WRITE
      01000605H   SYMBOL    CODE     NEAR LAB  _SETUP_BAUDRATE
      0000006AH   SYMBOL    DATA     BYTE      S?544
      01000862H   SYMBOL    CODE     NEAR LAB  SERIAL_READ

      01000605H   BLOCK     CODE     NEAR LAB  LVL=0
      01000605H   LINE      CODE     ---       #221
      01000608H   LINE      CODE     ---       #224
      0100060AH   LINE      CODE     ---       #227
      0100060CH   LINE      CODE     ---       #230
      0100060EH   LINE      CODE     ---       #233
      01000611H   LINE      CODE     ---       #237
      01000614H   LINE      CODE     ---       #240
      01000617H   LINE      CODE     ---       #244
      01000618H   LINE      CODE     ---       #245
      0100061AH   LINE      CODE     ---       #246
      01000629H   LINE      CODE     ---       #258
      0100062CH   LINE      CODE     ---       #261
      0100062FH   LINE      CODE     ---       #264
      01000631H   LINE      CODE     ---       #270
      01000634H   LINE      CODE     ---       #273
      01000637H   LINE      CODE     ---       #276
      01000639H   LINE      CODE     ---       #283
      0100063AH   LINE      CODE     ---       #284
      0100063BH   LINE      CODE     ---       #285
      0100063CH   LINE      CODE     ---       #286
      0100063DH   LINE      CODE     ---       #292
      0100063FH   LINE      CODE     ---       #293
      01000641H   LINE      CODE     ---       #297
      ---         BLOCKEND  ---      ---       LVL=0

LX51 LINKER/LOCATER V4.34a                                                            04/06/2009  20:32:26  PAGE 36


      01000847H   BLOCK     CODE     NEAR LAB  LVL=0
      01000847H   LINE      CODE     ---       #319
      0100084AH   LINE      CODE     ---       #322
      0100084DH   LINE      CODE     ---       #325
      01000850H   LINE      CODE     ---       #328
      ---         BLOCKEND  ---      ---       LVL=0

      0100085AH   BLOCK     CODE     NEAR LAB  LVL=0
      0100085AH   LINE      CODE     ---       #345
      0100085CH   LINE      CODE     ---       #349
      0100085FH   LINE      CODE     ---       #354
      01000861H   LINE      CODE     ---       #357
      ---         BLOCKEND  ---      ---       LVL=0

      01000862H   BLOCK     CODE     NEAR LAB  LVL=0
      01000862H   LINE      CODE     ---       #375
      01000865H   LINE      CODE     ---       #380
      01000867H   LINE      CODE     ---       #383
      01000869H   LINE      CODE     ---       #387
      ---         BLOCKEND  ---      ---       LVL=0

      01000050H   BLOCK     CODE     NEAR LAB  LVL=0
      01000050H   LINE      CODE     ---       #402
      ---         BLOCKEND  ---      ---       LVL=0

      0100077DH   BLOCK     CODE     NEAR LAB  LVL=0
      0100077DH   LINE      CODE     ---       #413
      0100077FH   LINE      CODE     ---       #414
      01000781H   LINE      CODE     ---       #415
      01000783H   LINE      CODE     ---       #421
      01000785H   LINE      CODE     ---       #422
      01000787H   LINE      CODE     ---       #423
      01000789H   LINE      CODE     ---       #424
      0100078CH   LINE      CODE     ---       #425
      0100078EH   LINE      CODE     ---       #428
      01000790H   LINE      CODE     ---       #429
      01000792H   LINE      CODE     ---       #430
      01000794H   LINE      CODE     ---       #431
      01000796H   LINE      CODE     ---       #433
      01000797H   LINE      CODE     ---       #434
      01000798H   LINE      CODE     ---       #435
      0100079BH   LINE      CODE     ---       #436
      0100079CH   LINE      CODE     ---       #437
      0100079FH   LINE      CODE     ---       #438
      010007A1H   LINE      CODE     ---       #442
      ---         BLOCKEND  ---      ---       LVL=0

      0100086FH   BLOCK     CODE     NEAR LAB  LVL=0
      0100086FH   LINE      CODE     ---       #456
      01000872H   LINE      CODE     ---       #460
      ---         BLOCKEND  ---      ---       LVL=0

      0100067DH   BLOCK     CODE     NEAR LAB  LVL=0
      0100067DH   LINE      CODE     ---       #474
      0100067FH   LINE      CODE     ---       #475
      01000681H   LINE      CODE     ---       #476
      01000683H   LINE      CODE     ---       #477
      01000685H   LINE      CODE     ---       #478
      01000686H   LINE      CODE     ---       #479
      01000688H   LINE      CODE     ---       #483
      0100068AH   LINE      CODE     ---       #484
      0100068BH   LINE      CODE     ---       #485
      0100068CH   LINE      CODE     ---       #486
      0100068DH   LINE      CODE     ---       #487
      0100068EH   LINE      CODE     ---       #488
LX51 LINKER/LOCATER V4.34a                                                            04/06/2009  20:32:26  PAGE 37


      0100068FH   LINE      CODE     ---       #489
      01000691H   LINE      CODE     ---       #490
      01000693H   LINE      CODE     ---       #491
      01000696H   LINE      CODE     ---       #492
      01000697H   LINE      CODE     ---       #493
      01000698H   LINE      CODE     ---       #494
      0100069AH   LINE      CODE     ---       #497
      0100069DH   LINE      CODE     ---       #501
      0100069FH   LINE      CODE     ---       #502
      010006A0H   LINE      CODE     ---       #503
      010006A1H   LINE      CODE     ---       #504
      010006A2H   LINE      CODE     ---       #505
      010006A3H   LINE      CODE     ---       #506
      010006A4H   LINE      CODE     ---       #507
      010006A6H   LINE      CODE     ---       #508
      010006A8H   LINE      CODE     ---       #509
      010006ABH   LINE      CODE     ---       #510
      010006ACH   LINE      CODE     ---       #511
      010006AEH   LINE      CODE     ---       #512
      010006AFH   LINE      CODE     ---       #513
      010006B2H   LINE      CODE     ---       #516
      010006B4H   LINE      CODE     ---       #517
      010006B6H   LINE      CODE     ---       #518
      ---         BLOCKEND  ---      ---       LVL=0

      ---         MODULE    ---      ---       SPI
      0100086AH   PUBLIC    CODE     NEAR LAB  _SPI_INIT
      0100082FH   PUBLIC    CODE     NEAR LAB  _SPI_WRITE_THEN_READ
      000000D0H.6 SFRSYM    DATA     BIT       AC
      000000E0H   SFRSYM    DATA     BYTE      ACC
      000000A1H   SFRSYM    DATA     BYTE      ADCCON
      000000A2H   SFRSYM    DATA     BYTE      ADCDATAH
      000000A3H   SFRSYM    DATA     BYTE      ADCDATAL
      000000A4H   SFRSYM    DATA     BYTE      ADCSTATIC
      000000F0H   SFRSYM    DATA     BYTE      B
      000000C8H.1 SFRSYM    DATA     BIT       C_T2
      000000A0H.6 SFRSYM    DATA     BIT       CE
      000000B6H   SFRSYM    DATA     BYTE      CK_CTRL
      0000008EH   SFRSYM    DATA     BYTE      CKCON
      000000A0H.1 SFRSYM    DATA     BIT       CLK1
      000000A0H.5 SFRSYM    DATA     BIT       CLK2
      000000C8H   SFRSYM    DATA     BIT       CP_RL2
      000000C8H   SFRSYM    DATA     BIT       CPRL2
      000000A0H.3 SFRSYM    DATA     BIT       CS
      000000C8H.1 SFRSYM    DATA     BIT       CT2
      000000D0H.7 SFRSYM    DATA     BIT       CY
      000000A0H   SFRSYM    DATA     BIT       DATA?
      000000BEH   SFRSYM    DATA     BYTE      DEV_OFFSET
      00000090H.2 SFRSYM    DATA     BIT       DIN0
      00000090H   SFRSYM    DATA     BIT       DIO0
      00000090H.1 SFRSYM    DATA     BIT       DIO1
      00000080H   SFRSYM    DATA     BIT       DIO2
      00000080H.1 SFRSYM    DATA     BIT       DIO3
      00000080H.2 SFRSYM    DATA     BIT       DIO4
      00000080H.3 SFRSYM    DATA     BIT       DIO5
      00000080H.4 SFRSYM    DATA     BIT       DIO6
      00000080H.5 SFRSYM    DATA     BIT       DIO7
      00000080H.6 SFRSYM    DATA     BIT       DIO8
      00000080H.7 SFRSYM    DATA     BIT       DIO9
      000000A0H.4 SFRSYM    DATA     BIT       DOUT2
      00000083H   SFRSYM    DATA     BYTE      DPH
      00000083H   SFRSYM    DATA     BYTE      DPH0
      00000085H   SFRSYM    DATA     BYTE      DPH1
      00000082H   SFRSYM    DATA     BYTE      DPL
      00000082H   SFRSYM    DATA     BYTE      DPL0
LX51 LINKER/LOCATER V4.34a                                                            04/06/2009  20:32:26  PAGE 38


      00000084H   SFRSYM    DATA     BYTE      DPL1
      00000086H   SFRSYM    DATA     BYTE      DPS
      000000A0H.2 SFRSYM    DATA     BIT       DR1
      000000A0H.6 SFRSYM    DATA     BIT       DR2
      000000A0H.6 SFRSYM    DATA     BIT       DR2_CE
      000000A8H.7 SFRSYM    DATA     BIT       EA
      000000D8H   SFRSYM    DATA     BYTE      EICON
      000000E8H   SFRSYM    DATA     BYTE      EIE
      000000F8H   SFRSYM    DATA     BYTE      EIP
      000000A8H.4 SFRSYM    DATA     BIT       ES
      000000A8H.1 SFRSYM    DATA     BIT       ET0
      000000A8H.3 SFRSYM    DATA     BIT       ET1
      000000A8H.5 SFRSYM    DATA     BIT       ET2
      000000E8H.4 SFRSYM    DATA     BIT       EWDI
      000000A8H   SFRSYM    DATA     BIT       EX0
      000000A8H.2 SFRSYM    DATA     BIT       EX1
      000000E8H   SFRSYM    DATA     BIT       EX2
      000000E8H.1 SFRSYM    DATA     BIT       EX3
      000000E8H.2 SFRSYM    DATA     BIT       EX4
      000000E8H.3 SFRSYM    DATA     BIT       EX5
      000000C8H.3 SFRSYM    DATA     BIT       EXEN2
      000000C8H.6 SFRSYM    DATA     BIT       EXF2
      00000091H   SFRSYM    DATA     BYTE      EXIF
      000000D0H.5 SFRSYM    DATA     BIT       F0
      000000D0H.1 SFRSYM    DATA     BIT       F1
      000000A8H   SFRSYM    DATA     BYTE      IE
      00000088H.1 SFRSYM    DATA     BIT       IE0
      00000088H.3 SFRSYM    DATA     BIT       IE1
      00000080H.3 SFRSYM    DATA     BIT       INT0_N
      00000080H.4 SFRSYM    DATA     BIT       INT1_N
      000000B8H   SFRSYM    DATA     BYTE      IP
      00000088H   SFRSYM    DATA     BIT       IT0
      00000088H.2 SFRSYM    DATA     BIT       IT1
      00000092H   SFRSYM    DATA     BYTE      MPAGE
      000000D0H.2 SFRSYM    DATA     BIT       OV
      000000D0H   SFRSYM    DATA     BIT       P
      00000080H   SFRSYM    DATA     BYTE      P0
      00000080H   SFRSYM    DATA     BIT       P0_0
      00000080H.1 SFRSYM    DATA     BIT       P0_1
      00000080H.2 SFRSYM    DATA     BIT       P0_2
      00000080H.3 SFRSYM    DATA     BIT       P0_3
      00000080H.4 SFRSYM    DATA     BIT       P0_4
      00000080H.5 SFRSYM    DATA     BIT       P0_5
      00000080H.6 SFRSYM    DATA     BIT       P0_6
      00000080H.7 SFRSYM    DATA     BIT       P0_7
      00000095H   SFRSYM    DATA     BYTE      P0_ALT
      00000094H   SFRSYM    DATA     BYTE      P0_DIR
      00000090H   SFRSYM    DATA     BYTE      P1
      00000090H   SFRSYM    DATA     BIT       P1_0
      00000090H.1 SFRSYM    DATA     BIT       P1_1
      00000090H.2 SFRSYM    DATA     BIT       P1_2
      00000097H   SFRSYM    DATA     BYTE      P1_ALT
      00000096H   SFRSYM    DATA     BYTE      P1_DIR
      00000087H   SFRSYM    DATA     BYTE      PCON
      000000B8H.4 SFRSYM    DATA     BIT       PS
      000000D0H   SFRSYM    DATA     BYTE      PSW
      000000B8H.1 SFRSYM    DATA     BIT       PT0
      000000B8H.3 SFRSYM    DATA     BIT       PT1
      000000B8H.5 SFRSYM    DATA     BIT       PT2
      000000F8H.4 SFRSYM    DATA     BIT       PWDI
      00000080H.7 SFRSYM    DATA     BIT       PWM
      000000A9H   SFRSYM    DATA     BYTE      PWMCON
      000000AAH   SFRSYM    DATA     BYTE      PWMDUTY
      000000A0H.7 SFRSYM    DATA     BIT       PWR_UP
      000000B8H   SFRSYM    DATA     BIT       PX0
LX51 LINKER/LOCATER V4.34a                                                            04/06/2009  20:32:26  PAGE 39


      000000B8H.2 SFRSYM    DATA     BIT       PX1
      000000F8H   SFRSYM    DATA     BIT       PX2
      000000F8H.1 SFRSYM    DATA     BIT       PX3
      000000F8H.2 SFRSYM    DATA     BIT       PX4
      000000F8H.3 SFRSYM    DATA     BIT       PX5
      000000A0H   SFRSYM    DATA     BYTE      RADIO
      00000098H.2 SFRSYM    DATA     BIT       RB8
      000000CBH   SFRSYM    DATA     BYTE      RCAP2H
      000000CAH   SFRSYM    DATA     BYTE      RCAP2L
      000000C8H.5 SFRSYM    DATA     BIT       RCLK
      000000ADH   SFRSYM    DATA     BYTE      REGX_CTRL
      000000ACH   SFRSYM    DATA     BYTE      REGX_LSB
      000000ABH   SFRSYM    DATA     BYTE      REGX_MSB
      00000098H.4 SFRSYM    DATA     BIT       REN
      00000098H   SFRSYM    DATA     BIT       RI
      000000D0H.3 SFRSYM    DATA     BIT       RS0
      000000D0H.4 SFRSYM    DATA     BIT       RS1
      000000B1H   SFRSYM    DATA     BYTE      RSTREAS
      00000080H.1 SFRSYM    DATA     BIT       RXD
      00000099H   SFRSYM    DATA     BYTE      SBUF
      00000098H   SFRSYM    DATA     BYTE      SCON
      00000098H.7 SFRSYM    DATA     BIT       SM0
      00000098H.6 SFRSYM    DATA     BIT       SM1
      00000098H.5 SFRSYM    DATA     BIT       SM2
      00000081H   SFRSYM    DATA     BYTE      SP
      0000008FH   SFRSYM    DATA     BYTE      SPC_FNC
      000000B3H   SFRSYM    DATA     BYTE      SPI_CTRL
      000000B2H   SFRSYM    DATA     BYTE      SPI_DATA
      000000B4H   SFRSYM    DATA     BYTE      SPICLK
      00000080H.5 SFRSYM    DATA     BIT       T0
      00000080H.6 SFRSYM    DATA     BIT       T1
      000000BCH   SFRSYM    DATA     BYTE      T1_1V2
      00000090H   SFRSYM    DATA     BIT       T2
      000000BDH   SFRSYM    DATA     BYTE      T2_1V2
      000000C8H   SFRSYM    DATA     BYTE      T2CON
      00000098H.3 SFRSYM    DATA     BIT       TB8
      000000C8H.4 SFRSYM    DATA     BIT       TCLK
      00000088H   SFRSYM    DATA     BYTE      TCON
      000000B7H   SFRSYM    DATA     BYTE      TEST_MODE
      00000088H.5 SFRSYM    DATA     BIT       TF0
      00000088H.7 SFRSYM    DATA     BIT       TF1
      000000C8H.7 SFRSYM    DATA     BIT       TF2
      0000008CH   SFRSYM    DATA     BYTE      TH0
      0000008DH   SFRSYM    DATA     BYTE      TH1
      000000CDH   SFRSYM    DATA     BYTE      TH2
      00000098H.1 SFRSYM    DATA     BIT       TI
      000000B5H   SFRSYM    DATA     BYTE      TICK_DV
      0000008AH   SFRSYM    DATA     BYTE      TL0
      0000008BH   SFRSYM    DATA     BYTE      TL1
      000000CCH   SFRSYM    DATA     BYTE      TL2
      00000089H   SFRSYM    DATA     BYTE      TMOD
      00000088H.4 SFRSYM    DATA     BIT       TR0
      00000088H.6 SFRSYM    DATA     BIT       TR1
      000000C8H.2 SFRSYM    DATA     BIT       TR2
      00000080H.2 SFRSYM    DATA     BIT       TXD
      000000D8H.3 SFRSYM    DATA     BIT       WDTI
      01000834H   SYMBOL    CODE     NEAR LAB  ?C0002
      01000839H   SYMBOL    CODE     NEAR LAB  ?C0003
      0100083BH   SYMBOL    CODE     NEAR LAB  ?C0004

      0100086AH   BLOCK     CODE     NEAR LAB  LVL=0
      0100086AH   LINE      CODE     ---       #203
      0100086CH   LINE      CODE     ---       #206
      0100086EH   LINE      CODE     ---       #209
      ---         BLOCKEND  ---      ---       LVL=0
LX51 LINKER/LOCATER V4.34a                                                            04/06/2009  20:32:26  PAGE 40



      0100082FH   BLOCK     CODE     NEAR LAB  LVL=0
      0100082FH   LINE      CODE     ---       #229
      01000832H   LINE      CODE     ---       #232
      01000834H   LINE      CODE     ---       #236
      01000836H   LINE      CODE     ---       #237
      01000839H   LINE      CODE     ---       #242
      0100083BH   LINE      CODE     ---       #246
      ---         BLOCKEND  ---      ---       LVL=0

      ---         MODULE    ---      ---       EEPROM
      01000751H   PUBLIC    CODE     NEAR LAB  _EEPROM_READ
      01000642H   PUBLIC    CODE     NEAR LAB  _EEPROM_WRITE
      0100083CH   PUBLIC    CODE     NEAR LAB  EEPROM_INIT
      01000805H   PUBLIC    CODE     NEAR LAB  EEPROM_STATUS
      010007A2H   PUBLIC    CODE     NEAR LAB  FLASH_ERASE_ALL
      000000D0H.6 SFRSYM    DATA     BIT       AC
      000000E0H   SFRSYM    DATA     BYTE      ACC
      000000A1H   SFRSYM    DATA     BYTE      ADCCON
      000000A2H   SFRSYM    DATA     BYTE      ADCDATAH
      000000A3H   SFRSYM    DATA     BYTE      ADCDATAL
      000000A4H   SFRSYM    DATA     BYTE      ADCSTATIC
      000000F0H   SFRSYM    DATA     BYTE      B
      000000C8H.1 SFRSYM    DATA     BIT       C_T2
      000000A0H.6 SFRSYM    DATA     BIT       CE
      000000B6H   SFRSYM    DATA     BYTE      CK_CTRL
      0000008EH   SFRSYM    DATA     BYTE      CKCON
      000000A0H.1 SFRSYM    DATA     BIT       CLK1
      000000A0H.5 SFRSYM    DATA     BIT       CLK2
      000000C8H   SFRSYM    DATA     BIT       CP_RL2
      000000C8H   SFRSYM    DATA     BIT       CPRL2
      000000A0H.3 SFRSYM    DATA     BIT       CS
      000000C8H.1 SFRSYM    DATA     BIT       CT2
      000000D0H.7 SFRSYM    DATA     BIT       CY
      000000A0H   SFRSYM    DATA     BIT       DATA?
      000000BEH   SFRSYM    DATA     BYTE      DEV_OFFSET
      00000090H.2 SFRSYM    DATA     BIT       DIN0
      00000090H   SFRSYM    DATA     BIT       DIO0
      00000090H.1 SFRSYM    DATA     BIT       DIO1
      00000080H   SFRSYM    DATA     BIT       DIO2
      00000080H.1 SFRSYM    DATA     BIT       DIO3
      00000080H.2 SFRSYM    DATA     BIT       DIO4
      00000080H.3 SFRSYM    DATA     BIT       DIO5
      00000080H.4 SFRSYM    DATA     BIT       DIO6
      00000080H.5 SFRSYM    DATA     BIT       DIO7
      00000080H.6 SFRSYM    DATA     BIT       DIO8
      00000080H.7 SFRSYM    DATA     BIT       DIO9
      000000A0H.4 SFRSYM    DATA     BIT       DOUT2
      00000083H   SFRSYM    DATA     BYTE      DPH
      00000083H   SFRSYM    DATA     BYTE      DPH0
      00000085H   SFRSYM    DATA     BYTE      DPH1
      00000082H   SFRSYM    DATA     BYTE      DPL
      00000082H   SFRSYM    DATA     BYTE      DPL0
      00000084H   SFRSYM    DATA     BYTE      DPL1
      00000086H   SFRSYM    DATA     BYTE      DPS
      000000A0H.2 SFRSYM    DATA     BIT       DR1
      000000A0H.6 SFRSYM    DATA     BIT       DR2
      000000A0H.6 SFRSYM    DATA     BIT       DR2_CE
      000000A8H.7 SFRSYM    DATA     BIT       EA
      000000D8H   SFRSYM    DATA     BYTE      EICON
      000000E8H   SFRSYM    DATA     BYTE      EIE
      000000F8H   SFRSYM    DATA     BYTE      EIP
      000000A8H.4 SFRSYM    DATA     BIT       ES
      000000A8H.1 SFRSYM    DATA     BIT       ET0
      000000A8H.3 SFRSYM    DATA     BIT       ET1
LX51 LINKER/LOCATER V4.34a                                                            04/06/2009  20:32:26  PAGE 41


      000000A8H.5 SFRSYM    DATA     BIT       ET2
      000000E8H.4 SFRSYM    DATA     BIT       EWDI
      000000A8H   SFRSYM    DATA     BIT       EX0
      000000A8H.2 SFRSYM    DATA     BIT       EX1
      000000E8H   SFRSYM    DATA     BIT       EX2
      000000E8H.1 SFRSYM    DATA     BIT       EX3
      000000E8H.2 SFRSYM    DATA     BIT       EX4
      000000E8H.3 SFRSYM    DATA     BIT       EX5
      000000C8H.3 SFRSYM    DATA     BIT       EXEN2
      000000C8H.6 SFRSYM    DATA     BIT       EXF2
      00000091H   SFRSYM    DATA     BYTE      EXIF
      000000D0H.5 SFRSYM    DATA     BIT       F0
      000000D0H.1 SFRSYM    DATA     BIT       F1
      000000A8H   SFRSYM    DATA     BYTE      IE
      00000088H.1 SFRSYM    DATA     BIT       IE0
      00000088H.3 SFRSYM    DATA     BIT       IE1
      00000080H.3 SFRSYM    DATA     BIT       INT0_N
      00000080H.4 SFRSYM    DATA     BIT       INT1_N
      000000B8H   SFRSYM    DATA     BYTE      IP
      00000088H   SFRSYM    DATA     BIT       IT0
      00000088H.2 SFRSYM    DATA     BIT       IT1
      00000092H   SFRSYM    DATA     BYTE      MPAGE
      000000D0H.2 SFRSYM    DATA     BIT       OV
      000000D0H   SFRSYM    DATA     BIT       P
      00000080H   SFRSYM    DATA     BYTE      P0
      00000080H   SFRSYM    DATA     BIT       P0_0
      00000080H.1 SFRSYM    DATA     BIT       P0_1
      00000080H.2 SFRSYM    DATA     BIT       P0_2
      00000080H.3 SFRSYM    DATA     BIT       P0_3
      00000080H.4 SFRSYM    DATA     BIT       P0_4
      00000080H.5 SFRSYM    DATA     BIT       P0_5
      00000080H.6 SFRSYM    DATA     BIT       P0_6
      00000080H.7 SFRSYM    DATA     BIT       P0_7
      00000095H   SFRSYM    DATA     BYTE      P0_ALT
      00000094H   SFRSYM    DATA     BYTE      P0_DIR
      00000090H   SFRSYM    DATA     BYTE      P1
      00000090H   SFRSYM    DATA     BIT       P1_0
      00000090H.1 SFRSYM    DATA     BIT       P1_1
      00000090H.2 SFRSYM    DATA     BIT       P1_2
      00000097H   SFRSYM    DATA     BYTE      P1_ALT
      00000096H   SFRSYM    DATA     BYTE      P1_DIR
      00000087H   SFRSYM    DATA     BYTE      PCON
      000000B8H.4 SFRSYM    DATA     BIT       PS
      000000D0H   SFRSYM    DATA     BYTE      PSW
      000000B8H.1 SFRSYM    DATA     BIT       PT0
      000000B8H.3 SFRSYM    DATA     BIT       PT1
      000000B8H.5 SFRSYM    DATA     BIT       PT2
      000000F8H.4 SFRSYM    DATA     BIT       PWDI
      00000080H.7 SFRSYM    DATA     BIT       PWM
      000000A9H   SFRSYM    DATA     BYTE      PWMCON
      000000AAH   SFRSYM    DATA     BYTE      PWMDUTY
      000000A0H.7 SFRSYM    DATA     BIT       PWR_UP
      000000B8H   SFRSYM    DATA     BIT       PX0
      000000B8H.2 SFRSYM    DATA     BIT       PX1
      000000F8H   SFRSYM    DATA     BIT       PX2
      000000F8H.1 SFRSYM    DATA     BIT       PX3
      000000F8H.2 SFRSYM    DATA     BIT       PX4
      000000F8H.3 SFRSYM    DATA     BIT       PX5
      000000A0H   SFRSYM    DATA     BYTE      RADIO
      00000098H.2 SFRSYM    DATA     BIT       RB8
      000000CBH   SFRSYM    DATA     BYTE      RCAP2H
      000000CAH   SFRSYM    DATA     BYTE      RCAP2L
      000000C8H.5 SFRSYM    DATA     BIT       RCLK
      000000ADH   SFRSYM    DATA     BYTE      REGX_CTRL
      000000ACH   SFRSYM    DATA     BYTE      REGX_LSB
LX51 LINKER/LOCATER V4.34a                                                            04/06/2009  20:32:26  PAGE 42


      000000ABH   SFRSYM    DATA     BYTE      REGX_MSB
      00000098H.4 SFRSYM    DATA     BIT       REN
      00000098H   SFRSYM    DATA     BIT       RI
      000000D0H.3 SFRSYM    DATA     BIT       RS0
      000000D0H.4 SFRSYM    DATA     BIT       RS1
      000000B1H   SFRSYM    DATA     BYTE      RSTREAS
      00000080H.1 SFRSYM    DATA     BIT       RXD
      00000099H   SFRSYM    DATA     BYTE      SBUF
      00000098H   SFRSYM    DATA     BYTE      SCON
      00000098H.7 SFRSYM    DATA     BIT       SM0
      00000098H.6 SFRSYM    DATA     BIT       SM1
      00000098H.5 SFRSYM    DATA     BIT       SM2
      00000081H   SFRSYM    DATA     BYTE      SP
      0000008FH   SFRSYM    DATA     BYTE      SPC_FNC
      000000B3H   SFRSYM    DATA     BYTE      SPI_CTRL
      000000B2H   SFRSYM    DATA     BYTE      SPI_DATA
      000000B4H   SFRSYM    DATA     BYTE      SPICLK
      00000080H.5 SFRSYM    DATA     BIT       T0
      00000080H.6 SFRSYM    DATA     BIT       T1
      000000BCH   SFRSYM    DATA     BYTE      T1_1V2
      00000090H   SFRSYM    DATA     BIT       T2
      000000BDH   SFRSYM    DATA     BYTE      T2_1V2
      000000C8H   SFRSYM    DATA     BYTE      T2CON
      00000098H.3 SFRSYM    DATA     BIT       TB8
      000000C8H.4 SFRSYM    DATA     BIT       TCLK
      00000088H   SFRSYM    DATA     BYTE      TCON
      000000B7H   SFRSYM    DATA     BYTE      TEST_MODE
      00000088H.5 SFRSYM    DATA     BIT       TF0
      00000088H.7 SFRSYM    DATA     BIT       TF1
      000000C8H.7 SFRSYM    DATA     BIT       TF2
      0000008CH   SFRSYM    DATA     BYTE      TH0
      0000008DH   SFRSYM    DATA     BYTE      TH1
      000000CDH   SFRSYM    DATA     BYTE      TH2
      00000098H.1 SFRSYM    DATA     BIT       TI
      000000B5H   SFRSYM    DATA     BYTE      TICK_DV
      0000008AH   SFRSYM    DATA     BYTE      TL0
      0000008BH   SFRSYM    DATA     BYTE      TL1
      000000CCH   SFRSYM    DATA     BYTE      TL2
      00000089H   SFRSYM    DATA     BYTE      TMOD
      00000088H.4 SFRSYM    DATA     BIT       TR0
      00000088H.6 SFRSYM    DATA     BIT       TR1
      000000C8H.2 SFRSYM    DATA     BIT       TR2
      00000080H.2 SFRSYM    DATA     BIT       TXD
      000000D8H.3 SFRSYM    DATA     BIT       WDTI
      00000070H   SYMBOL    DATA     BYTE      ?_EEPROM_READ?BYTE
      0000006DH   SYMBOL    DATA     BYTE      ?_EEPROM_WRITE?BYTE
      01000813H   SYMBOL    CODE     NEAR LAB  ?C0002
      01000648H   SYMBOL    CODE     NEAR LAB  ?C0003
      0100064FH   SYMBOL    CODE     NEAR LAB  ?C0004
      01000758H   SYMBOL    CODE     NEAR LAB  ?C0006
      0100075FH   SYMBOL    CODE     NEAR LAB  ?C0007
      0100077CH   SYMBOL    CODE     NEAR LAB  ?C0008
      010007A2H   SYMBOL    CODE     NEAR LAB  ?C0009
      010007A9H   SYMBOL    CODE     NEAR LAB  ?C0010
      010007BBH   SYMBOL    CODE     NEAR LAB  ?C0012
      0000006DH   SYMBOL    DATA     BYTE      ADDR?241
      00000070H   SYMBOL    DATA     BYTE      ADDR?343
      0000006FH   SYMBOL    DATA     BYTE      BYTE?242
      00000072H   SYMBOL    DATA     BYTE      BYTE?344

      0100083CH   BLOCK     CODE     NEAR LAB  LVL=0
      0100083CH   LINE      CODE     ---       #244
      0100083DH   LINE      CODE     ---       #245
      0100083EH   LINE      CODE     ---       #246
      01000840H   LINE      CODE     ---       #247
LX51 LINKER/LOCATER V4.34a                                                            04/06/2009  20:32:26  PAGE 43


      01000843H   LINE      CODE     ---       #251
      01000846H   LINE      CODE     ---       #254
      ---         BLOCKEND  ---      ---       LVL=0

      01000805H   BLOCK     CODE     NEAR LAB  LVL=0
      01000805H   LINE      CODE     ---       #270
      01000807H   LINE      CODE     ---       #273
      01000809H   LINE      CODE     ---       #274
      0100080CH   LINE      CODE     ---       #278
      0100080DH   LINE      CODE     ---       #279
      0100080EH   LINE      CODE     ---       #280
      01000811H   LINE      CODE     ---       #284
      01000813H   LINE      CODE     ---       #291
      ---         BLOCKEND  ---      ---       LVL=0

      01000642H   BLOCK     CODE     NEAR LAB  LVL=0
      01000642H   LINE      CODE     ---       #305
      01000644H   LINE      CODE     ---       #306
      01000646H   LINE      CODE     ---       #307
      01000648H   LINE      CODE     ---       #313
      0100064BH   LINE      CODE     ---       #314
      0100064CH   LINE      CODE     ---       #315
      0100064FH   LINE      CODE     ---       #320
      01000651H   LINE      CODE     ---       #323
      01000653H   LINE      CODE     ---       #324
      01000656H   LINE      CODE     ---       #327
      01000658H   LINE      CODE     ---       #330
      0100065AH   LINE      CODE     ---       #333
      0100065CH   LINE      CODE     ---       #334
      0100065FH   LINE      CODE     ---       #337
      01000661H   LINE      CODE     ---       #338
      01000662H   LINE      CODE     ---       #339
      01000665H   LINE      CODE     ---       #342
      01000667H   LINE      CODE     ---       #343
      01000669H   LINE      CODE     ---       #344
      0100066CH   LINE      CODE     ---       #347
      0100066EH   LINE      CODE     ---       #348
      01000671H   LINE      CODE     ---       #351
      01000673H   LINE      CODE     ---       #354
      01000675H   LINE      CODE     ---       #357
      01000677H   LINE      CODE     ---       #358
      0100067AH   LINE      CODE     ---       #361
      0100067CH   LINE      CODE     ---       #364
      ---         BLOCKEND  ---      ---       LVL=0

      01000751H   BLOCK     CODE     NEAR LAB  LVL=0
      01000751H   LINE      CODE     ---       #377
      01000753H   LINE      CODE     ---       #378
      01000755H   LINE      CODE     ---       #383
      01000756H   LINE      CODE     ---       #384
      01000758H   LINE      CODE     ---       #388
      0100075BH   LINE      CODE     ---       #389
      0100075CH   LINE      CODE     ---       #390
      0100075FH   LINE      CODE     ---       #395
      01000761H   LINE      CODE     ---       #398
      01000763H   LINE      CODE     ---       #399
      01000766H   LINE      CODE     ---       #402
      01000768H   LINE      CODE     ---       #403
      01000769H   LINE      CODE     ---       #404
      0100076CH   LINE      CODE     ---       #407
      0100076EH   LINE      CODE     ---       #408
      01000770H   LINE      CODE     ---       #409
      01000773H   LINE      CODE     ---       #412
      01000774H   LINE      CODE     ---       #413
      01000775H   LINE      CODE     ---       #414
LX51 LINKER/LOCATER V4.34a                                                            04/06/2009  20:32:26  PAGE 44


      01000778H   LINE      CODE     ---       #415
      0100077AH   LINE      CODE     ---       #418
      0100077CH   LINE      CODE     ---       #424
      ---         BLOCKEND  ---      ---       LVL=0

      010007A2H   BLOCK     CODE     NEAR LAB  LVL=0
      010007A2H   LINE      CODE     ---       #440
      010007A5H   LINE      CODE     ---       #441
      010007A6H   LINE      CODE     ---       #442
      010007A9H   LINE      CODE     ---       #447
      010007ABH   LINE      CODE     ---       #450
      010007ADH   LINE      CODE     ---       #451
      010007B0H   LINE      CODE     ---       #454
      010007B2H   LINE      CODE     ---       #457
      010007B4H   LINE      CODE     ---       #460
      010007B6H   LINE      CODE     ---       #461
      010007B9H   LINE      CODE     ---       #464
      010007BBH   LINE      CODE     ---       #472
      010007BDH   LINE      CODE     ---       #475
      010007BFH   LINE      CODE     ---       #476
      010007C2H   LINE      CODE     ---       #479
      010007C4H   LINE      CODE     ---       #482
      ---         BLOCKEND  ---      ---       LVL=0

      ---         MODULE    ---      ---       ?C_STARTUP
      01000000H   PUBLIC    CODE     ---       ?C_STARTUP

      ---         MODULE    ---      ---       ?C?CLDPTR
      01000056H   PUBLIC    CODE     ---       ?C?CLDPTR

      ---         MODULE    ---      ---       ?C?CLDOPTR
      0100006FH   PUBLIC    CODE     ---       ?C?CLDOPTR

      ---         MODULE    ---      ---       ?C?CSTPTR
      0100009CH   PUBLIC    CODE     ---       ?C?CSTPTR

      ---         MODULE    ---      ---       ?C?UIDIV
      010000AEH   PUBLIC    CODE     ---       ?C?UIDIV

      ---         MODULE    ---      ---       ?C?LMUL
      01000103H   PUBLIC    CODE     ---       ?C?LMUL

      ---         MODULE    ---      ---       ?C?ULDIV
      0100018EH   PUBLIC    CODE     ---       ?C?ULDIV

      ---         MODULE    ---      ---       ?C?ICASE
      01000220H   PUBLIC    CODE     ---       ?C?ICASE

      ---         MODULE    ---      ---       ?C?ICALL
      0100024DH   PUBLIC    CODE     ---       ?C?ICALL
      01000251H   PUBLIC    CODE     ---       ?C?ICALL2

      ---         MODULE    ---      ---       ?C_IBP
      0000007DH   PUBLIC    DATA     ---       ?C_IBP

      ---         MODULE    ---      ---       ?C_INIT
      010004D3H   PUBLIC    CODE     ---       ?C_START

Program Size: data=141.0 xdata=0 const=0 code=2393
LX51 RUN COMPLETE.  0 WARNING(S),  0 ERROR(S)
