LX51 LINKER/LOCATER V4.34a                                                              03/01/2009  16:15:15  PAGE 1


LX51 LINKER/LOCATER V4.34a, INVOKED BY:
C:\KEIL\C51\BIN\LX51.EXE MAIN.OBJ, ISR_RF.OBJ, ECO_PAGE.OBJ, ADC.OBJ, UTILS.OBJ, SERIAL.OBJ, SPI.OBJ, EEPROM.OBJ, C51S.L
>> IB TO MAIN SEGMENTS (?PR?_RF_SEND?ISR_RF (C:0X1000))


CPU MODE:     8051 MODE


INPUT MODULES INCLUDED:
  MAIN.OBJ (MAIN)
         COMMENT TYPE 0: AX51 V3.06a
  ISR_RF.OBJ (ISR_RF)
         COMMENT TYPE 0: AX51 V3.06a
  ECO_PAGE.OBJ (ECO_PAGE)
         COMMENT TYPE 0: AX51 V3.06a
  ADC.OBJ (ADC)
         COMMENT TYPE 0: AX51 V3.06a
  UTILS.OBJ (UTILS)
         COMMENT TYPE 0: AX51 V3.06a
  SERIAL.OBJ (SERIAL)
         COMMENT TYPE 0: AX51 V3.06a
  SPI.OBJ (SPI)
         COMMENT TYPE 0: AX51 V3.06a
  EEPROM.OBJ (EEPROM)
         COMMENT TYPE 0: AX51 V3.06a
  C51S.LIB (?C_STARTUP)
         COMMENT TYPE 1: A51 / ASM51 Assembler
  C51S.LIB (?C?CLDPTR)
         COMMENT TYPE 1: A51 / ASM51 Assembler
  C51S.LIB (?C?CLDOPTR)
         COMMENT TYPE 1: A51 / ASM51 Assembler
  C51S.LIB (?C?CSTPTR)
         COMMENT TYPE 1: A51 / ASM51 Assembler
  C51S.LIB (?C?UIDIV)
         COMMENT TYPE 1: A51 / ASM51 Assembler
  C51S.LIB (?C?LMUL)
         COMMENT TYPE 1: A51 / ASM51 Assembler
  C51S.LIB (?C?ULDIV)
         COMMENT TYPE 1: A51 / ASM51 Assembler
  C51S.LIB (?C?ICASE)
         COMMENT TYPE 1: A51 / ASM51 Assembler
  C51S.LIB (?C?ICALL)
         COMMENT TYPE 1: A51 / ASM51 Assembler
  C51S.LIB (?C_IBP)
         COMMENT TYPE 1: A51 / ASM51 Assembler
  C51S.LIB (?C_INIT)
         COMMENT TYPE 1: A51 / ASM51 Assembler


ACTIVE MEMORY CLASSES OF MODULE:  MAIN (MAIN)

BASE        START       END         USED      MEMORY CLASS
==========================================================
C:000000H   C:000000H   C:00FFFFH   000805H   CODE
I:000000H   I:000000H   I:00007FH   00007FH   DATA
I:000000H   I:000000H   I:0000FFH   000001H   IDATA


MEMORY MAP OF MODULE:  MAIN (MAIN)


START     STOP      LENGTH    ALIGN  RELOC    MEMORY CLASS   SEGMENT NAME
=========================================================================

* * * * * * * * * * *   D A T A   M E M O R Y   * * * * * * * * * * * * *
000000H   000007H   000008H   ---    AT..     DATA           "REG BANK 0"
LX51 LINKER/LOCATER V4.34a                                                            03/01/2009  16:15:15  PAGE 2


000008H   000023H   00001CH   BYTE   UNIT     DATA           ?DT?MAIN
000024H   00003BH   000018H   BYTE   UNIT     DATA           ?DT?ISR_RF
00003CH   00004EH   000013H   BYTE   UNIT     DATA           ?DT?ECO_PAGE
00004FH   000058H   00000AH   BYTE   UNIT     DATA           ?DT?_RF_SEND?ISR_RF
000059H   000060H   000008H   BYTE   UNIT     DATA           ?DT?_STRNCPY?UTILS
000061H   000065H   000005H   BYTE   UNIT     DATA           ?DT?_RF_CONFIGURE?ISR_RF
000066H   000069H   000004H   BYTE   UNIT     DATA           ?DT?ECO_PAGE_MANAGER?ECO_PAGE
00006AH   00006DH   000004H   BYTE   UNIT     DATA           ?DT?UTILS
00006EH   000070H   000003H   BYTE   UNIT     DATA           ?DT?MAIN?MAIN
000071H   000073H   000003H   BYTE   UNIT     DATA           ?DT?_PUTS?SERIAL
000074H   000076H   000003H   BYTE   UNIT     DATA           ?DT?_EEPROM_WRITE?EEPROM
000077H   000079H   000003H   BYTE   UNIT     DATA           ?DT?_EEPROM_READ?EEPROM
00007AH   00007BH   000002H   BYTE   UNIT     DATA           ?DT?RF_CH1_RECV?ISR_RF
00007CH   00007DH   000002H   BYTE   UNIT     DATA           ?DT?_MDELAY?UTILS
00007EH   00007EH   000001H   BYTE   UNIT     DATA           ?C?LIB_DATA
00007FH   00007FH   000001H   BYTE   UNIT     IDATA          ?STACK

* * * * * * * * * * *   C O D E   M E M O R Y   * * * * * * * * * * * * *
000000H   000002H   000003H   ---    OFFS..   CODE           ?CO??C_STARTUP?0
000003H   00004FH   00004DH   BYTE   UNIT     CODE           ?PR?P_ADC_READ?ADC
000050H   000052H   000003H   BYTE   UNIT     CODE           ?PR?_PUTC?SERIAL
000053H   000055H   000003H   ---    OFFS..   CODE           ?CO?ISR_RF?11
000056H   000252H   0001FDH   BYTE   UNIT     CODE           ?C?LIB_CODE
000253H   000328H   0000D6H   BYTE   UNIT     CODE           ?PR?ECO_PAGE_MANAGER?ECO_PAGE
000329H   0003B6H   00008EH   BYTE   UNIT     CODE           ?PR?MAIN?MAIN
0003B7H   000442H   00008CH   BYTE   UNIT     CODE           ?C_C51STARTUP
000443H   0004A2H   000060H   BYTE   UNIT     CODE           ?PR?RF_CH1_RECV?ISR_RF
0004A3H   0004EBH   000049H   BYTE   UNIT     CODE           ?PR?_MDELAY?UTILS
0004ECH   00052FH   000044H   BYTE   UNIT     CODE           ?PR?_STRNCPY?UTILS
000530H   00056CH   00003DH   BYTE   UNIT     CODE           ?PR?_SETUP_BAUDRATE?SERIAL
00056DH   0005A7H   00003BH   BYTE   UNIT     CODE           ?PR?_EEPROM_WRITE?EEPROM
0005A8H   0005E1H   00003AH   BYTE   UNIT     CODE           ?PR?_?INT_PRINT?SERIAL
0005E2H   000617H   000036H   BYTE   UNIT     CODE           ?C_INITSEG
000618H   00064DH   000036H   BYTE   UNIT     CODE           ?PR?_RF_CONFIGURE?ISR_RF
00064EH   000679H   00002CH   BYTE   UNIT     CODE           ?PR?_EEPROM_READ?EEPROM
00067AH   0006A3H   00002AH   BYTE   UNIT     CODE           ?PR?ECO_PAGE_INIT?ECO_PAGE
0006A4H   0006C8H   000025H   BYTE   UNIT     CODE           ?PR?_PUTS?SERIAL
0006C9H   0006EBH   000023H   BYTE   UNIT     CODE           ?PR?FLASH_ERASE_ALL?EEPROM
0006ECH   000706H   00001BH   BYTE   UNIT     CODE           ?PR?_ADC_READ?ADC
000707H   000719H   000013H   BYTE   UNIT     CODE           ?PR?_ADC_INIT?ADC
00071AH   00072BH   000012H   BYTE   UNIT     CODE           ?PR?_WDT_LOAD?UTILS
00072CH   00073AH   00000FH   BYTE   UNIT     CODE           ?PR?EEPROM_STATUS?EEPROM
00073BH   000748H   00000EH   BYTE   UNIT     CODE           ?PR?RF_INIT?ISR_RF
000749H   000755H   00000DH   BYTE   UNIT     CODE           ?PR?_STORE_CPU_RATE?UTILS
000756H   000762H   00000DH   BYTE   UNIT     CODE           ?PR?_SPI_WRITE_THEN_READ?SPI
000763H   00076DH   00000BH   BYTE   UNIT     CODE           ?PR?EEPROM_INIT?EEPROM
00076EH   000777H   00000AH   BYTE   UNIT     CODE           ?PR?_SERIAL_INIT?SERIAL
000778H   000780H   000009H   BYTE   UNIT     CODE           ?PR?RF_WAIT_MSG?ISR_RF
000781H   000788H   000008H   BYTE   UNIT     CODE           ?PR?_SERIAL_WRITE?SERIAL
000789H   000790H   000008H   BYTE   UNIT     CODE           ?PR?SERIAL_READ?SERIAL
000791H   000795H   000005H   BYTE   UNIT     CODE           ?PR?_SPI_INIT?SPI
000796H   000799H   000004H   BYTE   UNIT     CODE           ?PR?GETC?SERIAL
00079AH   000FFFH   000866H   ---    ---      **GAP**
001000H   00106AH   00006BH   BYTE   UNIT     CODE           ?PR?_RF_SEND?ISR_RF



PUBLIC SYMBOLS OF MODULE:  MAIN (MAIN)


      VALUE       CLASS    TYPE      PUBLIC SYMBOL NAME
      =================================================
      0000004FH   DATA     BYTE      ?_RF_SEND?BYTE
      00000059H   DATA     BYTE      ?_STRNCPY?BYTE
      0100006FH   CODE     ---       ?C?CLDOPTR
LX51 LINKER/LOCATER V4.34a                                                            03/01/2009  16:15:15  PAGE 3


      01000056H   CODE     ---       ?C?CLDPTR
      00000000H   NUMBER   ---       ?C?CODESEG
      0100009CH   CODE     ---       ?C?CSTPTR
      0100024DH   CODE     ---       ?C?ICALL
      01000251H   CODE     ---       ?C?ICALL2
      01000220H   CODE     ---       ?C?ICASE
      01000103H   CODE     ---       ?C?LMUL
      010000AEH   CODE     ---       ?C?UIDIV
      0100018EH   CODE     ---       ?C?ULDIV
      00000000H   NUMBER   ---       ?C?XDATASEG
      0000007EH   DATA     ---       ?C_IBP
      010003FEH   CODE     ---       ?C_START
      01000000H   CODE     ---       ?C_STARTUP
      010005A8H   CODE     NEAR LAB  _?INT_PRINT
      01000707H   CODE     NEAR LAB  _ADC_INIT
      010006ECH   CODE     NEAR LAB  _ADC_READ
      0100064EH   CODE     NEAR LAB  _EEPROM_READ
      0100056DH   CODE     NEAR LAB  _EEPROM_WRITE
      010004A3H   CODE     NEAR LAB  _MDELAY
      01000050H   CODE     NEAR LAB  _PUTC
      010006A4H   CODE     NEAR LAB  _PUTS
      01000618H   CODE     NEAR LAB  _RF_CONFIGURE
      01001000H   CODE     NEAR LAB  _RF_SEND
      0100076EH   CODE     NEAR LAB  _SERIAL_INIT
      01000791H   CODE     NEAR LAB  _SPI_INIT
      01000756H   CODE     NEAR LAB  _SPI_WRITE_THEN_READ
      01000749H   CODE     NEAR LAB  _STORE_CPU_RATE
      010004ECH   CODE     NEAR LAB  _STRNCPY
      0100071AH   CODE     NEAR LAB  _WDT_LOAD
*SFR* 000000D0H.6 DATA     BIT       AC
*SFR* 000000E0H   DATA     BYTE      ACC
*SFR* 000000A1H   DATA     BYTE      ADCCON
*SFR* 000000A2H   DATA     BYTE      ADCDATAH
*SFR* 000000A3H   DATA     BYTE      ADCDATAL
*SFR* 000000A4H   DATA     BYTE      ADCSTATIC
*SFR* 000000F0H   DATA     BYTE      B
*SFR* 000000C8H.1 DATA     BIT       C_T2
*SFR* 000000A0H.6 DATA     BIT       CE
      00000008H   DATA     BYTE      CFG
*SFR* 000000B6H   DATA     BYTE      CK_CTRL
*SFR* 0000008EH   DATA     BYTE      CKCON
*SFR* 000000A0H.1 DATA     BIT       CLK1
*SFR* 000000A0H.5 DATA     BIT       CLK2
*SFR* 000000C8H   DATA     BIT       CP_RL2
*SFR* 000000C8H   DATA     BIT       CPRL2
*SFR* 000000A0H.3 DATA     BIT       CS
*SFR* 000000C8H.1 DATA     BIT       CT2
*SFR* 000000D0H.7 DATA     BIT       CY
*SFR* 000000A0H   DATA     BIT       DATA?
*SFR* 000000BEH   DATA     BYTE      DEV_OFFSET
*SFR* 00000090H.2 DATA     BIT       DIN0
*SFR* 00000090H   DATA     BIT       DIO0
*SFR* 00000090H.1 DATA     BIT       DIO1
*SFR* 00000080H   DATA     BIT       DIO2
*SFR* 00000080H.1 DATA     BIT       DIO3
*SFR* 00000080H.2 DATA     BIT       DIO4
*SFR* 00000080H.3 DATA     BIT       DIO5
*SFR* 00000080H.4 DATA     BIT       DIO6
*SFR* 00000080H.5 DATA     BIT       DIO7
*SFR* 00000080H.6 DATA     BIT       DIO8
*SFR* 00000080H.7 DATA     BIT       DIO9
*SFR* 000000A0H.4 DATA     BIT       DOUT2
*SFR* 00000083H   DATA     BYTE      DPH
*SFR* 00000083H   DATA     BYTE      DPH0
*SFR* 00000085H   DATA     BYTE      DPH1
LX51 LINKER/LOCATER V4.34a                                                            03/01/2009  16:15:15  PAGE 4


*SFR* 00000082H   DATA     BYTE      DPL
*SFR* 00000082H   DATA     BYTE      DPL0
*SFR* 00000084H   DATA     BYTE      DPL1
*SFR* 00000086H   DATA     BYTE      DPS
*SFR* 000000A0H.2 DATA     BIT       DR1
*SFR* 000000A0H.6 DATA     BIT       DR2
*SFR* 000000A0H.6 DATA     BIT       DR2_CE
      00000012H   DATA     BYTE      DST_ADDR
*SFR* 000000A8H.7 DATA     BIT       EA
      0000004AH   DATA     BYTE      ECO_PAGE_ADDR
      0100067AH   CODE     NEAR LAB  ECO_PAGE_INIT
      01000253H   CODE     NEAR LAB  ECO_PAGE_MANAGER
      00000047H   DATA     BYTE      ECO_PAGE_REGISTER1
      00000048H   DATA     BYTE      ECO_PAGE_REGISTER2
      00000049H   DATA     BYTE      ECO_PAGE_REGISTER3
      0000004CH   DATA     BYTE      ECO_PAGE_REGISTER5
      00000046H   DATA     BYTE      ECO_PAGE_SPI_CONN
      01000763H   CODE     NEAR LAB  EEPROM_INIT
      0100072CH   CODE     NEAR LAB  EEPROM_STATUS
*SFR* 000000D8H   DATA     BYTE      EICON
*SFR* 000000E8H   DATA     BYTE      EIE
*SFR* 000000F8H   DATA     BYTE      EIP
*SFR* 000000A8H.4 DATA     BIT       ES
*SFR* 000000A8H.1 DATA     BIT       ET0
*SFR* 000000A8H.3 DATA     BIT       ET1
*SFR* 000000A8H.5 DATA     BIT       ET2
*SFR* 000000E8H.4 DATA     BIT       EWDI
*SFR* 000000A8H   DATA     BIT       EX0
*SFR* 000000A8H.2 DATA     BIT       EX1
*SFR* 000000E8H   DATA     BIT       EX2
*SFR* 000000E8H.1 DATA     BIT       EX3
*SFR* 000000E8H.2 DATA     BIT       EX4
*SFR* 000000E8H.3 DATA     BIT       EX5
*SFR* 000000C8H.3 DATA     BIT       EXEN2
*SFR* 000000C8H.6 DATA     BIT       EXF2
*SFR* 00000091H   DATA     BYTE      EXIF
*SFR* 000000D0H.5 DATA     BIT       F0
*SFR* 000000D0H.1 DATA     BIT       F1
      010006C9H   CODE     NEAR LAB  FLASH_ERASE_ALL
      01000796H   CODE     NEAR LAB  GETC
*SFR* 000000A8H   DATA     BYTE      IE
*SFR* 00000088H.1 DATA     BIT       IE0
*SFR* 00000088H.3 DATA     BIT       IE1
*SFR* 00000080H.3 DATA     BIT       INT0_N
*SFR* 00000080H.4 DATA     BIT       INT1_N
*SFR* 000000B8H   DATA     BYTE      IP
*SFR* 00000088H   DATA     BIT       IT0
*SFR* 00000088H.2 DATA     BIT       IT1
      01000329H   CODE     NEAR LAB  MAIN
      0000006AH   DATA     BYTE      MHZ
*SFR* 00000092H   DATA     BYTE      MPAGE
      0000000BH   DATA     BYTE      MSG
*SFR* 000000D0H.2 DATA     BIT       OV
*SFR* 000000D0H   DATA     BIT       P
*SFR* 00000080H   DATA     BYTE      P0
*SFR* 00000080H   DATA     BIT       P0_0
*SFR* 00000080H.1 DATA     BIT       P0_1
*SFR* 00000080H.2 DATA     BIT       P0_2
*SFR* 00000080H.3 DATA     BIT       P0_3
*SFR* 00000080H.4 DATA     BIT       P0_4
*SFR* 00000080H.5 DATA     BIT       P0_5
*SFR* 00000080H.6 DATA     BIT       P0_6
*SFR* 00000080H.7 DATA     BIT       P0_7
*SFR* 00000095H   DATA     BYTE      P0_ALT
*SFR* 00000094H   DATA     BYTE      P0_DIR
LX51 LINKER/LOCATER V4.34a                                                            03/01/2009  16:15:15  PAGE 5


*SFR* 00000090H   DATA     BYTE      P1
*SFR* 00000090H   DATA     BIT       P1_0
*SFR* 00000090H.1 DATA     BIT       P1_1
*SFR* 00000090H.2 DATA     BIT       P1_2
*SFR* 00000097H   DATA     BYTE      P1_ALT
*SFR* 00000096H   DATA     BYTE      P1_DIR
*SFR* 00000087H   DATA     BYTE      PCON
*SFR* 000000B8H.4 DATA     BIT       PS
*SFR* 000000D0H   DATA     BYTE      PSW
*SFR* 000000B8H.1 DATA     BIT       PT0
*SFR* 000000B8H.3 DATA     BIT       PT1
*SFR* 000000B8H.5 DATA     BIT       PT2
*SFR* 000000F8H.4 DATA     BIT       PWDI
*SFR* 00000080H.7 DATA     BIT       PWM
*SFR* 000000A9H   DATA     BYTE      PWMCON
*SFR* 000000AAH   DATA     BYTE      PWMDUTY
*SFR* 000000A0H.7 DATA     BIT       PWR_UP
*SFR* 000000B8H   DATA     BIT       PX0
*SFR* 000000B8H.2 DATA     BIT       PX1
*SFR* 000000F8H   DATA     BIT       PX2
*SFR* 000000F8H.1 DATA     BIT       PX3
*SFR* 000000F8H.2 DATA     BIT       PX4
*SFR* 000000F8H.3 DATA     BIT       PX5
*SFR* 000000A0H   DATA     BYTE      RADIO
*SFR* 00000098H.2 DATA     BIT       RB8
*SFR* 000000CBH   DATA     BYTE      RCAP2H
*SFR* 000000CAH   DATA     BYTE      RCAP2L
*SFR* 000000C8H.5 DATA     BIT       RCLK
*SFR* 000000ADH   DATA     BYTE      REGX_CTRL
*SFR* 000000ACH   DATA     BYTE      REGX_LSB
*SFR* 000000ABH   DATA     BYTE      REGX_MSB
*SFR* 00000098H.4 DATA     BIT       REN
      00000024H   DATA     BYTE      RF_BUF
      01000443H   CODE     NEAR LAB  RF_CH1_RECV
      00000015H   DATA     BYTE      RF_DATA
      0100073BH   CODE     NEAR LAB  RF_INIT
      01000778H   CODE     NEAR LAB  RF_WAIT_MSG
*SFR* 00000098H   DATA     BIT       RI
*SFR* 000000D0H.3 DATA     BIT       RS0
*SFR* 000000D0H.4 DATA     BIT       RS1
*SFR* 000000B1H   DATA     BYTE      RSTREAS
*SFR* 00000080H.1 DATA     BIT       RXD
*SFR* 00000099H   DATA     BYTE      SBUF
*SFR* 00000098H   DATA     BYTE      SCON
*SFR* 00000098H.7 DATA     BIT       SM0
*SFR* 00000098H.6 DATA     BIT       SM1
*SFR* 00000098H.5 DATA     BIT       SM2
*SFR* 00000081H   DATA     BYTE      SP
*SFR* 0000008FH   DATA     BYTE      SPC_FNC
*SFR* 000000B3H   DATA     BYTE      SPI_CTRL
*SFR* 000000B2H   DATA     BYTE      SPI_DATA
*SFR* 000000B4H   DATA     BYTE      SPICLK
*SFR* 00000080H.5 DATA     BIT       T0
*SFR* 00000080H.6 DATA     BIT       T1
*SFR* 000000BCH   DATA     BYTE      T1_1V2
*SFR* 00000090H   DATA     BIT       T2
*SFR* 000000BDH   DATA     BYTE      T2_1V2
*SFR* 000000C8H   DATA     BYTE      T2CON
*SFR* 00000098H.3 DATA     BIT       TB8
*SFR* 000000C8H.4 DATA     BIT       TCLK
*SFR* 00000088H   DATA     BYTE      TCON
*SFR* 000000B7H   DATA     BYTE      TEST_MODE
*SFR* 00000088H.5 DATA     BIT       TF0
*SFR* 00000088H.7 DATA     BIT       TF1
*SFR* 000000C8H.7 DATA     BIT       TF2
LX51 LINKER/LOCATER V4.34a                                                            03/01/2009  16:15:15  PAGE 6


*SFR* 0000008CH   DATA     BYTE      TH0
*SFR* 0000008DH   DATA     BYTE      TH1
*SFR* 000000CDH   DATA     BYTE      TH2
*SFR* 00000098H.1 DATA     BIT       TI
*SFR* 000000B5H   DATA     BYTE      TICK_DV
*SFR* 0000008AH   DATA     BYTE      TL0
*SFR* 0000008BH   DATA     BYTE      TL1
*SFR* 000000CCH   DATA     BYTE      TL2
*SFR* 00000089H   DATA     BYTE      TMOD
*SFR* 00000088H.4 DATA     BIT       TR0
*SFR* 00000088H.6 DATA     BIT       TR1
*SFR* 000000C8H.2 DATA     BIT       TR2
*SFR* 00000080H.2 DATA     BIT       TXD
*SFR* 000000D8H.3 DATA     BIT       WDTI



SYMBOL TABLE OF MODULE:  MAIN (MAIN)

      VALUE       REP       CLASS    TYPE      SYMBOL NAME
      ====================================================
      ---         MODULE    ---      ---       MAIN
      00000008H   PUBLIC    DATA     BYTE      CFG
      00000012H   PUBLIC    DATA     BYTE      DST_ADDR
      01000329H   PUBLIC    CODE     NEAR LAB  MAIN
      0000000BH   PUBLIC    DATA     BYTE      MSG
      00000015H   PUBLIC    DATA     BYTE      RF_DATA
      000000D0H.6 SFRSYM    DATA     BIT       AC
      000000E0H   SFRSYM    DATA     BYTE      ACC
      000000A1H   SFRSYM    DATA     BYTE      ADCCON
      000000A2H   SFRSYM    DATA     BYTE      ADCDATAH
      000000A3H   SFRSYM    DATA     BYTE      ADCDATAL
      000000A4H   SFRSYM    DATA     BYTE      ADCSTATIC
      000000F0H   SFRSYM    DATA     BYTE      B
      000000C8H.1 SFRSYM    DATA     BIT       C_T2
      000000A0H.6 SFRSYM    DATA     BIT       CE
      000000B6H   SFRSYM    DATA     BYTE      CK_CTRL
      0000008EH   SFRSYM    DATA     BYTE      CKCON
      000000A0H.1 SFRSYM    DATA     BIT       CLK1
      000000A0H.5 SFRSYM    DATA     BIT       CLK2
      000000C8H   SFRSYM    DATA     BIT       CP_RL2
      000000C8H   SFRSYM    DATA     BIT       CPRL2
      000000A0H.3 SFRSYM    DATA     BIT       CS
      000000C8H.1 SFRSYM    DATA     BIT       CT2
      000000D0H.7 SFRSYM    DATA     BIT       CY
      000000A0H   SFRSYM    DATA     BIT       DATA?
      000000BEH   SFRSYM    DATA     BYTE      DEV_OFFSET
      00000090H.2 SFRSYM    DATA     BIT       DIN0
      00000090H   SFRSYM    DATA     BIT       DIO0
      00000090H.1 SFRSYM    DATA     BIT       DIO1
      00000080H   SFRSYM    DATA     BIT       DIO2
      00000080H.1 SFRSYM    DATA     BIT       DIO3
      00000080H.2 SFRSYM    DATA     BIT       DIO4
      00000080H.3 SFRSYM    DATA     BIT       DIO5
      00000080H.4 SFRSYM    DATA     BIT       DIO6
      00000080H.5 SFRSYM    DATA     BIT       DIO7
      00000080H.6 SFRSYM    DATA     BIT       DIO8
      00000080H.7 SFRSYM    DATA     BIT       DIO9
      000000A0H.4 SFRSYM    DATA     BIT       DOUT2
      00000083H   SFRSYM    DATA     BYTE      DPH
      00000083H   SFRSYM    DATA     BYTE      DPH0
      00000085H   SFRSYM    DATA     BYTE      DPH1
      00000082H   SFRSYM    DATA     BYTE      DPL
      00000082H   SFRSYM    DATA     BYTE      DPL0
      00000084H   SFRSYM    DATA     BYTE      DPL1
LX51 LINKER/LOCATER V4.34a                                                            03/01/2009  16:15:15  PAGE 7


      00000086H   SFRSYM    DATA     BYTE      DPS
      000000A0H.2 SFRSYM    DATA     BIT       DR1
      000000A0H.6 SFRSYM    DATA     BIT       DR2
      000000A0H.6 SFRSYM    DATA     BIT       DR2_CE
      000000A8H.7 SFRSYM    DATA     BIT       EA
      000000D8H   SFRSYM    DATA     BYTE      EICON
      000000E8H   SFRSYM    DATA     BYTE      EIE
      000000F8H   SFRSYM    DATA     BYTE      EIP
      000000A8H.4 SFRSYM    DATA     BIT       ES
      000000A8H.1 SFRSYM    DATA     BIT       ET0
      000000A8H.3 SFRSYM    DATA     BIT       ET1
      000000A8H.5 SFRSYM    DATA     BIT       ET2
      000000E8H.4 SFRSYM    DATA     BIT       EWDI
      000000A8H   SFRSYM    DATA     BIT       EX0
      000000A8H.2 SFRSYM    DATA     BIT       EX1
      000000E8H   SFRSYM    DATA     BIT       EX2
      000000E8H.1 SFRSYM    DATA     BIT       EX3
      000000E8H.2 SFRSYM    DATA     BIT       EX4
      000000E8H.3 SFRSYM    DATA     BIT       EX5
      000000C8H.3 SFRSYM    DATA     BIT       EXEN2
      000000C8H.6 SFRSYM    DATA     BIT       EXF2
      00000091H   SFRSYM    DATA     BYTE      EXIF
      000000D0H.5 SFRSYM    DATA     BIT       F0
      000000D0H.1 SFRSYM    DATA     BIT       F1
      000000A8H   SFRSYM    DATA     BYTE      IE
      00000088H.1 SFRSYM    DATA     BIT       IE0
      00000088H.3 SFRSYM    DATA     BIT       IE1
      00000080H.3 SFRSYM    DATA     BIT       INT0_N
      00000080H.4 SFRSYM    DATA     BIT       INT1_N
      000000B8H   SFRSYM    DATA     BYTE      IP
      00000088H   SFRSYM    DATA     BIT       IT0
      00000088H.2 SFRSYM    DATA     BIT       IT1
      00000092H   SFRSYM    DATA     BYTE      MPAGE
      000000D0H.2 SFRSYM    DATA     BIT       OV
      000000D0H   SFRSYM    DATA     BIT       P
      00000080H   SFRSYM    DATA     BYTE      P0
      00000080H   SFRSYM    DATA     BIT       P0_0
      00000080H.1 SFRSYM    DATA     BIT       P0_1
      00000080H.2 SFRSYM    DATA     BIT       P0_2
      00000080H.3 SFRSYM    DATA     BIT       P0_3
      00000080H.4 SFRSYM    DATA     BIT       P0_4
      00000080H.5 SFRSYM    DATA     BIT       P0_5
      00000080H.6 SFRSYM    DATA     BIT       P0_6
      00000080H.7 SFRSYM    DATA     BIT       P0_7
      00000095H   SFRSYM    DATA     BYTE      P0_ALT
      00000094H   SFRSYM    DATA     BYTE      P0_DIR
      00000090H   SFRSYM    DATA     BYTE      P1
      00000090H   SFRSYM    DATA     BIT       P1_0
      00000090H.1 SFRSYM    DATA     BIT       P1_1
      00000090H.2 SFRSYM    DATA     BIT       P1_2
      00000097H   SFRSYM    DATA     BYTE      P1_ALT
      00000096H   SFRSYM    DATA     BYTE      P1_DIR
      00000087H   SFRSYM    DATA     BYTE      PCON
      000000B8H.4 SFRSYM    DATA     BIT       PS
      000000D0H   SFRSYM    DATA     BYTE      PSW
      000000B8H.1 SFRSYM    DATA     BIT       PT0
      000000B8H.3 SFRSYM    DATA     BIT       PT1
      000000B8H.5 SFRSYM    DATA     BIT       PT2
      000000F8H.4 SFRSYM    DATA     BIT       PWDI
      00000080H.7 SFRSYM    DATA     BIT       PWM
      000000A9H   SFRSYM    DATA     BYTE      PWMCON
      000000AAH   SFRSYM    DATA     BYTE      PWMDUTY
      000000A0H.7 SFRSYM    DATA     BIT       PWR_UP
      000000B8H   SFRSYM    DATA     BIT       PX0
      000000B8H.2 SFRSYM    DATA     BIT       PX1
LX51 LINKER/LOCATER V4.34a                                                            03/01/2009  16:15:15  PAGE 8


      000000F8H   SFRSYM    DATA     BIT       PX2
      000000F8H.1 SFRSYM    DATA     BIT       PX3
      000000F8H.2 SFRSYM    DATA     BIT       PX4
      000000F8H.3 SFRSYM    DATA     BIT       PX5
      000000A0H   SFRSYM    DATA     BYTE      RADIO
      00000098H.2 SFRSYM    DATA     BIT       RB8
      000000CBH   SFRSYM    DATA     BYTE      RCAP2H
      000000CAH   SFRSYM    DATA     BYTE      RCAP2L
      000000C8H.5 SFRSYM    DATA     BIT       RCLK
      000000ADH   SFRSYM    DATA     BYTE      REGX_CTRL
      000000ACH   SFRSYM    DATA     BYTE      REGX_LSB
      000000ABH   SFRSYM    DATA     BYTE      REGX_MSB
      00000098H.4 SFRSYM    DATA     BIT       REN
      00000098H   SFRSYM    DATA     BIT       RI
      000000D0H.3 SFRSYM    DATA     BIT       RS0
      000000D0H.4 SFRSYM    DATA     BIT       RS1
      000000B1H   SFRSYM    DATA     BYTE      RSTREAS
      00000080H.1 SFRSYM    DATA     BIT       RXD
      00000099H   SFRSYM    DATA     BYTE      SBUF
      00000098H   SFRSYM    DATA     BYTE      SCON
      00000098H.7 SFRSYM    DATA     BIT       SM0
      00000098H.6 SFRSYM    DATA     BIT       SM1
      00000098H.5 SFRSYM    DATA     BIT       SM2
      00000081H   SFRSYM    DATA     BYTE      SP
      0000008FH   SFRSYM    DATA     BYTE      SPC_FNC
      000000B3H   SFRSYM    DATA     BYTE      SPI_CTRL
      000000B2H   SFRSYM    DATA     BYTE      SPI_DATA
      000000B4H   SFRSYM    DATA     BYTE      SPICLK
      00000080H.5 SFRSYM    DATA     BIT       T0
      00000080H.6 SFRSYM    DATA     BIT       T1
      000000BCH   SFRSYM    DATA     BYTE      T1_1V2
      00000090H   SFRSYM    DATA     BIT       T2
      000000BDH   SFRSYM    DATA     BYTE      T2_1V2
      000000C8H   SFRSYM    DATA     BYTE      T2CON
      00000098H.3 SFRSYM    DATA     BIT       TB8
      000000C8H.4 SFRSYM    DATA     BIT       TCLK
      00000088H   SFRSYM    DATA     BYTE      TCON
      000000B7H   SFRSYM    DATA     BYTE      TEST_MODE
      00000088H.5 SFRSYM    DATA     BIT       TF0
      00000088H.7 SFRSYM    DATA     BIT       TF1
      000000C8H.7 SFRSYM    DATA     BIT       TF2
      0000008CH   SFRSYM    DATA     BYTE      TH0
      0000008DH   SFRSYM    DATA     BYTE      TH1
      000000CDH   SFRSYM    DATA     BYTE      TH2
      00000098H.1 SFRSYM    DATA     BIT       TI
      000000B5H   SFRSYM    DATA     BYTE      TICK_DV
      0000008AH   SFRSYM    DATA     BYTE      TL0
      0000008BH   SFRSYM    DATA     BYTE      TL1
      000000CCH   SFRSYM    DATA     BYTE      TL2
      00000089H   SFRSYM    DATA     BYTE      TMOD
      00000088H.4 SFRSYM    DATA     BIT       TR0
      00000088H.6 SFRSYM    DATA     BIT       TR1
      000000C8H.2 SFRSYM    DATA     BIT       TR2
      00000080H.2 SFRSYM    DATA     BIT       TXD
      000000D8H.3 SFRSYM    DATA     BIT       WDTI
      01000368H   SYMBOL    CODE     NEAR LAB  ?C0001
      0100037BH   SYMBOL    CODE     NEAR LAB  ?C0002
      01000382H   SYMBOL    CODE     NEAR LAB  ?C0004
      0000006EH   SYMBOL    DATA     BYTE      ?MAIN?BYTE
      0000006FH   SYMBOL    DATA     BYTE      I?041
      0000006EH   SYMBOL    DATA     BYTE      IDX?040

      01000329H   BLOCK     CODE     NEAR LAB  LVL=0
      01000329H   LINE      CODE     ---       #276
      0100032AH   LINE      CODE     ---       #277
LX51 LINKER/LOCATER V4.34a                                                            03/01/2009  16:15:15  PAGE 9


      0100032CH   LINE      CODE     ---       #278
      0100032EH   LINE      CODE     ---       #281
      01000330H   LINE      CODE     ---       #282
      01000331H   LINE      CODE     ---       #283
      01000334H   LINE      CODE     ---       #286
      01000337H   LINE      CODE     ---       #289
      0100033AH   LINE      CODE     ---       #293
      0100033DH   LINE      CODE     ---       #296
      0100033FH   LINE      CODE     ---       #297
      01000341H   LINE      CODE     ---       #298
      01000343H   LINE      CODE     ---       #299
      01000346H   LINE      CODE     ---       #302
      01000348H   LINE      CODE     ---       #303
      0100034AH   LINE      CODE     ---       #304
      0100034DH   LINE      CODE     ---       #307
      01000350H   LINE      CODE     ---       #311
      01000353H   LINE      CODE     ---       #314
      01000354H   LINE      CODE     ---       #315
      01000356H   LINE      CODE     ---       #319
      01000359H   LINE      CODE     ---       #322
      0100035CH   LINE      CODE     ---       #326
      0100035FH   LINE      CODE     ---       #329
      01000362H   LINE      CODE     ---       #332
      01000365H   LINE      CODE     ---       #336
      01000368H   LINE      CODE     ---       #342
      0100036BH   LINE      CODE     ---       #345
      0100036DH   LINE      CODE     ---       #346
      0100036FH   LINE      CODE     ---       #347
      01000372H   LINE      CODE     ---       #350
      01000374H   LINE      CODE     ---       #351
      01000376H   LINE      CODE     ---       #352
      01000377H   LINE      CODE     ---       #353
      01000379H   LINE      CODE     ---       #354
      0100037BH   LINE      CODE     ---       #358
      0100037DH   LINE      CODE     ---       #359
      0100037FH   LINE      CODE     ---       #360
      01000382H   LINE      CODE     ---       #368
      01000385H   LINE      CODE     ---       #369
      01000388H   LINE      CODE     ---       #370
      0100038BH   LINE      CODE     ---       #371
      0100038EH   LINE      CODE     ---       #372
      01000390H   LINE      CODE     ---       #373
      01000392H   LINE      CODE     ---       #374
      01000394H   LINE      CODE     ---       #375
      01000396H   LINE      CODE     ---       #377
      01000399H   LINE      CODE     ---       #378
      0100039CH   LINE      CODE     ---       #379
      0100039FH   LINE      CODE     ---       #380
      010003A2H   LINE      CODE     ---       #383
      010003A5H   LINE      CODE     ---       #384
      010003A8H   LINE      CODE     ---       #385
      010003ABH   LINE      CODE     ---       #389
      010003AEH   LINE      CODE     ---       #392
      010003B0H   LINE      CODE     ---       #393
      010003B2H   LINE      CODE     ---       #394
      010003B5H   LINE      CODE     ---       #397
      ---         BLOCKEND  ---      ---       LVL=0

      ---         MODULE    ---      ---       ISR_RF
      0000004FH   PUBLIC    DATA     BYTE      ?_RF_SEND?BYTE
      01000618H   PUBLIC    CODE     NEAR LAB  _RF_CONFIGURE
      01001000H   PUBLIC    CODE     NEAR LAB  _RF_SEND
      00000024H   PUBLIC    DATA     BYTE      RF_BUF
      01000443H   PUBLIC    CODE     NEAR LAB  RF_CH1_RECV
      0100073BH   PUBLIC    CODE     NEAR LAB  RF_INIT
LX51 LINKER/LOCATER V4.34a                                                            03/01/2009  16:15:15  PAGE 10


      01000778H   PUBLIC    CODE     NEAR LAB  RF_WAIT_MSG
      000000D0H.6 SFRSYM    DATA     BIT       AC
      000000E0H   SFRSYM    DATA     BYTE      ACC
      000000A1H   SFRSYM    DATA     BYTE      ADCCON
      000000A2H   SFRSYM    DATA     BYTE      ADCDATAH
      000000A3H   SFRSYM    DATA     BYTE      ADCDATAL
      000000A4H   SFRSYM    DATA     BYTE      ADCSTATIC
      000000F0H   SFRSYM    DATA     BYTE      B
      000000C8H.1 SFRSYM    DATA     BIT       C_T2
      000000A0H.6 SFRSYM    DATA     BIT       CE
      000000B6H   SFRSYM    DATA     BYTE      CK_CTRL
      0000008EH   SFRSYM    DATA     BYTE      CKCON
      000000A0H.1 SFRSYM    DATA     BIT       CLK1
      000000A0H.5 SFRSYM    DATA     BIT       CLK2
      000000C8H   SFRSYM    DATA     BIT       CP_RL2
      000000C8H   SFRSYM    DATA     BIT       CPRL2
      000000A0H.3 SFRSYM    DATA     BIT       CS
      000000C8H.1 SFRSYM    DATA     BIT       CT2
      000000D0H.7 SFRSYM    DATA     BIT       CY
      000000A0H   SFRSYM    DATA     BIT       DATA?
      000000BEH   SFRSYM    DATA     BYTE      DEV_OFFSET
      00000090H.2 SFRSYM    DATA     BIT       DIN0
      00000090H   SFRSYM    DATA     BIT       DIO0
      00000090H.1 SFRSYM    DATA     BIT       DIO1
      00000080H   SFRSYM    DATA     BIT       DIO2
      00000080H.1 SFRSYM    DATA     BIT       DIO3
      00000080H.2 SFRSYM    DATA     BIT       DIO4
      00000080H.3 SFRSYM    DATA     BIT       DIO5
      00000080H.4 SFRSYM    DATA     BIT       DIO6
      00000080H.5 SFRSYM    DATA     BIT       DIO7
      00000080H.6 SFRSYM    DATA     BIT       DIO8
      00000080H.7 SFRSYM    DATA     BIT       DIO9
      000000A0H.4 SFRSYM    DATA     BIT       DOUT2
      00000083H   SFRSYM    DATA     BYTE      DPH
      00000083H   SFRSYM    DATA     BYTE      DPH0
      00000085H   SFRSYM    DATA     BYTE      DPH1
      00000082H   SFRSYM    DATA     BYTE      DPL
      00000082H   SFRSYM    DATA     BYTE      DPL0
      00000084H   SFRSYM    DATA     BYTE      DPL1
      00000086H   SFRSYM    DATA     BYTE      DPS
      000000A0H.2 SFRSYM    DATA     BIT       DR1
      000000A0H.6 SFRSYM    DATA     BIT       DR2
      000000A0H.6 SFRSYM    DATA     BIT       DR2_CE
      000000A8H.7 SFRSYM    DATA     BIT       EA
      000000D8H   SFRSYM    DATA     BYTE      EICON
      000000E8H   SFRSYM    DATA     BYTE      EIE
      000000F8H   SFRSYM    DATA     BYTE      EIP
      000000A8H.4 SFRSYM    DATA     BIT       ES
      000000A8H.1 SFRSYM    DATA     BIT       ET0
      000000A8H.3 SFRSYM    DATA     BIT       ET1
      000000A8H.5 SFRSYM    DATA     BIT       ET2
      000000E8H.4 SFRSYM    DATA     BIT       EWDI
      000000A8H   SFRSYM    DATA     BIT       EX0
      000000A8H.2 SFRSYM    DATA     BIT       EX1
      000000E8H   SFRSYM    DATA     BIT       EX2
      000000E8H.1 SFRSYM    DATA     BIT       EX3
      000000E8H.2 SFRSYM    DATA     BIT       EX4
      000000E8H.3 SFRSYM    DATA     BIT       EX5
      000000C8H.3 SFRSYM    DATA     BIT       EXEN2
      000000C8H.6 SFRSYM    DATA     BIT       EXF2
      00000091H   SFRSYM    DATA     BYTE      EXIF
      000000D0H.5 SFRSYM    DATA     BIT       F0
      000000D0H.1 SFRSYM    DATA     BIT       F1
      000000A8H   SFRSYM    DATA     BYTE      IE
      00000088H.1 SFRSYM    DATA     BIT       IE0
LX51 LINKER/LOCATER V4.34a                                                            03/01/2009  16:15:15  PAGE 11


      00000088H.3 SFRSYM    DATA     BIT       IE1
      00000080H.3 SFRSYM    DATA     BIT       INT0_N
      00000080H.4 SFRSYM    DATA     BIT       INT1_N
      000000B8H   SFRSYM    DATA     BYTE      IP
      00000088H   SFRSYM    DATA     BIT       IT0
      00000088H.2 SFRSYM    DATA     BIT       IT1
      00000092H   SFRSYM    DATA     BYTE      MPAGE
      000000D0H.2 SFRSYM    DATA     BIT       OV
      000000D0H   SFRSYM    DATA     BIT       P
      00000080H   SFRSYM    DATA     BYTE      P0
      00000080H   SFRSYM    DATA     BIT       P0_0
      00000080H.1 SFRSYM    DATA     BIT       P0_1
      00000080H.2 SFRSYM    DATA     BIT       P0_2
      00000080H.3 SFRSYM    DATA     BIT       P0_3
      00000080H.4 SFRSYM    DATA     BIT       P0_4
      00000080H.5 SFRSYM    DATA     BIT       P0_5
      00000080H.6 SFRSYM    DATA     BIT       P0_6
      00000080H.7 SFRSYM    DATA     BIT       P0_7
      00000095H   SFRSYM    DATA     BYTE      P0_ALT
      00000094H   SFRSYM    DATA     BYTE      P0_DIR
      00000090H   SFRSYM    DATA     BYTE      P1
      00000090H   SFRSYM    DATA     BIT       P1_0
      00000090H.1 SFRSYM    DATA     BIT       P1_1
      00000090H.2 SFRSYM    DATA     BIT       P1_2
      00000097H   SFRSYM    DATA     BYTE      P1_ALT
      00000096H   SFRSYM    DATA     BYTE      P1_DIR
      00000087H   SFRSYM    DATA     BYTE      PCON
      000000B8H.4 SFRSYM    DATA     BIT       PS
      000000D0H   SFRSYM    DATA     BYTE      PSW
      000000B8H.1 SFRSYM    DATA     BIT       PT0
      000000B8H.3 SFRSYM    DATA     BIT       PT1
      000000B8H.5 SFRSYM    DATA     BIT       PT2
      000000F8H.4 SFRSYM    DATA     BIT       PWDI
      00000080H.7 SFRSYM    DATA     BIT       PWM
      000000A9H   SFRSYM    DATA     BYTE      PWMCON
      000000AAH   SFRSYM    DATA     BYTE      PWMDUTY
      000000A0H.7 SFRSYM    DATA     BIT       PWR_UP
      000000B8H   SFRSYM    DATA     BIT       PX0
      000000B8H.2 SFRSYM    DATA     BIT       PX1
      000000F8H   SFRSYM    DATA     BIT       PX2
      000000F8H.1 SFRSYM    DATA     BIT       PX3
      000000F8H.2 SFRSYM    DATA     BIT       PX4
      000000F8H.3 SFRSYM    DATA     BIT       PX5
      000000A0H   SFRSYM    DATA     BYTE      RADIO
      00000098H.2 SFRSYM    DATA     BIT       RB8
      000000CBH   SFRSYM    DATA     BYTE      RCAP2H
      000000CAH   SFRSYM    DATA     BYTE      RCAP2L
      000000C8H.5 SFRSYM    DATA     BIT       RCLK
      000000ADH   SFRSYM    DATA     BYTE      REGX_CTRL
      000000ACH   SFRSYM    DATA     BYTE      REGX_LSB
      000000ABH   SFRSYM    DATA     BYTE      REGX_MSB
      00000098H.4 SFRSYM    DATA     BIT       REN
      00000098H   SFRSYM    DATA     BIT       RI
      000000D0H.3 SFRSYM    DATA     BIT       RS0
      000000D0H.4 SFRSYM    DATA     BIT       RS1
      000000B1H   SFRSYM    DATA     BYTE      RSTREAS
      00000080H.1 SFRSYM    DATA     BIT       RXD
      00000099H   SFRSYM    DATA     BYTE      SBUF
      00000098H   SFRSYM    DATA     BYTE      SCON
      00000098H.7 SFRSYM    DATA     BIT       SM0
      00000098H.6 SFRSYM    DATA     BIT       SM1
      00000098H.5 SFRSYM    DATA     BIT       SM2
      00000081H   SFRSYM    DATA     BYTE      SP
      0000008FH   SFRSYM    DATA     BYTE      SPC_FNC
      000000B3H   SFRSYM    DATA     BYTE      SPI_CTRL
LX51 LINKER/LOCATER V4.34a                                                            03/01/2009  16:15:15  PAGE 12


      000000B2H   SFRSYM    DATA     BYTE      SPI_DATA
      000000B4H   SFRSYM    DATA     BYTE      SPICLK
      00000080H.5 SFRSYM    DATA     BIT       T0
      00000080H.6 SFRSYM    DATA     BIT       T1
      000000BCH   SFRSYM    DATA     BYTE      T1_1V2
      00000090H   SFRSYM    DATA     BIT       T2
      000000BDH   SFRSYM    DATA     BYTE      T2_1V2
      000000C8H   SFRSYM    DATA     BYTE      T2CON
      00000098H.3 SFRSYM    DATA     BIT       TB8
      000000C8H.4 SFRSYM    DATA     BIT       TCLK
      00000088H   SFRSYM    DATA     BYTE      TCON
      000000B7H   SFRSYM    DATA     BYTE      TEST_MODE
      00000088H.5 SFRSYM    DATA     BIT       TF0
      00000088H.7 SFRSYM    DATA     BIT       TF1
      000000C8H.7 SFRSYM    DATA     BIT       TF2
      0000008CH   SFRSYM    DATA     BYTE      TH0
      0000008DH   SFRSYM    DATA     BYTE      TH1
      000000CDH   SFRSYM    DATA     BYTE      TH2
      00000098H.1 SFRSYM    DATA     BIT       TI
      000000B5H   SFRSYM    DATA     BYTE      TICK_DV
      0000008AH   SFRSYM    DATA     BYTE      TL0
      0000008BH   SFRSYM    DATA     BYTE      TL1
      000000CCH   SFRSYM    DATA     BYTE      TL2
      00000089H   SFRSYM    DATA     BYTE      TMOD
      00000088H.4 SFRSYM    DATA     BIT       TR0
      00000088H.6 SFRSYM    DATA     BIT       TR1
      000000C8H.2 SFRSYM    DATA     BIT       TR2
      00000080H.2 SFRSYM    DATA     BIT       TXD
      000000D8H.3 SFRSYM    DATA     BIT       WDTI
      00000061H   SYMBOL    DATA     BYTE      ?_RF_CONFIGURE?BYTE
      01000625H   SYMBOL    CODE     NEAR LAB  ?C0002
      0100064BH   SYMBOL    CODE     NEAR LAB  ?C0003
      0100100FH   SYMBOL    CODE     NEAR LAB  ?C0006
      01001039H   SYMBOL    CODE     NEAR LAB  ?C0007
      0100103EH   SYMBOL    CODE     NEAR LAB  ?C0009
      01001068H   SYMBOL    CODE     NEAR LAB  ?C0010
      0100046AH   SYMBOL    CODE     NEAR LAB  ?C0015
      01000482H   SYMBOL    CODE     NEAR LAB  ?C0016
      0100077AH   SYMBOL    CODE     NEAR LAB  ?C0018
      0100077EH   SYMBOL    CODE     NEAR LAB  ?C0019
      01000640H   SYMBOL    CODE     NEAR LAB  ?C0021
      01001037H   SYMBOL    CODE     NEAR LAB  ?C0022
      01001066H   SYMBOL    CODE     NEAR LAB  ?C0023
      0100047AH   SYMBOL    CODE     NEAR LAB  ?C0024
      0000007AH   SYMBOL    DATA     BYTE      ?RF_CH1_RECV?BYTE
      01000485H   SYMBOL    CODE     NEAR LAB  ?RF_CH1_RECV?OUT
      0000004FH   SYMBOL    DATA     BYTE      ADDR?243
      00000052H   SYMBOL    DATA     BYTE      ADDR_LEN?244
      00000064H   SYMBOL    DATA     BYTE      I?142
      00000057H   SYMBOL    DATA     BYTE      I?247
      0000007AH   SYMBOL    DATA     BYTE      I?348
      00000061H   SYMBOL    DATA     BYTE      P?141
      00000053H   SYMBOL    DATA     BYTE      PAYLOAD?245
      00000056H   SYMBOL    DATA     BYTE      PL_LEN?246

      0100073BH   BLOCK     CODE     NEAR LAB  LVL=0
      0100073BH   LINE      CODE     ---       #265
      0100073DH   LINE      CODE     ---       #269
      0100073EH   LINE      CODE     ---       #270
      0100073FH   LINE      CODE     ---       #271
      01000741H   LINE      CODE     ---       #272
      01000744H   LINE      CODE     ---       #275
      01000746H   LINE      CODE     ---       #278
      01000748H   LINE      CODE     ---       #281
      ---         BLOCKEND  ---      ---       LVL=0
LX51 LINKER/LOCATER V4.34a                                                            03/01/2009  16:15:15  PAGE 13



      01000618H   BLOCK     CODE     NEAR LAB  LVL=0
      01000618H   LINE      CODE     ---       #304
      0100061AH   LINE      CODE     ---       #308
      0100061CH   LINE      CODE     ---       #309
      0100061EH   LINE      CODE     ---       #310
      01000620H   LINE      CODE     ---       #314
      01000621H   LINE      CODE     ---       #315
      01000623H   LINE      CODE     ---       #316
      01000625H   LINE      CODE     ---       #320
      01000627H   LINE      CODE     ---       #321
      01000629H   LINE      CODE     ---       #322
      0100062BH   LINE      CODE     ---       #323
      0100062EH   LINE      CODE     ---       #324
      01000631H   LINE      CODE     ---       #325
      01000634H   LINE      CODE     ---       #326
      01000635H   LINE      CODE     ---       #327
      01000638H   LINE      CODE     ---       #330
      0100063AH   LINE      CODE     ---       #331
      0100063CH   LINE      CODE     ---       #332
      0100063EH   LINE      CODE     ---       #333
      01000640H   LINE      CODE     ---       #335
      01000641H   LINE      CODE     ---       #336
      01000643H   LINE      CODE     ---       #337
      01000645H   LINE      CODE     ---       #338
      01000647H   LINE      CODE     ---       #339
      01000649H   LINE      CODE     ---       #340
      0100064BH   LINE      CODE     ---       #345
      0100064DH   LINE      CODE     ---       #348
      ---         BLOCKEND  ---      ---       LVL=0

      01001000H   BLOCK     CODE     NEAR LAB  LVL=0
      01001000H   LINE      CODE     ---       #365
      01001002H   LINE      CODE     ---       #366
      01001004H   LINE      CODE     ---       #367
      01001006H   LINE      CODE     ---       #368
      01001008H   LINE      CODE     ---       #376
      0100100AH   LINE      CODE     ---       #381
      0100100BH   LINE      CODE     ---       #382
      0100100DH   LINE      CODE     ---       #383
      0100100FH   LINE      CODE     ---       #385
      01001010H   LINE      CODE     ---       #386
      01001012H   LINE      CODE     ---       #387
      01001014H   LINE      CODE     ---       #388
      01001016H   LINE      CODE     ---       #389
      01001017H   LINE      CODE     ---       #390
      01001019H   LINE      CODE     ---       #391
      0100101AH   LINE      CODE     ---       #392
      0100101CH   LINE      CODE     ---       #395
      0100101EH   LINE      CODE     ---       #396
      01001020H   LINE      CODE     ---       #397
      01001022H   LINE      CODE     ---       #398
      01001025H   LINE      CODE     ---       #399
      01001028H   LINE      CODE     ---       #400
      0100102BH   LINE      CODE     ---       #401
      0100102CH   LINE      CODE     ---       #402
      0100102FH   LINE      CODE     ---       #403
      01001031H   LINE      CODE     ---       #404
      01001033H   LINE      CODE     ---       #405
      01001035H   LINE      CODE     ---       #406
      01001037H   LINE      CODE     ---       #408
      01001039H   LINE      CODE     ---       #413
      0100103AH   LINE      CODE     ---       #414
      0100103CH   LINE      CODE     ---       #415
      0100103EH   LINE      CODE     ---       #417
LX51 LINKER/LOCATER V4.34a                                                            03/01/2009  16:15:15  PAGE 14


      0100103FH   LINE      CODE     ---       #418
      01001041H   LINE      CODE     ---       #419
      01001043H   LINE      CODE     ---       #420
      01001045H   LINE      CODE     ---       #421
      01001046H   LINE      CODE     ---       #422
      01001048H   LINE      CODE     ---       #423
      01001049H   LINE      CODE     ---       #424
      0100104BH   LINE      CODE     ---       #427
      0100104DH   LINE      CODE     ---       #428
      0100104FH   LINE      CODE     ---       #429
      01001051H   LINE      CODE     ---       #430
      01001054H   LINE      CODE     ---       #431
      01001057H   LINE      CODE     ---       #432
      0100105AH   LINE      CODE     ---       #433
      0100105BH   LINE      CODE     ---       #434
      0100105EH   LINE      CODE     ---       #435
      01001060H   LINE      CODE     ---       #436
      01001062H   LINE      CODE     ---       #437
      01001064H   LINE      CODE     ---       #438
      01001066H   LINE      CODE     ---       #440
      01001068H   LINE      CODE     ---       #445
      0100106AH   LINE      CODE     ---       #448
      ---         BLOCKEND  ---      ---       LVL=0

      01000053H   BLOCK     CODE     NEAR LAB  LVL=0
      01000053H   LINE      CODE     ---       #452
      ---         BLOCKEND  ---      ---       LVL=0

      01000443H   BLOCK     CODE     NEAR LAB  LVL=0
      01000443H   LINE      CODE     ---       #461
      01000445H   LINE      CODE     ---       #462
      01000447H   LINE      CODE     ---       #463
      01000449H   LINE      CODE     ---       #464
      0100044BH   LINE      CODE     ---       #465
      0100044DH   LINE      CODE     ---       #466
      01000450H   LINE      CODE     ---       #467
      01000452H   LINE      CODE     ---       #468
      01000454H   LINE      CODE     ---       #469
      01000456H   LINE      CODE     ---       #470
      01000458H   LINE      CODE     ---       #471
      0100045AH   LINE      CODE     ---       #472
      0100045CH   LINE      CODE     ---       #473
      0100045EH   LINE      CODE     ---       #474
      01000460H   LINE      CODE     ---       #480
      01000463H   LINE      CODE     ---       #481
      01000466H   LINE      CODE     ---       #488
      01000468H   LINE      CODE     ---       #489
      0100046AH   LINE      CODE     ---       #495
      0100046DH   LINE      CODE     ---       #498
      0100046EH   LINE      CODE     ---       #499
      0100046FH   LINE      CODE     ---       #500
      01000472H   LINE      CODE     ---       #501
      01000474H   LINE      CODE     ---       #502
      01000476H   LINE      CODE     ---       #503
      01000478H   LINE      CODE     ---       #504
      0100047AH   LINE      CODE     ---       #506
      0100047BH   LINE      CODE     ---       #507
      0100047DH   LINE      CODE     ---       #508
      0100047EH   LINE      CODE     ---       #509
      01000480H   LINE      CODE     ---       #512
      01000482H   LINE      CODE     ---       #516
      01000485H   LINE      CODE     ---       #523
      01000488H   LINE      CODE     ---       #526
      0100048AH   LINE      CODE     ---       #527
      0100048CH   LINE      CODE     ---       #528
LX51 LINKER/LOCATER V4.34a                                                            03/01/2009  16:15:15  PAGE 15


      0100048EH   LINE      CODE     ---       #529
      01000490H   LINE      CODE     ---       #530
      01000492H   LINE      CODE     ---       #531
      01000494H   LINE      CODE     ---       #532
      01000496H   LINE      CODE     ---       #533
      01000498H   LINE      CODE     ---       #534
      0100049AH   LINE      CODE     ---       #535
      0100049CH   LINE      CODE     ---       #536
      0100049EH   LINE      CODE     ---       #537
      010004A0H   LINE      CODE     ---       #538
      010004A2H   LINE      CODE     ---       #539
      ---         BLOCKEND  ---      ---       LVL=0

      01000778H   BLOCK     CODE     NEAR LAB  LVL=0
      01000778H   LINE      CODE     ---       #555
      0100077AH   LINE      CODE     ---       #559
      0100077CH   LINE      CODE     ---       #560
      0100077EH   LINE      CODE     ---       #565
      01000780H   LINE      CODE     ---       #568
      ---         BLOCKEND  ---      ---       LVL=0

      ---         MODULE    ---      ---       ECO_PAGE
      0000004AH   PUBLIC    DATA     BYTE      ECO_PAGE_ADDR
      0100067AH   PUBLIC    CODE     NEAR LAB  ECO_PAGE_INIT
      01000253H   PUBLIC    CODE     NEAR LAB  ECO_PAGE_MANAGER
      00000047H   PUBLIC    DATA     BYTE      ECO_PAGE_REGISTER1
      00000048H   PUBLIC    DATA     BYTE      ECO_PAGE_REGISTER2
      00000049H   PUBLIC    DATA     BYTE      ECO_PAGE_REGISTER3
      0000004CH   PUBLIC    DATA     BYTE      ECO_PAGE_REGISTER5
      00000046H   PUBLIC    DATA     BYTE      ECO_PAGE_SPI_CONN
      000000D0H.6 SFRSYM    DATA     BIT       AC
      000000E0H   SFRSYM    DATA     BYTE      ACC
      000000A1H   SFRSYM    DATA     BYTE      ADCCON
      000000A2H   SFRSYM    DATA     BYTE      ADCDATAH
      000000A3H   SFRSYM    DATA     BYTE      ADCDATAL
      000000A4H   SFRSYM    DATA     BYTE      ADCSTATIC
      000000F0H   SFRSYM    DATA     BYTE      B
      000000C8H.1 SFRSYM    DATA     BIT       C_T2
      000000A0H.6 SFRSYM    DATA     BIT       CE
      000000B6H   SFRSYM    DATA     BYTE      CK_CTRL
      0000008EH   SFRSYM    DATA     BYTE      CKCON
      000000A0H.1 SFRSYM    DATA     BIT       CLK1
      000000A0H.5 SFRSYM    DATA     BIT       CLK2
      000000C8H   SFRSYM    DATA     BIT       CP_RL2
      000000C8H   SFRSYM    DATA     BIT       CPRL2
      000000A0H.3 SFRSYM    DATA     BIT       CS
      000000C8H.1 SFRSYM    DATA     BIT       CT2
      000000D0H.7 SFRSYM    DATA     BIT       CY
      000000A0H   SFRSYM    DATA     BIT       DATA?
      000000BEH   SFRSYM    DATA     BYTE      DEV_OFFSET
      00000090H.2 SFRSYM    DATA     BIT       DIN0
      00000090H   SFRSYM    DATA     BIT       DIO0
      00000090H.1 SFRSYM    DATA     BIT       DIO1
      00000080H   SFRSYM    DATA     BIT       DIO2
      00000080H.1 SFRSYM    DATA     BIT       DIO3
      00000080H.2 SFRSYM    DATA     BIT       DIO4
      00000080H.3 SFRSYM    DATA     BIT       DIO5
      00000080H.4 SFRSYM    DATA     BIT       DIO6
      00000080H.5 SFRSYM    DATA     BIT       DIO7
      00000080H.6 SFRSYM    DATA     BIT       DIO8
      00000080H.7 SFRSYM    DATA     BIT       DIO9
      000000A0H.4 SFRSYM    DATA     BIT       DOUT2
      00000083H   SFRSYM    DATA     BYTE      DPH
      00000083H   SFRSYM    DATA     BYTE      DPH0
      00000085H   SFRSYM    DATA     BYTE      DPH1
LX51 LINKER/LOCATER V4.34a                                                            03/01/2009  16:15:15  PAGE 16


      00000082H   SFRSYM    DATA     BYTE      DPL
      00000082H   SFRSYM    DATA     BYTE      DPL0
      00000084H   SFRSYM    DATA     BYTE      DPL1
      00000086H   SFRSYM    DATA     BYTE      DPS
      000000A0H.2 SFRSYM    DATA     BIT       DR1
      000000A0H.6 SFRSYM    DATA     BIT       DR2
      000000A0H.6 SFRSYM    DATA     BIT       DR2_CE
      000000A8H.7 SFRSYM    DATA     BIT       EA
      000000D8H   SFRSYM    DATA     BYTE      EICON
      000000E8H   SFRSYM    DATA     BYTE      EIE
      000000F8H   SFRSYM    DATA     BYTE      EIP
      000000A8H.4 SFRSYM    DATA     BIT       ES
      000000A8H.1 SFRSYM    DATA     BIT       ET0
      000000A8H.3 SFRSYM    DATA     BIT       ET1
      000000A8H.5 SFRSYM    DATA     BIT       ET2
      000000E8H.4 SFRSYM    DATA     BIT       EWDI
      000000A8H   SFRSYM    DATA     BIT       EX0
      000000A8H.2 SFRSYM    DATA     BIT       EX1
      000000E8H   SFRSYM    DATA     BIT       EX2
      000000E8H.1 SFRSYM    DATA     BIT       EX3
      000000E8H.2 SFRSYM    DATA     BIT       EX4
      000000E8H.3 SFRSYM    DATA     BIT       EX5
      000000C8H.3 SFRSYM    DATA     BIT       EXEN2
      000000C8H.6 SFRSYM    DATA     BIT       EXF2
      00000091H   SFRSYM    DATA     BYTE      EXIF
      000000D0H.5 SFRSYM    DATA     BIT       F0
      000000D0H.1 SFRSYM    DATA     BIT       F1
      000000A8H   SFRSYM    DATA     BYTE      IE
      00000088H.1 SFRSYM    DATA     BIT       IE0
      00000088H.3 SFRSYM    DATA     BIT       IE1
      00000080H.3 SFRSYM    DATA     BIT       INT0_N
      00000080H.4 SFRSYM    DATA     BIT       INT1_N
      000000B8H   SFRSYM    DATA     BYTE      IP
      00000088H   SFRSYM    DATA     BIT       IT0
      00000088H.2 SFRSYM    DATA     BIT       IT1
      00000092H   SFRSYM    DATA     BYTE      MPAGE
      000000D0H.2 SFRSYM    DATA     BIT       OV
      000000D0H   SFRSYM    DATA     BIT       P
      00000080H   SFRSYM    DATA     BYTE      P0
      00000080H   SFRSYM    DATA     BIT       P0_0
      00000080H.1 SFRSYM    DATA     BIT       P0_1
      00000080H.2 SFRSYM    DATA     BIT       P0_2
      00000080H.3 SFRSYM    DATA     BIT       P0_3
      00000080H.4 SFRSYM    DATA     BIT       P0_4
      00000080H.5 SFRSYM    DATA     BIT       P0_5
      00000080H.6 SFRSYM    DATA     BIT       P0_6
      00000080H.7 SFRSYM    DATA     BIT       P0_7
      00000095H   SFRSYM    DATA     BYTE      P0_ALT
      00000094H   SFRSYM    DATA     BYTE      P0_DIR
      00000090H   SFRSYM    DATA     BYTE      P1
      00000090H   SFRSYM    DATA     BIT       P1_0
      00000090H.1 SFRSYM    DATA     BIT       P1_1
      00000090H.2 SFRSYM    DATA     BIT       P1_2
      00000097H   SFRSYM    DATA     BYTE      P1_ALT
      00000096H   SFRSYM    DATA     BYTE      P1_DIR
      00000087H   SFRSYM    DATA     BYTE      PCON
      000000B8H.4 SFRSYM    DATA     BIT       PS
      000000D0H   SFRSYM    DATA     BYTE      PSW
      000000B8H.1 SFRSYM    DATA     BIT       PT0
      000000B8H.3 SFRSYM    DATA     BIT       PT1
      000000B8H.5 SFRSYM    DATA     BIT       PT2
      000000F8H.4 SFRSYM    DATA     BIT       PWDI
      00000080H.7 SFRSYM    DATA     BIT       PWM
      000000A9H   SFRSYM    DATA     BYTE      PWMCON
      000000AAH   SFRSYM    DATA     BYTE      PWMDUTY
LX51 LINKER/LOCATER V4.34a                                                            03/01/2009  16:15:15  PAGE 17


      000000A0H.7 SFRSYM    DATA     BIT       PWR_UP
      000000B8H   SFRSYM    DATA     BIT       PX0
      000000B8H.2 SFRSYM    DATA     BIT       PX1
      000000F8H   SFRSYM    DATA     BIT       PX2
      000000F8H.1 SFRSYM    DATA     BIT       PX3
      000000F8H.2 SFRSYM    DATA     BIT       PX4
      000000F8H.3 SFRSYM    DATA     BIT       PX5
      000000A0H   SFRSYM    DATA     BYTE      RADIO
      00000098H.2 SFRSYM    DATA     BIT       RB8
      000000CBH   SFRSYM    DATA     BYTE      RCAP2H
      000000CAH   SFRSYM    DATA     BYTE      RCAP2L
      000000C8H.5 SFRSYM    DATA     BIT       RCLK
      000000ADH   SFRSYM    DATA     BYTE      REGX_CTRL
      000000ACH   SFRSYM    DATA     BYTE      REGX_LSB
      000000ABH   SFRSYM    DATA     BYTE      REGX_MSB
      00000098H.4 SFRSYM    DATA     BIT       REN
      00000098H   SFRSYM    DATA     BIT       RI
      000000D0H.3 SFRSYM    DATA     BIT       RS0
      000000D0H.4 SFRSYM    DATA     BIT       RS1
      000000B1H   SFRSYM    DATA     BYTE      RSTREAS
      00000080H.1 SFRSYM    DATA     BIT       RXD
      00000099H   SFRSYM    DATA     BYTE      SBUF
      00000098H   SFRSYM    DATA     BYTE      SCON
      00000098H.7 SFRSYM    DATA     BIT       SM0
      00000098H.6 SFRSYM    DATA     BIT       SM1
      00000098H.5 SFRSYM    DATA     BIT       SM2
      00000081H   SFRSYM    DATA     BYTE      SP
      0000008FH   SFRSYM    DATA     BYTE      SPC_FNC
      000000B3H   SFRSYM    DATA     BYTE      SPI_CTRL
      000000B2H   SFRSYM    DATA     BYTE      SPI_DATA
      000000B4H   SFRSYM    DATA     BYTE      SPICLK
      00000080H.5 SFRSYM    DATA     BIT       T0
      00000080H.6 SFRSYM    DATA     BIT       T1
      000000BCH   SFRSYM    DATA     BYTE      T1_1V2
      00000090H   SFRSYM    DATA     BIT       T2
      000000BDH   SFRSYM    DATA     BYTE      T2_1V2
      000000C8H   SFRSYM    DATA     BYTE      T2CON
      00000098H.3 SFRSYM    DATA     BIT       TB8
      000000C8H.4 SFRSYM    DATA     BIT       TCLK
      00000088H   SFRSYM    DATA     BYTE      TCON
      000000B7H   SFRSYM    DATA     BYTE      TEST_MODE
      00000088H.5 SFRSYM    DATA     BIT       TF0
      00000088H.7 SFRSYM    DATA     BIT       TF1
      000000C8H.7 SFRSYM    DATA     BIT       TF2
      0000008CH   SFRSYM    DATA     BYTE      TH0
      0000008DH   SFRSYM    DATA     BYTE      TH1
      000000CDH   SFRSYM    DATA     BYTE      TH2
      00000098H.1 SFRSYM    DATA     BIT       TI
      000000B5H   SFRSYM    DATA     BYTE      TICK_DV
      0000008AH   SFRSYM    DATA     BYTE      TL0
      0000008BH   SFRSYM    DATA     BYTE      TL1
      000000CCH   SFRSYM    DATA     BYTE      TL2
      00000089H   SFRSYM    DATA     BYTE      TMOD
      00000088H.4 SFRSYM    DATA     BIT       TR0
      00000088H.6 SFRSYM    DATA     BIT       TR1
      000000C8H.2 SFRSYM    DATA     BIT       TR2
      00000080H.2 SFRSYM    DATA     BIT       TXD
      000000D8H.3 SFRSYM    DATA     BIT       WDTI
      0100025CH   SYMBOL    CODE     NEAR LAB  ?C0002
      0100027FH   SYMBOL    CODE     NEAR LAB  ?C0003
      01000271H   SYMBOL    CODE     NEAR LAB  ?C0004
      010002A9H   SYMBOL    CODE     NEAR LAB  ?C0006
      01000322H   SYMBOL    CODE     NEAR LAB  ?C0007
      010002BFH   SYMBOL    CODE     NEAR LAB  ?C0008
      010002EEH   SYMBOL    CODE     NEAR LAB  ?C0009
LX51 LINKER/LOCATER V4.34a                                                            03/01/2009  16:15:15  PAGE 18


      01000279H   SYMBOL    CODE     NEAR LAB  ?C0013
      01000285H   SYMBOL    CODE     NEAR LAB  ?C0014
      010002E7H   SYMBOL    CODE     NEAR LAB  ?C0015
      0100030EH   SYMBOL    CODE     NEAR LAB  ?C0016
      00000066H   SYMBOL    DATA     BYTE      ?ECO_PAGE_MANAGER?BYTE
      0000003CH   SYMBOL    DATA     BYTE      ECO_PAGE_TABLE
      0000004DH   SYMBOL    DATA     BYTE      ECO_PAGE_TABLE_INDEX
      00000066H   SYMBOL    DATA     BYTE      I?141
      00000068H   SYMBOL    DATA     BYTE      SEG?140

      0100067AH   BLOCK     CODE     NEAR LAB  LVL=0
      0100067AH   LINE      CODE     ---       #243
      0100067DH   LINE      CODE     ---       #244
      01000680H   LINE      CODE     ---       #248
      01000681H   LINE      CODE     ---       #249
      01000683H   LINE      CODE     ---       #250
      01000685H   LINE      CODE     ---       #254
      01000688H   LINE      CODE     ---       #257
      0100068BH   LINE      CODE     ---       #260
      0100068EH   LINE      CODE     ---       #263
      01000691H   LINE      CODE     ---       #266
      01000694H   LINE      CODE     ---       #269
      01000697H   LINE      CODE     ---       #272
      0100069AH   LINE      CODE     ---       #275
      0100069DH   LINE      CODE     ---       #278
      010006A0H   LINE      CODE     ---       #281
      010006A3H   LINE      CODE     ---       #284
      ---         BLOCKEND  ---      ---       LVL=0

      01000253H   BLOCK     CODE     NEAR LAB  LVL=0
      01000253H   LINE      CODE     ---       #301
      01000255H   LINE      CODE     ---       #302
      01000256H   LINE      CODE     ---       #303
      01000257H   LINE      CODE     ---       #317
      01000258H   LINE      CODE     ---       #318
      0100025AH   LINE      CODE     ---       #319
      0100025CH   LINE      CODE     ---       #325
      0100025EH   LINE      CODE     ---       #326
      01000260H   LINE      CODE     ---       #327
      01000261H   LINE      CODE     ---       #328
      01000262H   LINE      CODE     ---       #329
      01000263H   LINE      CODE     ---       #330
      01000264H   LINE      CODE     ---       #331
      01000267H   LINE      CODE     ---       #332
      01000268H   LINE      CODE     ---       #333
      0100026BH   LINE      CODE     ---       #338
      0100026DH   LINE      CODE     ---       #339
      0100026FH   LINE      CODE     ---       #342
      01000271H   LINE      CODE     ---       #348
      01000273H   LINE      CODE     ---       #349
      01000275H   LINE      CODE     ---       #350
      01000277H   LINE      CODE     ---       #351
      01000279H   LINE      CODE     ---       #353
      0100027BH   LINE      CODE     ---       #354
      0100027DH   LINE      CODE     ---       #355
      0100027FH   LINE      CODE     ---       #360
      01000280H   LINE      CODE     ---       #361
      01000281H   LINE      CODE     ---       #362
      01000283H   LINE      CODE     ---       #363
      01000284H   LINE      CODE     ---       #364
      01000285H   LINE      CODE     ---       #366
      01000287H   LINE      CODE     ---       #379
      01000288H   LINE      CODE     ---       #380
      0100028AH   LINE      CODE     ---       #381
      0100028BH   LINE      CODE     ---       #382
LX51 LINKER/LOCATER V4.34a                                                            03/01/2009  16:15:15  PAGE 19


      0100028CH   LINE      CODE     ---       #383
      0100028DH   LINE      CODE     ---       #384
      0100028EH   LINE      CODE     ---       #385
      01000291H   LINE      CODE     ---       #386
      01000293H   LINE      CODE     ---       #390
      01000296H   LINE      CODE     ---       #392
      01000298H   LINE      CODE     ---       #393
      0100029AH   LINE      CODE     ---       #394
      0100029CH   LINE      CODE     ---       #395
      0100029EH   LINE      CODE     ---       #397
      010002A1H   LINE      CODE     ---       #398
      010002A4H   LINE      CODE     ---       #399
      010002A7H   LINE      CODE     ---       #411
      010002A9H   LINE      CODE     ---       #420
      010002ABH   LINE      CODE     ---       #421
      010002ADH   LINE      CODE     ---       #422
      010002AEH   LINE      CODE     ---       #423
      010002AFH   LINE      CODE     ---       #424
      010002B1H   LINE      CODE     ---       #425
      010002B2H   LINE      CODE     ---       #426
      010002B4H   LINE      CODE     ---       #427
      010002B7H   LINE      CODE     ---       #439
      010002BAH   LINE      CODE     ---       #442
      010002BBH   LINE      CODE     ---       #443
      010002BDH   LINE      CODE     ---       #444
      010002BFH   LINE      CODE     ---       #450
      010002C1H   LINE      CODE     ---       #451
      010002C3H   LINE      CODE     ---       #452
      010002C4H   LINE      CODE     ---       #453
      010002C5H   LINE      CODE     ---       #454
      010002C7H   LINE      CODE     ---       #455
      010002C8H   LINE      CODE     ---       #456
      010002CAH   LINE      CODE     ---       #457
      010002CBH   LINE      CODE     ---       #458
      010002CDH   LINE      CODE     ---       #459
      010002CEH   LINE      CODE     ---       #460
      010002D1H   LINE      CODE     ---       #461
      010002D3H   LINE      CODE     ---       #462
      010002D5H   LINE      CODE     ---       #463
      010002D7H   LINE      CODE     ---       #464
      010002D9H   LINE      CODE     ---       #465
      010002DBH   LINE      CODE     ---       #466
      010002DDH   LINE      CODE     ---       #467
      010002DEH   LINE      CODE     ---       #468
      010002DFH   LINE      CODE     ---       #471
      010002E1H   LINE      CODE     ---       #472
      010002E3H   LINE      CODE     ---       #473
      010002E5H   LINE      CODE     ---       #474
      010002E7H   LINE      CODE     ---       #476
      010002E8H   LINE      CODE     ---       #477
      010002EAH   LINE      CODE     ---       #478
      010002ECH   LINE      CODE     ---       #479
      010002EEH   LINE      CODE     ---       #493
      010002F0H   LINE      CODE     ---       #494
      010002F1H   LINE      CODE     ---       #495
      010002F3H   LINE      CODE     ---       #496
      010002F5H   LINE      CODE     ---       #497
      010002F6H   LINE      CODE     ---       #498
      010002F8H   LINE      CODE     ---       #503
      010002FAH   LINE      CODE     ---       #504
      010002FCH   LINE      CODE     ---       #505
      010002FDH   LINE      CODE     ---       #506
      010002FEH   LINE      CODE     ---       #507
      01000300H   LINE      CODE     ---       #508
      01000301H   LINE      CODE     ---       #509
LX51 LINKER/LOCATER V4.34a                                                            03/01/2009  16:15:15  PAGE 20


      01000304H   LINE      CODE     ---       #510
      01000306H   LINE      CODE     ---       #514
      01000308H   LINE      CODE     ---       #515
      0100030AH   LINE      CODE     ---       #516
      0100030CH   LINE      CODE     ---       #517
      0100030EH   LINE      CODE     ---       #523
      01000311H   LINE      CODE     ---       #525
      01000313H   LINE      CODE     ---       #526
      01000315H   LINE      CODE     ---       #527
      01000317H   LINE      CODE     ---       #528
      01000319H   LINE      CODE     ---       #530
      0100031CH   LINE      CODE     ---       #531
      0100031FH   LINE      CODE     ---       #532
      01000322H   LINE      CODE     ---       #547
      01000324H   LINE      CODE     ---       #548
      01000326H   LINE      CODE     ---       #549
      ---         BLOCKEND  ---      ---       LVL=0

      ---         MODULE    ---      ---       ADC
      01000707H   PUBLIC    CODE     NEAR LAB  _ADC_INIT
      010006ECH   PUBLIC    CODE     NEAR LAB  _ADC_READ
      000000D0H.6 SFRSYM    DATA     BIT       AC
      000000E0H   SFRSYM    DATA     BYTE      ACC
      000000A1H   SFRSYM    DATA     BYTE      ADCCON
      000000A2H   SFRSYM    DATA     BYTE      ADCDATAH
      000000A3H   SFRSYM    DATA     BYTE      ADCDATAL
      000000A4H   SFRSYM    DATA     BYTE      ADCSTATIC
      000000F0H   SFRSYM    DATA     BYTE      B
      000000C8H.1 SFRSYM    DATA     BIT       C_T2
      000000A0H.6 SFRSYM    DATA     BIT       CE
      000000B6H   SFRSYM    DATA     BYTE      CK_CTRL
      0000008EH   SFRSYM    DATA     BYTE      CKCON
      000000A0H.1 SFRSYM    DATA     BIT       CLK1
      000000A0H.5 SFRSYM    DATA     BIT       CLK2
      000000C8H   SFRSYM    DATA     BIT       CP_RL2
      000000C8H   SFRSYM    DATA     BIT       CPRL2
      000000A0H.3 SFRSYM    DATA     BIT       CS
      000000C8H.1 SFRSYM    DATA     BIT       CT2
      000000D0H.7 SFRSYM    DATA     BIT       CY
      000000A0H   SFRSYM    DATA     BIT       DATA?
      000000BEH   SFRSYM    DATA     BYTE      DEV_OFFSET
      00000090H.2 SFRSYM    DATA     BIT       DIN0
      00000090H   SFRSYM    DATA     BIT       DIO0
      00000090H.1 SFRSYM    DATA     BIT       DIO1
      00000080H   SFRSYM    DATA     BIT       DIO2
      00000080H.1 SFRSYM    DATA     BIT       DIO3
      00000080H.2 SFRSYM    DATA     BIT       DIO4
      00000080H.3 SFRSYM    DATA     BIT       DIO5
      00000080H.4 SFRSYM    DATA     BIT       DIO6
      00000080H.5 SFRSYM    DATA     BIT       DIO7
      00000080H.6 SFRSYM    DATA     BIT       DIO8
      00000080H.7 SFRSYM    DATA     BIT       DIO9
      000000A0H.4 SFRSYM    DATA     BIT       DOUT2
      00000083H   SFRSYM    DATA     BYTE      DPH
      00000083H   SFRSYM    DATA     BYTE      DPH0
      00000085H   SFRSYM    DATA     BYTE      DPH1
      00000082H   SFRSYM    DATA     BYTE      DPL
      00000082H   SFRSYM    DATA     BYTE      DPL0
      00000084H   SFRSYM    DATA     BYTE      DPL1
      00000086H   SFRSYM    DATA     BYTE      DPS
      000000A0H.2 SFRSYM    DATA     BIT       DR1
      000000A0H.6 SFRSYM    DATA     BIT       DR2
      000000A0H.6 SFRSYM    DATA     BIT       DR2_CE
      000000A8H.7 SFRSYM    DATA     BIT       EA
      000000D8H   SFRSYM    DATA     BYTE      EICON
LX51 LINKER/LOCATER V4.34a                                                            03/01/2009  16:15:15  PAGE 21


      000000E8H   SFRSYM    DATA     BYTE      EIE
      000000F8H   SFRSYM    DATA     BYTE      EIP
      000000A8H.4 SFRSYM    DATA     BIT       ES
      000000A8H.1 SFRSYM    DATA     BIT       ET0
      000000A8H.3 SFRSYM    DATA     BIT       ET1
      000000A8H.5 SFRSYM    DATA     BIT       ET2
      000000E8H.4 SFRSYM    DATA     BIT       EWDI
      000000A8H   SFRSYM    DATA     BIT       EX0
      000000A8H.2 SFRSYM    DATA     BIT       EX1
      000000E8H   SFRSYM    DATA     BIT       EX2
      000000E8H.1 SFRSYM    DATA     BIT       EX3
      000000E8H.2 SFRSYM    DATA     BIT       EX4
      000000E8H.3 SFRSYM    DATA     BIT       EX5
      000000C8H.3 SFRSYM    DATA     BIT       EXEN2
      000000C8H.6 SFRSYM    DATA     BIT       EXF2
      00000091H   SFRSYM    DATA     BYTE      EXIF
      000000D0H.5 SFRSYM    DATA     BIT       F0
      000000D0H.1 SFRSYM    DATA     BIT       F1
      000000A8H   SFRSYM    DATA     BYTE      IE
      00000088H.1 SFRSYM    DATA     BIT       IE0
      00000088H.3 SFRSYM    DATA     BIT       IE1
      00000080H.3 SFRSYM    DATA     BIT       INT0_N
      00000080H.4 SFRSYM    DATA     BIT       INT1_N
      000000B8H   SFRSYM    DATA     BYTE      IP
      00000088H   SFRSYM    DATA     BIT       IT0
      00000088H.2 SFRSYM    DATA     BIT       IT1
      00000092H   SFRSYM    DATA     BYTE      MPAGE
      000000D0H.2 SFRSYM    DATA     BIT       OV
      000000D0H   SFRSYM    DATA     BIT       P
      00000080H   SFRSYM    DATA     BYTE      P0
      00000080H   SFRSYM    DATA     BIT       P0_0
      00000080H.1 SFRSYM    DATA     BIT       P0_1
      00000080H.2 SFRSYM    DATA     BIT       P0_2
      00000080H.3 SFRSYM    DATA     BIT       P0_3
      00000080H.4 SFRSYM    DATA     BIT       P0_4
      00000080H.5 SFRSYM    DATA     BIT       P0_5
      00000080H.6 SFRSYM    DATA     BIT       P0_6
      00000080H.7 SFRSYM    DATA     BIT       P0_7
      00000095H   SFRSYM    DATA     BYTE      P0_ALT
      00000094H   SFRSYM    DATA     BYTE      P0_DIR
      00000090H   SFRSYM    DATA     BYTE      P1
      00000090H   SFRSYM    DATA     BIT       P1_0
      00000090H.1 SFRSYM    DATA     BIT       P1_1
      00000090H.2 SFRSYM    DATA     BIT       P1_2
      00000097H   SFRSYM    DATA     BYTE      P1_ALT
      00000096H   SFRSYM    DATA     BYTE      P1_DIR
      00000087H   SFRSYM    DATA     BYTE      PCON
      000000B8H.4 SFRSYM    DATA     BIT       PS
      000000D0H   SFRSYM    DATA     BYTE      PSW
      000000B8H.1 SFRSYM    DATA     BIT       PT0
      000000B8H.3 SFRSYM    DATA     BIT       PT1
      000000B8H.5 SFRSYM    DATA     BIT       PT2
      000000F8H.4 SFRSYM    DATA     BIT       PWDI
      00000080H.7 SFRSYM    DATA     BIT       PWM
      000000A9H   SFRSYM    DATA     BYTE      PWMCON
      000000AAH   SFRSYM    DATA     BYTE      PWMDUTY
      000000A0H.7 SFRSYM    DATA     BIT       PWR_UP
      000000B8H   SFRSYM    DATA     BIT       PX0
      000000B8H.2 SFRSYM    DATA     BIT       PX1
      000000F8H   SFRSYM    DATA     BIT       PX2
      000000F8H.1 SFRSYM    DATA     BIT       PX3
      000000F8H.2 SFRSYM    DATA     BIT       PX4
      000000F8H.3 SFRSYM    DATA     BIT       PX5
      000000A0H   SFRSYM    DATA     BYTE      RADIO
      00000098H.2 SFRSYM    DATA     BIT       RB8
LX51 LINKER/LOCATER V4.34a                                                            03/01/2009  16:15:15  PAGE 22


      000000CBH   SFRSYM    DATA     BYTE      RCAP2H
      000000CAH   SFRSYM    DATA     BYTE      RCAP2L
      000000C8H.5 SFRSYM    DATA     BIT       RCLK
      000000ADH   SFRSYM    DATA     BYTE      REGX_CTRL
      000000ACH   SFRSYM    DATA     BYTE      REGX_LSB
      000000ABH   SFRSYM    DATA     BYTE      REGX_MSB
      00000098H.4 SFRSYM    DATA     BIT       REN
      00000098H   SFRSYM    DATA     BIT       RI
      000000D0H.3 SFRSYM    DATA     BIT       RS0
      000000D0H.4 SFRSYM    DATA     BIT       RS1
      000000B1H   SFRSYM    DATA     BYTE      RSTREAS
      00000080H.1 SFRSYM    DATA     BIT       RXD
      00000099H   SFRSYM    DATA     BYTE      SBUF
      00000098H   SFRSYM    DATA     BYTE      SCON
      00000098H.7 SFRSYM    DATA     BIT       SM0
      00000098H.6 SFRSYM    DATA     BIT       SM1
      00000098H.5 SFRSYM    DATA     BIT       SM2
      00000081H   SFRSYM    DATA     BYTE      SP
      0000008FH   SFRSYM    DATA     BYTE      SPC_FNC
      000000B3H   SFRSYM    DATA     BYTE      SPI_CTRL
      000000B2H   SFRSYM    DATA     BYTE      SPI_DATA
      000000B4H   SFRSYM    DATA     BYTE      SPICLK
      00000080H.5 SFRSYM    DATA     BIT       T0
      00000080H.6 SFRSYM    DATA     BIT       T1
      000000BCH   SFRSYM    DATA     BYTE      T1_1V2
      00000090H   SFRSYM    DATA     BIT       T2
      000000BDH   SFRSYM    DATA     BYTE      T2_1V2
      000000C8H   SFRSYM    DATA     BYTE      T2CON
      00000098H.3 SFRSYM    DATA     BIT       TB8
      000000C8H.4 SFRSYM    DATA     BIT       TCLK
      00000088H   SFRSYM    DATA     BYTE      TCON
      000000B7H   SFRSYM    DATA     BYTE      TEST_MODE
      00000088H.5 SFRSYM    DATA     BIT       TF0
      00000088H.7 SFRSYM    DATA     BIT       TF1
      000000C8H.7 SFRSYM    DATA     BIT       TF2
      0000008CH   SFRSYM    DATA     BYTE      TH0
      0000008DH   SFRSYM    DATA     BYTE      TH1
      000000CDH   SFRSYM    DATA     BYTE      TH2
      00000098H.1 SFRSYM    DATA     BIT       TI
      000000B5H   SFRSYM    DATA     BYTE      TICK_DV
      0000008AH   SFRSYM    DATA     BYTE      TL0
      0000008BH   SFRSYM    DATA     BYTE      TL1
      000000CCH   SFRSYM    DATA     BYTE      TL2
      00000089H   SFRSYM    DATA     BYTE      TMOD
      00000088H.4 SFRSYM    DATA     BIT       TR0
      00000088H.6 SFRSYM    DATA     BIT       TR1
      000000C8H.2 SFRSYM    DATA     BIT       TR2
      00000080H.2 SFRSYM    DATA     BIT       TXD
      000000D8H.3 SFRSYM    DATA     BIT       WDTI
      0100004BH   SYMBOL    CODE     NEAR LAB  ?C0002
      0100001BH   SYMBOL    CODE     NEAR LAB  ?C0004
      01000023H   SYMBOL    CODE     NEAR LAB  ?C0005
      01000037H   SYMBOL    CODE     NEAR LAB  ?C0006
      0100004FH   SYMBOL    CODE     NEAR LAB  ?C0007
      010006FBH   SYMBOL    CODE     NEAR LAB  ?C0011
      01000700H   SYMBOL    CODE     NEAR LAB  ?C0012
      01000706H   SYMBOL    CODE     NEAR LAB  ?C0013
      01000003H   SYMBOL    CODE     NEAR LAB  P_ADC_READ

      01000707H   BLOCK     CODE     NEAR LAB  LVL=0
      01000707H   LINE      CODE     ---       #206
      0100070AH   LINE      CODE     ---       #209
      0100070BH   LINE      CODE     ---       #210
      0100070DH   LINE      CODE     ---       #213
      01000710H   LINE      CODE     ---       #216
LX51 LINKER/LOCATER V4.34a                                                            03/01/2009  16:15:15  PAGE 23


      01000711H   LINE      CODE     ---       #217
      01000713H   LINE      CODE     ---       #220
      01000716H   LINE      CODE     ---       #223
      01000717H   LINE      CODE     ---       #224
      01000719H   LINE      CODE     ---       #227
      ---         BLOCKEND  ---      ---       LVL=0

      01000003H   BLOCK     CODE     NEAR LAB  LVL=0
      01000003H   LINE      CODE     ---       #241
      01000005H   LINE      CODE     ---       #242
      01000007H   LINE      CODE     ---       #243
      01000008H   LINE      CODE     ---       #248
      01000009H   LINE      CODE     ---       #249
      0100000AH   LINE      CODE     ---       #250
      0100000BH   LINE      CODE     ---       #253
      0100000DH   LINE      CODE     ---       #254
      0100000EH   LINE      CODE     ---       #255
      0100000FH   LINE      CODE     ---       #256
      01000011H   LINE      CODE     ---       #257
      01000012H   LINE      CODE     ---       #258
      01000014H   LINE      CODE     ---       #259
      01000015H   LINE      CODE     ---       #260
      01000017H   LINE      CODE     ---       #261
      01000019H   LINE      CODE     ---       #262
      0100001BH   LINE      CODE     ---       #271
      0100001DH   LINE      CODE     ---       #272
      0100001FH   LINE      CODE     ---       #273
      01000021H   LINE      CODE     ---       #276
      01000023H   LINE      CODE     ---       #283
      01000025H   LINE      CODE     ---       #284
      01000026H   LINE      CODE     ---       #285
      01000029H   LINE      CODE     ---       #286
      0100002AH   LINE      CODE     ---       #287
      0100002BH   LINE      CODE     ---       #288
      0100002DH   LINE      CODE     ---       #291
      0100002FH   LINE      CODE     ---       #292
      01000030H   LINE      CODE     ---       #293
      01000031H   LINE      CODE     ---       #294
      01000032H   LINE      CODE     ---       #295
      01000034H   LINE      CODE     ---       #296
      01000035H   LINE      CODE     ---       #297
      01000036H   LINE      CODE     ---       #298
      01000037H   LINE      CODE     ---       #305
      01000039H   LINE      CODE     ---       #306
      0100003AH   LINE      CODE     ---       #307
      0100003DH   LINE      CODE     ---       #308
      0100003EH   LINE      CODE     ---       #309
      0100003FH   LINE      CODE     ---       #310
      01000041H   LINE      CODE     ---       #313
      01000043H   LINE      CODE     ---       #314
      01000044H   LINE      CODE     ---       #315
      01000046H   LINE      CODE     ---       #316
      01000047H   LINE      CODE     ---       #317
      01000048H   LINE      CODE     ---       #318
      01000049H   LINE      CODE     ---       #319
      0100004AH   LINE      CODE     ---       #320
      0100004BH   LINE      CODE     ---       #326
      0100004DH   LINE      CODE     ---       #327
      0100004FH   LINE      CODE     ---       #331
      ---         BLOCKEND  ---      ---       LVL=0

      010006ECH   BLOCK     CODE     NEAR LAB  LVL=0
      010006ECH   LINE      CODE     ---       #347
      010006EDH   LINE      CODE     ---       #348
      010006EEH   LINE      CODE     ---       #349
LX51 LINKER/LOCATER V4.34a                                                            03/01/2009  16:15:15  PAGE 24


      010006EFH   LINE      CODE     ---       #353
      010006F2H   LINE      CODE     ---       #356
      010006F3H   LINE      CODE     ---       #357
      010006F5H   LINE      CODE     ---       #360
      010006F8H   LINE      CODE     ---       #361
      010006FBH   LINE      CODE     ---       #366
      010006FDH   LINE      CODE     ---       #367
      01000700H   LINE      CODE     ---       #373
      01000703H   LINE      CODE     ---       #377
      01000706H   LINE      CODE     ---       #383
      ---         BLOCKEND  ---      ---       LVL=0

      ---         MODULE    ---      ---       UTILS
      00000059H   PUBLIC    DATA     BYTE      ?_STRNCPY?BYTE
      010004A3H   PUBLIC    CODE     NEAR LAB  _MDELAY
      01000749H   PUBLIC    CODE     NEAR LAB  _STORE_CPU_RATE
      010004ECH   PUBLIC    CODE     NEAR LAB  _STRNCPY
      0100071AH   PUBLIC    CODE     NEAR LAB  _WDT_LOAD
      0000006AH   PUBLIC    DATA     BYTE      MHZ
      000000D0H.6 SFRSYM    DATA     BIT       AC
      000000E0H   SFRSYM    DATA     BYTE      ACC
      000000A1H   SFRSYM    DATA     BYTE      ADCCON
      000000A2H   SFRSYM    DATA     BYTE      ADCDATAH
      000000A3H   SFRSYM    DATA     BYTE      ADCDATAL
      000000A4H   SFRSYM    DATA     BYTE      ADCSTATIC
      000000F0H   SFRSYM    DATA     BYTE      B
      000000C8H.1 SFRSYM    DATA     BIT       C_T2
      000000A0H.6 SFRSYM    DATA     BIT       CE
      000000B6H   SFRSYM    DATA     BYTE      CK_CTRL
      0000008EH   SFRSYM    DATA     BYTE      CKCON
      000000A0H.1 SFRSYM    DATA     BIT       CLK1
      000000A0H.5 SFRSYM    DATA     BIT       CLK2
      000000C8H   SFRSYM    DATA     BIT       CP_RL2
      000000C8H   SFRSYM    DATA     BIT       CPRL2
      000000A0H.3 SFRSYM    DATA     BIT       CS
      000000C8H.1 SFRSYM    DATA     BIT       CT2
      000000D0H.7 SFRSYM    DATA     BIT       CY
      000000A0H   SFRSYM    DATA     BIT       DATA?
      000000BEH   SFRSYM    DATA     BYTE      DEV_OFFSET
      00000090H.2 SFRSYM    DATA     BIT       DIN0
      00000090H   SFRSYM    DATA     BIT       DIO0
      00000090H.1 SFRSYM    DATA     BIT       DIO1
      00000080H   SFRSYM    DATA     BIT       DIO2
      00000080H.1 SFRSYM    DATA     BIT       DIO3
      00000080H.2 SFRSYM    DATA     BIT       DIO4
      00000080H.3 SFRSYM    DATA     BIT       DIO5
      00000080H.4 SFRSYM    DATA     BIT       DIO6
      00000080H.5 SFRSYM    DATA     BIT       DIO7
      00000080H.6 SFRSYM    DATA     BIT       DIO8
      00000080H.7 SFRSYM    DATA     BIT       DIO9
      000000A0H.4 SFRSYM    DATA     BIT       DOUT2
      00000083H   SFRSYM    DATA     BYTE      DPH
      00000083H   SFRSYM    DATA     BYTE      DPH0
      00000085H   SFRSYM    DATA     BYTE      DPH1
      00000082H   SFRSYM    DATA     BYTE      DPL
      00000082H   SFRSYM    DATA     BYTE      DPL0
      00000084H   SFRSYM    DATA     BYTE      DPL1
      00000086H   SFRSYM    DATA     BYTE      DPS
      000000A0H.2 SFRSYM    DATA     BIT       DR1
      000000A0H.6 SFRSYM    DATA     BIT       DR2
      000000A0H.6 SFRSYM    DATA     BIT       DR2_CE
      000000A8H.7 SFRSYM    DATA     BIT       EA
      000000D8H   SFRSYM    DATA     BYTE      EICON
      000000E8H   SFRSYM    DATA     BYTE      EIE
      000000F8H   SFRSYM    DATA     BYTE      EIP
LX51 LINKER/LOCATER V4.34a                                                            03/01/2009  16:15:15  PAGE 25


      000000A8H.4 SFRSYM    DATA     BIT       ES
      000000A8H.1 SFRSYM    DATA     BIT       ET0
      000000A8H.3 SFRSYM    DATA     BIT       ET1
      000000A8H.5 SFRSYM    DATA     BIT       ET2
      000000E8H.4 SFRSYM    DATA     BIT       EWDI
      000000A8H   SFRSYM    DATA     BIT       EX0
      000000A8H.2 SFRSYM    DATA     BIT       EX1
      000000E8H   SFRSYM    DATA     BIT       EX2
      000000E8H.1 SFRSYM    DATA     BIT       EX3
      000000E8H.2 SFRSYM    DATA     BIT       EX4
      000000E8H.3 SFRSYM    DATA     BIT       EX5
      000000C8H.3 SFRSYM    DATA     BIT       EXEN2
      000000C8H.6 SFRSYM    DATA     BIT       EXF2
      00000091H   SFRSYM    DATA     BYTE      EXIF
      000000D0H.5 SFRSYM    DATA     BIT       F0
      000000D0H.1 SFRSYM    DATA     BIT       F1
      000000A8H   SFRSYM    DATA     BYTE      IE
      00000088H.1 SFRSYM    DATA     BIT       IE0
      00000088H.3 SFRSYM    DATA     BIT       IE1
      00000080H.3 SFRSYM    DATA     BIT       INT0_N
      00000080H.4 SFRSYM    DATA     BIT       INT1_N
      000000B8H   SFRSYM    DATA     BYTE      IP
      00000088H   SFRSYM    DATA     BIT       IT0
      00000088H.2 SFRSYM    DATA     BIT       IT1
      00000092H   SFRSYM    DATA     BYTE      MPAGE
      000000D0H.2 SFRSYM    DATA     BIT       OV
      000000D0H   SFRSYM    DATA     BIT       P
      00000080H   SFRSYM    DATA     BYTE      P0
      00000080H   SFRSYM    DATA     BIT       P0_0
      00000080H.1 SFRSYM    DATA     BIT       P0_1
      00000080H.2 SFRSYM    DATA     BIT       P0_2
      00000080H.3 SFRSYM    DATA     BIT       P0_3
      00000080H.4 SFRSYM    DATA     BIT       P0_4
      00000080H.5 SFRSYM    DATA     BIT       P0_5
      00000080H.6 SFRSYM    DATA     BIT       P0_6
      00000080H.7 SFRSYM    DATA     BIT       P0_7
      00000095H   SFRSYM    DATA     BYTE      P0_ALT
      00000094H   SFRSYM    DATA     BYTE      P0_DIR
      00000090H   SFRSYM    DATA     BYTE      P1
      00000090H   SFRSYM    DATA     BIT       P1_0
      00000090H.1 SFRSYM    DATA     BIT       P1_1
      00000090H.2 SFRSYM    DATA     BIT       P1_2
      00000097H   SFRSYM    DATA     BYTE      P1_ALT
      00000096H   SFRSYM    DATA     BYTE      P1_DIR
      00000087H   SFRSYM    DATA     BYTE      PCON
      000000B8H.4 SFRSYM    DATA     BIT       PS
      000000D0H   SFRSYM    DATA     BYTE      PSW
      000000B8H.1 SFRSYM    DATA     BIT       PT0
      000000B8H.3 SFRSYM    DATA     BIT       PT1
      000000B8H.5 SFRSYM    DATA     BIT       PT2
      000000F8H.4 SFRSYM    DATA     BIT       PWDI
      00000080H.7 SFRSYM    DATA     BIT       PWM
      000000A9H   SFRSYM    DATA     BYTE      PWMCON
      000000AAH   SFRSYM    DATA     BYTE      PWMDUTY
      000000A0H.7 SFRSYM    DATA     BIT       PWR_UP
      000000B8H   SFRSYM    DATA     BIT       PX0
      000000B8H.2 SFRSYM    DATA     BIT       PX1
      000000F8H   SFRSYM    DATA     BIT       PX2
      000000F8H.1 SFRSYM    DATA     BIT       PX3
      000000F8H.2 SFRSYM    DATA     BIT       PX4
      000000F8H.3 SFRSYM    DATA     BIT       PX5
      000000A0H   SFRSYM    DATA     BYTE      RADIO
      00000098H.2 SFRSYM    DATA     BIT       RB8
      000000CBH   SFRSYM    DATA     BYTE      RCAP2H
      000000CAH   SFRSYM    DATA     BYTE      RCAP2L
LX51 LINKER/LOCATER V4.34a                                                            03/01/2009  16:15:15  PAGE 26


      000000C8H.5 SFRSYM    DATA     BIT       RCLK
      000000ADH   SFRSYM    DATA     BYTE      REGX_CTRL
      000000ACH   SFRSYM    DATA     BYTE      REGX_LSB
      000000ABH   SFRSYM    DATA     BYTE      REGX_MSB
      00000098H.4 SFRSYM    DATA     BIT       REN
      00000098H   SFRSYM    DATA     BIT       RI
      000000D0H.3 SFRSYM    DATA     BIT       RS0
      000000D0H.4 SFRSYM    DATA     BIT       RS1
      000000B1H   SFRSYM    DATA     BYTE      RSTREAS
      00000080H.1 SFRSYM    DATA     BIT       RXD
      00000099H   SFRSYM    DATA     BYTE      SBUF
      00000098H   SFRSYM    DATA     BYTE      SCON
      00000098H.7 SFRSYM    DATA     BIT       SM0
      00000098H.6 SFRSYM    DATA     BIT       SM1
      00000098H.5 SFRSYM    DATA     BIT       SM2
      00000081H   SFRSYM    DATA     BYTE      SP
      0000008FH   SFRSYM    DATA     BYTE      SPC_FNC
      000000B3H   SFRSYM    DATA     BYTE      SPI_CTRL
      000000B2H   SFRSYM    DATA     BYTE      SPI_DATA
      000000B4H   SFRSYM    DATA     BYTE      SPICLK
      00000080H.5 SFRSYM    DATA     BIT       T0
      00000080H.6 SFRSYM    DATA     BIT       T1
      000000BCH   SFRSYM    DATA     BYTE      T1_1V2
      00000090H   SFRSYM    DATA     BIT       T2
      000000BDH   SFRSYM    DATA     BYTE      T2_1V2
      000000C8H   SFRSYM    DATA     BYTE      T2CON
      00000098H.3 SFRSYM    DATA     BIT       TB8
      000000C8H.4 SFRSYM    DATA     BIT       TCLK
      00000088H   SFRSYM    DATA     BYTE      TCON
      000000B7H   SFRSYM    DATA     BYTE      TEST_MODE
      00000088H.5 SFRSYM    DATA     BIT       TF0
      00000088H.7 SFRSYM    DATA     BIT       TF1
      000000C8H.7 SFRSYM    DATA     BIT       TF2
      0000008CH   SFRSYM    DATA     BYTE      TH0
      0000008DH   SFRSYM    DATA     BYTE      TH1
      000000CDH   SFRSYM    DATA     BYTE      TH2
      00000098H.1 SFRSYM    DATA     BIT       TI
      000000B5H   SFRSYM    DATA     BYTE      TICK_DV
      0000008AH   SFRSYM    DATA     BYTE      TL0
      0000008BH   SFRSYM    DATA     BYTE      TL1
      000000CCH   SFRSYM    DATA     BYTE      TL2
      00000089H   SFRSYM    DATA     BYTE      TMOD
      00000088H.4 SFRSYM    DATA     BIT       TR0
      00000088H.6 SFRSYM    DATA     BIT       TR1
      000000C8H.2 SFRSYM    DATA     BIT       TR2
      00000080H.2 SFRSYM    DATA     BIT       TXD
      000000D8H.3 SFRSYM    DATA     BIT       WDTI
      0000007CH   SYMBOL    DATA     BYTE      ?_MDELAY?BYTE
      010004C4H   SYMBOL    CODE     NEAR LAB  ?C0002
      010004E4H   SYMBOL    CODE     NEAR LAB  ?C0004
      010004D0H   SYMBOL    CODE     NEAR LAB  ?C0005
      010004EBH   SYMBOL    CODE     NEAR LAB  ?C0008
      0100071EH   SYMBOL    CODE     NEAR LAB  ?C0009
      01000723H   SYMBOL    CODE     NEAR LAB  ?C0010
      010004F5H   SYMBOL    CODE     NEAR LAB  ?C0012
      0100052FH   SYMBOL    CODE     NEAR LAB  ?C0015
      010004E2H   SYMBOL    CODE     NEAR LAB  ?C0016
      010004E9H   SYMBOL    CODE     NEAR LAB  ?C0017
      01000510H   SYMBOL    CODE     NEAR LAB  ?C0018
      01000522H   SYMBOL    CODE     NEAR LAB  ?C0019
      0100052DH   SYMBOL    CODE     NEAR LAB  ?C0020
      0000005CH   SYMBOL    DATA     BYTE      DST?347
      0000007CH   SYMBOL    DATA     BYTE      MSEC?141
      0000005FH   SYMBOL    DATA     BYTE      N?348
      00000059H   SYMBOL    DATA     BYTE      SRC?346
LX51 LINKER/LOCATER V4.34a                                                            03/01/2009  16:15:15  PAGE 27



      01000749H   BLOCK     CODE     NEAR LAB  LVL=0
      01000749H   LINE      CODE     ---       #231
      0100074AH   LINE      CODE     ---       #232
      0100074BH   LINE      CODE     ---       #233
      0100074DH   LINE      CODE     ---       #234
      0100074FH   LINE      CODE     ---       #235
      01000751H   LINE      CODE     ---       #236
      01000753H   LINE      CODE     ---       #237
      01000755H   LINE      CODE     ---       #240
      ---         BLOCKEND  ---      ---       LVL=0

      010004A3H   BLOCK     CODE     NEAR LAB  LVL=0
      010004A3H   LINE      CODE     ---       #256
      010004A5H   LINE      CODE     ---       #257
      010004A7H   LINE      CODE     ---       #263
      010004A8H   LINE      CODE     ---       #264
      010004AAH   LINE      CODE     ---       #265
      010004ABH   LINE      CODE     ---       #266
      010004ACH   LINE      CODE     ---       #267
      010004ADH   LINE      CODE     ---       #268
      010004AFH   LINE      CODE     ---       #269
      010004B1H   LINE      CODE     ---       #270
      010004B3H   LINE      CODE     ---       #271
      010004B5H   LINE      CODE     ---       #272
      010004B8H   LINE      CODE     ---       #273
      010004B9H   LINE      CODE     ---       #274
      010004BBH   LINE      CODE     ---       #275
      010004BCH   LINE      CODE     ---       #276
      010004BDH   LINE      CODE     ---       #277
      010004BEH   LINE      CODE     ---       #278
      010004C1H   LINE      CODE     ---       #283
      010004C2H   LINE      CODE     ---       #284
      010004C3H   LINE      CODE     ---       #285
      010004C4H   LINE      CODE     ---       #287
      010004C5H   LINE      CODE     ---       #288
      010004C6H   LINE      CODE     ---       #289
      010004C8H   LINE      CODE     ---       #290
      010004C9H   LINE      CODE     ---       #291
      010004CBH   LINE      CODE     ---       #292
      010004CDH   LINE      CODE     ---       #296
      010004CEH   LINE      CODE     ---       #297
      010004CFH   LINE      CODE     ---       #298
      010004D0H   LINE      CODE     ---       #300
      010004D1H   LINE      CODE     ---       #301
      010004D2H   LINE      CODE     ---       #302
      010004D3H   LINE      CODE     ---       #303
      010004D4H   LINE      CODE     ---       #304
      010004D6H   LINE      CODE     ---       #305
      010004D7H   LINE      CODE     ---       #306
      010004D8H   LINE      CODE     ---       #307
      010004DAH   LINE      CODE     ---       #308
      010004DBH   LINE      CODE     ---       #309
      010004DDH   LINE      CODE     ---       #310
      010004DEH   LINE      CODE     ---       #311
      010004E1H   LINE      CODE     ---       #312
      010004E2H   LINE      CODE     ---       #314
      010004E4H   LINE      CODE     ---       #316
      010004E5H   LINE      CODE     ---       #317
      010004E8H   LINE      CODE     ---       #318
      010004E9H   LINE      CODE     ---       #320
      010004EBH   LINE      CODE     ---       #325
      ---         BLOCKEND  ---      ---       LVL=0

      0100071AH   BLOCK     CODE     NEAR LAB  LVL=0
LX51 LINKER/LOCATER V4.34a                                                            03/01/2009  16:15:15  PAGE 28


      0100071AH   LINE      CODE     ---       #341
      0100071CH   LINE      CODE     ---       #342
      0100071EH   LINE      CODE     ---       #348
      01000720H   LINE      CODE     ---       #349
      01000723H   LINE      CODE     ---       #354
      01000725H   LINE      CODE     ---       #357
      01000726H   LINE      CODE     ---       #358
      01000728H   LINE      CODE     ---       #361
      0100072BH   LINE      CODE     ---       #364
      ---         BLOCKEND  ---      ---       LVL=0

      010004ECH   BLOCK     CODE     NEAR LAB  LVL=0
      010004ECH   LINE      CODE     ---       #380
      010004EEH   LINE      CODE     ---       #381
      010004F0H   LINE      CODE     ---       #382
      010004F2H   LINE      CODE     ---       #389
      010004F3H   LINE      CODE     ---       #390
      010004F4H   LINE      CODE     ---       #391
      010004F5H   LINE      CODE     ---       #393
      010004F6H   LINE      CODE     ---       #394
      010004F7H   LINE      CODE     ---       #395
      010004F9H   LINE      CODE     ---       #396
      010004FBH   LINE      CODE     ---       #397
      010004FDH   LINE      CODE     ---       #398
      010004FEH   LINE      CODE     ---       #399
      010004FFH   LINE      CODE     ---       #400
      01000501H   LINE      CODE     ---       #401
      01000502H   LINE      CODE     ---       #402
      01000504H   LINE      CODE     ---       #405
      01000506H   LINE      CODE     ---       #406
      01000508H   LINE      CODE     ---       #407
      0100050AH   LINE      CODE     ---       #408
      0100050CH   LINE      CODE     ---       #409
      0100050EH   LINE      CODE     ---       #410
      01000510H   LINE      CODE     ---       #412
      01000511H   LINE      CODE     ---       #413
      01000512H   LINE      CODE     ---       #414
      01000515H   LINE      CODE     ---       #415
      01000516H   LINE      CODE     ---       #416
      01000518H   LINE      CODE     ---       #417
      0100051AH   LINE      CODE     ---       #418
      0100051CH   LINE      CODE     ---       #419
      0100051EH   LINE      CODE     ---       #420
      01000520H   LINE      CODE     ---       #421
      01000522H   LINE      CODE     ---       #423
      01000523H   LINE      CODE     ---       #424
      01000524H   LINE      CODE     ---       #425
      01000525H   LINE      CODE     ---       #426
      01000528H   LINE      CODE     ---       #429
      01000529H   LINE      CODE     ---       #430
      0100052CH   LINE      CODE     ---       #431
      0100052DH   LINE      CODE     ---       #433
      0100052FH   LINE      CODE     ---       #437
      ---         BLOCKEND  ---      ---       LVL=0

      ---         MODULE    ---      ---       SERIAL
      010005A8H   PUBLIC    CODE     NEAR LAB  _?INT_PRINT
      01000050H   PUBLIC    CODE     NEAR LAB  _PUTC
      010006A4H   PUBLIC    CODE     NEAR LAB  _PUTS
      0100076EH   PUBLIC    CODE     NEAR LAB  _SERIAL_INIT
      01000796H   PUBLIC    CODE     NEAR LAB  GETC
      000000D0H.6 SFRSYM    DATA     BIT       AC
      000000E0H   SFRSYM    DATA     BYTE      ACC
      000000A1H   SFRSYM    DATA     BYTE      ADCCON
      000000A2H   SFRSYM    DATA     BYTE      ADCDATAH
LX51 LINKER/LOCATER V4.34a                                                            03/01/2009  16:15:15  PAGE 29


      000000A3H   SFRSYM    DATA     BYTE      ADCDATAL
      000000A4H   SFRSYM    DATA     BYTE      ADCSTATIC
      000000F0H   SFRSYM    DATA     BYTE      B
      000000C8H.1 SFRSYM    DATA     BIT       C_T2
      000000A0H.6 SFRSYM    DATA     BIT       CE
      000000B6H   SFRSYM    DATA     BYTE      CK_CTRL
      0000008EH   SFRSYM    DATA     BYTE      CKCON
      000000A0H.1 SFRSYM    DATA     BIT       CLK1
      000000A0H.5 SFRSYM    DATA     BIT       CLK2
      000000C8H   SFRSYM    DATA     BIT       CP_RL2
      000000C8H   SFRSYM    DATA     BIT       CPRL2
      000000A0H.3 SFRSYM    DATA     BIT       CS
      000000C8H.1 SFRSYM    DATA     BIT       CT2
      000000D0H.7 SFRSYM    DATA     BIT       CY
      000000A0H   SFRSYM    DATA     BIT       DATA?
      000000BEH   SFRSYM    DATA     BYTE      DEV_OFFSET
      00000090H.2 SFRSYM    DATA     BIT       DIN0
      00000090H   SFRSYM    DATA     BIT       DIO0
      00000090H.1 SFRSYM    DATA     BIT       DIO1
      00000080H   SFRSYM    DATA     BIT       DIO2
      00000080H.1 SFRSYM    DATA     BIT       DIO3
      00000080H.2 SFRSYM    DATA     BIT       DIO4
      00000080H.3 SFRSYM    DATA     BIT       DIO5
      00000080H.4 SFRSYM    DATA     BIT       DIO6
      00000080H.5 SFRSYM    DATA     BIT       DIO7
      00000080H.6 SFRSYM    DATA     BIT       DIO8
      00000080H.7 SFRSYM    DATA     BIT       DIO9
      000000A0H.4 SFRSYM    DATA     BIT       DOUT2
      00000083H   SFRSYM    DATA     BYTE      DPH
      00000083H   SFRSYM    DATA     BYTE      DPH0
      00000085H   SFRSYM    DATA     BYTE      DPH1
      00000082H   SFRSYM    DATA     BYTE      DPL
      00000082H   SFRSYM    DATA     BYTE      DPL0
      00000084H   SFRSYM    DATA     BYTE      DPL1
      00000086H   SFRSYM    DATA     BYTE      DPS
      000000A0H.2 SFRSYM    DATA     BIT       DR1
      000000A0H.6 SFRSYM    DATA     BIT       DR2
      000000A0H.6 SFRSYM    DATA     BIT       DR2_CE
      000000A8H.7 SFRSYM    DATA     BIT       EA
      000000D8H   SFRSYM    DATA     BYTE      EICON
      000000E8H   SFRSYM    DATA     BYTE      EIE
      000000F8H   SFRSYM    DATA     BYTE      EIP
      000000A8H.4 SFRSYM    DATA     BIT       ES
      000000A8H.1 SFRSYM    DATA     BIT       ET0
      000000A8H.3 SFRSYM    DATA     BIT       ET1
      000000A8H.5 SFRSYM    DATA     BIT       ET2
      000000E8H.4 SFRSYM    DATA     BIT       EWDI
      000000A8H   SFRSYM    DATA     BIT       EX0
      000000A8H.2 SFRSYM    DATA     BIT       EX1
      000000E8H   SFRSYM    DATA     BIT       EX2
      000000E8H.1 SFRSYM    DATA     BIT       EX3
      000000E8H.2 SFRSYM    DATA     BIT       EX4
      000000E8H.3 SFRSYM    DATA     BIT       EX5
      000000C8H.3 SFRSYM    DATA     BIT       EXEN2
      000000C8H.6 SFRSYM    DATA     BIT       EXF2
      00000091H   SFRSYM    DATA     BYTE      EXIF
      000000D0H.5 SFRSYM    DATA     BIT       F0
      000000D0H.1 SFRSYM    DATA     BIT       F1
      000000A8H   SFRSYM    DATA     BYTE      IE
      00000088H.1 SFRSYM    DATA     BIT       IE0
      00000088H.3 SFRSYM    DATA     BIT       IE1
      00000080H.3 SFRSYM    DATA     BIT       INT0_N
      00000080H.4 SFRSYM    DATA     BIT       INT1_N
      000000B8H   SFRSYM    DATA     BYTE      IP
      00000088H   SFRSYM    DATA     BIT       IT0
LX51 LINKER/LOCATER V4.34a                                                            03/01/2009  16:15:15  PAGE 30


      00000088H.2 SFRSYM    DATA     BIT       IT1
      00000092H   SFRSYM    DATA     BYTE      MPAGE
      000000D0H.2 SFRSYM    DATA     BIT       OV
      000000D0H   SFRSYM    DATA     BIT       P
      00000080H   SFRSYM    DATA     BYTE      P0
      00000080H   SFRSYM    DATA     BIT       P0_0
      00000080H.1 SFRSYM    DATA     BIT       P0_1
      00000080H.2 SFRSYM    DATA     BIT       P0_2
      00000080H.3 SFRSYM    DATA     BIT       P0_3
      00000080H.4 SFRSYM    DATA     BIT       P0_4
      00000080H.5 SFRSYM    DATA     BIT       P0_5
      00000080H.6 SFRSYM    DATA     BIT       P0_6
      00000080H.7 SFRSYM    DATA     BIT       P0_7
      00000095H   SFRSYM    DATA     BYTE      P0_ALT
      00000094H   SFRSYM    DATA     BYTE      P0_DIR
      00000090H   SFRSYM    DATA     BYTE      P1
      00000090H   SFRSYM    DATA     BIT       P1_0
      00000090H.1 SFRSYM    DATA     BIT       P1_1
      00000090H.2 SFRSYM    DATA     BIT       P1_2
      00000097H   SFRSYM    DATA     BYTE      P1_ALT
      00000096H   SFRSYM    DATA     BYTE      P1_DIR
      00000087H   SFRSYM    DATA     BYTE      PCON
      000000B8H.4 SFRSYM    DATA     BIT       PS
      000000D0H   SFRSYM    DATA     BYTE      PSW
      000000B8H.1 SFRSYM    DATA     BIT       PT0
      000000B8H.3 SFRSYM    DATA     BIT       PT1
      000000B8H.5 SFRSYM    DATA     BIT       PT2
      000000F8H.4 SFRSYM    DATA     BIT       PWDI
      00000080H.7 SFRSYM    DATA     BIT       PWM
      000000A9H   SFRSYM    DATA     BYTE      PWMCON
      000000AAH   SFRSYM    DATA     BYTE      PWMDUTY
      000000A0H.7 SFRSYM    DATA     BIT       PWR_UP
      000000B8H   SFRSYM    DATA     BIT       PX0
      000000B8H.2 SFRSYM    DATA     BIT       PX1
      000000F8H   SFRSYM    DATA     BIT       PX2
      000000F8H.1 SFRSYM    DATA     BIT       PX3
      000000F8H.2 SFRSYM    DATA     BIT       PX4
      000000F8H.3 SFRSYM    DATA     BIT       PX5
      000000A0H   SFRSYM    DATA     BYTE      RADIO
      00000098H.2 SFRSYM    DATA     BIT       RB8
      000000CBH   SFRSYM    DATA     BYTE      RCAP2H
      000000CAH   SFRSYM    DATA     BYTE      RCAP2L
      000000C8H.5 SFRSYM    DATA     BIT       RCLK
      000000ADH   SFRSYM    DATA     BYTE      REGX_CTRL
      000000ACH   SFRSYM    DATA     BYTE      REGX_LSB
      000000ABH   SFRSYM    DATA     BYTE      REGX_MSB
      00000098H.4 SFRSYM    DATA     BIT       REN
      00000098H   SFRSYM    DATA     BIT       RI
      000000D0H.3 SFRSYM    DATA     BIT       RS0
      000000D0H.4 SFRSYM    DATA     BIT       RS1
      000000B1H   SFRSYM    DATA     BYTE      RSTREAS
      00000080H.1 SFRSYM    DATA     BIT       RXD
      00000099H   SFRSYM    DATA     BYTE      SBUF
      00000098H   SFRSYM    DATA     BYTE      SCON
      00000098H.7 SFRSYM    DATA     BIT       SM0
      00000098H.6 SFRSYM    DATA     BIT       SM1
      00000098H.5 SFRSYM    DATA     BIT       SM2
      00000081H   SFRSYM    DATA     BYTE      SP
      0000008FH   SFRSYM    DATA     BYTE      SPC_FNC
      000000B3H   SFRSYM    DATA     BYTE      SPI_CTRL
      000000B2H   SFRSYM    DATA     BYTE      SPI_DATA
      000000B4H   SFRSYM    DATA     BYTE      SPICLK
      00000080H.5 SFRSYM    DATA     BIT       T0
      00000080H.6 SFRSYM    DATA     BIT       T1
      000000BCH   SFRSYM    DATA     BYTE      T1_1V2
LX51 LINKER/LOCATER V4.34a                                                            03/01/2009  16:15:15  PAGE 31


      00000090H   SFRSYM    DATA     BIT       T2
      000000BDH   SFRSYM    DATA     BYTE      T2_1V2
      000000C8H   SFRSYM    DATA     BYTE      T2CON
      00000098H.3 SFRSYM    DATA     BIT       TB8
      000000C8H.4 SFRSYM    DATA     BIT       TCLK
      00000088H   SFRSYM    DATA     BYTE      TCON
      000000B7H   SFRSYM    DATA     BYTE      TEST_MODE
      00000088H.5 SFRSYM    DATA     BIT       TF0
      00000088H.7 SFRSYM    DATA     BIT       TF1
      000000C8H.7 SFRSYM    DATA     BIT       TF2
      0000008CH   SFRSYM    DATA     BYTE      TH0
      0000008DH   SFRSYM    DATA     BYTE      TH1
      000000CDH   SFRSYM    DATA     BYTE      TH2
      00000098H.1 SFRSYM    DATA     BIT       TI
      000000B5H   SFRSYM    DATA     BYTE      TICK_DV
      0000008AH   SFRSYM    DATA     BYTE      TL0
      0000008BH   SFRSYM    DATA     BYTE      TL1
      000000CCH   SFRSYM    DATA     BYTE      TL2
      00000089H   SFRSYM    DATA     BYTE      TMOD
      00000088H.4 SFRSYM    DATA     BIT       TR0
      00000088H.6 SFRSYM    DATA     BIT       TR1
      000000C8H.2 SFRSYM    DATA     BIT       TR2
      00000080H.2 SFRSYM    DATA     BIT       TXD
      000000D8H.3 SFRSYM    DATA     BIT       WDTI
      00000071H   SYMBOL    DATA     BYTE      ?_PUTS?BYTE
      01000568H   SYMBOL    CODE     NEAR LAB  ?C0001
      01000554H   SYMBOL    CODE     NEAR LAB  ?C0002
      0100055CH   SYMBOL    CODE     NEAR LAB  ?C0003
      01000564H   SYMBOL    CODE     NEAR LAB  ?C0004
      0100056CH   SYMBOL    CODE     NEAR LAB  ?C0005
      01000783H   SYMBOL    CODE     NEAR LAB  ?C0007
      01000786H   SYMBOL    CODE     NEAR LAB  ?C0008
      01000789H   SYMBOL    CODE     NEAR LAB  ?C0010
      0100078CH   SYMBOL    CODE     NEAR LAB  ?C0011
      01000790H   SYMBOL    CODE     NEAR LAB  ?C0012
      010006AAH   SYMBOL    CODE     NEAR LAB  ?C0014
      010006C8H   SYMBOL    CODE     NEAR LAB  ?C0016
      01000799H   SYMBOL    CODE     NEAR LAB  ?C0017
      010005C8H   SYMBOL    CODE     NEAR LAB  ?C0018
      010006BDH   SYMBOL    CODE     NEAR LAB  ?C0020
      01000781H   SYMBOL    CODE     NEAR LAB  _SERIAL_WRITE
      01000530H   SYMBOL    CODE     NEAR LAB  _SETUP_BAUDRATE
      00000071H   SYMBOL    DATA     BYTE      S?544
      01000789H   SYMBOL    CODE     NEAR LAB  SERIAL_READ

      01000530H   BLOCK     CODE     NEAR LAB  LVL=0
      01000530H   LINE      CODE     ---       #221
      01000533H   LINE      CODE     ---       #224
      01000535H   LINE      CODE     ---       #227
      01000537H   LINE      CODE     ---       #230
      01000539H   LINE      CODE     ---       #233
      0100053CH   LINE      CODE     ---       #237
      0100053FH   LINE      CODE     ---       #240
      01000542H   LINE      CODE     ---       #244
      01000543H   LINE      CODE     ---       #245
      01000545H   LINE      CODE     ---       #246
      01000554H   LINE      CODE     ---       #258
      01000557H   LINE      CODE     ---       #261
      0100055AH   LINE      CODE     ---       #264
      0100055CH   LINE      CODE     ---       #270
      0100055FH   LINE      CODE     ---       #273
      01000562H   LINE      CODE     ---       #276
      01000564H   LINE      CODE     ---       #283
      01000565H   LINE      CODE     ---       #284
      01000566H   LINE      CODE     ---       #285
LX51 LINKER/LOCATER V4.34a                                                            03/01/2009  16:15:15  PAGE 32


      01000567H   LINE      CODE     ---       #286
      01000568H   LINE      CODE     ---       #292
      0100056AH   LINE      CODE     ---       #293
      0100056CH   LINE      CODE     ---       #297
      ---         BLOCKEND  ---      ---       LVL=0

      0100076EH   BLOCK     CODE     NEAR LAB  LVL=0
      0100076EH   LINE      CODE     ---       #319
      01000771H   LINE      CODE     ---       #322
      01000774H   LINE      CODE     ---       #325
      01000777H   LINE      CODE     ---       #328
      ---         BLOCKEND  ---      ---       LVL=0

      01000781H   BLOCK     CODE     NEAR LAB  LVL=0
      01000781H   LINE      CODE     ---       #345
      01000783H   LINE      CODE     ---       #349
      01000786H   LINE      CODE     ---       #354
      01000788H   LINE      CODE     ---       #357
      ---         BLOCKEND  ---      ---       LVL=0

      01000789H   BLOCK     CODE     NEAR LAB  LVL=0
      01000789H   LINE      CODE     ---       #375
      0100078CH   LINE      CODE     ---       #380
      0100078EH   LINE      CODE     ---       #383
      01000790H   LINE      CODE     ---       #387
      ---         BLOCKEND  ---      ---       LVL=0

      01000050H   BLOCK     CODE     NEAR LAB  LVL=0
      01000050H   LINE      CODE     ---       #402
      ---         BLOCKEND  ---      ---       LVL=0

      010006A4H   BLOCK     CODE     NEAR LAB  LVL=0
      010006A4H   LINE      CODE     ---       #413
      010006A6H   LINE      CODE     ---       #414
      010006A8H   LINE      CODE     ---       #415
      010006AAH   LINE      CODE     ---       #421
      010006ACH   LINE      CODE     ---       #422
      010006AEH   LINE      CODE     ---       #423
      010006B0H   LINE      CODE     ---       #424
      010006B3H   LINE      CODE     ---       #425
      010006B5H   LINE      CODE     ---       #428
      010006B7H   LINE      CODE     ---       #429
      010006B9H   LINE      CODE     ---       #430
      010006BBH   LINE      CODE     ---       #431
      010006BDH   LINE      CODE     ---       #433
      010006BEH   LINE      CODE     ---       #434
      010006BFH   LINE      CODE     ---       #435
      010006C2H   LINE      CODE     ---       #436
      010006C3H   LINE      CODE     ---       #437
      010006C6H   LINE      CODE     ---       #438
      010006C8H   LINE      CODE     ---       #442
      ---         BLOCKEND  ---      ---       LVL=0

      01000796H   BLOCK     CODE     NEAR LAB  LVL=0
      01000796H   LINE      CODE     ---       #456
      01000799H   LINE      CODE     ---       #460
      ---         BLOCKEND  ---      ---       LVL=0

      010005A8H   BLOCK     CODE     NEAR LAB  LVL=0
      010005A8H   LINE      CODE     ---       #474
      010005AAH   LINE      CODE     ---       #475
      010005ACH   LINE      CODE     ---       #476
      010005AEH   LINE      CODE     ---       #477
      010005B0H   LINE      CODE     ---       #478
      010005B1H   LINE      CODE     ---       #479
LX51 LINKER/LOCATER V4.34a                                                            03/01/2009  16:15:15  PAGE 33


      010005B3H   LINE      CODE     ---       #483
      010005B5H   LINE      CODE     ---       #484
      010005B6H   LINE      CODE     ---       #485
      010005B7H   LINE      CODE     ---       #486
      010005B8H   LINE      CODE     ---       #487
      010005B9H   LINE      CODE     ---       #488
      010005BAH   LINE      CODE     ---       #489
      010005BCH   LINE      CODE     ---       #490
      010005BEH   LINE      CODE     ---       #491
      010005C1H   LINE      CODE     ---       #492
      010005C2H   LINE      CODE     ---       #493
      010005C3H   LINE      CODE     ---       #494
      010005C5H   LINE      CODE     ---       #497
      010005C8H   LINE      CODE     ---       #501
      010005CAH   LINE      CODE     ---       #502
      010005CBH   LINE      CODE     ---       #503
      010005CCH   LINE      CODE     ---       #504
      010005CDH   LINE      CODE     ---       #505
      010005CEH   LINE      CODE     ---       #506
      010005CFH   LINE      CODE     ---       #507
      010005D1H   LINE      CODE     ---       #508
      010005D3H   LINE      CODE     ---       #509
      010005D6H   LINE      CODE     ---       #510
      010005D7H   LINE      CODE     ---       #511
      010005D9H   LINE      CODE     ---       #512
      010005DAH   LINE      CODE     ---       #513
      010005DDH   LINE      CODE     ---       #516
      010005DFH   LINE      CODE     ---       #517
      010005E1H   LINE      CODE     ---       #518
      ---         BLOCKEND  ---      ---       LVL=0

      ---         MODULE    ---      ---       SPI
      01000791H   PUBLIC    CODE     NEAR LAB  _SPI_INIT
      01000756H   PUBLIC    CODE     NEAR LAB  _SPI_WRITE_THEN_READ
      000000D0H.6 SFRSYM    DATA     BIT       AC
      000000E0H   SFRSYM    DATA     BYTE      ACC
      000000A1H   SFRSYM    DATA     BYTE      ADCCON
      000000A2H   SFRSYM    DATA     BYTE      ADCDATAH
      000000A3H   SFRSYM    DATA     BYTE      ADCDATAL
      000000A4H   SFRSYM    DATA     BYTE      ADCSTATIC
      000000F0H   SFRSYM    DATA     BYTE      B
      000000C8H.1 SFRSYM    DATA     BIT       C_T2
      000000A0H.6 SFRSYM    DATA     BIT       CE
      000000B6H   SFRSYM    DATA     BYTE      CK_CTRL
      0000008EH   SFRSYM    DATA     BYTE      CKCON
      000000A0H.1 SFRSYM    DATA     BIT       CLK1
      000000A0H.5 SFRSYM    DATA     BIT       CLK2
      000000C8H   SFRSYM    DATA     BIT       CP_RL2
      000000C8H   SFRSYM    DATA     BIT       CPRL2
      000000A0H.3 SFRSYM    DATA     BIT       CS
      000000C8H.1 SFRSYM    DATA     BIT       CT2
      000000D0H.7 SFRSYM    DATA     BIT       CY
      000000A0H   SFRSYM    DATA     BIT       DATA?
      000000BEH   SFRSYM    DATA     BYTE      DEV_OFFSET
      00000090H.2 SFRSYM    DATA     BIT       DIN0
      00000090H   SFRSYM    DATA     BIT       DIO0
      00000090H.1 SFRSYM    DATA     BIT       DIO1
      00000080H   SFRSYM    DATA     BIT       DIO2
      00000080H.1 SFRSYM    DATA     BIT       DIO3
      00000080H.2 SFRSYM    DATA     BIT       DIO4
      00000080H.3 SFRSYM    DATA     BIT       DIO5
      00000080H.4 SFRSYM    DATA     BIT       DIO6
      00000080H.5 SFRSYM    DATA     BIT       DIO7
      00000080H.6 SFRSYM    DATA     BIT       DIO8
      00000080H.7 SFRSYM    DATA     BIT       DIO9
LX51 LINKER/LOCATER V4.34a                                                            03/01/2009  16:15:15  PAGE 34


      000000A0H.4 SFRSYM    DATA     BIT       DOUT2
      00000083H   SFRSYM    DATA     BYTE      DPH
      00000083H   SFRSYM    DATA     BYTE      DPH0
      00000085H   SFRSYM    DATA     BYTE      DPH1
      00000082H   SFRSYM    DATA     BYTE      DPL
      00000082H   SFRSYM    DATA     BYTE      DPL0
      00000084H   SFRSYM    DATA     BYTE      DPL1
      00000086H   SFRSYM    DATA     BYTE      DPS
      000000A0H.2 SFRSYM    DATA     BIT       DR1
      000000A0H.6 SFRSYM    DATA     BIT       DR2
      000000A0H.6 SFRSYM    DATA     BIT       DR2_CE
      000000A8H.7 SFRSYM    DATA     BIT       EA
      000000D8H   SFRSYM    DATA     BYTE      EICON
      000000E8H   SFRSYM    DATA     BYTE      EIE
      000000F8H   SFRSYM    DATA     BYTE      EIP
      000000A8H.4 SFRSYM    DATA     BIT       ES
      000000A8H.1 SFRSYM    DATA     BIT       ET0
      000000A8H.3 SFRSYM    DATA     BIT       ET1
      000000A8H.5 SFRSYM    DATA     BIT       ET2
      000000E8H.4 SFRSYM    DATA     BIT       EWDI
      000000A8H   SFRSYM    DATA     BIT       EX0
      000000A8H.2 SFRSYM    DATA     BIT       EX1
      000000E8H   SFRSYM    DATA     BIT       EX2
      000000E8H.1 SFRSYM    DATA     BIT       EX3
      000000E8H.2 SFRSYM    DATA     BIT       EX4
      000000E8H.3 SFRSYM    DATA     BIT       EX5
      000000C8H.3 SFRSYM    DATA     BIT       EXEN2
      000000C8H.6 SFRSYM    DATA     BIT       EXF2
      00000091H   SFRSYM    DATA     BYTE      EXIF
      000000D0H.5 SFRSYM    DATA     BIT       F0
      000000D0H.1 SFRSYM    DATA     BIT       F1
      000000A8H   SFRSYM    DATA     BYTE      IE
      00000088H.1 SFRSYM    DATA     BIT       IE0
      00000088H.3 SFRSYM    DATA     BIT       IE1
      00000080H.3 SFRSYM    DATA     BIT       INT0_N
      00000080H.4 SFRSYM    DATA     BIT       INT1_N
      000000B8H   SFRSYM    DATA     BYTE      IP
      00000088H   SFRSYM    DATA     BIT       IT0
      00000088H.2 SFRSYM    DATA     BIT       IT1
      00000092H   SFRSYM    DATA     BYTE      MPAGE
      000000D0H.2 SFRSYM    DATA     BIT       OV
      000000D0H   SFRSYM    DATA     BIT       P
      00000080H   SFRSYM    DATA     BYTE      P0
      00000080H   SFRSYM    DATA     BIT       P0_0
      00000080H.1 SFRSYM    DATA     BIT       P0_1
      00000080H.2 SFRSYM    DATA     BIT       P0_2
      00000080H.3 SFRSYM    DATA     BIT       P0_3
      00000080H.4 SFRSYM    DATA     BIT       P0_4
      00000080H.5 SFRSYM    DATA     BIT       P0_5
      00000080H.6 SFRSYM    DATA     BIT       P0_6
      00000080H.7 SFRSYM    DATA     BIT       P0_7
      00000095H   SFRSYM    DATA     BYTE      P0_ALT
      00000094H   SFRSYM    DATA     BYTE      P0_DIR
      00000090H   SFRSYM    DATA     BYTE      P1
      00000090H   SFRSYM    DATA     BIT       P1_0
      00000090H.1 SFRSYM    DATA     BIT       P1_1
      00000090H.2 SFRSYM    DATA     BIT       P1_2
      00000097H   SFRSYM    DATA     BYTE      P1_ALT
      00000096H   SFRSYM    DATA     BYTE      P1_DIR
      00000087H   SFRSYM    DATA     BYTE      PCON
      000000B8H.4 SFRSYM    DATA     BIT       PS
      000000D0H   SFRSYM    DATA     BYTE      PSW
      000000B8H.1 SFRSYM    DATA     BIT       PT0
      000000B8H.3 SFRSYM    DATA     BIT       PT1
      000000B8H.5 SFRSYM    DATA     BIT       PT2
LX51 LINKER/LOCATER V4.34a                                                            03/01/2009  16:15:15  PAGE 35


      000000F8H.4 SFRSYM    DATA     BIT       PWDI
      00000080H.7 SFRSYM    DATA     BIT       PWM
      000000A9H   SFRSYM    DATA     BYTE      PWMCON
      000000AAH   SFRSYM    DATA     BYTE      PWMDUTY
      000000A0H.7 SFRSYM    DATA     BIT       PWR_UP
      000000B8H   SFRSYM    DATA     BIT       PX0
      000000B8H.2 SFRSYM    DATA     BIT       PX1
      000000F8H   SFRSYM    DATA     BIT       PX2
      000000F8H.1 SFRSYM    DATA     BIT       PX3
      000000F8H.2 SFRSYM    DATA     BIT       PX4
      000000F8H.3 SFRSYM    DATA     BIT       PX5
      000000A0H   SFRSYM    DATA     BYTE      RADIO
      00000098H.2 SFRSYM    DATA     BIT       RB8
      000000CBH   SFRSYM    DATA     BYTE      RCAP2H
      000000CAH   SFRSYM    DATA     BYTE      RCAP2L
      000000C8H.5 SFRSYM    DATA     BIT       RCLK
      000000ADH   SFRSYM    DATA     BYTE      REGX_CTRL
      000000ACH   SFRSYM    DATA     BYTE      REGX_LSB
      000000ABH   SFRSYM    DATA     BYTE      REGX_MSB
      00000098H.4 SFRSYM    DATA     BIT       REN
      00000098H   SFRSYM    DATA     BIT       RI
      000000D0H.3 SFRSYM    DATA     BIT       RS0
      000000D0H.4 SFRSYM    DATA     BIT       RS1
      000000B1H   SFRSYM    DATA     BYTE      RSTREAS
      00000080H.1 SFRSYM    DATA     BIT       RXD
      00000099H   SFRSYM    DATA     BYTE      SBUF
      00000098H   SFRSYM    DATA     BYTE      SCON
      00000098H.7 SFRSYM    DATA     BIT       SM0
      00000098H.6 SFRSYM    DATA     BIT       SM1
      00000098H.5 SFRSYM    DATA     BIT       SM2
      00000081H   SFRSYM    DATA     BYTE      SP
      0000008FH   SFRSYM    DATA     BYTE      SPC_FNC
      000000B3H   SFRSYM    DATA     BYTE      SPI_CTRL
      000000B2H   SFRSYM    DATA     BYTE      SPI_DATA
      000000B4H   SFRSYM    DATA     BYTE      SPICLK
      00000080H.5 SFRSYM    DATA     BIT       T0
      00000080H.6 SFRSYM    DATA     BIT       T1
      000000BCH   SFRSYM    DATA     BYTE      T1_1V2
      00000090H   SFRSYM    DATA     BIT       T2
      000000BDH   SFRSYM    DATA     BYTE      T2_1V2
      000000C8H   SFRSYM    DATA     BYTE      T2CON
      00000098H.3 SFRSYM    DATA     BIT       TB8
      000000C8H.4 SFRSYM    DATA     BIT       TCLK
      00000088H   SFRSYM    DATA     BYTE      TCON
      000000B7H   SFRSYM    DATA     BYTE      TEST_MODE
      00000088H.5 SFRSYM    DATA     BIT       TF0
      00000088H.7 SFRSYM    DATA     BIT       TF1
      000000C8H.7 SFRSYM    DATA     BIT       TF2
      0000008CH   SFRSYM    DATA     BYTE      TH0
      0000008DH   SFRSYM    DATA     BYTE      TH1
      000000CDH   SFRSYM    DATA     BYTE      TH2
      00000098H.1 SFRSYM    DATA     BIT       TI
      000000B5H   SFRSYM    DATA     BYTE      TICK_DV
      0000008AH   SFRSYM    DATA     BYTE      TL0
      0000008BH   SFRSYM    DATA     BYTE      TL1
      000000CCH   SFRSYM    DATA     BYTE      TL2
      00000089H   SFRSYM    DATA     BYTE      TMOD
      00000088H.4 SFRSYM    DATA     BIT       TR0
      00000088H.6 SFRSYM    DATA     BIT       TR1
      000000C8H.2 SFRSYM    DATA     BIT       TR2
      00000080H.2 SFRSYM    DATA     BIT       TXD
      000000D8H.3 SFRSYM    DATA     BIT       WDTI
      0100075BH   SYMBOL    CODE     NEAR LAB  ?C0002
      01000760H   SYMBOL    CODE     NEAR LAB  ?C0003
      01000762H   SYMBOL    CODE     NEAR LAB  ?C0004
LX51 LINKER/LOCATER V4.34a                                                            03/01/2009  16:15:15  PAGE 36



      01000791H   BLOCK     CODE     NEAR LAB  LVL=0
      01000791H   LINE      CODE     ---       #203
      01000793H   LINE      CODE     ---       #206
      01000795H   LINE      CODE     ---       #209
      ---         BLOCKEND  ---      ---       LVL=0

      01000756H   BLOCK     CODE     NEAR LAB  LVL=0
      01000756H   LINE      CODE     ---       #229
      01000759H   LINE      CODE     ---       #232
      0100075BH   LINE      CODE     ---       #236
      0100075DH   LINE      CODE     ---       #237
      01000760H   LINE      CODE     ---       #242
      01000762H   LINE      CODE     ---       #246
      ---         BLOCKEND  ---      ---       LVL=0

      ---         MODULE    ---      ---       EEPROM
      0100064EH   PUBLIC    CODE     NEAR LAB  _EEPROM_READ
      0100056DH   PUBLIC    CODE     NEAR LAB  _EEPROM_WRITE
      01000763H   PUBLIC    CODE     NEAR LAB  EEPROM_INIT
      0100072CH   PUBLIC    CODE     NEAR LAB  EEPROM_STATUS
      010006C9H   PUBLIC    CODE     NEAR LAB  FLASH_ERASE_ALL
      000000D0H.6 SFRSYM    DATA     BIT       AC
      000000E0H   SFRSYM    DATA     BYTE      ACC
      000000A1H   SFRSYM    DATA     BYTE      ADCCON
      000000A2H   SFRSYM    DATA     BYTE      ADCDATAH
      000000A3H   SFRSYM    DATA     BYTE      ADCDATAL
      000000A4H   SFRSYM    DATA     BYTE      ADCSTATIC
      000000F0H   SFRSYM    DATA     BYTE      B
      000000C8H.1 SFRSYM    DATA     BIT       C_T2
      000000A0H.6 SFRSYM    DATA     BIT       CE
      000000B6H   SFRSYM    DATA     BYTE      CK_CTRL
      0000008EH   SFRSYM    DATA     BYTE      CKCON
      000000A0H.1 SFRSYM    DATA     BIT       CLK1
      000000A0H.5 SFRSYM    DATA     BIT       CLK2
      000000C8H   SFRSYM    DATA     BIT       CP_RL2
      000000C8H   SFRSYM    DATA     BIT       CPRL2
      000000A0H.3 SFRSYM    DATA     BIT       CS
      000000C8H.1 SFRSYM    DATA     BIT       CT2
      000000D0H.7 SFRSYM    DATA     BIT       CY
      000000A0H   SFRSYM    DATA     BIT       DATA?
      000000BEH   SFRSYM    DATA     BYTE      DEV_OFFSET
      00000090H.2 SFRSYM    DATA     BIT       DIN0
      00000090H   SFRSYM    DATA     BIT       DIO0
      00000090H.1 SFRSYM    DATA     BIT       DIO1
      00000080H   SFRSYM    DATA     BIT       DIO2
      00000080H.1 SFRSYM    DATA     BIT       DIO3
      00000080H.2 SFRSYM    DATA     BIT       DIO4
      00000080H.3 SFRSYM    DATA     BIT       DIO5
      00000080H.4 SFRSYM    DATA     BIT       DIO6
      00000080H.5 SFRSYM    DATA     BIT       DIO7
      00000080H.6 SFRSYM    DATA     BIT       DIO8
      00000080H.7 SFRSYM    DATA     BIT       DIO9
      000000A0H.4 SFRSYM    DATA     BIT       DOUT2
      00000083H   SFRSYM    DATA     BYTE      DPH
      00000083H   SFRSYM    DATA     BYTE      DPH0
      00000085H   SFRSYM    DATA     BYTE      DPH1
      00000082H   SFRSYM    DATA     BYTE      DPL
      00000082H   SFRSYM    DATA     BYTE      DPL0
      00000084H   SFRSYM    DATA     BYTE      DPL1
      00000086H   SFRSYM    DATA     BYTE      DPS
      000000A0H.2 SFRSYM    DATA     BIT       DR1
      000000A0H.6 SFRSYM    DATA     BIT       DR2
      000000A0H.6 SFRSYM    DATA     BIT       DR2_CE
      000000A8H.7 SFRSYM    DATA     BIT       EA
LX51 LINKER/LOCATER V4.34a                                                            03/01/2009  16:15:15  PAGE 37


      000000D8H   SFRSYM    DATA     BYTE      EICON
      000000E8H   SFRSYM    DATA     BYTE      EIE
      000000F8H   SFRSYM    DATA     BYTE      EIP
      000000A8H.4 SFRSYM    DATA     BIT       ES
      000000A8H.1 SFRSYM    DATA     BIT       ET0
      000000A8H.3 SFRSYM    DATA     BIT       ET1
      000000A8H.5 SFRSYM    DATA     BIT       ET2
      000000E8H.4 SFRSYM    DATA     BIT       EWDI
      000000A8H   SFRSYM    DATA     BIT       EX0
      000000A8H.2 SFRSYM    DATA     BIT       EX1
      000000E8H   SFRSYM    DATA     BIT       EX2
      000000E8H.1 SFRSYM    DATA     BIT       EX3
      000000E8H.2 SFRSYM    DATA     BIT       EX4
      000000E8H.3 SFRSYM    DATA     BIT       EX5
      000000C8H.3 SFRSYM    DATA     BIT       EXEN2
      000000C8H.6 SFRSYM    DATA     BIT       EXF2
      00000091H   SFRSYM    DATA     BYTE      EXIF
      000000D0H.5 SFRSYM    DATA     BIT       F0
      000000D0H.1 SFRSYM    DATA     BIT       F1
      000000A8H   SFRSYM    DATA     BYTE      IE
      00000088H.1 SFRSYM    DATA     BIT       IE0
      00000088H.3 SFRSYM    DATA     BIT       IE1
      00000080H.3 SFRSYM    DATA     BIT       INT0_N
      00000080H.4 SFRSYM    DATA     BIT       INT1_N
      000000B8H   SFRSYM    DATA     BYTE      IP
      00000088H   SFRSYM    DATA     BIT       IT0
      00000088H.2 SFRSYM    DATA     BIT       IT1
      00000092H   SFRSYM    DATA     BYTE      MPAGE
      000000D0H.2 SFRSYM    DATA     BIT       OV
      000000D0H   SFRSYM    DATA     BIT       P
      00000080H   SFRSYM    DATA     BYTE      P0
      00000080H   SFRSYM    DATA     BIT       P0_0
      00000080H.1 SFRSYM    DATA     BIT       P0_1
      00000080H.2 SFRSYM    DATA     BIT       P0_2
      00000080H.3 SFRSYM    DATA     BIT       P0_3
      00000080H.4 SFRSYM    DATA     BIT       P0_4
      00000080H.5 SFRSYM    DATA     BIT       P0_5
      00000080H.6 SFRSYM    DATA     BIT       P0_6
      00000080H.7 SFRSYM    DATA     BIT       P0_7
      00000095H   SFRSYM    DATA     BYTE      P0_ALT
      00000094H   SFRSYM    DATA     BYTE      P0_DIR
      00000090H   SFRSYM    DATA     BYTE      P1
      00000090H   SFRSYM    DATA     BIT       P1_0
      00000090H.1 SFRSYM    DATA     BIT       P1_1
      00000090H.2 SFRSYM    DATA     BIT       P1_2
      00000097H   SFRSYM    DATA     BYTE      P1_ALT
      00000096H   SFRSYM    DATA     BYTE      P1_DIR
      00000087H   SFRSYM    DATA     BYTE      PCON
      000000B8H.4 SFRSYM    DATA     BIT       PS
      000000D0H   SFRSYM    DATA     BYTE      PSW
      000000B8H.1 SFRSYM    DATA     BIT       PT0
      000000B8H.3 SFRSYM    DATA     BIT       PT1
      000000B8H.5 SFRSYM    DATA     BIT       PT2
      000000F8H.4 SFRSYM    DATA     BIT       PWDI
      00000080H.7 SFRSYM    DATA     BIT       PWM
      000000A9H   SFRSYM    DATA     BYTE      PWMCON
      000000AAH   SFRSYM    DATA     BYTE      PWMDUTY
      000000A0H.7 SFRSYM    DATA     BIT       PWR_UP
      000000B8H   SFRSYM    DATA     BIT       PX0
      000000B8H.2 SFRSYM    DATA     BIT       PX1
      000000F8H   SFRSYM    DATA     BIT       PX2
      000000F8H.1 SFRSYM    DATA     BIT       PX3
      000000F8H.2 SFRSYM    DATA     BIT       PX4
      000000F8H.3 SFRSYM    DATA     BIT       PX5
      000000A0H   SFRSYM    DATA     BYTE      RADIO
LX51 LINKER/LOCATER V4.34a                                                            03/01/2009  16:15:15  PAGE 38


      00000098H.2 SFRSYM    DATA     BIT       RB8
      000000CBH   SFRSYM    DATA     BYTE      RCAP2H
      000000CAH   SFRSYM    DATA     BYTE      RCAP2L
      000000C8H.5 SFRSYM    DATA     BIT       RCLK
      000000ADH   SFRSYM    DATA     BYTE      REGX_CTRL
      000000ACH   SFRSYM    DATA     BYTE      REGX_LSB
      000000ABH   SFRSYM    DATA     BYTE      REGX_MSB
      00000098H.4 SFRSYM    DATA     BIT       REN
      00000098H   SFRSYM    DATA     BIT       RI
      000000D0H.3 SFRSYM    DATA     BIT       RS0
      000000D0H.4 SFRSYM    DATA     BIT       RS1
      000000B1H   SFRSYM    DATA     BYTE      RSTREAS
      00000080H.1 SFRSYM    DATA     BIT       RXD
      00000099H   SFRSYM    DATA     BYTE      SBUF
      00000098H   SFRSYM    DATA     BYTE      SCON
      00000098H.7 SFRSYM    DATA     BIT       SM0
      00000098H.6 SFRSYM    DATA     BIT       SM1
      00000098H.5 SFRSYM    DATA     BIT       SM2
      00000081H   SFRSYM    DATA     BYTE      SP
      0000008FH   SFRSYM    DATA     BYTE      SPC_FNC
      000000B3H   SFRSYM    DATA     BYTE      SPI_CTRL
      000000B2H   SFRSYM    DATA     BYTE      SPI_DATA
      000000B4H   SFRSYM    DATA     BYTE      SPICLK
      00000080H.5 SFRSYM    DATA     BIT       T0
      00000080H.6 SFRSYM    DATA     BIT       T1
      000000BCH   SFRSYM    DATA     BYTE      T1_1V2
      00000090H   SFRSYM    DATA     BIT       T2
      000000BDH   SFRSYM    DATA     BYTE      T2_1V2
      000000C8H   SFRSYM    DATA     BYTE      T2CON
      00000098H.3 SFRSYM    DATA     BIT       TB8
      000000C8H.4 SFRSYM    DATA     BIT       TCLK
      00000088H   SFRSYM    DATA     BYTE      TCON
      000000B7H   SFRSYM    DATA     BYTE      TEST_MODE
      00000088H.5 SFRSYM    DATA     BIT       TF0
      00000088H.7 SFRSYM    DATA     BIT       TF1
      000000C8H.7 SFRSYM    DATA     BIT       TF2
      0000008CH   SFRSYM    DATA     BYTE      TH0
      0000008DH   SFRSYM    DATA     BYTE      TH1
      000000CDH   SFRSYM    DATA     BYTE      TH2
      00000098H.1 SFRSYM    DATA     BIT       TI
      000000B5H   SFRSYM    DATA     BYTE      TICK_DV
      0000008AH   SFRSYM    DATA     BYTE      TL0
      0000008BH   SFRSYM    DATA     BYTE      TL1
      000000CCH   SFRSYM    DATA     BYTE      TL2
      00000089H   SFRSYM    DATA     BYTE      TMOD
      00000088H.4 SFRSYM    DATA     BIT       TR0
      00000088H.6 SFRSYM    DATA     BIT       TR1
      000000C8H.2 SFRSYM    DATA     BIT       TR2
      00000080H.2 SFRSYM    DATA     BIT       TXD
      000000D8H.3 SFRSYM    DATA     BIT       WDTI
      00000077H   SYMBOL    DATA     BYTE      ?_EEPROM_READ?BYTE
      00000074H   SYMBOL    DATA     BYTE      ?_EEPROM_WRITE?BYTE
      0100073AH   SYMBOL    CODE     NEAR LAB  ?C0002
      01000573H   SYMBOL    CODE     NEAR LAB  ?C0003
      0100057AH   SYMBOL    CODE     NEAR LAB  ?C0004
      01000655H   SYMBOL    CODE     NEAR LAB  ?C0006
      0100065CH   SYMBOL    CODE     NEAR LAB  ?C0007
      01000679H   SYMBOL    CODE     NEAR LAB  ?C0008
      010006C9H   SYMBOL    CODE     NEAR LAB  ?C0009
      010006D0H   SYMBOL    CODE     NEAR LAB  ?C0010
      010006E2H   SYMBOL    CODE     NEAR LAB  ?C0012
      00000074H   SYMBOL    DATA     BYTE      ADDR?241
      00000077H   SYMBOL    DATA     BYTE      ADDR?343
      00000076H   SYMBOL    DATA     BYTE      BYTE?242
      00000079H   SYMBOL    DATA     BYTE      BYTE?344
LX51 LINKER/LOCATER V4.34a                                                            03/01/2009  16:15:15  PAGE 39



      01000763H   BLOCK     CODE     NEAR LAB  LVL=0
      01000763H   LINE      CODE     ---       #244
      01000764H   LINE      CODE     ---       #245
      01000765H   LINE      CODE     ---       #246
      01000767H   LINE      CODE     ---       #247
      0100076AH   LINE      CODE     ---       #251
      0100076DH   LINE      CODE     ---       #254
      ---         BLOCKEND  ---      ---       LVL=0

      0100072CH   BLOCK     CODE     NEAR LAB  LVL=0
      0100072CH   LINE      CODE     ---       #270
      0100072EH   LINE      CODE     ---       #273
      01000730H   LINE      CODE     ---       #274
      01000733H   LINE      CODE     ---       #278
      01000734H   LINE      CODE     ---       #279
      01000735H   LINE      CODE     ---       #280
      01000738H   LINE      CODE     ---       #284
      0100073AH   LINE      CODE     ---       #291
      ---         BLOCKEND  ---      ---       LVL=0

      0100056DH   BLOCK     CODE     NEAR LAB  LVL=0
      0100056DH   LINE      CODE     ---       #305
      0100056FH   LINE      CODE     ---       #306
      01000571H   LINE      CODE     ---       #307
      01000573H   LINE      CODE     ---       #313
      01000576H   LINE      CODE     ---       #314
      01000577H   LINE      CODE     ---       #315
      0100057AH   LINE      CODE     ---       #320
      0100057CH   LINE      CODE     ---       #323
      0100057EH   LINE      CODE     ---       #324
      01000581H   LINE      CODE     ---       #327
      01000583H   LINE      CODE     ---       #330
      01000585H   LINE      CODE     ---       #333
      01000587H   LINE      CODE     ---       #334
      0100058AH   LINE      CODE     ---       #337
      0100058CH   LINE      CODE     ---       #338
      0100058DH   LINE      CODE     ---       #339
      01000590H   LINE      CODE     ---       #342
      01000592H   LINE      CODE     ---       #343
      01000594H   LINE      CODE     ---       #344
      01000597H   LINE      CODE     ---       #347
      01000599H   LINE      CODE     ---       #348
      0100059CH   LINE      CODE     ---       #351
      0100059EH   LINE      CODE     ---       #354
      010005A0H   LINE      CODE     ---       #357
      010005A2H   LINE      CODE     ---       #358
      010005A5H   LINE      CODE     ---       #361
      010005A7H   LINE      CODE     ---       #364
      ---         BLOCKEND  ---      ---       LVL=0

      0100064EH   BLOCK     CODE     NEAR LAB  LVL=0
      0100064EH   LINE      CODE     ---       #377
      01000650H   LINE      CODE     ---       #378
      01000652H   LINE      CODE     ---       #383
      01000653H   LINE      CODE     ---       #384
      01000655H   LINE      CODE     ---       #388
      01000658H   LINE      CODE     ---       #389
      01000659H   LINE      CODE     ---       #390
      0100065CH   LINE      CODE     ---       #395
      0100065EH   LINE      CODE     ---       #398
      01000660H   LINE      CODE     ---       #399
      01000663H   LINE      CODE     ---       #402
      01000665H   LINE      CODE     ---       #403
      01000666H   LINE      CODE     ---       #404
LX51 LINKER/LOCATER V4.34a                                                            03/01/2009  16:15:15  PAGE 40


      01000669H   LINE      CODE     ---       #407
      0100066BH   LINE      CODE     ---       #408
      0100066DH   LINE      CODE     ---       #409
      01000670H   LINE      CODE     ---       #412
      01000671H   LINE      CODE     ---       #413
      01000672H   LINE      CODE     ---       #414
      01000675H   LINE      CODE     ---       #415
      01000677H   LINE      CODE     ---       #418
      01000679H   LINE      CODE     ---       #424
      ---         BLOCKEND  ---      ---       LVL=0

      010006C9H   BLOCK     CODE     NEAR LAB  LVL=0
      010006C9H   LINE      CODE     ---       #440
      010006CCH   LINE      CODE     ---       #441
      010006CDH   LINE      CODE     ---       #442
      010006D0H   LINE      CODE     ---       #447
      010006D2H   LINE      CODE     ---       #450
      010006D4H   LINE      CODE     ---       #451
      010006D7H   LINE      CODE     ---       #454
      010006D9H   LINE      CODE     ---       #457
      010006DBH   LINE      CODE     ---       #460
      010006DDH   LINE      CODE     ---       #461
      010006E0H   LINE      CODE     ---       #464
      010006E2H   LINE      CODE     ---       #472
      010006E4H   LINE      CODE     ---       #475
      010006E6H   LINE      CODE     ---       #476
      010006E9H   LINE      CODE     ---       #479
      010006EBH   LINE      CODE     ---       #482
      ---         BLOCKEND  ---      ---       LVL=0

      ---         MODULE    ---      ---       ?C_STARTUP
      01000000H   PUBLIC    CODE     ---       ?C_STARTUP

      ---         MODULE    ---      ---       ?C?CLDPTR
      01000056H   PUBLIC    CODE     ---       ?C?CLDPTR

      ---         MODULE    ---      ---       ?C?CLDOPTR
      0100006FH   PUBLIC    CODE     ---       ?C?CLDOPTR

      ---         MODULE    ---      ---       ?C?CSTPTR
      0100009CH   PUBLIC    CODE     ---       ?C?CSTPTR

      ---         MODULE    ---      ---       ?C?UIDIV
      010000AEH   PUBLIC    CODE     ---       ?C?UIDIV

      ---         MODULE    ---      ---       ?C?LMUL
      01000103H   PUBLIC    CODE     ---       ?C?LMUL

      ---         MODULE    ---      ---       ?C?ULDIV
      0100018EH   PUBLIC    CODE     ---       ?C?ULDIV

      ---         MODULE    ---      ---       ?C?ICASE
      01000220H   PUBLIC    CODE     ---       ?C?ICASE

      ---         MODULE    ---      ---       ?C?ICALL
      0100024DH   PUBLIC    CODE     ---       ?C?ICALL
      01000251H   PUBLIC    CODE     ---       ?C?ICALL2

      ---         MODULE    ---      ---       ?C_IBP
      0000007EH   PUBLIC    DATA     ---       ?C_IBP

      ---         MODULE    ---      ---       ?C_INIT
      010003FEH   PUBLIC    CODE     ---       ?C_START

Program Size: data=128.0 xdata=0 const=0 code=2053
LX51 LINKER/LOCATER V4.34a                                                            03/01/2009  16:15:15  PAGE 41


LX51 RUN COMPLETE.  0 WARNING(S),  0 ERROR(S)
