LX51 LINKER/LOCATER V4.34a                                                              04/28/2009  16:35:35  PAGE 1


LX51 LINKER/LOCATER V4.34a, INVOKED BY:
C:\KEIL\C51\BIN\LX51.EXE MAIN.OBJ, ISR_RF.OBJ, ECO_PAGE.OBJ, ADC.OBJ, UTILS.OBJ, SERIAL.OBJ, SPI.OBJ, EEPROM.OBJ, C51S.L
>> IB TO MAIN


CPU MODE:     8051 MODE


INPUT MODULES INCLUDED:
  MAIN.OBJ (MAIN)
         COMMENT TYPE 0: AX51 V3.06a
  ISR_RF.OBJ (ISR_RF)
         COMMENT TYPE 0: AX51 V3.06a
  ECO_PAGE.OBJ (ECO_PAGE)
         COMMENT TYPE 0: AX51 V3.06a
  ADC.OBJ (ADC)
         COMMENT TYPE 0: AX51 V3.06a
  UTILS.OBJ (UTILS)
         COMMENT TYPE 0: AX51 V3.06a
  SERIAL.OBJ (SERIAL)
         COMMENT TYPE 0: AX51 V3.06a
  SPI.OBJ (SPI)
         COMMENT TYPE 0: AX51 V3.06a
  EEPROM.OBJ (EEPROM)
         COMMENT TYPE 0: AX51 V3.06a
  C51S.LIB (?C_STARTUP)
         COMMENT TYPE 1: A51 / ASM51 Assembler
  C51S.LIB (?C?CLDPTR)
         COMMENT TYPE 1: A51 / ASM51 Assembler
  C51S.LIB (?C?CLDOPTR)
         COMMENT TYPE 1: A51 / ASM51 Assembler
  C51S.LIB (?C?CSTPTR)
         COMMENT TYPE 1: A51 / ASM51 Assembler
  C51S.LIB (?C?UIDIV)
         COMMENT TYPE 1: A51 / ASM51 Assembler
  C51S.LIB (?C?LMUL)
         COMMENT TYPE 1: A51 / ASM51 Assembler
  C51S.LIB (?C?ULDIV)
         COMMENT TYPE 1: A51 / ASM51 Assembler
  C51S.LIB (?C?ICASE)
         COMMENT TYPE 1: A51 / ASM51 Assembler
  C51S.LIB (?C_IBP)
         COMMENT TYPE 1: A51 / ASM51 Assembler
  C51S.LIB (?C_INIT)
         COMMENT TYPE 1: A51 / ASM51 Assembler


ACTIVE MEMORY CLASSES OF MODULE:  MAIN (MAIN)

BASE        START       END         USED      MEMORY CLASS
==========================================================
C:000000H   C:000000H   C:00FFFFH   0007D3H   CODE
I:000000H   I:000000H   I:00007FH   000065H   DATA
I:000000H   I:000000H   I:0000FFH   000008H   IDATA


MEMORY MAP OF MODULE:  MAIN (MAIN)


START     STOP      LENGTH    ALIGN  RELOC    MEMORY CLASS   SEGMENT NAME
=========================================================================

* * * * * * * * * * *   D A T A   M E M O R Y   * * * * * * * * * * * * *
000000H   000007H   000008H   ---    AT..     DATA           "REG BANK 0"
000008H   00001FH   000018H   BYTE   UNIT     DATA           ?DT?ISR_RF
000020H   000030H   000011H   BYTE   UNIT     DATA           ?DT?ECO_PAGE
LX51 LINKER/LOCATER V4.34a                                                            04/28/2009  16:35:35  PAGE 2


000031H   00003AH   00000AH   BYTE   UNIT     DATA           ?DT?_RF_SEND?ISR_RF
00003BH   000042H   000008H   BYTE   UNIT     DATA           ?DT?_STRNCPY?UTILS
000043H   000048H   000006H   BYTE   UNIT     DATA           ?DT?ECO_PAGE_MANAGER?ECO_PAGE
000049H   00004DH   000005H   BYTE   UNIT     DATA           ?DT?MAIN?MAIN
00004EH   000052H   000005H   BYTE   UNIT     DATA           ?DT?_RF_CONFIGURE?ISR_RF
000053H   000056H   000004H   BYTE   UNIT     DATA           ?DT?UTILS
000057H   000059H   000003H   BYTE   UNIT     DATA           ?DT?_PUTS?SERIAL
00005AH   00005CH   000003H   BYTE   UNIT     DATA           ?DT?_EEPROM_WRITE?EEPROM
00005DH   00005FH   000003H   BYTE   UNIT     DATA           ?DT?_EEPROM_READ?EEPROM
000060H   000061H   000002H   BYTE   UNIT     DATA           ?DT?RF_CH1_RECV?ISR_RF
000062H   000063H   000002H   BYTE   UNIT     DATA           ?DT?_MDELAY?UTILS
000064H   000064H   000001H   BYTE   UNIT     DATA           ?C?LIB_DATA
000065H   00006BH   000007H   BYTE   UNIT     IDATA          ?ID?ECO_PAGE
00006CH   00006CH   000001H   BYTE   UNIT     IDATA          ?STACK

* * * * * * * * * * *   C O D E   M E M O R Y   * * * * * * * * * * * * *
000000H   000002H   000003H   ---    OFFS..   CODE           ?CO??C_STARTUP?0
000003H   00004FH   00004DH   BYTE   UNIT     CODE           ?PR?P_ADC_READ?ADC
000050H   000052H   000003H   BYTE   UNIT     CODE           ?PR?_PUTC?SERIAL
000053H   000055H   000003H   ---    OFFS..   CODE           ?CO?ISR_RF?11
000056H   00024CH   0001F7H   BYTE   UNIT     CODE           ?C?LIB_CODE
00024DH   00032FH   0000E3H   BYTE   UNIT     CODE           ?PR?ECO_PAGE_MANAGER?ECO_PAGE
000330H   0003BBH   00008CH   BYTE   UNIT     CODE           ?C_C51STARTUP
0003BCH   000427H   00006CH   BYTE   UNIT     CODE           ?PR?MAIN?MAIN
000428H   000492H   00006BH   BYTE   UNIT     CODE           ?PR?_RF_SEND?ISR_RF
000493H   0004F2H   000060H   BYTE   UNIT     CODE           ?PR?RF_CH1_RECV?ISR_RF
0004F3H   00053BH   000049H   BYTE   UNIT     CODE           ?PR?_MDELAY?UTILS
00053CH   00057FH   000044H   BYTE   UNIT     CODE           ?PR?_STRNCPY?UTILS
000580H   0005BCH   00003DH   BYTE   UNIT     CODE           ?PR?_SETUP_BAUDRATE?SERIAL
0005BDH   0005F7H   00003BH   BYTE   UNIT     CODE           ?PR?_EEPROM_WRITE?EEPROM
0005F8H   000631H   00003AH   BYTE   UNIT     CODE           ?PR?_?INT_PRINT?SERIAL
000632H   000667H   000036H   BYTE   UNIT     CODE           ?PR?_RF_CONFIGURE?ISR_RF
000668H   000695H   00002EH   BYTE   UNIT     CODE           ?PR?ECO_PAGE_INIT?ECO_PAGE
000696H   0006C1H   00002CH   BYTE   UNIT     CODE           ?PR?_EEPROM_READ?EEPROM
0006C2H   0006E6H   000025H   BYTE   UNIT     CODE           ?PR?_PUTS?SERIAL
0006E7H   000709H   000023H   BYTE   UNIT     CODE           ?PR?FLASH_ERASE_ALL?EEPROM
00070AH   000724H   00001BH   BYTE   UNIT     CODE           ?C_INITSEG
000725H   00073FH   00001BH   BYTE   UNIT     CODE           ?PR?_ADC_READ?ADC
000740H   000752H   000013H   BYTE   UNIT     CODE           ?PR?_ADC_INIT?ADC
000753H   000764H   000012H   BYTE   UNIT     CODE           ?PR?_WDT_LOAD?UTILS
000765H   000773H   00000FH   BYTE   UNIT     CODE           ?PR?EEPROM_STATUS?EEPROM
000774H   000781H   00000EH   BYTE   UNIT     CODE           ?PR?RF_INIT?ISR_RF
000782H   00078EH   00000DH   BYTE   UNIT     CODE           ?PR?_STORE_CPU_RATE?UTILS
00078FH   00079BH   00000DH   BYTE   UNIT     CODE           ?PR?_SPI_WRITE_THEN_READ?SPI
00079CH   0007A6H   00000BH   BYTE   UNIT     CODE           ?PR?EEPROM_INIT?EEPROM
0007A7H   0007B0H   00000AH   BYTE   UNIT     CODE           ?PR?_SERIAL_INIT?SERIAL
0007B1H   0007B9H   000009H   BYTE   UNIT     CODE           ?PR?RF_WAIT_MSG?ISR_RF
0007BAH   0007C1H   000008H   BYTE   UNIT     CODE           ?PR?_SERIAL_WRITE?SERIAL
0007C2H   0007C9H   000008H   BYTE   UNIT     CODE           ?PR?SERIAL_READ?SERIAL
0007CAH   0007CEH   000005H   BYTE   UNIT     CODE           ?PR?_SPI_INIT?SPI
0007CFH   0007D2H   000004H   BYTE   UNIT     CODE           ?PR?GETC?SERIAL



PUBLIC SYMBOLS OF MODULE:  MAIN (MAIN)


      VALUE       CLASS    TYPE      PUBLIC SYMBOL NAME
      =================================================
      00000031H   DATA     BYTE      ?_RF_SEND?BYTE
      0000003BH   DATA     BYTE      ?_STRNCPY?BYTE
      0100006FH   CODE     ---       ?C?CLDOPTR
      01000056H   CODE     ---       ?C?CLDPTR
      00000000H   NUMBER   ---       ?C?CODESEG
      0100009CH   CODE     ---       ?C?CSTPTR
LX51 LINKER/LOCATER V4.34a                                                            04/28/2009  16:35:35  PAGE 3


      01000220H   CODE     ---       ?C?ICASE
      01000103H   CODE     ---       ?C?LMUL
      010000AEH   CODE     ---       ?C?UIDIV
      0100018EH   CODE     ---       ?C?ULDIV
      00000000H   NUMBER   ---       ?C?XDATASEG
      00000064H   DATA     ---       ?C_IBP
      01000377H   CODE     ---       ?C_START
      01000000H   CODE     ---       ?C_STARTUP
      010005F8H   CODE     NEAR LAB  _?INT_PRINT
      01000740H   CODE     NEAR LAB  _ADC_INIT
      01000725H   CODE     NEAR LAB  _ADC_READ
      01000696H   CODE     NEAR LAB  _EEPROM_READ
      010005BDH   CODE     NEAR LAB  _EEPROM_WRITE
      010004F3H   CODE     NEAR LAB  _MDELAY
      01000050H   CODE     NEAR LAB  _PUTC
      010006C2H   CODE     NEAR LAB  _PUTS
      01000632H   CODE     NEAR LAB  _RF_CONFIGURE
      01000428H   CODE     NEAR LAB  _RF_SEND
      010007A7H   CODE     NEAR LAB  _SERIAL_INIT
      010007CAH   CODE     NEAR LAB  _SPI_INIT
      0100078FH   CODE     NEAR LAB  _SPI_WRITE_THEN_READ
      01000782H   CODE     NEAR LAB  _STORE_CPU_RATE
      0100053CH   CODE     NEAR LAB  _STRNCPY
      01000753H   CODE     NEAR LAB  _WDT_LOAD
*SFR* 000000D0H.6 DATA     BIT       AC
*SFR* 000000E0H   DATA     BYTE      ACC
*SFR* 000000A1H   DATA     BYTE      ADCCON
*SFR* 000000A2H   DATA     BYTE      ADCDATAH
*SFR* 000000A3H   DATA     BYTE      ADCDATAL
*SFR* 000000A4H   DATA     BYTE      ADCSTATIC
*SFR* 000000F0H   DATA     BYTE      B
*SFR* 000000C8H.1 DATA     BIT       C_T2
*SFR* 000000A0H.6 DATA     BIT       CE
*SFR* 000000B6H   DATA     BYTE      CK_CTRL
*SFR* 0000008EH   DATA     BYTE      CKCON
*SFR* 000000A0H.1 DATA     BIT       CLK1
*SFR* 000000A0H.5 DATA     BIT       CLK2
*SFR* 000000C8H   DATA     BIT       CP_RL2
*SFR* 000000C8H   DATA     BIT       CPRL2
*SFR* 000000A0H.3 DATA     BIT       CS
*SFR* 000000C8H.1 DATA     BIT       CT2
*SFR* 000000D0H.7 DATA     BIT       CY
*SFR* 000000A0H   DATA     BIT       DATA?
*SFR* 000000BEH   DATA     BYTE      DEV_OFFSET
*SFR* 00000090H.2 DATA     BIT       DIN0
*SFR* 00000090H   DATA     BIT       DIO0
*SFR* 00000090H.1 DATA     BIT       DIO1
*SFR* 00000080H   DATA     BIT       DIO2
*SFR* 00000080H.1 DATA     BIT       DIO3
*SFR* 00000080H.2 DATA     BIT       DIO4
*SFR* 00000080H.3 DATA     BIT       DIO5
*SFR* 00000080H.4 DATA     BIT       DIO6
*SFR* 00000080H.5 DATA     BIT       DIO7
*SFR* 00000080H.6 DATA     BIT       DIO8
*SFR* 00000080H.7 DATA     BIT       DIO9
*SFR* 000000A0H.4 DATA     BIT       DOUT2
*SFR* 00000083H   DATA     BYTE      DPH
*SFR* 00000083H   DATA     BYTE      DPH0
*SFR* 00000085H   DATA     BYTE      DPH1
*SFR* 00000082H   DATA     BYTE      DPL
*SFR* 00000082H   DATA     BYTE      DPL0
*SFR* 00000084H   DATA     BYTE      DPL1
*SFR* 00000086H   DATA     BYTE      DPS
*SFR* 000000A0H.2 DATA     BIT       DR1
*SFR* 000000A0H.6 DATA     BIT       DR2
LX51 LINKER/LOCATER V4.34a                                                            04/28/2009  16:35:35  PAGE 4


*SFR* 000000A0H.6 DATA     BIT       DR2_CE
*SFR* 000000A8H.7 DATA     BIT       EA
      0000002DH   DATA     BYTE      ECO_PAGE_ADDR
      01000668H   CODE     NEAR LAB  ECO_PAGE_INIT
      0100024DH   CODE     NEAR LAB  ECO_PAGE_MANAGER
      0000002AH   DATA     BYTE      ECO_PAGE_PREV_PID
      0000002CH   DATA     BYTE      ECO_PAGE_PREV_VID
      00000065H   IDATA    BYTE      ECO_PAGE_REGISTER1
      00000066H   IDATA    BYTE      ECO_PAGE_REGISTER2
      00000067H   IDATA    BYTE      ECO_PAGE_REGISTER3
      00000068H   IDATA    BYTE      ECO_PAGE_REGISTER4
      00000069H   IDATA    BYTE      ECO_PAGE_REGISTER5
      0000006AH   IDATA    BYTE      ECO_PAGE_REGISTER6
      0000006BH   IDATA    BYTE      ECO_PAGE_REGISTER7
      0000002BH   DATA     BYTE      ECO_PAGE_SPI_CONN
      00000020H   DATA     BYTE      ECO_PAGE_TABLE
      0000002FH   DATA     BYTE      ECO_PAGE_TABLE_INDEX
      0100079CH   CODE     NEAR LAB  EEPROM_INIT
      01000765H   CODE     NEAR LAB  EEPROM_STATUS
*SFR* 000000D8H   DATA     BYTE      EICON
*SFR* 000000E8H   DATA     BYTE      EIE
*SFR* 000000F8H   DATA     BYTE      EIP
*SFR* 000000A8H.4 DATA     BIT       ES
*SFR* 000000A8H.1 DATA     BIT       ET0
*SFR* 000000A8H.3 DATA     BIT       ET1
*SFR* 000000A8H.5 DATA     BIT       ET2
*SFR* 000000E8H.4 DATA     BIT       EWDI
*SFR* 000000A8H   DATA     BIT       EX0
*SFR* 000000A8H.2 DATA     BIT       EX1
*SFR* 000000E8H   DATA     BIT       EX2
*SFR* 000000E8H.1 DATA     BIT       EX3
*SFR* 000000E8H.2 DATA     BIT       EX4
*SFR* 000000E8H.3 DATA     BIT       EX5
*SFR* 000000C8H.3 DATA     BIT       EXEN2
*SFR* 000000C8H.6 DATA     BIT       EXF2
*SFR* 00000091H   DATA     BYTE      EXIF
*SFR* 000000D0H.5 DATA     BIT       F0
*SFR* 000000D0H.1 DATA     BIT       F1
      010006E7H   CODE     NEAR LAB  FLASH_ERASE_ALL
      010007CFH   CODE     NEAR LAB  GETC
*SFR* 000000A8H   DATA     BYTE      IE
*SFR* 00000088H.1 DATA     BIT       IE0
*SFR* 00000088H.3 DATA     BIT       IE1
*SFR* 00000080H.3 DATA     BIT       INT0_N
*SFR* 00000080H.4 DATA     BIT       INT1_N
*SFR* 000000B8H   DATA     BYTE      IP
*SFR* 00000088H   DATA     BIT       IT0
*SFR* 00000088H.2 DATA     BIT       IT1
      010003BCH   CODE     NEAR LAB  MAIN
      00000053H   DATA     BYTE      MHZ
*SFR* 00000092H   DATA     BYTE      MPAGE
*SFR* 000000D0H.2 DATA     BIT       OV
*SFR* 000000D0H   DATA     BIT       P
*SFR* 00000080H   DATA     BYTE      P0
*SFR* 00000080H   DATA     BIT       P0_0
*SFR* 00000080H.1 DATA     BIT       P0_1
*SFR* 00000080H.2 DATA     BIT       P0_2
*SFR* 00000080H.3 DATA     BIT       P0_3
*SFR* 00000080H.4 DATA     BIT       P0_4
*SFR* 00000080H.5 DATA     BIT       P0_5
*SFR* 00000080H.6 DATA     BIT       P0_6
*SFR* 00000080H.7 DATA     BIT       P0_7
*SFR* 00000095H   DATA     BYTE      P0_ALT
*SFR* 00000094H   DATA     BYTE      P0_DIR
*SFR* 00000090H   DATA     BYTE      P1
LX51 LINKER/LOCATER V4.34a                                                            04/28/2009  16:35:35  PAGE 5


*SFR* 00000090H   DATA     BIT       P1_0
*SFR* 00000090H.1 DATA     BIT       P1_1
*SFR* 00000090H.2 DATA     BIT       P1_2
*SFR* 00000097H   DATA     BYTE      P1_ALT
*SFR* 00000096H   DATA     BYTE      P1_DIR
*SFR* 00000087H   DATA     BYTE      PCON
*SFR* 000000B8H.4 DATA     BIT       PS
*SFR* 000000D0H   DATA     BYTE      PSW
*SFR* 000000B8H.1 DATA     BIT       PT0
*SFR* 000000B8H.3 DATA     BIT       PT1
*SFR* 000000B8H.5 DATA     BIT       PT2
*SFR* 000000F8H.4 DATA     BIT       PWDI
*SFR* 00000080H.7 DATA     BIT       PWM
*SFR* 000000A9H   DATA     BYTE      PWMCON
*SFR* 000000AAH   DATA     BYTE      PWMDUTY
*SFR* 000000A0H.7 DATA     BIT       PWR_UP
*SFR* 000000B8H   DATA     BIT       PX0
*SFR* 000000B8H.2 DATA     BIT       PX1
*SFR* 000000F8H   DATA     BIT       PX2
*SFR* 000000F8H.1 DATA     BIT       PX3
*SFR* 000000F8H.2 DATA     BIT       PX4
*SFR* 000000F8H.3 DATA     BIT       PX5
*SFR* 000000A0H   DATA     BYTE      RADIO
*SFR* 00000098H.2 DATA     BIT       RB8
*SFR* 000000CBH   DATA     BYTE      RCAP2H
*SFR* 000000CAH   DATA     BYTE      RCAP2L
*SFR* 000000C8H.5 DATA     BIT       RCLK
*SFR* 000000ADH   DATA     BYTE      REGX_CTRL
*SFR* 000000ACH   DATA     BYTE      REGX_LSB
*SFR* 000000ABH   DATA     BYTE      REGX_MSB
*SFR* 00000098H.4 DATA     BIT       REN
      00000008H   DATA     BYTE      RF_BUF
      01000493H   CODE     NEAR LAB  RF_CH1_RECV
      01000774H   CODE     NEAR LAB  RF_INIT
      010007B1H   CODE     NEAR LAB  RF_WAIT_MSG
*SFR* 00000098H   DATA     BIT       RI
*SFR* 000000D0H.3 DATA     BIT       RS0
*SFR* 000000D0H.4 DATA     BIT       RS1
*SFR* 000000B1H   DATA     BYTE      RSTREAS
*SFR* 00000080H.1 DATA     BIT       RXD
*SFR* 00000099H   DATA     BYTE      SBUF
*SFR* 00000098H   DATA     BYTE      SCON
*SFR* 00000098H.7 DATA     BIT       SM0
*SFR* 00000098H.6 DATA     BIT       SM1
*SFR* 00000098H.5 DATA     BIT       SM2
*SFR* 00000081H   DATA     BYTE      SP
*SFR* 0000008FH   DATA     BYTE      SPC_FNC
*SFR* 000000B3H   DATA     BYTE      SPI_CTRL
*SFR* 000000B2H   DATA     BYTE      SPI_DATA
*SFR* 000000B4H   DATA     BYTE      SPICLK
*SFR* 00000080H.5 DATA     BIT       T0
*SFR* 00000080H.6 DATA     BIT       T1
*SFR* 000000BCH   DATA     BYTE      T1_1V2
*SFR* 00000090H   DATA     BIT       T2
*SFR* 000000BDH   DATA     BYTE      T2_1V2
*SFR* 000000C8H   DATA     BYTE      T2CON
*SFR* 00000098H.3 DATA     BIT       TB8
*SFR* 000000C8H.4 DATA     BIT       TCLK
*SFR* 00000088H   DATA     BYTE      TCON
*SFR* 000000B7H   DATA     BYTE      TEST_MODE
*SFR* 00000088H.5 DATA     BIT       TF0
*SFR* 00000088H.7 DATA     BIT       TF1
*SFR* 000000C8H.7 DATA     BIT       TF2
*SFR* 0000008CH   DATA     BYTE      TH0
*SFR* 0000008DH   DATA     BYTE      TH1
LX51 LINKER/LOCATER V4.34a                                                            04/28/2009  16:35:35  PAGE 6


*SFR* 000000CDH   DATA     BYTE      TH2
*SFR* 00000098H.1 DATA     BIT       TI
*SFR* 000000B5H   DATA     BYTE      TICK_DV
*SFR* 0000008AH   DATA     BYTE      TL0
*SFR* 0000008BH   DATA     BYTE      TL1
*SFR* 000000CCH   DATA     BYTE      TL2
*SFR* 00000089H   DATA     BYTE      TMOD
*SFR* 00000088H.4 DATA     BIT       TR0
*SFR* 00000088H.6 DATA     BIT       TR1
*SFR* 000000C8H.2 DATA     BIT       TR2
*SFR* 00000080H.2 DATA     BIT       TXD
*SFR* 000000D8H.3 DATA     BIT       WDTI



SYMBOL TABLE OF MODULE:  MAIN (MAIN)

      VALUE       REP       CLASS    TYPE      SYMBOL NAME
      ====================================================
      ---         MODULE    ---      ---       MAIN
      010003BCH   PUBLIC    CODE     NEAR LAB  MAIN
      000000D0H.6 SFRSYM    DATA     BIT       AC
      000000E0H   SFRSYM    DATA     BYTE      ACC
      000000A1H   SFRSYM    DATA     BYTE      ADCCON
      000000A2H   SFRSYM    DATA     BYTE      ADCDATAH
      000000A3H   SFRSYM    DATA     BYTE      ADCDATAL
      000000A4H   SFRSYM    DATA     BYTE      ADCSTATIC
      000000F0H   SFRSYM    DATA     BYTE      B
      000000C8H.1 SFRSYM    DATA     BIT       C_T2
      000000A0H.6 SFRSYM    DATA     BIT       CE
      000000B6H   SFRSYM    DATA     BYTE      CK_CTRL
      0000008EH   SFRSYM    DATA     BYTE      CKCON
      000000A0H.1 SFRSYM    DATA     BIT       CLK1
      000000A0H.5 SFRSYM    DATA     BIT       CLK2
      000000C8H   SFRSYM    DATA     BIT       CP_RL2
      000000C8H   SFRSYM    DATA     BIT       CPRL2
      000000A0H.3 SFRSYM    DATA     BIT       CS
      000000C8H.1 SFRSYM    DATA     BIT       CT2
      000000D0H.7 SFRSYM    DATA     BIT       CY
      000000A0H   SFRSYM    DATA     BIT       DATA?
      000000BEH   SFRSYM    DATA     BYTE      DEV_OFFSET
      00000090H.2 SFRSYM    DATA     BIT       DIN0
      00000090H   SFRSYM    DATA     BIT       DIO0
      00000090H.1 SFRSYM    DATA     BIT       DIO1
      00000080H   SFRSYM    DATA     BIT       DIO2
      00000080H.1 SFRSYM    DATA     BIT       DIO3
      00000080H.2 SFRSYM    DATA     BIT       DIO4
      00000080H.3 SFRSYM    DATA     BIT       DIO5
      00000080H.4 SFRSYM    DATA     BIT       DIO6
      00000080H.5 SFRSYM    DATA     BIT       DIO7
      00000080H.6 SFRSYM    DATA     BIT       DIO8
      00000080H.7 SFRSYM    DATA     BIT       DIO9
      000000A0H.4 SFRSYM    DATA     BIT       DOUT2
      00000083H   SFRSYM    DATA     BYTE      DPH
      00000083H   SFRSYM    DATA     BYTE      DPH0
      00000085H   SFRSYM    DATA     BYTE      DPH1
      00000082H   SFRSYM    DATA     BYTE      DPL
      00000082H   SFRSYM    DATA     BYTE      DPL0
      00000084H   SFRSYM    DATA     BYTE      DPL1
      00000086H   SFRSYM    DATA     BYTE      DPS
      000000A0H.2 SFRSYM    DATA     BIT       DR1
      000000A0H.6 SFRSYM    DATA     BIT       DR2
      000000A0H.6 SFRSYM    DATA     BIT       DR2_CE
      000000A8H.7 SFRSYM    DATA     BIT       EA
      000000D8H   SFRSYM    DATA     BYTE      EICON
LX51 LINKER/LOCATER V4.34a                                                            04/28/2009  16:35:35  PAGE 7


      000000E8H   SFRSYM    DATA     BYTE      EIE
      000000F8H   SFRSYM    DATA     BYTE      EIP
      000000A8H.4 SFRSYM    DATA     BIT       ES
      000000A8H.1 SFRSYM    DATA     BIT       ET0
      000000A8H.3 SFRSYM    DATA     BIT       ET1
      000000A8H.5 SFRSYM    DATA     BIT       ET2
      000000E8H.4 SFRSYM    DATA     BIT       EWDI
      000000A8H   SFRSYM    DATA     BIT       EX0
      000000A8H.2 SFRSYM    DATA     BIT       EX1
      000000E8H   SFRSYM    DATA     BIT       EX2
      000000E8H.1 SFRSYM    DATA     BIT       EX3
      000000E8H.2 SFRSYM    DATA     BIT       EX4
      000000E8H.3 SFRSYM    DATA     BIT       EX5
      000000C8H.3 SFRSYM    DATA     BIT       EXEN2
      000000C8H.6 SFRSYM    DATA     BIT       EXF2
      00000091H   SFRSYM    DATA     BYTE      EXIF
      000000D0H.5 SFRSYM    DATA     BIT       F0
      000000D0H.1 SFRSYM    DATA     BIT       F1
      000000A8H   SFRSYM    DATA     BYTE      IE
      00000088H.1 SFRSYM    DATA     BIT       IE0
      00000088H.3 SFRSYM    DATA     BIT       IE1
      00000080H.3 SFRSYM    DATA     BIT       INT0_N
      00000080H.4 SFRSYM    DATA     BIT       INT1_N
      000000B8H   SFRSYM    DATA     BYTE      IP
      00000088H   SFRSYM    DATA     BIT       IT0
      00000088H.2 SFRSYM    DATA     BIT       IT1
      00000092H   SFRSYM    DATA     BYTE      MPAGE
      000000D0H.2 SFRSYM    DATA     BIT       OV
      000000D0H   SFRSYM    DATA     BIT       P
      00000080H   SFRSYM    DATA     BYTE      P0
      00000080H   SFRSYM    DATA     BIT       P0_0
      00000080H.1 SFRSYM    DATA     BIT       P0_1
      00000080H.2 SFRSYM    DATA     BIT       P0_2
      00000080H.3 SFRSYM    DATA     BIT       P0_3
      00000080H.4 SFRSYM    DATA     BIT       P0_4
      00000080H.5 SFRSYM    DATA     BIT       P0_5
      00000080H.6 SFRSYM    DATA     BIT       P0_6
      00000080H.7 SFRSYM    DATA     BIT       P0_7
      00000095H   SFRSYM    DATA     BYTE      P0_ALT
      00000094H   SFRSYM    DATA     BYTE      P0_DIR
      00000090H   SFRSYM    DATA     BYTE      P1
      00000090H   SFRSYM    DATA     BIT       P1_0
      00000090H.1 SFRSYM    DATA     BIT       P1_1
      00000090H.2 SFRSYM    DATA     BIT       P1_2
      00000097H   SFRSYM    DATA     BYTE      P1_ALT
      00000096H   SFRSYM    DATA     BYTE      P1_DIR
      00000087H   SFRSYM    DATA     BYTE      PCON
      000000B8H.4 SFRSYM    DATA     BIT       PS
      000000D0H   SFRSYM    DATA     BYTE      PSW
      000000B8H.1 SFRSYM    DATA     BIT       PT0
      000000B8H.3 SFRSYM    DATA     BIT       PT1
      000000B8H.5 SFRSYM    DATA     BIT       PT2
      000000F8H.4 SFRSYM    DATA     BIT       PWDI
      00000080H.7 SFRSYM    DATA     BIT       PWM
      000000A9H   SFRSYM    DATA     BYTE      PWMCON
      000000AAH   SFRSYM    DATA     BYTE      PWMDUTY
      000000A0H.7 SFRSYM    DATA     BIT       PWR_UP
      000000B8H   SFRSYM    DATA     BIT       PX0
      000000B8H.2 SFRSYM    DATA     BIT       PX1
      000000F8H   SFRSYM    DATA     BIT       PX2
      000000F8H.1 SFRSYM    DATA     BIT       PX3
      000000F8H.2 SFRSYM    DATA     BIT       PX4
      000000F8H.3 SFRSYM    DATA     BIT       PX5
      000000A0H   SFRSYM    DATA     BYTE      RADIO
      00000098H.2 SFRSYM    DATA     BIT       RB8
LX51 LINKER/LOCATER V4.34a                                                            04/28/2009  16:35:35  PAGE 8


      000000CBH   SFRSYM    DATA     BYTE      RCAP2H
      000000CAH   SFRSYM    DATA     BYTE      RCAP2L
      000000C8H.5 SFRSYM    DATA     BIT       RCLK
      000000ADH   SFRSYM    DATA     BYTE      REGX_CTRL
      000000ACH   SFRSYM    DATA     BYTE      REGX_LSB
      000000ABH   SFRSYM    DATA     BYTE      REGX_MSB
      00000098H.4 SFRSYM    DATA     BIT       REN
      00000098H   SFRSYM    DATA     BIT       RI
      000000D0H.3 SFRSYM    DATA     BIT       RS0
      000000D0H.4 SFRSYM    DATA     BIT       RS1
      000000B1H   SFRSYM    DATA     BYTE      RSTREAS
      00000080H.1 SFRSYM    DATA     BIT       RXD
      00000099H   SFRSYM    DATA     BYTE      SBUF
      00000098H   SFRSYM    DATA     BYTE      SCON
      00000098H.7 SFRSYM    DATA     BIT       SM0
      00000098H.6 SFRSYM    DATA     BIT       SM1
      00000098H.5 SFRSYM    DATA     BIT       SM2
      00000081H   SFRSYM    DATA     BYTE      SP
      0000008FH   SFRSYM    DATA     BYTE      SPC_FNC
      000000B3H   SFRSYM    DATA     BYTE      SPI_CTRL
      000000B2H   SFRSYM    DATA     BYTE      SPI_DATA
      000000B4H   SFRSYM    DATA     BYTE      SPICLK
      00000080H.5 SFRSYM    DATA     BIT       T0
      00000080H.6 SFRSYM    DATA     BIT       T1
      000000BCH   SFRSYM    DATA     BYTE      T1_1V2
      00000090H   SFRSYM    DATA     BIT       T2
      000000BDH   SFRSYM    DATA     BYTE      T2_1V2
      000000C8H   SFRSYM    DATA     BYTE      T2CON
      00000098H.3 SFRSYM    DATA     BIT       TB8
      000000C8H.4 SFRSYM    DATA     BIT       TCLK
      00000088H   SFRSYM    DATA     BYTE      TCON
      000000B7H   SFRSYM    DATA     BYTE      TEST_MODE
      00000088H.5 SFRSYM    DATA     BIT       TF0
      00000088H.7 SFRSYM    DATA     BIT       TF1
      000000C8H.7 SFRSYM    DATA     BIT       TF2
      0000008CH   SFRSYM    DATA     BYTE      TH0
      0000008DH   SFRSYM    DATA     BYTE      TH1
      000000CDH   SFRSYM    DATA     BYTE      TH2
      00000098H.1 SFRSYM    DATA     BIT       TI
      000000B5H   SFRSYM    DATA     BYTE      TICK_DV
      0000008AH   SFRSYM    DATA     BYTE      TL0
      0000008BH   SFRSYM    DATA     BYTE      TL1
      000000CCH   SFRSYM    DATA     BYTE      TL2
      00000089H   SFRSYM    DATA     BYTE      TMOD
      00000088H.4 SFRSYM    DATA     BIT       TR0
      00000088H.6 SFRSYM    DATA     BIT       TR1
      000000C8H.2 SFRSYM    DATA     BIT       TR2
      00000080H.2 SFRSYM    DATA     BIT       TXD
      000000D8H.3 SFRSYM    DATA     BIT       WDTI
      010003D0H   SYMBOL    CODE     NEAR LAB  ?C0001
      010003E3H   SYMBOL    CODE     NEAR LAB  ?C0002
      010003EDH   SYMBOL    CODE     NEAR LAB  ?C0004
      010003F8H   SYMBOL    CODE     NEAR LAB  ?C0006
      0100041CH   SYMBOL    CODE     NEAR LAB  ?C0007
      01000415H   SYMBOL    CODE     NEAR LAB  ?C0010
      00000049H   SYMBOL    DATA     BYTE      ?MAIN?BYTE
      0000004AH   SYMBOL    DATA     BYTE      I?042
      00000049H   SYMBOL    DATA     BYTE      IDX?041
      0000004CH   SYMBOL    DATA     BYTE      SEG?040

      010003BCH   BLOCK     CODE     NEAR LAB  LVL=0
      010003BCH   LINE      CODE     ---       #204
      010003BDH   LINE      CODE     ---       #205
      010003BFH   LINE      CODE     ---       #206
      010003C1H   LINE      CODE     ---       #209
LX51 LINKER/LOCATER V4.34a                                                            04/28/2009  16:35:35  PAGE 9


      010003C3H   LINE      CODE     ---       #210
      010003C4H   LINE      CODE     ---       #211
      010003C7H   LINE      CODE     ---       #214
      010003CAH   LINE      CODE     ---       #217
      010003CDH   LINE      CODE     ---       #228
      010003D0H   LINE      CODE     ---       #234
      010003D3H   LINE      CODE     ---       #237
      010003D5H   LINE      CODE     ---       #238
      010003D7H   LINE      CODE     ---       #239
      010003DAH   LINE      CODE     ---       #242
      010003DCH   LINE      CODE     ---       #243
      010003DEH   LINE      CODE     ---       #244
      010003DFH   LINE      CODE     ---       #245
      010003E1H   LINE      CODE     ---       #246
      010003E3H   LINE      CODE     ---       #250
      010003E5H   LINE      CODE     ---       #251
      010003E7H   LINE      CODE     ---       #252
      010003EAH   LINE      CODE     ---       #256
      010003EDH   LINE      CODE     ---       #264
      010003F0H   LINE      CODE     ---       #265
      010003F3H   LINE      CODE     ---       #271
      010003F4H   LINE      CODE     ---       #272
      010003F6H   LINE      CODE     ---       #273
      010003F8H   LINE      CODE     ---       #279
      010003FAH   LINE      CODE     ---       #280
      010003FCH   LINE      CODE     ---       #281
      010003FFH   LINE      CODE     ---       #282
      01000401H   LINE      CODE     ---       #283
      01000403H   LINE      CODE     ---       #284
      01000405H   LINE      CODE     ---       #285
      01000407H   LINE      CODE     ---       #286
      01000409H   LINE      CODE     ---       #287
      0100040BH   LINE      CODE     ---       #288
      0100040CH   LINE      CODE     ---       #289
      0100040DH   LINE      CODE     ---       #292
      0100040FH   LINE      CODE     ---       #293
      01000411H   LINE      CODE     ---       #294
      01000413H   LINE      CODE     ---       #295
      01000415H   LINE      CODE     ---       #297
      01000416H   LINE      CODE     ---       #298
      01000418H   LINE      CODE     ---       #299
      0100041AH   LINE      CODE     ---       #300
      0100041CH   LINE      CODE     ---       #304
      0100041FH   LINE      CODE     ---       #307
      01000421H   LINE      CODE     ---       #308
      01000423H   LINE      CODE     ---       #309
      01000426H   LINE      CODE     ---       #312
      ---         BLOCKEND  ---      ---       LVL=0

      ---         MODULE    ---      ---       ISR_RF
      00000031H   PUBLIC    DATA     BYTE      ?_RF_SEND?BYTE
      01000632H   PUBLIC    CODE     NEAR LAB  _RF_CONFIGURE
      01000428H   PUBLIC    CODE     NEAR LAB  _RF_SEND
      00000008H   PUBLIC    DATA     BYTE      RF_BUF
      01000493H   PUBLIC    CODE     NEAR LAB  RF_CH1_RECV
      01000774H   PUBLIC    CODE     NEAR LAB  RF_INIT
      010007B1H   PUBLIC    CODE     NEAR LAB  RF_WAIT_MSG
      000000D0H.6 SFRSYM    DATA     BIT       AC
      000000E0H   SFRSYM    DATA     BYTE      ACC
      000000A1H   SFRSYM    DATA     BYTE      ADCCON
      000000A2H   SFRSYM    DATA     BYTE      ADCDATAH
      000000A3H   SFRSYM    DATA     BYTE      ADCDATAL
      000000A4H   SFRSYM    DATA     BYTE      ADCSTATIC
      000000F0H   SFRSYM    DATA     BYTE      B
      000000C8H.1 SFRSYM    DATA     BIT       C_T2
LX51 LINKER/LOCATER V4.34a                                                            04/28/2009  16:35:35  PAGE 10


      000000A0H.6 SFRSYM    DATA     BIT       CE
      000000B6H   SFRSYM    DATA     BYTE      CK_CTRL
      0000008EH   SFRSYM    DATA     BYTE      CKCON
      000000A0H.1 SFRSYM    DATA     BIT       CLK1
      000000A0H.5 SFRSYM    DATA     BIT       CLK2
      000000C8H   SFRSYM    DATA     BIT       CP_RL2
      000000C8H   SFRSYM    DATA     BIT       CPRL2
      000000A0H.3 SFRSYM    DATA     BIT       CS
      000000C8H.1 SFRSYM    DATA     BIT       CT2
      000000D0H.7 SFRSYM    DATA     BIT       CY
      000000A0H   SFRSYM    DATA     BIT       DATA?
      000000BEH   SFRSYM    DATA     BYTE      DEV_OFFSET
      00000090H.2 SFRSYM    DATA     BIT       DIN0
      00000090H   SFRSYM    DATA     BIT       DIO0
      00000090H.1 SFRSYM    DATA     BIT       DIO1
      00000080H   SFRSYM    DATA     BIT       DIO2
      00000080H.1 SFRSYM    DATA     BIT       DIO3
      00000080H.2 SFRSYM    DATA     BIT       DIO4
      00000080H.3 SFRSYM    DATA     BIT       DIO5
      00000080H.4 SFRSYM    DATA     BIT       DIO6
      00000080H.5 SFRSYM    DATA     BIT       DIO7
      00000080H.6 SFRSYM    DATA     BIT       DIO8
      00000080H.7 SFRSYM    DATA     BIT       DIO9
      000000A0H.4 SFRSYM    DATA     BIT       DOUT2
      00000083H   SFRSYM    DATA     BYTE      DPH
      00000083H   SFRSYM    DATA     BYTE      DPH0
      00000085H   SFRSYM    DATA     BYTE      DPH1
      00000082H   SFRSYM    DATA     BYTE      DPL
      00000082H   SFRSYM    DATA     BYTE      DPL0
      00000084H   SFRSYM    DATA     BYTE      DPL1
      00000086H   SFRSYM    DATA     BYTE      DPS
      000000A0H.2 SFRSYM    DATA     BIT       DR1
      000000A0H.6 SFRSYM    DATA     BIT       DR2
      000000A0H.6 SFRSYM    DATA     BIT       DR2_CE
      000000A8H.7 SFRSYM    DATA     BIT       EA
      000000D8H   SFRSYM    DATA     BYTE      EICON
      000000E8H   SFRSYM    DATA     BYTE      EIE
      000000F8H   SFRSYM    DATA     BYTE      EIP
      000000A8H.4 SFRSYM    DATA     BIT       ES
      000000A8H.1 SFRSYM    DATA     BIT       ET0
      000000A8H.3 SFRSYM    DATA     BIT       ET1
      000000A8H.5 SFRSYM    DATA     BIT       ET2
      000000E8H.4 SFRSYM    DATA     BIT       EWDI
      000000A8H   SFRSYM    DATA     BIT       EX0
      000000A8H.2 SFRSYM    DATA     BIT       EX1
      000000E8H   SFRSYM    DATA     BIT       EX2
      000000E8H.1 SFRSYM    DATA     BIT       EX3
      000000E8H.2 SFRSYM    DATA     BIT       EX4
      000000E8H.3 SFRSYM    DATA     BIT       EX5
      000000C8H.3 SFRSYM    DATA     BIT       EXEN2
      000000C8H.6 SFRSYM    DATA     BIT       EXF2
      00000091H   SFRSYM    DATA     BYTE      EXIF
      000000D0H.5 SFRSYM    DATA     BIT       F0
      000000D0H.1 SFRSYM    DATA     BIT       F1
      000000A8H   SFRSYM    DATA     BYTE      IE
      00000088H.1 SFRSYM    DATA     BIT       IE0
      00000088H.3 SFRSYM    DATA     BIT       IE1
      00000080H.3 SFRSYM    DATA     BIT       INT0_N
      00000080H.4 SFRSYM    DATA     BIT       INT1_N
      000000B8H   SFRSYM    DATA     BYTE      IP
      00000088H   SFRSYM    DATA     BIT       IT0
      00000088H.2 SFRSYM    DATA     BIT       IT1
      00000092H   SFRSYM    DATA     BYTE      MPAGE
      000000D0H.2 SFRSYM    DATA     BIT       OV
      000000D0H   SFRSYM    DATA     BIT       P
LX51 LINKER/LOCATER V4.34a                                                            04/28/2009  16:35:35  PAGE 11


      00000080H   SFRSYM    DATA     BYTE      P0
      00000080H   SFRSYM    DATA     BIT       P0_0
      00000080H.1 SFRSYM    DATA     BIT       P0_1
      00000080H.2 SFRSYM    DATA     BIT       P0_2
      00000080H.3 SFRSYM    DATA     BIT       P0_3
      00000080H.4 SFRSYM    DATA     BIT       P0_4
      00000080H.5 SFRSYM    DATA     BIT       P0_5
      00000080H.6 SFRSYM    DATA     BIT       P0_6
      00000080H.7 SFRSYM    DATA     BIT       P0_7
      00000095H   SFRSYM    DATA     BYTE      P0_ALT
      00000094H   SFRSYM    DATA     BYTE      P0_DIR
      00000090H   SFRSYM    DATA     BYTE      P1
      00000090H   SFRSYM    DATA     BIT       P1_0
      00000090H.1 SFRSYM    DATA     BIT       P1_1
      00000090H.2 SFRSYM    DATA     BIT       P1_2
      00000097H   SFRSYM    DATA     BYTE      P1_ALT
      00000096H   SFRSYM    DATA     BYTE      P1_DIR
      00000087H   SFRSYM    DATA     BYTE      PCON
      000000B8H.4 SFRSYM    DATA     BIT       PS
      000000D0H   SFRSYM    DATA     BYTE      PSW
      000000B8H.1 SFRSYM    DATA     BIT       PT0
      000000B8H.3 SFRSYM    DATA     BIT       PT1
      000000B8H.5 SFRSYM    DATA     BIT       PT2
      000000F8H.4 SFRSYM    DATA     BIT       PWDI
      00000080H.7 SFRSYM    DATA     BIT       PWM
      000000A9H   SFRSYM    DATA     BYTE      PWMCON
      000000AAH   SFRSYM    DATA     BYTE      PWMDUTY
      000000A0H.7 SFRSYM    DATA     BIT       PWR_UP
      000000B8H   SFRSYM    DATA     BIT       PX0
      000000B8H.2 SFRSYM    DATA     BIT       PX1
      000000F8H   SFRSYM    DATA     BIT       PX2
      000000F8H.1 SFRSYM    DATA     BIT       PX3
      000000F8H.2 SFRSYM    DATA     BIT       PX4
      000000F8H.3 SFRSYM    DATA     BIT       PX5
      000000A0H   SFRSYM    DATA     BYTE      RADIO
      00000098H.2 SFRSYM    DATA     BIT       RB8
      000000CBH   SFRSYM    DATA     BYTE      RCAP2H
      000000CAH   SFRSYM    DATA     BYTE      RCAP2L
      000000C8H.5 SFRSYM    DATA     BIT       RCLK
      000000ADH   SFRSYM    DATA     BYTE      REGX_CTRL
      000000ACH   SFRSYM    DATA     BYTE      REGX_LSB
      000000ABH   SFRSYM    DATA     BYTE      REGX_MSB
      00000098H.4 SFRSYM    DATA     BIT       REN
      00000098H   SFRSYM    DATA     BIT       RI
      000000D0H.3 SFRSYM    DATA     BIT       RS0
      000000D0H.4 SFRSYM    DATA     BIT       RS1
      000000B1H   SFRSYM    DATA     BYTE      RSTREAS
      00000080H.1 SFRSYM    DATA     BIT       RXD
      00000099H   SFRSYM    DATA     BYTE      SBUF
      00000098H   SFRSYM    DATA     BYTE      SCON
      00000098H.7 SFRSYM    DATA     BIT       SM0
      00000098H.6 SFRSYM    DATA     BIT       SM1
      00000098H.5 SFRSYM    DATA     BIT       SM2
      00000081H   SFRSYM    DATA     BYTE      SP
      0000008FH   SFRSYM    DATA     BYTE      SPC_FNC
      000000B3H   SFRSYM    DATA     BYTE      SPI_CTRL
      000000B2H   SFRSYM    DATA     BYTE      SPI_DATA
      000000B4H   SFRSYM    DATA     BYTE      SPICLK
      00000080H.5 SFRSYM    DATA     BIT       T0
      00000080H.6 SFRSYM    DATA     BIT       T1
      000000BCH   SFRSYM    DATA     BYTE      T1_1V2
      00000090H   SFRSYM    DATA     BIT       T2
      000000BDH   SFRSYM    DATA     BYTE      T2_1V2
      000000C8H   SFRSYM    DATA     BYTE      T2CON
      00000098H.3 SFRSYM    DATA     BIT       TB8
LX51 LINKER/LOCATER V4.34a                                                            04/28/2009  16:35:35  PAGE 12


      000000C8H.4 SFRSYM    DATA     BIT       TCLK
      00000088H   SFRSYM    DATA     BYTE      TCON
      000000B7H   SFRSYM    DATA     BYTE      TEST_MODE
      00000088H.5 SFRSYM    DATA     BIT       TF0
      00000088H.7 SFRSYM    DATA     BIT       TF1
      000000C8H.7 SFRSYM    DATA     BIT       TF2
      0000008CH   SFRSYM    DATA     BYTE      TH0
      0000008DH   SFRSYM    DATA     BYTE      TH1
      000000CDH   SFRSYM    DATA     BYTE      TH2
      00000098H.1 SFRSYM    DATA     BIT       TI
      000000B5H   SFRSYM    DATA     BYTE      TICK_DV
      0000008AH   SFRSYM    DATA     BYTE      TL0
      0000008BH   SFRSYM    DATA     BYTE      TL1
      000000CCH   SFRSYM    DATA     BYTE      TL2
      00000089H   SFRSYM    DATA     BYTE      TMOD
      00000088H.4 SFRSYM    DATA     BIT       TR0
      00000088H.6 SFRSYM    DATA     BIT       TR1
      000000C8H.2 SFRSYM    DATA     BIT       TR2
      00000080H.2 SFRSYM    DATA     BIT       TXD
      000000D8H.3 SFRSYM    DATA     BIT       WDTI
      0000004EH   SYMBOL    DATA     BYTE      ?_RF_CONFIGURE?BYTE
      0100063FH   SYMBOL    CODE     NEAR LAB  ?C0002
      01000665H   SYMBOL    CODE     NEAR LAB  ?C0003
      01000437H   SYMBOL    CODE     NEAR LAB  ?C0006
      01000461H   SYMBOL    CODE     NEAR LAB  ?C0007
      01000466H   SYMBOL    CODE     NEAR LAB  ?C0009
      01000490H   SYMBOL    CODE     NEAR LAB  ?C0010
      010004BAH   SYMBOL    CODE     NEAR LAB  ?C0015
      010004D2H   SYMBOL    CODE     NEAR LAB  ?C0016
      010007B3H   SYMBOL    CODE     NEAR LAB  ?C0018
      010007B7H   SYMBOL    CODE     NEAR LAB  ?C0019
      0100065AH   SYMBOL    CODE     NEAR LAB  ?C0021
      0100045FH   SYMBOL    CODE     NEAR LAB  ?C0022
      0100048EH   SYMBOL    CODE     NEAR LAB  ?C0023
      010004CAH   SYMBOL    CODE     NEAR LAB  ?C0024
      00000060H   SYMBOL    DATA     BYTE      ?RF_CH1_RECV?BYTE
      010004D5H   SYMBOL    CODE     NEAR LAB  ?RF_CH1_RECV?OUT
      00000031H   SYMBOL    DATA     BYTE      ADDR?243
      00000034H   SYMBOL    DATA     BYTE      ADDR_LEN?244
      00000051H   SYMBOL    DATA     BYTE      I?142
      00000039H   SYMBOL    DATA     BYTE      I?247
      00000060H   SYMBOL    DATA     BYTE      I?348
      0000004EH   SYMBOL    DATA     BYTE      P?141
      00000035H   SYMBOL    DATA     BYTE      PAYLOAD?245
      00000038H   SYMBOL    DATA     BYTE      PL_LEN?246

      01000774H   BLOCK     CODE     NEAR LAB  LVL=0
      01000774H   LINE      CODE     ---       #265
      01000776H   LINE      CODE     ---       #269
      01000777H   LINE      CODE     ---       #270
      01000778H   LINE      CODE     ---       #271
      0100077AH   LINE      CODE     ---       #272
      0100077DH   LINE      CODE     ---       #275
      0100077FH   LINE      CODE     ---       #278
      01000781H   LINE      CODE     ---       #281
      ---         BLOCKEND  ---      ---       LVL=0

      01000632H   BLOCK     CODE     NEAR LAB  LVL=0
      01000632H   LINE      CODE     ---       #304
      01000634H   LINE      CODE     ---       #308
      01000636H   LINE      CODE     ---       #309
      01000638H   LINE      CODE     ---       #310
      0100063AH   LINE      CODE     ---       #314
      0100063BH   LINE      CODE     ---       #315
      0100063DH   LINE      CODE     ---       #316
LX51 LINKER/LOCATER V4.34a                                                            04/28/2009  16:35:35  PAGE 13


      0100063FH   LINE      CODE     ---       #320
      01000641H   LINE      CODE     ---       #321
      01000643H   LINE      CODE     ---       #322
      01000645H   LINE      CODE     ---       #323
      01000648H   LINE      CODE     ---       #324
      0100064BH   LINE      CODE     ---       #325
      0100064EH   LINE      CODE     ---       #326
      0100064FH   LINE      CODE     ---       #327
      01000652H   LINE      CODE     ---       #330
      01000654H   LINE      CODE     ---       #331
      01000656H   LINE      CODE     ---       #332
      01000658H   LINE      CODE     ---       #333
      0100065AH   LINE      CODE     ---       #335
      0100065BH   LINE      CODE     ---       #336
      0100065DH   LINE      CODE     ---       #337
      0100065FH   LINE      CODE     ---       #338
      01000661H   LINE      CODE     ---       #339
      01000663H   LINE      CODE     ---       #340
      01000665H   LINE      CODE     ---       #345
      01000667H   LINE      CODE     ---       #348
      ---         BLOCKEND  ---      ---       LVL=0

      01000428H   BLOCK     CODE     NEAR LAB  LVL=0
      01000428H   LINE      CODE     ---       #365
      0100042AH   LINE      CODE     ---       #366
      0100042CH   LINE      CODE     ---       #367
      0100042EH   LINE      CODE     ---       #368
      01000430H   LINE      CODE     ---       #376
      01000432H   LINE      CODE     ---       #381
      01000433H   LINE      CODE     ---       #382
      01000435H   LINE      CODE     ---       #383
      01000437H   LINE      CODE     ---       #385
      01000438H   LINE      CODE     ---       #386
      0100043AH   LINE      CODE     ---       #387
      0100043CH   LINE      CODE     ---       #388
      0100043EH   LINE      CODE     ---       #389
      0100043FH   LINE      CODE     ---       #390
      01000441H   LINE      CODE     ---       #391
      01000442H   LINE      CODE     ---       #392
      01000444H   LINE      CODE     ---       #395
      01000446H   LINE      CODE     ---       #396
      01000448H   LINE      CODE     ---       #397
      0100044AH   LINE      CODE     ---       #398
      0100044DH   LINE      CODE     ---       #399
      01000450H   LINE      CODE     ---       #400
      01000453H   LINE      CODE     ---       #401
      01000454H   LINE      CODE     ---       #402
      01000457H   LINE      CODE     ---       #403
      01000459H   LINE      CODE     ---       #404
      0100045BH   LINE      CODE     ---       #405
      0100045DH   LINE      CODE     ---       #406
      0100045FH   LINE      CODE     ---       #408
      01000461H   LINE      CODE     ---       #413
      01000462H   LINE      CODE     ---       #414
      01000464H   LINE      CODE     ---       #415
      01000466H   LINE      CODE     ---       #417
      01000467H   LINE      CODE     ---       #418
      01000469H   LINE      CODE     ---       #419
      0100046BH   LINE      CODE     ---       #420
      0100046DH   LINE      CODE     ---       #421
      0100046EH   LINE      CODE     ---       #422
      01000470H   LINE      CODE     ---       #423
      01000471H   LINE      CODE     ---       #424
      01000473H   LINE      CODE     ---       #427
      01000475H   LINE      CODE     ---       #428
LX51 LINKER/LOCATER V4.34a                                                            04/28/2009  16:35:35  PAGE 14


      01000477H   LINE      CODE     ---       #429
      01000479H   LINE      CODE     ---       #430
      0100047CH   LINE      CODE     ---       #431
      0100047FH   LINE      CODE     ---       #432
      01000482H   LINE      CODE     ---       #433
      01000483H   LINE      CODE     ---       #434
      01000486H   LINE      CODE     ---       #435
      01000488H   LINE      CODE     ---       #436
      0100048AH   LINE      CODE     ---       #437
      0100048CH   LINE      CODE     ---       #438
      0100048EH   LINE      CODE     ---       #440
      01000490H   LINE      CODE     ---       #445
      01000492H   LINE      CODE     ---       #448
      ---         BLOCKEND  ---      ---       LVL=0

      01000053H   BLOCK     CODE     NEAR LAB  LVL=0
      01000053H   LINE      CODE     ---       #452
      ---         BLOCKEND  ---      ---       LVL=0

      01000493H   BLOCK     CODE     NEAR LAB  LVL=0
      01000493H   LINE      CODE     ---       #461
      01000495H   LINE      CODE     ---       #462
      01000497H   LINE      CODE     ---       #463
      01000499H   LINE      CODE     ---       #464
      0100049BH   LINE      CODE     ---       #465
      0100049DH   LINE      CODE     ---       #466
      010004A0H   LINE      CODE     ---       #467
      010004A2H   LINE      CODE     ---       #468
      010004A4H   LINE      CODE     ---       #469
      010004A6H   LINE      CODE     ---       #470
      010004A8H   LINE      CODE     ---       #471
      010004AAH   LINE      CODE     ---       #472
      010004ACH   LINE      CODE     ---       #473
      010004AEH   LINE      CODE     ---       #474
      010004B0H   LINE      CODE     ---       #480
      010004B3H   LINE      CODE     ---       #481
      010004B6H   LINE      CODE     ---       #488
      010004B8H   LINE      CODE     ---       #489
      010004BAH   LINE      CODE     ---       #495
      010004BDH   LINE      CODE     ---       #498
      010004BEH   LINE      CODE     ---       #499
      010004BFH   LINE      CODE     ---       #500
      010004C2H   LINE      CODE     ---       #501
      010004C4H   LINE      CODE     ---       #502
      010004C6H   LINE      CODE     ---       #503
      010004C8H   LINE      CODE     ---       #504
      010004CAH   LINE      CODE     ---       #506
      010004CBH   LINE      CODE     ---       #507
      010004CDH   LINE      CODE     ---       #508
      010004CEH   LINE      CODE     ---       #509
      010004D0H   LINE      CODE     ---       #512
      010004D2H   LINE      CODE     ---       #516
      010004D5H   LINE      CODE     ---       #523
      010004D8H   LINE      CODE     ---       #526
      010004DAH   LINE      CODE     ---       #527
      010004DCH   LINE      CODE     ---       #528
      010004DEH   LINE      CODE     ---       #529
      010004E0H   LINE      CODE     ---       #530
      010004E2H   LINE      CODE     ---       #531
      010004E4H   LINE      CODE     ---       #532
      010004E6H   LINE      CODE     ---       #533
      010004E8H   LINE      CODE     ---       #534
      010004EAH   LINE      CODE     ---       #535
      010004ECH   LINE      CODE     ---       #536
      010004EEH   LINE      CODE     ---       #537
LX51 LINKER/LOCATER V4.34a                                                            04/28/2009  16:35:35  PAGE 15


      010004F0H   LINE      CODE     ---       #538
      010004F2H   LINE      CODE     ---       #539
      ---         BLOCKEND  ---      ---       LVL=0

      010007B1H   BLOCK     CODE     NEAR LAB  LVL=0
      010007B1H   LINE      CODE     ---       #555
      010007B3H   LINE      CODE     ---       #559
      010007B5H   LINE      CODE     ---       #560
      010007B7H   LINE      CODE     ---       #565
      010007B9H   LINE      CODE     ---       #568
      ---         BLOCKEND  ---      ---       LVL=0

      ---         MODULE    ---      ---       ECO_PAGE
      0000002DH   PUBLIC    DATA     BYTE      ECO_PAGE_ADDR
      01000668H   PUBLIC    CODE     NEAR LAB  ECO_PAGE_INIT
      0100024DH   PUBLIC    CODE     NEAR LAB  ECO_PAGE_MANAGER
      0000002AH   PUBLIC    DATA     BYTE      ECO_PAGE_PREV_PID
      0000002CH   PUBLIC    DATA     BYTE      ECO_PAGE_PREV_VID
      00000065H   PUBLIC    IDATA    BYTE      ECO_PAGE_REGISTER1
      00000066H   PUBLIC    IDATA    BYTE      ECO_PAGE_REGISTER2
      00000067H   PUBLIC    IDATA    BYTE      ECO_PAGE_REGISTER3
      00000068H   PUBLIC    IDATA    BYTE      ECO_PAGE_REGISTER4
      00000069H   PUBLIC    IDATA    BYTE      ECO_PAGE_REGISTER5
      0000006AH   PUBLIC    IDATA    BYTE      ECO_PAGE_REGISTER6
      0000006BH   PUBLIC    IDATA    BYTE      ECO_PAGE_REGISTER7
      0000002BH   PUBLIC    DATA     BYTE      ECO_PAGE_SPI_CONN
      00000020H   PUBLIC    DATA     BYTE      ECO_PAGE_TABLE
      0000002FH   PUBLIC    DATA     BYTE      ECO_PAGE_TABLE_INDEX
      000000D0H.6 SFRSYM    DATA     BIT       AC
      000000E0H   SFRSYM    DATA     BYTE      ACC
      000000A1H   SFRSYM    DATA     BYTE      ADCCON
      000000A2H   SFRSYM    DATA     BYTE      ADCDATAH
      000000A3H   SFRSYM    DATA     BYTE      ADCDATAL
      000000A4H   SFRSYM    DATA     BYTE      ADCSTATIC
      000000F0H   SFRSYM    DATA     BYTE      B
      000000C8H.1 SFRSYM    DATA     BIT       C_T2
      000000A0H.6 SFRSYM    DATA     BIT       CE
      000000B6H   SFRSYM    DATA     BYTE      CK_CTRL
      0000008EH   SFRSYM    DATA     BYTE      CKCON
      000000A0H.1 SFRSYM    DATA     BIT       CLK1
      000000A0H.5 SFRSYM    DATA     BIT       CLK2
      000000C8H   SFRSYM    DATA     BIT       CP_RL2
      000000C8H   SFRSYM    DATA     BIT       CPRL2
      000000A0H.3 SFRSYM    DATA     BIT       CS
      000000C8H.1 SFRSYM    DATA     BIT       CT2
      000000D0H.7 SFRSYM    DATA     BIT       CY
      000000A0H   SFRSYM    DATA     BIT       DATA?
      000000BEH   SFRSYM    DATA     BYTE      DEV_OFFSET
      00000090H.2 SFRSYM    DATA     BIT       DIN0
      00000090H   SFRSYM    DATA     BIT       DIO0
      00000090H.1 SFRSYM    DATA     BIT       DIO1
      00000080H   SFRSYM    DATA     BIT       DIO2
      00000080H.1 SFRSYM    DATA     BIT       DIO3
      00000080H.2 SFRSYM    DATA     BIT       DIO4
      00000080H.3 SFRSYM    DATA     BIT       DIO5
      00000080H.4 SFRSYM    DATA     BIT       DIO6
      00000080H.5 SFRSYM    DATA     BIT       DIO7
      00000080H.6 SFRSYM    DATA     BIT       DIO8
      00000080H.7 SFRSYM    DATA     BIT       DIO9
      000000A0H.4 SFRSYM    DATA     BIT       DOUT2
      00000083H   SFRSYM    DATA     BYTE      DPH
      00000083H   SFRSYM    DATA     BYTE      DPH0
      00000085H   SFRSYM    DATA     BYTE      DPH1
      00000082H   SFRSYM    DATA     BYTE      DPL
      00000082H   SFRSYM    DATA     BYTE      DPL0
LX51 LINKER/LOCATER V4.34a                                                            04/28/2009  16:35:35  PAGE 16


      00000084H   SFRSYM    DATA     BYTE      DPL1
      00000086H   SFRSYM    DATA     BYTE      DPS
      000000A0H.2 SFRSYM    DATA     BIT       DR1
      000000A0H.6 SFRSYM    DATA     BIT       DR2
      000000A0H.6 SFRSYM    DATA     BIT       DR2_CE
      000000A8H.7 SFRSYM    DATA     BIT       EA
      000000D8H   SFRSYM    DATA     BYTE      EICON
      000000E8H   SFRSYM    DATA     BYTE      EIE
      000000F8H   SFRSYM    DATA     BYTE      EIP
      000000A8H.4 SFRSYM    DATA     BIT       ES
      000000A8H.1 SFRSYM    DATA     BIT       ET0
      000000A8H.3 SFRSYM    DATA     BIT       ET1
      000000A8H.5 SFRSYM    DATA     BIT       ET2
      000000E8H.4 SFRSYM    DATA     BIT       EWDI
      000000A8H   SFRSYM    DATA     BIT       EX0
      000000A8H.2 SFRSYM    DATA     BIT       EX1
      000000E8H   SFRSYM    DATA     BIT       EX2
      000000E8H.1 SFRSYM    DATA     BIT       EX3
      000000E8H.2 SFRSYM    DATA     BIT       EX4
      000000E8H.3 SFRSYM    DATA     BIT       EX5
      000000C8H.3 SFRSYM    DATA     BIT       EXEN2
      000000C8H.6 SFRSYM    DATA     BIT       EXF2
      00000091H   SFRSYM    DATA     BYTE      EXIF
      000000D0H.5 SFRSYM    DATA     BIT       F0
      000000D0H.1 SFRSYM    DATA     BIT       F1
      000000A8H   SFRSYM    DATA     BYTE      IE
      00000088H.1 SFRSYM    DATA     BIT       IE0
      00000088H.3 SFRSYM    DATA     BIT       IE1
      00000080H.3 SFRSYM    DATA     BIT       INT0_N
      00000080H.4 SFRSYM    DATA     BIT       INT1_N
      000000B8H   SFRSYM    DATA     BYTE      IP
      00000088H   SFRSYM    DATA     BIT       IT0
      00000088H.2 SFRSYM    DATA     BIT       IT1
      00000092H   SFRSYM    DATA     BYTE      MPAGE
      000000D0H.2 SFRSYM    DATA     BIT       OV
      000000D0H   SFRSYM    DATA     BIT       P
      00000080H   SFRSYM    DATA     BYTE      P0
      00000080H   SFRSYM    DATA     BIT       P0_0
      00000080H.1 SFRSYM    DATA     BIT       P0_1
      00000080H.2 SFRSYM    DATA     BIT       P0_2
      00000080H.3 SFRSYM    DATA     BIT       P0_3
      00000080H.4 SFRSYM    DATA     BIT       P0_4
      00000080H.5 SFRSYM    DATA     BIT       P0_5
      00000080H.6 SFRSYM    DATA     BIT       P0_6
      00000080H.7 SFRSYM    DATA     BIT       P0_7
      00000095H   SFRSYM    DATA     BYTE      P0_ALT
      00000094H   SFRSYM    DATA     BYTE      P0_DIR
      00000090H   SFRSYM    DATA     BYTE      P1
      00000090H   SFRSYM    DATA     BIT       P1_0
      00000090H.1 SFRSYM    DATA     BIT       P1_1
      00000090H.2 SFRSYM    DATA     BIT       P1_2
      00000097H   SFRSYM    DATA     BYTE      P1_ALT
      00000096H   SFRSYM    DATA     BYTE      P1_DIR
      00000087H   SFRSYM    DATA     BYTE      PCON
      000000B8H.4 SFRSYM    DATA     BIT       PS
      000000D0H   SFRSYM    DATA     BYTE      PSW
      000000B8H.1 SFRSYM    DATA     BIT       PT0
      000000B8H.3 SFRSYM    DATA     BIT       PT1
      000000B8H.5 SFRSYM    DATA     BIT       PT2
      000000F8H.4 SFRSYM    DATA     BIT       PWDI
      00000080H.7 SFRSYM    DATA     BIT       PWM
      000000A9H   SFRSYM    DATA     BYTE      PWMCON
      000000AAH   SFRSYM    DATA     BYTE      PWMDUTY
      000000A0H.7 SFRSYM    DATA     BIT       PWR_UP
      000000B8H   SFRSYM    DATA     BIT       PX0
LX51 LINKER/LOCATER V4.34a                                                            04/28/2009  16:35:35  PAGE 17


      000000B8H.2 SFRSYM    DATA     BIT       PX1
      000000F8H   SFRSYM    DATA     BIT       PX2
      000000F8H.1 SFRSYM    DATA     BIT       PX3
      000000F8H.2 SFRSYM    DATA     BIT       PX4
      000000F8H.3 SFRSYM    DATA     BIT       PX5
      000000A0H   SFRSYM    DATA     BYTE      RADIO
      00000098H.2 SFRSYM    DATA     BIT       RB8
      000000CBH   SFRSYM    DATA     BYTE      RCAP2H
      000000CAH   SFRSYM    DATA     BYTE      RCAP2L
      000000C8H.5 SFRSYM    DATA     BIT       RCLK
      000000ADH   SFRSYM    DATA     BYTE      REGX_CTRL
      000000ACH   SFRSYM    DATA     BYTE      REGX_LSB
      000000ABH   SFRSYM    DATA     BYTE      REGX_MSB
      00000098H.4 SFRSYM    DATA     BIT       REN
      00000098H   SFRSYM    DATA     BIT       RI
      000000D0H.3 SFRSYM    DATA     BIT       RS0
      000000D0H.4 SFRSYM    DATA     BIT       RS1
      000000B1H   SFRSYM    DATA     BYTE      RSTREAS
      00000080H.1 SFRSYM    DATA     BIT       RXD
      00000099H   SFRSYM    DATA     BYTE      SBUF
      00000098H   SFRSYM    DATA     BYTE      SCON
      00000098H.7 SFRSYM    DATA     BIT       SM0
      00000098H.6 SFRSYM    DATA     BIT       SM1
      00000098H.5 SFRSYM    DATA     BIT       SM2
      00000081H   SFRSYM    DATA     BYTE      SP
      0000008FH   SFRSYM    DATA     BYTE      SPC_FNC
      000000B3H   SFRSYM    DATA     BYTE      SPI_CTRL
      000000B2H   SFRSYM    DATA     BYTE      SPI_DATA
      000000B4H   SFRSYM    DATA     BYTE      SPICLK
      00000080H.5 SFRSYM    DATA     BIT       T0
      00000080H.6 SFRSYM    DATA     BIT       T1
      000000BCH   SFRSYM    DATA     BYTE      T1_1V2
      00000090H   SFRSYM    DATA     BIT       T2
      000000BDH   SFRSYM    DATA     BYTE      T2_1V2
      000000C8H   SFRSYM    DATA     BYTE      T2CON
      00000098H.3 SFRSYM    DATA     BIT       TB8
      000000C8H.4 SFRSYM    DATA     BIT       TCLK
      00000088H   SFRSYM    DATA     BYTE      TCON
      000000B7H   SFRSYM    DATA     BYTE      TEST_MODE
      00000088H.5 SFRSYM    DATA     BIT       TF0
      00000088H.7 SFRSYM    DATA     BIT       TF1
      000000C8H.7 SFRSYM    DATA     BIT       TF2
      0000008CH   SFRSYM    DATA     BYTE      TH0
      0000008DH   SFRSYM    DATA     BYTE      TH1
      000000CDH   SFRSYM    DATA     BYTE      TH2
      00000098H.1 SFRSYM    DATA     BIT       TI
      000000B5H   SFRSYM    DATA     BYTE      TICK_DV
      0000008AH   SFRSYM    DATA     BYTE      TL0
      0000008BH   SFRSYM    DATA     BYTE      TL1
      000000CCH   SFRSYM    DATA     BYTE      TL2
      00000089H   SFRSYM    DATA     BYTE      TMOD
      00000088H.4 SFRSYM    DATA     BIT       TR0
      00000088H.6 SFRSYM    DATA     BIT       TR1
      000000C8H.2 SFRSYM    DATA     BIT       TR2
      00000080H.2 SFRSYM    DATA     BIT       TXD
      000000D8H.3 SFRSYM    DATA     BIT       WDTI
      0100026EH   SYMBOL    CODE     NEAR LAB  ?C0002
      0100032FH   SYMBOL    CODE     NEAR LAB  ?C0003
      01000273H   SYMBOL    CODE     NEAR LAB  ?C0004
      01000299H   SYMBOL    CODE     NEAR LAB  ?C0005
      0100028BH   SYMBOL    CODE     NEAR LAB  ?C0006
      010002B9H   SYMBOL    CODE     NEAR LAB  ?C0008
      01000328H   SYMBOL    CODE     NEAR LAB  ?C0009
      010002CFH   SYMBOL    CODE     NEAR LAB  ?C0010
      010002FEH   SYMBOL    CODE     NEAR LAB  ?C0011
LX51 LINKER/LOCATER V4.34a                                                            04/28/2009  16:35:35  PAGE 18


      01000293H   SYMBOL    CODE     NEAR LAB  ?C0015
      010002A1H   SYMBOL    CODE     NEAR LAB  ?C0016
      010002F7H   SYMBOL    CODE     NEAR LAB  ?C0017
      01000328H   SYMBOL    CODE     NEAR LAB  ?C0018
      00000043H   SYMBOL    DATA     BYTE      ?ECO_PAGE_MANAGER?BYTE
      00000043H   SYMBOL    DATA     BYTE      I?141
      00000045H   SYMBOL    DATA     BYTE      PAGE_INDEX?142
      00000047H   SYMBOL    DATA     BYTE      SEG?140

      01000668H   BLOCK     CODE     NEAR LAB  LVL=0
      01000668H   LINE      CODE     ---       #266
      0100066BH   LINE      CODE     ---       #267
      0100066EH   LINE      CODE     ---       #273
      0100066FH   LINE      CODE     ---       #274
      01000671H   LINE      CODE     ---       #275
      01000673H   LINE      CODE     ---       #278
      01000675H   LINE      CODE     ---       #281
      01000677H   LINE      CODE     ---       #285
      0100067AH   LINE      CODE     ---       #288
      0100067DH   LINE      CODE     ---       #291
      01000680H   LINE      CODE     ---       #294
      01000683H   LINE      CODE     ---       #297
      01000686H   LINE      CODE     ---       #300
      01000689H   LINE      CODE     ---       #303
      0100068CH   LINE      CODE     ---       #306
      0100068FH   LINE      CODE     ---       #309
      01000692H   LINE      CODE     ---       #312
      01000695H   LINE      CODE     ---       #315
      ---         BLOCKEND  ---      ---       LVL=0

      0100024DH   BLOCK     CODE     NEAR LAB  LVL=0
      0100024DH   LINE      CODE     ---       #331
      0100024FH   LINE      CODE     ---       #332
      01000251H   LINE      CODE     ---       #333
      01000253H   LINE      CODE     ---       #347
      01000255H   LINE      CODE     ---       #348
      01000257H   LINE      CODE     ---       #349
      01000258H   LINE      CODE     ---       #350
      0100025AH   LINE      CODE     ---       #351
      0100025CH   LINE      CODE     ---       #352
      0100025FH   LINE      CODE     ---       #358
      01000261H   LINE      CODE     ---       #359
      01000262H   LINE      CODE     ---       #360
      01000264H   LINE      CODE     ---       #361
      01000265H   LINE      CODE     ---       #362
      01000267H   LINE      CODE     ---       #363
      01000269H   LINE      CODE     ---       #364
      0100026AH   LINE      CODE     ---       #365
      0100026BH   LINE      CODE     ---       #366
      0100026DH   LINE      CODE     ---       #370
      0100026EH   LINE      CODE     ---       #381
      0100026FH   LINE      CODE     ---       #382
      01000271H   LINE      CODE     ---       #383
      01000273H   LINE      CODE     ---       #395
      01000275H   LINE      CODE     ---       #396
      01000277H   LINE      CODE     ---       #397
      01000278H   LINE      CODE     ---       #398
      01000279H   LINE      CODE     ---       #399
      0100027BH   LINE      CODE     ---       #400
      0100027CH   LINE      CODE     ---       #401
      0100027EH   LINE      CODE     ---       #402
      01000280H   LINE      CODE     ---       #403
      01000283H   LINE      CODE     ---       #408
      01000286H   LINE      CODE     ---       #409
      01000289H   LINE      CODE     ---       #412
LX51 LINKER/LOCATER V4.34a                                                            04/28/2009  16:35:35  PAGE 19


      0100028BH   LINE      CODE     ---       #418
      0100028DH   LINE      CODE     ---       #419
      0100028FH   LINE      CODE     ---       #420
      01000291H   LINE      CODE     ---       #421
      01000293H   LINE      CODE     ---       #423
      01000295H   LINE      CODE     ---       #424
      01000297H   LINE      CODE     ---       #425
      01000299H   LINE      CODE     ---       #430
      0100029BH   LINE      CODE     ---       #431
      0100029CH   LINE      CODE     ---       #432
      0100029EH   LINE      CODE     ---       #433
      010002A0H   LINE      CODE     ---       #434
      010002A1H   LINE      CODE     ---       #436
      010002A3H   LINE      CODE     ---       #442
      010002A5H   LINE      CODE     ---       #443
      010002A7H   LINE      CODE     ---       #448
      010002A9H   LINE      CODE     ---       #449
      010002ABH   LINE      CODE     ---       #450
      010002ACH   LINE      CODE     ---       #451
      010002ADH   LINE      CODE     ---       #452
      010002AFH   LINE      CODE     ---       #453
      010002B0H   LINE      CODE     ---       #454
      010002B3H   LINE      CODE     ---       #455
      010002B5H   LINE      CODE     ---       #460
      010002B7H   LINE      CODE     ---       #474
      010002B9H   LINE      CODE     ---       #483
      010002BBH   LINE      CODE     ---       #484
      010002BDH   LINE      CODE     ---       #485
      010002BEH   LINE      CODE     ---       #486
      010002BFH   LINE      CODE     ---       #487
      010002C1H   LINE      CODE     ---       #488
      010002C2H   LINE      CODE     ---       #489
      010002C4H   LINE      CODE     ---       #490
      010002C7H   LINE      CODE     ---       #495
      010002CAH   LINE      CODE     ---       #499
      010002CBH   LINE      CODE     ---       #500
      010002CDH   LINE      CODE     ---       #501
      010002CFH   LINE      CODE     ---       #507
      010002D1H   LINE      CODE     ---       #508
      010002D3H   LINE      CODE     ---       #509
      010002D4H   LINE      CODE     ---       #510
      010002D5H   LINE      CODE     ---       #511
      010002D7H   LINE      CODE     ---       #512
      010002D8H   LINE      CODE     ---       #513
      010002DAH   LINE      CODE     ---       #514
      010002DBH   LINE      CODE     ---       #515
      010002DDH   LINE      CODE     ---       #516
      010002DEH   LINE      CODE     ---       #517
      010002E1H   LINE      CODE     ---       #518
      010002E3H   LINE      CODE     ---       #519
      010002E5H   LINE      CODE     ---       #520
      010002E7H   LINE      CODE     ---       #521
      010002E9H   LINE      CODE     ---       #522
      010002EBH   LINE      CODE     ---       #523
      010002EDH   LINE      CODE     ---       #524
      010002EEH   LINE      CODE     ---       #525
      010002EFH   LINE      CODE     ---       #528
      010002F1H   LINE      CODE     ---       #529
      010002F3H   LINE      CODE     ---       #530
      010002F5H   LINE      CODE     ---       #531
      010002F7H   LINE      CODE     ---       #533
      010002F8H   LINE      CODE     ---       #534
      010002FAH   LINE      CODE     ---       #535
      010002FCH   LINE      CODE     ---       #536
      010002FEH   LINE      CODE     ---       #542
LX51 LINKER/LOCATER V4.34a                                                            04/28/2009  16:35:35  PAGE 20


      01000300H   LINE      CODE     ---       #543
      01000301H   LINE      CODE     ---       #544
      01000303H   LINE      CODE     ---       #545
      01000305H   LINE      CODE     ---       #546
      01000306H   LINE      CODE     ---       #547
      01000307H   LINE      CODE     ---       #548
      01000309H   LINE      CODE     ---       #553
      0100030BH   LINE      CODE     ---       #554
      0100030CH   LINE      CODE     ---       #555
      0100030DH   LINE      CODE     ---       #556
      0100030EH   LINE      CODE     ---       #557
      01000310H   LINE      CODE     ---       #562
      01000312H   LINE      CODE     ---       #563
      01000314H   LINE      CODE     ---       #564
      01000315H   LINE      CODE     ---       #565
      01000316H   LINE      CODE     ---       #566
      01000318H   LINE      CODE     ---       #567
      01000319H   LINE      CODE     ---       #568
      0100031CH   LINE      CODE     ---       #569
      0100031EH   LINE      CODE     ---       #574
      01000320H   LINE      CODE     ---       #579
      01000322H   LINE      CODE     ---       #580
      01000324H   LINE      CODE     ---       #581
      01000326H   LINE      CODE     ---       #582
      01000328H   LINE      CODE     ---       #601
      0100032AH   LINE      CODE     ---       #602
      0100032CH   LINE      CODE     ---       #603
      0100032FH   LINE      CODE     ---       #608
      ---         BLOCKEND  ---      ---       LVL=0

      ---         MODULE    ---      ---       ADC
      01000740H   PUBLIC    CODE     NEAR LAB  _ADC_INIT
      01000725H   PUBLIC    CODE     NEAR LAB  _ADC_READ
      000000D0H.6 SFRSYM    DATA     BIT       AC
      000000E0H   SFRSYM    DATA     BYTE      ACC
      000000A1H   SFRSYM    DATA     BYTE      ADCCON
      000000A2H   SFRSYM    DATA     BYTE      ADCDATAH
      000000A3H   SFRSYM    DATA     BYTE      ADCDATAL
      000000A4H   SFRSYM    DATA     BYTE      ADCSTATIC
      000000F0H   SFRSYM    DATA     BYTE      B
      000000C8H.1 SFRSYM    DATA     BIT       C_T2
      000000A0H.6 SFRSYM    DATA     BIT       CE
      000000B6H   SFRSYM    DATA     BYTE      CK_CTRL
      0000008EH   SFRSYM    DATA     BYTE      CKCON
      000000A0H.1 SFRSYM    DATA     BIT       CLK1
      000000A0H.5 SFRSYM    DATA     BIT       CLK2
      000000C8H   SFRSYM    DATA     BIT       CP_RL2
      000000C8H   SFRSYM    DATA     BIT       CPRL2
      000000A0H.3 SFRSYM    DATA     BIT       CS
      000000C8H.1 SFRSYM    DATA     BIT       CT2
      000000D0H.7 SFRSYM    DATA     BIT       CY
      000000A0H   SFRSYM    DATA     BIT       DATA?
      000000BEH   SFRSYM    DATA     BYTE      DEV_OFFSET
      00000090H.2 SFRSYM    DATA     BIT       DIN0
      00000090H   SFRSYM    DATA     BIT       DIO0
      00000090H.1 SFRSYM    DATA     BIT       DIO1
      00000080H   SFRSYM    DATA     BIT       DIO2
      00000080H.1 SFRSYM    DATA     BIT       DIO3
      00000080H.2 SFRSYM    DATA     BIT       DIO4
      00000080H.3 SFRSYM    DATA     BIT       DIO5
      00000080H.4 SFRSYM    DATA     BIT       DIO6
      00000080H.5 SFRSYM    DATA     BIT       DIO7
      00000080H.6 SFRSYM    DATA     BIT       DIO8
      00000080H.7 SFRSYM    DATA     BIT       DIO9
      000000A0H.4 SFRSYM    DATA     BIT       DOUT2
LX51 LINKER/LOCATER V4.34a                                                            04/28/2009  16:35:35  PAGE 21


      00000083H   SFRSYM    DATA     BYTE      DPH
      00000083H   SFRSYM    DATA     BYTE      DPH0
      00000085H   SFRSYM    DATA     BYTE      DPH1
      00000082H   SFRSYM    DATA     BYTE      DPL
      00000082H   SFRSYM    DATA     BYTE      DPL0
      00000084H   SFRSYM    DATA     BYTE      DPL1
      00000086H   SFRSYM    DATA     BYTE      DPS
      000000A0H.2 SFRSYM    DATA     BIT       DR1
      000000A0H.6 SFRSYM    DATA     BIT       DR2
      000000A0H.6 SFRSYM    DATA     BIT       DR2_CE
      000000A8H.7 SFRSYM    DATA     BIT       EA
      000000D8H   SFRSYM    DATA     BYTE      EICON
      000000E8H   SFRSYM    DATA     BYTE      EIE
      000000F8H   SFRSYM    DATA     BYTE      EIP
      000000A8H.4 SFRSYM    DATA     BIT       ES
      000000A8H.1 SFRSYM    DATA     BIT       ET0
      000000A8H.3 SFRSYM    DATA     BIT       ET1
      000000A8H.5 SFRSYM    DATA     BIT       ET2
      000000E8H.4 SFRSYM    DATA     BIT       EWDI
      000000A8H   SFRSYM    DATA     BIT       EX0
      000000A8H.2 SFRSYM    DATA     BIT       EX1
      000000E8H   SFRSYM    DATA     BIT       EX2
      000000E8H.1 SFRSYM    DATA     BIT       EX3
      000000E8H.2 SFRSYM    DATA     BIT       EX4
      000000E8H.3 SFRSYM    DATA     BIT       EX5
      000000C8H.3 SFRSYM    DATA     BIT       EXEN2
      000000C8H.6 SFRSYM    DATA     BIT       EXF2
      00000091H   SFRSYM    DATA     BYTE      EXIF
      000000D0H.5 SFRSYM    DATA     BIT       F0
      000000D0H.1 SFRSYM    DATA     BIT       F1
      000000A8H   SFRSYM    DATA     BYTE      IE
      00000088H.1 SFRSYM    DATA     BIT       IE0
      00000088H.3 SFRSYM    DATA     BIT       IE1
      00000080H.3 SFRSYM    DATA     BIT       INT0_N
      00000080H.4 SFRSYM    DATA     BIT       INT1_N
      000000B8H   SFRSYM    DATA     BYTE      IP
      00000088H   SFRSYM    DATA     BIT       IT0
      00000088H.2 SFRSYM    DATA     BIT       IT1
      00000092H   SFRSYM    DATA     BYTE      MPAGE
      000000D0H.2 SFRSYM    DATA     BIT       OV
      000000D0H   SFRSYM    DATA     BIT       P
      00000080H   SFRSYM    DATA     BYTE      P0
      00000080H   SFRSYM    DATA     BIT       P0_0
      00000080H.1 SFRSYM    DATA     BIT       P0_1
      00000080H.2 SFRSYM    DATA     BIT       P0_2
      00000080H.3 SFRSYM    DATA     BIT       P0_3
      00000080H.4 SFRSYM    DATA     BIT       P0_4
      00000080H.5 SFRSYM    DATA     BIT       P0_5
      00000080H.6 SFRSYM    DATA     BIT       P0_6
      00000080H.7 SFRSYM    DATA     BIT       P0_7
      00000095H   SFRSYM    DATA     BYTE      P0_ALT
      00000094H   SFRSYM    DATA     BYTE      P0_DIR
      00000090H   SFRSYM    DATA     BYTE      P1
      00000090H   SFRSYM    DATA     BIT       P1_0
      00000090H.1 SFRSYM    DATA     BIT       P1_1
      00000090H.2 SFRSYM    DATA     BIT       P1_2
      00000097H   SFRSYM    DATA     BYTE      P1_ALT
      00000096H   SFRSYM    DATA     BYTE      P1_DIR
      00000087H   SFRSYM    DATA     BYTE      PCON
      000000B8H.4 SFRSYM    DATA     BIT       PS
      000000D0H   SFRSYM    DATA     BYTE      PSW
      000000B8H.1 SFRSYM    DATA     BIT       PT0
      000000B8H.3 SFRSYM    DATA     BIT       PT1
      000000B8H.5 SFRSYM    DATA     BIT       PT2
      000000F8H.4 SFRSYM    DATA     BIT       PWDI
LX51 LINKER/LOCATER V4.34a                                                            04/28/2009  16:35:35  PAGE 22


      00000080H.7 SFRSYM    DATA     BIT       PWM
      000000A9H   SFRSYM    DATA     BYTE      PWMCON
      000000AAH   SFRSYM    DATA     BYTE      PWMDUTY
      000000A0H.7 SFRSYM    DATA     BIT       PWR_UP
      000000B8H   SFRSYM    DATA     BIT       PX0
      000000B8H.2 SFRSYM    DATA     BIT       PX1
      000000F8H   SFRSYM    DATA     BIT       PX2
      000000F8H.1 SFRSYM    DATA     BIT       PX3
      000000F8H.2 SFRSYM    DATA     BIT       PX4
      000000F8H.3 SFRSYM    DATA     BIT       PX5
      000000A0H   SFRSYM    DATA     BYTE      RADIO
      00000098H.2 SFRSYM    DATA     BIT       RB8
      000000CBH   SFRSYM    DATA     BYTE      RCAP2H
      000000CAH   SFRSYM    DATA     BYTE      RCAP2L
      000000C8H.5 SFRSYM    DATA     BIT       RCLK
      000000ADH   SFRSYM    DATA     BYTE      REGX_CTRL
      000000ACH   SFRSYM    DATA     BYTE      REGX_LSB
      000000ABH   SFRSYM    DATA     BYTE      REGX_MSB
      00000098H.4 SFRSYM    DATA     BIT       REN
      00000098H   SFRSYM    DATA     BIT       RI
      000000D0H.3 SFRSYM    DATA     BIT       RS0
      000000D0H.4 SFRSYM    DATA     BIT       RS1
      000000B1H   SFRSYM    DATA     BYTE      RSTREAS
      00000080H.1 SFRSYM    DATA     BIT       RXD
      00000099H   SFRSYM    DATA     BYTE      SBUF
      00000098H   SFRSYM    DATA     BYTE      SCON
      00000098H.7 SFRSYM    DATA     BIT       SM0
      00000098H.6 SFRSYM    DATA     BIT       SM1
      00000098H.5 SFRSYM    DATA     BIT       SM2
      00000081H   SFRSYM    DATA     BYTE      SP
      0000008FH   SFRSYM    DATA     BYTE      SPC_FNC
      000000B3H   SFRSYM    DATA     BYTE      SPI_CTRL
      000000B2H   SFRSYM    DATA     BYTE      SPI_DATA
      000000B4H   SFRSYM    DATA     BYTE      SPICLK
      00000080H.5 SFRSYM    DATA     BIT       T0
      00000080H.6 SFRSYM    DATA     BIT       T1
      000000BCH   SFRSYM    DATA     BYTE      T1_1V2
      00000090H   SFRSYM    DATA     BIT       T2
      000000BDH   SFRSYM    DATA     BYTE      T2_1V2
      000000C8H   SFRSYM    DATA     BYTE      T2CON
      00000098H.3 SFRSYM    DATA     BIT       TB8
      000000C8H.4 SFRSYM    DATA     BIT       TCLK
      00000088H   SFRSYM    DATA     BYTE      TCON
      000000B7H   SFRSYM    DATA     BYTE      TEST_MODE
      00000088H.5 SFRSYM    DATA     BIT       TF0
      00000088H.7 SFRSYM    DATA     BIT       TF1
      000000C8H.7 SFRSYM    DATA     BIT       TF2
      0000008CH   SFRSYM    DATA     BYTE      TH0
      0000008DH   SFRSYM    DATA     BYTE      TH1
      000000CDH   SFRSYM    DATA     BYTE      TH2
      00000098H.1 SFRSYM    DATA     BIT       TI
      000000B5H   SFRSYM    DATA     BYTE      TICK_DV
      0000008AH   SFRSYM    DATA     BYTE      TL0
      0000008BH   SFRSYM    DATA     BYTE      TL1
      000000CCH   SFRSYM    DATA     BYTE      TL2
      00000089H   SFRSYM    DATA     BYTE      TMOD
      00000088H.4 SFRSYM    DATA     BIT       TR0
      00000088H.6 SFRSYM    DATA     BIT       TR1
      000000C8H.2 SFRSYM    DATA     BIT       TR2
      00000080H.2 SFRSYM    DATA     BIT       TXD
      000000D8H.3 SFRSYM    DATA     BIT       WDTI
      0100004BH   SYMBOL    CODE     NEAR LAB  ?C0002
      0100001BH   SYMBOL    CODE     NEAR LAB  ?C0004
      01000023H   SYMBOL    CODE     NEAR LAB  ?C0005
      01000037H   SYMBOL    CODE     NEAR LAB  ?C0006
LX51 LINKER/LOCATER V4.34a                                                            04/28/2009  16:35:35  PAGE 23


      0100004FH   SYMBOL    CODE     NEAR LAB  ?C0007
      01000734H   SYMBOL    CODE     NEAR LAB  ?C0011
      01000739H   SYMBOL    CODE     NEAR LAB  ?C0012
      0100073FH   SYMBOL    CODE     NEAR LAB  ?C0013
      01000003H   SYMBOL    CODE     NEAR LAB  P_ADC_READ

      01000740H   BLOCK     CODE     NEAR LAB  LVL=0
      01000740H   LINE      CODE     ---       #206
      01000743H   LINE      CODE     ---       #209
      01000744H   LINE      CODE     ---       #210
      01000746H   LINE      CODE     ---       #213
      01000749H   LINE      CODE     ---       #216
      0100074AH   LINE      CODE     ---       #217
      0100074CH   LINE      CODE     ---       #220
      0100074FH   LINE      CODE     ---       #223
      01000750H   LINE      CODE     ---       #224
      01000752H   LINE      CODE     ---       #227
      ---         BLOCKEND  ---      ---       LVL=0

      01000003H   BLOCK     CODE     NEAR LAB  LVL=0
      01000003H   LINE      CODE     ---       #241
      01000005H   LINE      CODE     ---       #242
      01000007H   LINE      CODE     ---       #243
      01000008H   LINE      CODE     ---       #248
      01000009H   LINE      CODE     ---       #249
      0100000AH   LINE      CODE     ---       #250
      0100000BH   LINE      CODE     ---       #253
      0100000DH   LINE      CODE     ---       #254
      0100000EH   LINE      CODE     ---       #255
      0100000FH   LINE      CODE     ---       #256
      01000011H   LINE      CODE     ---       #257
      01000012H   LINE      CODE     ---       #258
      01000014H   LINE      CODE     ---       #259
      01000015H   LINE      CODE     ---       #260
      01000017H   LINE      CODE     ---       #261
      01000019H   LINE      CODE     ---       #262
      0100001BH   LINE      CODE     ---       #271
      0100001DH   LINE      CODE     ---       #272
      0100001FH   LINE      CODE     ---       #273
      01000021H   LINE      CODE     ---       #276
      01000023H   LINE      CODE     ---       #283
      01000025H   LINE      CODE     ---       #284
      01000026H   LINE      CODE     ---       #285
      01000029H   LINE      CODE     ---       #286
      0100002AH   LINE      CODE     ---       #287
      0100002BH   LINE      CODE     ---       #288
      0100002DH   LINE      CODE     ---       #291
      0100002FH   LINE      CODE     ---       #292
      01000030H   LINE      CODE     ---       #293
      01000031H   LINE      CODE     ---       #294
      01000032H   LINE      CODE     ---       #295
      01000034H   LINE      CODE     ---       #296
      01000035H   LINE      CODE     ---       #297
      01000036H   LINE      CODE     ---       #298
      01000037H   LINE      CODE     ---       #305
      01000039H   LINE      CODE     ---       #306
      0100003AH   LINE      CODE     ---       #307
      0100003DH   LINE      CODE     ---       #308
      0100003EH   LINE      CODE     ---       #309
      0100003FH   LINE      CODE     ---       #310
      01000041H   LINE      CODE     ---       #313
      01000043H   LINE      CODE     ---       #314
      01000044H   LINE      CODE     ---       #315
      01000046H   LINE      CODE     ---       #316
      01000047H   LINE      CODE     ---       #317
LX51 LINKER/LOCATER V4.34a                                                            04/28/2009  16:35:35  PAGE 24


      01000048H   LINE      CODE     ---       #318
      01000049H   LINE      CODE     ---       #319
      0100004AH   LINE      CODE     ---       #320
      0100004BH   LINE      CODE     ---       #326
      0100004DH   LINE      CODE     ---       #327
      0100004FH   LINE      CODE     ---       #331
      ---         BLOCKEND  ---      ---       LVL=0

      01000725H   BLOCK     CODE     NEAR LAB  LVL=0
      01000725H   LINE      CODE     ---       #347
      01000726H   LINE      CODE     ---       #348
      01000727H   LINE      CODE     ---       #349
      01000728H   LINE      CODE     ---       #353
      0100072BH   LINE      CODE     ---       #356
      0100072CH   LINE      CODE     ---       #357
      0100072EH   LINE      CODE     ---       #360
      01000731H   LINE      CODE     ---       #361
      01000734H   LINE      CODE     ---       #366
      01000736H   LINE      CODE     ---       #367
      01000739H   LINE      CODE     ---       #373
      0100073CH   LINE      CODE     ---       #377
      0100073FH   LINE      CODE     ---       #383
      ---         BLOCKEND  ---      ---       LVL=0

      ---         MODULE    ---      ---       UTILS
      0000003BH   PUBLIC    DATA     BYTE      ?_STRNCPY?BYTE
      010004F3H   PUBLIC    CODE     NEAR LAB  _MDELAY
      01000782H   PUBLIC    CODE     NEAR LAB  _STORE_CPU_RATE
      0100053CH   PUBLIC    CODE     NEAR LAB  _STRNCPY
      01000753H   PUBLIC    CODE     NEAR LAB  _WDT_LOAD
      00000053H   PUBLIC    DATA     BYTE      MHZ
      000000D0H.6 SFRSYM    DATA     BIT       AC
      000000E0H   SFRSYM    DATA     BYTE      ACC
      000000A1H   SFRSYM    DATA     BYTE      ADCCON
      000000A2H   SFRSYM    DATA     BYTE      ADCDATAH
      000000A3H   SFRSYM    DATA     BYTE      ADCDATAL
      000000A4H   SFRSYM    DATA     BYTE      ADCSTATIC
      000000F0H   SFRSYM    DATA     BYTE      B
      000000C8H.1 SFRSYM    DATA     BIT       C_T2
      000000A0H.6 SFRSYM    DATA     BIT       CE
      000000B6H   SFRSYM    DATA     BYTE      CK_CTRL
      0000008EH   SFRSYM    DATA     BYTE      CKCON
      000000A0H.1 SFRSYM    DATA     BIT       CLK1
      000000A0H.5 SFRSYM    DATA     BIT       CLK2
      000000C8H   SFRSYM    DATA     BIT       CP_RL2
      000000C8H   SFRSYM    DATA     BIT       CPRL2
      000000A0H.3 SFRSYM    DATA     BIT       CS
      000000C8H.1 SFRSYM    DATA     BIT       CT2
      000000D0H.7 SFRSYM    DATA     BIT       CY
      000000A0H   SFRSYM    DATA     BIT       DATA?
      000000BEH   SFRSYM    DATA     BYTE      DEV_OFFSET
      00000090H.2 SFRSYM    DATA     BIT       DIN0
      00000090H   SFRSYM    DATA     BIT       DIO0
      00000090H.1 SFRSYM    DATA     BIT       DIO1
      00000080H   SFRSYM    DATA     BIT       DIO2
      00000080H.1 SFRSYM    DATA     BIT       DIO3
      00000080H.2 SFRSYM    DATA     BIT       DIO4
      00000080H.3 SFRSYM    DATA     BIT       DIO5
      00000080H.4 SFRSYM    DATA     BIT       DIO6
      00000080H.5 SFRSYM    DATA     BIT       DIO7
      00000080H.6 SFRSYM    DATA     BIT       DIO8
      00000080H.7 SFRSYM    DATA     BIT       DIO9
      000000A0H.4 SFRSYM    DATA     BIT       DOUT2
      00000083H   SFRSYM    DATA     BYTE      DPH
      00000083H   SFRSYM    DATA     BYTE      DPH0
LX51 LINKER/LOCATER V4.34a                                                            04/28/2009  16:35:35  PAGE 25


      00000085H   SFRSYM    DATA     BYTE      DPH1
      00000082H   SFRSYM    DATA     BYTE      DPL
      00000082H   SFRSYM    DATA     BYTE      DPL0
      00000084H   SFRSYM    DATA     BYTE      DPL1
      00000086H   SFRSYM    DATA     BYTE      DPS
      000000A0H.2 SFRSYM    DATA     BIT       DR1
      000000A0H.6 SFRSYM    DATA     BIT       DR2
      000000A0H.6 SFRSYM    DATA     BIT       DR2_CE
      000000A8H.7 SFRSYM    DATA     BIT       EA
      000000D8H   SFRSYM    DATA     BYTE      EICON
      000000E8H   SFRSYM    DATA     BYTE      EIE
      000000F8H   SFRSYM    DATA     BYTE      EIP
      000000A8H.4 SFRSYM    DATA     BIT       ES
      000000A8H.1 SFRSYM    DATA     BIT       ET0
      000000A8H.3 SFRSYM    DATA     BIT       ET1
      000000A8H.5 SFRSYM    DATA     BIT       ET2
      000000E8H.4 SFRSYM    DATA     BIT       EWDI
      000000A8H   SFRSYM    DATA     BIT       EX0
      000000A8H.2 SFRSYM    DATA     BIT       EX1
      000000E8H   SFRSYM    DATA     BIT       EX2
      000000E8H.1 SFRSYM    DATA     BIT       EX3
      000000E8H.2 SFRSYM    DATA     BIT       EX4
      000000E8H.3 SFRSYM    DATA     BIT       EX5
      000000C8H.3 SFRSYM    DATA     BIT       EXEN2
      000000C8H.6 SFRSYM    DATA     BIT       EXF2
      00000091H   SFRSYM    DATA     BYTE      EXIF
      000000D0H.5 SFRSYM    DATA     BIT       F0
      000000D0H.1 SFRSYM    DATA     BIT       F1
      000000A8H   SFRSYM    DATA     BYTE      IE
      00000088H.1 SFRSYM    DATA     BIT       IE0
      00000088H.3 SFRSYM    DATA     BIT       IE1
      00000080H.3 SFRSYM    DATA     BIT       INT0_N
      00000080H.4 SFRSYM    DATA     BIT       INT1_N
      000000B8H   SFRSYM    DATA     BYTE      IP
      00000088H   SFRSYM    DATA     BIT       IT0
      00000088H.2 SFRSYM    DATA     BIT       IT1
      00000092H   SFRSYM    DATA     BYTE      MPAGE
      000000D0H.2 SFRSYM    DATA     BIT       OV
      000000D0H   SFRSYM    DATA     BIT       P
      00000080H   SFRSYM    DATA     BYTE      P0
      00000080H   SFRSYM    DATA     BIT       P0_0
      00000080H.1 SFRSYM    DATA     BIT       P0_1
      00000080H.2 SFRSYM    DATA     BIT       P0_2
      00000080H.3 SFRSYM    DATA     BIT       P0_3
      00000080H.4 SFRSYM    DATA     BIT       P0_4
      00000080H.5 SFRSYM    DATA     BIT       P0_5
      00000080H.6 SFRSYM    DATA     BIT       P0_6
      00000080H.7 SFRSYM    DATA     BIT       P0_7
      00000095H   SFRSYM    DATA     BYTE      P0_ALT
      00000094H   SFRSYM    DATA     BYTE      P0_DIR
      00000090H   SFRSYM    DATA     BYTE      P1
      00000090H   SFRSYM    DATA     BIT       P1_0
      00000090H.1 SFRSYM    DATA     BIT       P1_1
      00000090H.2 SFRSYM    DATA     BIT       P1_2
      00000097H   SFRSYM    DATA     BYTE      P1_ALT
      00000096H   SFRSYM    DATA     BYTE      P1_DIR
      00000087H   SFRSYM    DATA     BYTE      PCON
      000000B8H.4 SFRSYM    DATA     BIT       PS
      000000D0H   SFRSYM    DATA     BYTE      PSW
      000000B8H.1 SFRSYM    DATA     BIT       PT0
      000000B8H.3 SFRSYM    DATA     BIT       PT1
      000000B8H.5 SFRSYM    DATA     BIT       PT2
      000000F8H.4 SFRSYM    DATA     BIT       PWDI
      00000080H.7 SFRSYM    DATA     BIT       PWM
      000000A9H   SFRSYM    DATA     BYTE      PWMCON
LX51 LINKER/LOCATER V4.34a                                                            04/28/2009  16:35:35  PAGE 26


      000000AAH   SFRSYM    DATA     BYTE      PWMDUTY
      000000A0H.7 SFRSYM    DATA     BIT       PWR_UP
      000000B8H   SFRSYM    DATA     BIT       PX0
      000000B8H.2 SFRSYM    DATA     BIT       PX1
      000000F8H   SFRSYM    DATA     BIT       PX2
      000000F8H.1 SFRSYM    DATA     BIT       PX3
      000000F8H.2 SFRSYM    DATA     BIT       PX4
      000000F8H.3 SFRSYM    DATA     BIT       PX5
      000000A0H   SFRSYM    DATA     BYTE      RADIO
      00000098H.2 SFRSYM    DATA     BIT       RB8
      000000CBH   SFRSYM    DATA     BYTE      RCAP2H
      000000CAH   SFRSYM    DATA     BYTE      RCAP2L
      000000C8H.5 SFRSYM    DATA     BIT       RCLK
      000000ADH   SFRSYM    DATA     BYTE      REGX_CTRL
      000000ACH   SFRSYM    DATA     BYTE      REGX_LSB
      000000ABH   SFRSYM    DATA     BYTE      REGX_MSB
      00000098H.4 SFRSYM    DATA     BIT       REN
      00000098H   SFRSYM    DATA     BIT       RI
      000000D0H.3 SFRSYM    DATA     BIT       RS0
      000000D0H.4 SFRSYM    DATA     BIT       RS1
      000000B1H   SFRSYM    DATA     BYTE      RSTREAS
      00000080H.1 SFRSYM    DATA     BIT       RXD
      00000099H   SFRSYM    DATA     BYTE      SBUF
      00000098H   SFRSYM    DATA     BYTE      SCON
      00000098H.7 SFRSYM    DATA     BIT       SM0
      00000098H.6 SFRSYM    DATA     BIT       SM1
      00000098H.5 SFRSYM    DATA     BIT       SM2
      00000081H   SFRSYM    DATA     BYTE      SP
      0000008FH   SFRSYM    DATA     BYTE      SPC_FNC
      000000B3H   SFRSYM    DATA     BYTE      SPI_CTRL
      000000B2H   SFRSYM    DATA     BYTE      SPI_DATA
      000000B4H   SFRSYM    DATA     BYTE      SPICLK
      00000080H.5 SFRSYM    DATA     BIT       T0
      00000080H.6 SFRSYM    DATA     BIT       T1
      000000BCH   SFRSYM    DATA     BYTE      T1_1V2
      00000090H   SFRSYM    DATA     BIT       T2
      000000BDH   SFRSYM    DATA     BYTE      T2_1V2
      000000C8H   SFRSYM    DATA     BYTE      T2CON
      00000098H.3 SFRSYM    DATA     BIT       TB8
      000000C8H.4 SFRSYM    DATA     BIT       TCLK
      00000088H   SFRSYM    DATA     BYTE      TCON
      000000B7H   SFRSYM    DATA     BYTE      TEST_MODE
      00000088H.5 SFRSYM    DATA     BIT       TF0
      00000088H.7 SFRSYM    DATA     BIT       TF1
      000000C8H.7 SFRSYM    DATA     BIT       TF2
      0000008CH   SFRSYM    DATA     BYTE      TH0
      0000008DH   SFRSYM    DATA     BYTE      TH1
      000000CDH   SFRSYM    DATA     BYTE      TH2
      00000098H.1 SFRSYM    DATA     BIT       TI
      000000B5H   SFRSYM    DATA     BYTE      TICK_DV
      0000008AH   SFRSYM    DATA     BYTE      TL0
      0000008BH   SFRSYM    DATA     BYTE      TL1
      000000CCH   SFRSYM    DATA     BYTE      TL2
      00000089H   SFRSYM    DATA     BYTE      TMOD
      00000088H.4 SFRSYM    DATA     BIT       TR0
      00000088H.6 SFRSYM    DATA     BIT       TR1
      000000C8H.2 SFRSYM    DATA     BIT       TR2
      00000080H.2 SFRSYM    DATA     BIT       TXD
      000000D8H.3 SFRSYM    DATA     BIT       WDTI
      00000062H   SYMBOL    DATA     BYTE      ?_MDELAY?BYTE
      01000514H   SYMBOL    CODE     NEAR LAB  ?C0002
      01000534H   SYMBOL    CODE     NEAR LAB  ?C0004
      01000520H   SYMBOL    CODE     NEAR LAB  ?C0005
      0100053BH   SYMBOL    CODE     NEAR LAB  ?C0008
      01000757H   SYMBOL    CODE     NEAR LAB  ?C0009
LX51 LINKER/LOCATER V4.34a                                                            04/28/2009  16:35:35  PAGE 27


      0100075CH   SYMBOL    CODE     NEAR LAB  ?C0010
      01000545H   SYMBOL    CODE     NEAR LAB  ?C0012
      0100057FH   SYMBOL    CODE     NEAR LAB  ?C0015
      01000532H   SYMBOL    CODE     NEAR LAB  ?C0016
      01000539H   SYMBOL    CODE     NEAR LAB  ?C0017
      01000560H   SYMBOL    CODE     NEAR LAB  ?C0018
      01000572H   SYMBOL    CODE     NEAR LAB  ?C0019
      0100057DH   SYMBOL    CODE     NEAR LAB  ?C0020
      0000003EH   SYMBOL    DATA     BYTE      DST?347
      00000062H   SYMBOL    DATA     BYTE      MSEC?141
      00000041H   SYMBOL    DATA     BYTE      N?348
      0000003BH   SYMBOL    DATA     BYTE      SRC?346

      01000782H   BLOCK     CODE     NEAR LAB  LVL=0
      01000782H   LINE      CODE     ---       #231
      01000783H   LINE      CODE     ---       #232
      01000784H   LINE      CODE     ---       #233
      01000786H   LINE      CODE     ---       #234
      01000788H   LINE      CODE     ---       #235
      0100078AH   LINE      CODE     ---       #236
      0100078CH   LINE      CODE     ---       #237
      0100078EH   LINE      CODE     ---       #240
      ---         BLOCKEND  ---      ---       LVL=0

      010004F3H   BLOCK     CODE     NEAR LAB  LVL=0
      010004F3H   LINE      CODE     ---       #256
      010004F5H   LINE      CODE     ---       #257
      010004F7H   LINE      CODE     ---       #263
      010004F8H   LINE      CODE     ---       #264
      010004FAH   LINE      CODE     ---       #265
      010004FBH   LINE      CODE     ---       #266
      010004FCH   LINE      CODE     ---       #267
      010004FDH   LINE      CODE     ---       #268
      010004FFH   LINE      CODE     ---       #269
      01000501H   LINE      CODE     ---       #270
      01000503H   LINE      CODE     ---       #271
      01000505H   LINE      CODE     ---       #272
      01000508H   LINE      CODE     ---       #273
      01000509H   LINE      CODE     ---       #274
      0100050BH   LINE      CODE     ---       #275
      0100050CH   LINE      CODE     ---       #276
      0100050DH   LINE      CODE     ---       #277
      0100050EH   LINE      CODE     ---       #278
      01000511H   LINE      CODE     ---       #283
      01000512H   LINE      CODE     ---       #284
      01000513H   LINE      CODE     ---       #285
      01000514H   LINE      CODE     ---       #287
      01000515H   LINE      CODE     ---       #288
      01000516H   LINE      CODE     ---       #289
      01000518H   LINE      CODE     ---       #290
      01000519H   LINE      CODE     ---       #291
      0100051BH   LINE      CODE     ---       #292
      0100051DH   LINE      CODE     ---       #296
      0100051EH   LINE      CODE     ---       #297
      0100051FH   LINE      CODE     ---       #298
      01000520H   LINE      CODE     ---       #300
      01000521H   LINE      CODE     ---       #301
      01000522H   LINE      CODE     ---       #302
      01000523H   LINE      CODE     ---       #303
      01000524H   LINE      CODE     ---       #304
      01000526H   LINE      CODE     ---       #305
      01000527H   LINE      CODE     ---       #306
      01000528H   LINE      CODE     ---       #307
      0100052AH   LINE      CODE     ---       #308
      0100052BH   LINE      CODE     ---       #309
LX51 LINKER/LOCATER V4.34a                                                            04/28/2009  16:35:35  PAGE 28


      0100052DH   LINE      CODE     ---       #310
      0100052EH   LINE      CODE     ---       #311
      01000531H   LINE      CODE     ---       #312
      01000532H   LINE      CODE     ---       #314
      01000534H   LINE      CODE     ---       #316
      01000535H   LINE      CODE     ---       #317
      01000538H   LINE      CODE     ---       #318
      01000539H   LINE      CODE     ---       #320
      0100053BH   LINE      CODE     ---       #325
      ---         BLOCKEND  ---      ---       LVL=0

      01000753H   BLOCK     CODE     NEAR LAB  LVL=0
      01000753H   LINE      CODE     ---       #341
      01000755H   LINE      CODE     ---       #342
      01000757H   LINE      CODE     ---       #348
      01000759H   LINE      CODE     ---       #349
      0100075CH   LINE      CODE     ---       #354
      0100075EH   LINE      CODE     ---       #357
      0100075FH   LINE      CODE     ---       #358
      01000761H   LINE      CODE     ---       #361
      01000764H   LINE      CODE     ---       #364
      ---         BLOCKEND  ---      ---       LVL=0

      0100053CH   BLOCK     CODE     NEAR LAB  LVL=0
      0100053CH   LINE      CODE     ---       #380
      0100053EH   LINE      CODE     ---       #381
      01000540H   LINE      CODE     ---       #382
      01000542H   LINE      CODE     ---       #389
      01000543H   LINE      CODE     ---       #390
      01000544H   LINE      CODE     ---       #391
      01000545H   LINE      CODE     ---       #393
      01000546H   LINE      CODE     ---       #394
      01000547H   LINE      CODE     ---       #395
      01000549H   LINE      CODE     ---       #396
      0100054BH   LINE      CODE     ---       #397
      0100054DH   LINE      CODE     ---       #398
      0100054EH   LINE      CODE     ---       #399
      0100054FH   LINE      CODE     ---       #400
      01000551H   LINE      CODE     ---       #401
      01000552H   LINE      CODE     ---       #402
      01000554H   LINE      CODE     ---       #405
      01000556H   LINE      CODE     ---       #406
      01000558H   LINE      CODE     ---       #407
      0100055AH   LINE      CODE     ---       #408
      0100055CH   LINE      CODE     ---       #409
      0100055EH   LINE      CODE     ---       #410
      01000560H   LINE      CODE     ---       #412
      01000561H   LINE      CODE     ---       #413
      01000562H   LINE      CODE     ---       #414
      01000565H   LINE      CODE     ---       #415
      01000566H   LINE      CODE     ---       #416
      01000568H   LINE      CODE     ---       #417
      0100056AH   LINE      CODE     ---       #418
      0100056CH   LINE      CODE     ---       #419
      0100056EH   LINE      CODE     ---       #420
      01000570H   LINE      CODE     ---       #421
      01000572H   LINE      CODE     ---       #423
      01000573H   LINE      CODE     ---       #424
      01000574H   LINE      CODE     ---       #425
      01000575H   LINE      CODE     ---       #426
      01000578H   LINE      CODE     ---       #429
      01000579H   LINE      CODE     ---       #430
      0100057CH   LINE      CODE     ---       #431
      0100057DH   LINE      CODE     ---       #433
      0100057FH   LINE      CODE     ---       #437
LX51 LINKER/LOCATER V4.34a                                                            04/28/2009  16:35:35  PAGE 29


      ---         BLOCKEND  ---      ---       LVL=0

      ---         MODULE    ---      ---       SERIAL
      010005F8H   PUBLIC    CODE     NEAR LAB  _?INT_PRINT
      01000050H   PUBLIC    CODE     NEAR LAB  _PUTC
      010006C2H   PUBLIC    CODE     NEAR LAB  _PUTS
      010007A7H   PUBLIC    CODE     NEAR LAB  _SERIAL_INIT
      010007CFH   PUBLIC    CODE     NEAR LAB  GETC
      000000D0H.6 SFRSYM    DATA     BIT       AC
      000000E0H   SFRSYM    DATA     BYTE      ACC
      000000A1H   SFRSYM    DATA     BYTE      ADCCON
      000000A2H   SFRSYM    DATA     BYTE      ADCDATAH
      000000A3H   SFRSYM    DATA     BYTE      ADCDATAL
      000000A4H   SFRSYM    DATA     BYTE      ADCSTATIC
      000000F0H   SFRSYM    DATA     BYTE      B
      000000C8H.1 SFRSYM    DATA     BIT       C_T2
      000000A0H.6 SFRSYM    DATA     BIT       CE
      000000B6H   SFRSYM    DATA     BYTE      CK_CTRL
      0000008EH   SFRSYM    DATA     BYTE      CKCON
      000000A0H.1 SFRSYM    DATA     BIT       CLK1
      000000A0H.5 SFRSYM    DATA     BIT       CLK2
      000000C8H   SFRSYM    DATA     BIT       CP_RL2
      000000C8H   SFRSYM    DATA     BIT       CPRL2
      000000A0H.3 SFRSYM    DATA     BIT       CS
      000000C8H.1 SFRSYM    DATA     BIT       CT2
      000000D0H.7 SFRSYM    DATA     BIT       CY
      000000A0H   SFRSYM    DATA     BIT       DATA?
      000000BEH   SFRSYM    DATA     BYTE      DEV_OFFSET
      00000090H.2 SFRSYM    DATA     BIT       DIN0
      00000090H   SFRSYM    DATA     BIT       DIO0
      00000090H.1 SFRSYM    DATA     BIT       DIO1
      00000080H   SFRSYM    DATA     BIT       DIO2
      00000080H.1 SFRSYM    DATA     BIT       DIO3
      00000080H.2 SFRSYM    DATA     BIT       DIO4
      00000080H.3 SFRSYM    DATA     BIT       DIO5
      00000080H.4 SFRSYM    DATA     BIT       DIO6
      00000080H.5 SFRSYM    DATA     BIT       DIO7
      00000080H.6 SFRSYM    DATA     BIT       DIO8
      00000080H.7 SFRSYM    DATA     BIT       DIO9
      000000A0H.4 SFRSYM    DATA     BIT       DOUT2
      00000083H   SFRSYM    DATA     BYTE      DPH
      00000083H   SFRSYM    DATA     BYTE      DPH0
      00000085H   SFRSYM    DATA     BYTE      DPH1
      00000082H   SFRSYM    DATA     BYTE      DPL
      00000082H   SFRSYM    DATA     BYTE      DPL0
      00000084H   SFRSYM    DATA     BYTE      DPL1
      00000086H   SFRSYM    DATA     BYTE      DPS
      000000A0H.2 SFRSYM    DATA     BIT       DR1
      000000A0H.6 SFRSYM    DATA     BIT       DR2
      000000A0H.6 SFRSYM    DATA     BIT       DR2_CE
      000000A8H.7 SFRSYM    DATA     BIT       EA
      000000D8H   SFRSYM    DATA     BYTE      EICON
      000000E8H   SFRSYM    DATA     BYTE      EIE
      000000F8H   SFRSYM    DATA     BYTE      EIP
      000000A8H.4 SFRSYM    DATA     BIT       ES
      000000A8H.1 SFRSYM    DATA     BIT       ET0
      000000A8H.3 SFRSYM    DATA     BIT       ET1
      000000A8H.5 SFRSYM    DATA     BIT       ET2
      000000E8H.4 SFRSYM    DATA     BIT       EWDI
      000000A8H   SFRSYM    DATA     BIT       EX0
      000000A8H.2 SFRSYM    DATA     BIT       EX1
      000000E8H   SFRSYM    DATA     BIT       EX2
      000000E8H.1 SFRSYM    DATA     BIT       EX3
      000000E8H.2 SFRSYM    DATA     BIT       EX4
      000000E8H.3 SFRSYM    DATA     BIT       EX5
LX51 LINKER/LOCATER V4.34a                                                            04/28/2009  16:35:35  PAGE 30


      000000C8H.3 SFRSYM    DATA     BIT       EXEN2
      000000C8H.6 SFRSYM    DATA     BIT       EXF2
      00000091H   SFRSYM    DATA     BYTE      EXIF
      000000D0H.5 SFRSYM    DATA     BIT       F0
      000000D0H.1 SFRSYM    DATA     BIT       F1
      000000A8H   SFRSYM    DATA     BYTE      IE
      00000088H.1 SFRSYM    DATA     BIT       IE0
      00000088H.3 SFRSYM    DATA     BIT       IE1
      00000080H.3 SFRSYM    DATA     BIT       INT0_N
      00000080H.4 SFRSYM    DATA     BIT       INT1_N
      000000B8H   SFRSYM    DATA     BYTE      IP
      00000088H   SFRSYM    DATA     BIT       IT0
      00000088H.2 SFRSYM    DATA     BIT       IT1
      00000092H   SFRSYM    DATA     BYTE      MPAGE
      000000D0H.2 SFRSYM    DATA     BIT       OV
      000000D0H   SFRSYM    DATA     BIT       P
      00000080H   SFRSYM    DATA     BYTE      P0
      00000080H   SFRSYM    DATA     BIT       P0_0
      00000080H.1 SFRSYM    DATA     BIT       P0_1
      00000080H.2 SFRSYM    DATA     BIT       P0_2
      00000080H.3 SFRSYM    DATA     BIT       P0_3
      00000080H.4 SFRSYM    DATA     BIT       P0_4
      00000080H.5 SFRSYM    DATA     BIT       P0_5
      00000080H.6 SFRSYM    DATA     BIT       P0_6
      00000080H.7 SFRSYM    DATA     BIT       P0_7
      00000095H   SFRSYM    DATA     BYTE      P0_ALT
      00000094H   SFRSYM    DATA     BYTE      P0_DIR
      00000090H   SFRSYM    DATA     BYTE      P1
      00000090H   SFRSYM    DATA     BIT       P1_0
      00000090H.1 SFRSYM    DATA     BIT       P1_1
      00000090H.2 SFRSYM    DATA     BIT       P1_2
      00000097H   SFRSYM    DATA     BYTE      P1_ALT
      00000096H   SFRSYM    DATA     BYTE      P1_DIR
      00000087H   SFRSYM    DATA     BYTE      PCON
      000000B8H.4 SFRSYM    DATA     BIT       PS
      000000D0H   SFRSYM    DATA     BYTE      PSW
      000000B8H.1 SFRSYM    DATA     BIT       PT0
      000000B8H.3 SFRSYM    DATA     BIT       PT1
      000000B8H.5 SFRSYM    DATA     BIT       PT2
      000000F8H.4 SFRSYM    DATA     BIT       PWDI
      00000080H.7 SFRSYM    DATA     BIT       PWM
      000000A9H   SFRSYM    DATA     BYTE      PWMCON
      000000AAH   SFRSYM    DATA     BYTE      PWMDUTY
      000000A0H.7 SFRSYM    DATA     BIT       PWR_UP
      000000B8H   SFRSYM    DATA     BIT       PX0
      000000B8H.2 SFRSYM    DATA     BIT       PX1
      000000F8H   SFRSYM    DATA     BIT       PX2
      000000F8H.1 SFRSYM    DATA     BIT       PX3
      000000F8H.2 SFRSYM    DATA     BIT       PX4
      000000F8H.3 SFRSYM    DATA     BIT       PX5
      000000A0H   SFRSYM    DATA     BYTE      RADIO
      00000098H.2 SFRSYM    DATA     BIT       RB8
      000000CBH   SFRSYM    DATA     BYTE      RCAP2H
      000000CAH   SFRSYM    DATA     BYTE      RCAP2L
      000000C8H.5 SFRSYM    DATA     BIT       RCLK
      000000ADH   SFRSYM    DATA     BYTE      REGX_CTRL
      000000ACH   SFRSYM    DATA     BYTE      REGX_LSB
      000000ABH   SFRSYM    DATA     BYTE      REGX_MSB
      00000098H.4 SFRSYM    DATA     BIT       REN
      00000098H   SFRSYM    DATA     BIT       RI
      000000D0H.3 SFRSYM    DATA     BIT       RS0
      000000D0H.4 SFRSYM    DATA     BIT       RS1
      000000B1H   SFRSYM    DATA     BYTE      RSTREAS
      00000080H.1 SFRSYM    DATA     BIT       RXD
      00000099H   SFRSYM    DATA     BYTE      SBUF
LX51 LINKER/LOCATER V4.34a                                                            04/28/2009  16:35:35  PAGE 31


      00000098H   SFRSYM    DATA     BYTE      SCON
      00000098H.7 SFRSYM    DATA     BIT       SM0
      00000098H.6 SFRSYM    DATA     BIT       SM1
      00000098H.5 SFRSYM    DATA     BIT       SM2
      00000081H   SFRSYM    DATA     BYTE      SP
      0000008FH   SFRSYM    DATA     BYTE      SPC_FNC
      000000B3H   SFRSYM    DATA     BYTE      SPI_CTRL
      000000B2H   SFRSYM    DATA     BYTE      SPI_DATA
      000000B4H   SFRSYM    DATA     BYTE      SPICLK
      00000080H.5 SFRSYM    DATA     BIT       T0
      00000080H.6 SFRSYM    DATA     BIT       T1
      000000BCH   SFRSYM    DATA     BYTE      T1_1V2
      00000090H   SFRSYM    DATA     BIT       T2
      000000BDH   SFRSYM    DATA     BYTE      T2_1V2
      000000C8H   SFRSYM    DATA     BYTE      T2CON
      00000098H.3 SFRSYM    DATA     BIT       TB8
      000000C8H.4 SFRSYM    DATA     BIT       TCLK
      00000088H   SFRSYM    DATA     BYTE      TCON
      000000B7H   SFRSYM    DATA     BYTE      TEST_MODE
      00000088H.5 SFRSYM    DATA     BIT       TF0
      00000088H.7 SFRSYM    DATA     BIT       TF1
      000000C8H.7 SFRSYM    DATA     BIT       TF2
      0000008CH   SFRSYM    DATA     BYTE      TH0
      0000008DH   SFRSYM    DATA     BYTE      TH1
      000000CDH   SFRSYM    DATA     BYTE      TH2
      00000098H.1 SFRSYM    DATA     BIT       TI
      000000B5H   SFRSYM    DATA     BYTE      TICK_DV
      0000008AH   SFRSYM    DATA     BYTE      TL0
      0000008BH   SFRSYM    DATA     BYTE      TL1
      000000CCH   SFRSYM    DATA     BYTE      TL2
      00000089H   SFRSYM    DATA     BYTE      TMOD
      00000088H.4 SFRSYM    DATA     BIT       TR0
      00000088H.6 SFRSYM    DATA     BIT       TR1
      000000C8H.2 SFRSYM    DATA     BIT       TR2
      00000080H.2 SFRSYM    DATA     BIT       TXD
      000000D8H.3 SFRSYM    DATA     BIT       WDTI
      00000057H   SYMBOL    DATA     BYTE      ?_PUTS?BYTE
      010005B8H   SYMBOL    CODE     NEAR LAB  ?C0001
      010005A4H   SYMBOL    CODE     NEAR LAB  ?C0002
      010005ACH   SYMBOL    CODE     NEAR LAB  ?C0003
      010005B4H   SYMBOL    CODE     NEAR LAB  ?C0004
      010005BCH   SYMBOL    CODE     NEAR LAB  ?C0005
      010007BCH   SYMBOL    CODE     NEAR LAB  ?C0007
      010007BFH   SYMBOL    CODE     NEAR LAB  ?C0008
      010007C2H   SYMBOL    CODE     NEAR LAB  ?C0010
      010007C5H   SYMBOL    CODE     NEAR LAB  ?C0011
      010007C9H   SYMBOL    CODE     NEAR LAB  ?C0012
      010006C8H   SYMBOL    CODE     NEAR LAB  ?C0014
      010006E6H   SYMBOL    CODE     NEAR LAB  ?C0016
      010007D2H   SYMBOL    CODE     NEAR LAB  ?C0017
      01000618H   SYMBOL    CODE     NEAR LAB  ?C0018
      010006DBH   SYMBOL    CODE     NEAR LAB  ?C0020
      010007BAH   SYMBOL    CODE     NEAR LAB  _SERIAL_WRITE
      01000580H   SYMBOL    CODE     NEAR LAB  _SETUP_BAUDRATE
      00000057H   SYMBOL    DATA     BYTE      S?544
      010007C2H   SYMBOL    CODE     NEAR LAB  SERIAL_READ

      01000580H   BLOCK     CODE     NEAR LAB  LVL=0
      01000580H   LINE      CODE     ---       #221
      01000583H   LINE      CODE     ---       #224
      01000585H   LINE      CODE     ---       #227
      01000587H   LINE      CODE     ---       #230
      01000589H   LINE      CODE     ---       #233
      0100058CH   LINE      CODE     ---       #237
      0100058FH   LINE      CODE     ---       #240
LX51 LINKER/LOCATER V4.34a                                                            04/28/2009  16:35:35  PAGE 32


      01000592H   LINE      CODE     ---       #244
      01000593H   LINE      CODE     ---       #245
      01000595H   LINE      CODE     ---       #246
      010005A4H   LINE      CODE     ---       #258
      010005A7H   LINE      CODE     ---       #261
      010005AAH   LINE      CODE     ---       #264
      010005ACH   LINE      CODE     ---       #270
      010005AFH   LINE      CODE     ---       #273
      010005B2H   LINE      CODE     ---       #276
      010005B4H   LINE      CODE     ---       #283
      010005B5H   LINE      CODE     ---       #284
      010005B6H   LINE      CODE     ---       #285
      010005B7H   LINE      CODE     ---       #286
      010005B8H   LINE      CODE     ---       #292
      010005BAH   LINE      CODE     ---       #293
      010005BCH   LINE      CODE     ---       #297
      ---         BLOCKEND  ---      ---       LVL=0

      010007A7H   BLOCK     CODE     NEAR LAB  LVL=0
      010007A7H   LINE      CODE     ---       #319
      010007AAH   LINE      CODE     ---       #322
      010007ADH   LINE      CODE     ---       #325
      010007B0H   LINE      CODE     ---       #328
      ---         BLOCKEND  ---      ---       LVL=0

      010007BAH   BLOCK     CODE     NEAR LAB  LVL=0
      010007BAH   LINE      CODE     ---       #345
      010007BCH   LINE      CODE     ---       #349
      010007BFH   LINE      CODE     ---       #354
      010007C1H   LINE      CODE     ---       #357
      ---         BLOCKEND  ---      ---       LVL=0

      010007C2H   BLOCK     CODE     NEAR LAB  LVL=0
      010007C2H   LINE      CODE     ---       #375
      010007C5H   LINE      CODE     ---       #380
      010007C7H   LINE      CODE     ---       #383
      010007C9H   LINE      CODE     ---       #387
      ---         BLOCKEND  ---      ---       LVL=0

      01000050H   BLOCK     CODE     NEAR LAB  LVL=0
      01000050H   LINE      CODE     ---       #402
      ---         BLOCKEND  ---      ---       LVL=0

      010006C2H   BLOCK     CODE     NEAR LAB  LVL=0
      010006C2H   LINE      CODE     ---       #413
      010006C4H   LINE      CODE     ---       #414
      010006C6H   LINE      CODE     ---       #415
      010006C8H   LINE      CODE     ---       #421
      010006CAH   LINE      CODE     ---       #422
      010006CCH   LINE      CODE     ---       #423
      010006CEH   LINE      CODE     ---       #424
      010006D1H   LINE      CODE     ---       #425
      010006D3H   LINE      CODE     ---       #428
      010006D5H   LINE      CODE     ---       #429
      010006D7H   LINE      CODE     ---       #430
      010006D9H   LINE      CODE     ---       #431
      010006DBH   LINE      CODE     ---       #433
      010006DCH   LINE      CODE     ---       #434
      010006DDH   LINE      CODE     ---       #435
      010006E0H   LINE      CODE     ---       #436
      010006E1H   LINE      CODE     ---       #437
      010006E4H   LINE      CODE     ---       #438
      010006E6H   LINE      CODE     ---       #442
      ---         BLOCKEND  ---      ---       LVL=0

LX51 LINKER/LOCATER V4.34a                                                            04/28/2009  16:35:35  PAGE 33


      010007CFH   BLOCK     CODE     NEAR LAB  LVL=0
      010007CFH   LINE      CODE     ---       #456
      010007D2H   LINE      CODE     ---       #460
      ---         BLOCKEND  ---      ---       LVL=0

      010005F8H   BLOCK     CODE     NEAR LAB  LVL=0
      010005F8H   LINE      CODE     ---       #474
      010005FAH   LINE      CODE     ---       #475
      010005FCH   LINE      CODE     ---       #476
      010005FEH   LINE      CODE     ---       #477
      01000600H   LINE      CODE     ---       #478
      01000601H   LINE      CODE     ---       #479
      01000603H   LINE      CODE     ---       #483
      01000605H   LINE      CODE     ---       #484
      01000606H   LINE      CODE     ---       #485
      01000607H   LINE      CODE     ---       #486
      01000608H   LINE      CODE     ---       #487
      01000609H   LINE      CODE     ---       #488
      0100060AH   LINE      CODE     ---       #489
      0100060CH   LINE      CODE     ---       #490
      0100060EH   LINE      CODE     ---       #491
      01000611H   LINE      CODE     ---       #492
      01000612H   LINE      CODE     ---       #493
      01000613H   LINE      CODE     ---       #494
      01000615H   LINE      CODE     ---       #497
      01000618H   LINE      CODE     ---       #501
      0100061AH   LINE      CODE     ---       #502
      0100061BH   LINE      CODE     ---       #503
      0100061CH   LINE      CODE     ---       #504
      0100061DH   LINE      CODE     ---       #505
      0100061EH   LINE      CODE     ---       #506
      0100061FH   LINE      CODE     ---       #507
      01000621H   LINE      CODE     ---       #508
      01000623H   LINE      CODE     ---       #509
      01000626H   LINE      CODE     ---       #510
      01000627H   LINE      CODE     ---       #511
      01000629H   LINE      CODE     ---       #512
      0100062AH   LINE      CODE     ---       #513
      0100062DH   LINE      CODE     ---       #516
      0100062FH   LINE      CODE     ---       #517
      01000631H   LINE      CODE     ---       #518
      ---         BLOCKEND  ---      ---       LVL=0

      ---         MODULE    ---      ---       SPI
      010007CAH   PUBLIC    CODE     NEAR LAB  _SPI_INIT
      0100078FH   PUBLIC    CODE     NEAR LAB  _SPI_WRITE_THEN_READ
      000000D0H.6 SFRSYM    DATA     BIT       AC
      000000E0H   SFRSYM    DATA     BYTE      ACC
      000000A1H   SFRSYM    DATA     BYTE      ADCCON
      000000A2H   SFRSYM    DATA     BYTE      ADCDATAH
      000000A3H   SFRSYM    DATA     BYTE      ADCDATAL
      000000A4H   SFRSYM    DATA     BYTE      ADCSTATIC
      000000F0H   SFRSYM    DATA     BYTE      B
      000000C8H.1 SFRSYM    DATA     BIT       C_T2
      000000A0H.6 SFRSYM    DATA     BIT       CE
      000000B6H   SFRSYM    DATA     BYTE      CK_CTRL
      0000008EH   SFRSYM    DATA     BYTE      CKCON
      000000A0H.1 SFRSYM    DATA     BIT       CLK1
      000000A0H.5 SFRSYM    DATA     BIT       CLK2
      000000C8H   SFRSYM    DATA     BIT       CP_RL2
      000000C8H   SFRSYM    DATA     BIT       CPRL2
      000000A0H.3 SFRSYM    DATA     BIT       CS
      000000C8H.1 SFRSYM    DATA     BIT       CT2
      000000D0H.7 SFRSYM    DATA     BIT       CY
      000000A0H   SFRSYM    DATA     BIT       DATA?
LX51 LINKER/LOCATER V4.34a                                                            04/28/2009  16:35:35  PAGE 34


      000000BEH   SFRSYM    DATA     BYTE      DEV_OFFSET
      00000090H.2 SFRSYM    DATA     BIT       DIN0
      00000090H   SFRSYM    DATA     BIT       DIO0
      00000090H.1 SFRSYM    DATA     BIT       DIO1
      00000080H   SFRSYM    DATA     BIT       DIO2
      00000080H.1 SFRSYM    DATA     BIT       DIO3
      00000080H.2 SFRSYM    DATA     BIT       DIO4
      00000080H.3 SFRSYM    DATA     BIT       DIO5
      00000080H.4 SFRSYM    DATA     BIT       DIO6
      00000080H.5 SFRSYM    DATA     BIT       DIO7
      00000080H.6 SFRSYM    DATA     BIT       DIO8
      00000080H.7 SFRSYM    DATA     BIT       DIO9
      000000A0H.4 SFRSYM    DATA     BIT       DOUT2
      00000083H   SFRSYM    DATA     BYTE      DPH
      00000083H   SFRSYM    DATA     BYTE      DPH0
      00000085H   SFRSYM    DATA     BYTE      DPH1
      00000082H   SFRSYM    DATA     BYTE      DPL
      00000082H   SFRSYM    DATA     BYTE      DPL0
      00000084H   SFRSYM    DATA     BYTE      DPL1
      00000086H   SFRSYM    DATA     BYTE      DPS
      000000A0H.2 SFRSYM    DATA     BIT       DR1
      000000A0H.6 SFRSYM    DATA     BIT       DR2
      000000A0H.6 SFRSYM    DATA     BIT       DR2_CE
      000000A8H.7 SFRSYM    DATA     BIT       EA
      000000D8H   SFRSYM    DATA     BYTE      EICON
      000000E8H   SFRSYM    DATA     BYTE      EIE
      000000F8H   SFRSYM    DATA     BYTE      EIP
      000000A8H.4 SFRSYM    DATA     BIT       ES
      000000A8H.1 SFRSYM    DATA     BIT       ET0
      000000A8H.3 SFRSYM    DATA     BIT       ET1
      000000A8H.5 SFRSYM    DATA     BIT       ET2
      000000E8H.4 SFRSYM    DATA     BIT       EWDI
      000000A8H   SFRSYM    DATA     BIT       EX0
      000000A8H.2 SFRSYM    DATA     BIT       EX1
      000000E8H   SFRSYM    DATA     BIT       EX2
      000000E8H.1 SFRSYM    DATA     BIT       EX3
      000000E8H.2 SFRSYM    DATA     BIT       EX4
      000000E8H.3 SFRSYM    DATA     BIT       EX5
      000000C8H.3 SFRSYM    DATA     BIT       EXEN2
      000000C8H.6 SFRSYM    DATA     BIT       EXF2
      00000091H   SFRSYM    DATA     BYTE      EXIF
      000000D0H.5 SFRSYM    DATA     BIT       F0
      000000D0H.1 SFRSYM    DATA     BIT       F1
      000000A8H   SFRSYM    DATA     BYTE      IE
      00000088H.1 SFRSYM    DATA     BIT       IE0
      00000088H.3 SFRSYM    DATA     BIT       IE1
      00000080H.3 SFRSYM    DATA     BIT       INT0_N
      00000080H.4 SFRSYM    DATA     BIT       INT1_N
      000000B8H   SFRSYM    DATA     BYTE      IP
      00000088H   SFRSYM    DATA     BIT       IT0
      00000088H.2 SFRSYM    DATA     BIT       IT1
      00000092H   SFRSYM    DATA     BYTE      MPAGE
      000000D0H.2 SFRSYM    DATA     BIT       OV
      000000D0H   SFRSYM    DATA     BIT       P
      00000080H   SFRSYM    DATA     BYTE      P0
      00000080H   SFRSYM    DATA     BIT       P0_0
      00000080H.1 SFRSYM    DATA     BIT       P0_1
      00000080H.2 SFRSYM    DATA     BIT       P0_2
      00000080H.3 SFRSYM    DATA     BIT       P0_3
      00000080H.4 SFRSYM    DATA     BIT       P0_4
      00000080H.5 SFRSYM    DATA     BIT       P0_5
      00000080H.6 SFRSYM    DATA     BIT       P0_6
      00000080H.7 SFRSYM    DATA     BIT       P0_7
      00000095H   SFRSYM    DATA     BYTE      P0_ALT
      00000094H   SFRSYM    DATA     BYTE      P0_DIR
LX51 LINKER/LOCATER V4.34a                                                            04/28/2009  16:35:35  PAGE 35


      00000090H   SFRSYM    DATA     BYTE      P1
      00000090H   SFRSYM    DATA     BIT       P1_0
      00000090H.1 SFRSYM    DATA     BIT       P1_1
      00000090H.2 SFRSYM    DATA     BIT       P1_2
      00000097H   SFRSYM    DATA     BYTE      P1_ALT
      00000096H   SFRSYM    DATA     BYTE      P1_DIR
      00000087H   SFRSYM    DATA     BYTE      PCON
      000000B8H.4 SFRSYM    DATA     BIT       PS
      000000D0H   SFRSYM    DATA     BYTE      PSW
      000000B8H.1 SFRSYM    DATA     BIT       PT0
      000000B8H.3 SFRSYM    DATA     BIT       PT1
      000000B8H.5 SFRSYM    DATA     BIT       PT2
      000000F8H.4 SFRSYM    DATA     BIT       PWDI
      00000080H.7 SFRSYM    DATA     BIT       PWM
      000000A9H   SFRSYM    DATA     BYTE      PWMCON
      000000AAH   SFRSYM    DATA     BYTE      PWMDUTY
      000000A0H.7 SFRSYM    DATA     BIT       PWR_UP
      000000B8H   SFRSYM    DATA     BIT       PX0
      000000B8H.2 SFRSYM    DATA     BIT       PX1
      000000F8H   SFRSYM    DATA     BIT       PX2
      000000F8H.1 SFRSYM    DATA     BIT       PX3
      000000F8H.2 SFRSYM    DATA     BIT       PX4
      000000F8H.3 SFRSYM    DATA     BIT       PX5
      000000A0H   SFRSYM    DATA     BYTE      RADIO
      00000098H.2 SFRSYM    DATA     BIT       RB8
      000000CBH   SFRSYM    DATA     BYTE      RCAP2H
      000000CAH   SFRSYM    DATA     BYTE      RCAP2L
      000000C8H.5 SFRSYM    DATA     BIT       RCLK
      000000ADH   SFRSYM    DATA     BYTE      REGX_CTRL
      000000ACH   SFRSYM    DATA     BYTE      REGX_LSB
      000000ABH   SFRSYM    DATA     BYTE      REGX_MSB
      00000098H.4 SFRSYM    DATA     BIT       REN
      00000098H   SFRSYM    DATA     BIT       RI
      000000D0H.3 SFRSYM    DATA     BIT       RS0
      000000D0H.4 SFRSYM    DATA     BIT       RS1
      000000B1H   SFRSYM    DATA     BYTE      RSTREAS
      00000080H.1 SFRSYM    DATA     BIT       RXD
      00000099H   SFRSYM    DATA     BYTE      SBUF
      00000098H   SFRSYM    DATA     BYTE      SCON
      00000098H.7 SFRSYM    DATA     BIT       SM0
      00000098H.6 SFRSYM    DATA     BIT       SM1
      00000098H.5 SFRSYM    DATA     BIT       SM2
      00000081H   SFRSYM    DATA     BYTE      SP
      0000008FH   SFRSYM    DATA     BYTE      SPC_FNC
      000000B3H   SFRSYM    DATA     BYTE      SPI_CTRL
      000000B2H   SFRSYM    DATA     BYTE      SPI_DATA
      000000B4H   SFRSYM    DATA     BYTE      SPICLK
      00000080H.5 SFRSYM    DATA     BIT       T0
      00000080H.6 SFRSYM    DATA     BIT       T1
      000000BCH   SFRSYM    DATA     BYTE      T1_1V2
      00000090H   SFRSYM    DATA     BIT       T2
      000000BDH   SFRSYM    DATA     BYTE      T2_1V2
      000000C8H   SFRSYM    DATA     BYTE      T2CON
      00000098H.3 SFRSYM    DATA     BIT       TB8
      000000C8H.4 SFRSYM    DATA     BIT       TCLK
      00000088H   SFRSYM    DATA     BYTE      TCON
      000000B7H   SFRSYM    DATA     BYTE      TEST_MODE
      00000088H.5 SFRSYM    DATA     BIT       TF0
      00000088H.7 SFRSYM    DATA     BIT       TF1
      000000C8H.7 SFRSYM    DATA     BIT       TF2
      0000008CH   SFRSYM    DATA     BYTE      TH0
      0000008DH   SFRSYM    DATA     BYTE      TH1
      000000CDH   SFRSYM    DATA     BYTE      TH2
      00000098H.1 SFRSYM    DATA     BIT       TI
      000000B5H   SFRSYM    DATA     BYTE      TICK_DV
LX51 LINKER/LOCATER V4.34a                                                            04/28/2009  16:35:35  PAGE 36


      0000008AH   SFRSYM    DATA     BYTE      TL0
      0000008BH   SFRSYM    DATA     BYTE      TL1
      000000CCH   SFRSYM    DATA     BYTE      TL2
      00000089H   SFRSYM    DATA     BYTE      TMOD
      00000088H.4 SFRSYM    DATA     BIT       TR0
      00000088H.6 SFRSYM    DATA     BIT       TR1
      000000C8H.2 SFRSYM    DATA     BIT       TR2
      00000080H.2 SFRSYM    DATA     BIT       TXD
      000000D8H.3 SFRSYM    DATA     BIT       WDTI
      01000794H   SYMBOL    CODE     NEAR LAB  ?C0002
      01000799H   SYMBOL    CODE     NEAR LAB  ?C0003
      0100079BH   SYMBOL    CODE     NEAR LAB  ?C0004

      010007CAH   BLOCK     CODE     NEAR LAB  LVL=0
      010007CAH   LINE      CODE     ---       #203
      010007CCH   LINE      CODE     ---       #206
      010007CEH   LINE      CODE     ---       #209
      ---         BLOCKEND  ---      ---       LVL=0

      0100078FH   BLOCK     CODE     NEAR LAB  LVL=0
      0100078FH   LINE      CODE     ---       #229
      01000792H   LINE      CODE     ---       #232
      01000794H   LINE      CODE     ---       #236
      01000796H   LINE      CODE     ---       #237
      01000799H   LINE      CODE     ---       #242
      0100079BH   LINE      CODE     ---       #246
      ---         BLOCKEND  ---      ---       LVL=0

      ---         MODULE    ---      ---       EEPROM
      01000696H   PUBLIC    CODE     NEAR LAB  _EEPROM_READ
      010005BDH   PUBLIC    CODE     NEAR LAB  _EEPROM_WRITE
      0100079CH   PUBLIC    CODE     NEAR LAB  EEPROM_INIT
      01000765H   PUBLIC    CODE     NEAR LAB  EEPROM_STATUS
      010006E7H   PUBLIC    CODE     NEAR LAB  FLASH_ERASE_ALL
      000000D0H.6 SFRSYM    DATA     BIT       AC
      000000E0H   SFRSYM    DATA     BYTE      ACC
      000000A1H   SFRSYM    DATA     BYTE      ADCCON
      000000A2H   SFRSYM    DATA     BYTE      ADCDATAH
      000000A3H   SFRSYM    DATA     BYTE      ADCDATAL
      000000A4H   SFRSYM    DATA     BYTE      ADCSTATIC
      000000F0H   SFRSYM    DATA     BYTE      B
      000000C8H.1 SFRSYM    DATA     BIT       C_T2
      000000A0H.6 SFRSYM    DATA     BIT       CE
      000000B6H   SFRSYM    DATA     BYTE      CK_CTRL
      0000008EH   SFRSYM    DATA     BYTE      CKCON
      000000A0H.1 SFRSYM    DATA     BIT       CLK1
      000000A0H.5 SFRSYM    DATA     BIT       CLK2
      000000C8H   SFRSYM    DATA     BIT       CP_RL2
      000000C8H   SFRSYM    DATA     BIT       CPRL2
      000000A0H.3 SFRSYM    DATA     BIT       CS
      000000C8H.1 SFRSYM    DATA     BIT       CT2
      000000D0H.7 SFRSYM    DATA     BIT       CY
      000000A0H   SFRSYM    DATA     BIT       DATA?
      000000BEH   SFRSYM    DATA     BYTE      DEV_OFFSET
      00000090H.2 SFRSYM    DATA     BIT       DIN0
      00000090H   SFRSYM    DATA     BIT       DIO0
      00000090H.1 SFRSYM    DATA     BIT       DIO1
      00000080H   SFRSYM    DATA     BIT       DIO2
      00000080H.1 SFRSYM    DATA     BIT       DIO3
      00000080H.2 SFRSYM    DATA     BIT       DIO4
      00000080H.3 SFRSYM    DATA     BIT       DIO5
      00000080H.4 SFRSYM    DATA     BIT       DIO6
      00000080H.5 SFRSYM    DATA     BIT       DIO7
      00000080H.6 SFRSYM    DATA     BIT       DIO8
      00000080H.7 SFRSYM    DATA     BIT       DIO9
LX51 LINKER/LOCATER V4.34a                                                            04/28/2009  16:35:35  PAGE 37


      000000A0H.4 SFRSYM    DATA     BIT       DOUT2
      00000083H   SFRSYM    DATA     BYTE      DPH
      00000083H   SFRSYM    DATA     BYTE      DPH0
      00000085H   SFRSYM    DATA     BYTE      DPH1
      00000082H   SFRSYM    DATA     BYTE      DPL
      00000082H   SFRSYM    DATA     BYTE      DPL0
      00000084H   SFRSYM    DATA     BYTE      DPL1
      00000086H   SFRSYM    DATA     BYTE      DPS
      000000A0H.2 SFRSYM    DATA     BIT       DR1
      000000A0H.6 SFRSYM    DATA     BIT       DR2
      000000A0H.6 SFRSYM    DATA     BIT       DR2_CE
      000000A8H.7 SFRSYM    DATA     BIT       EA
      000000D8H   SFRSYM    DATA     BYTE      EICON
      000000E8H   SFRSYM    DATA     BYTE      EIE
      000000F8H   SFRSYM    DATA     BYTE      EIP
      000000A8H.4 SFRSYM    DATA     BIT       ES
      000000A8H.1 SFRSYM    DATA     BIT       ET0
      000000A8H.3 SFRSYM    DATA     BIT       ET1
      000000A8H.5 SFRSYM    DATA     BIT       ET2
      000000E8H.4 SFRSYM    DATA     BIT       EWDI
      000000A8H   SFRSYM    DATA     BIT       EX0
      000000A8H.2 SFRSYM    DATA     BIT       EX1
      000000E8H   SFRSYM    DATA     BIT       EX2
      000000E8H.1 SFRSYM    DATA     BIT       EX3
      000000E8H.2 SFRSYM    DATA     BIT       EX4
      000000E8H.3 SFRSYM    DATA     BIT       EX5
      000000C8H.3 SFRSYM    DATA     BIT       EXEN2
      000000C8H.6 SFRSYM    DATA     BIT       EXF2
      00000091H   SFRSYM    DATA     BYTE      EXIF
      000000D0H.5 SFRSYM    DATA     BIT       F0
      000000D0H.1 SFRSYM    DATA     BIT       F1
      000000A8H   SFRSYM    DATA     BYTE      IE
      00000088H.1 SFRSYM    DATA     BIT       IE0
      00000088H.3 SFRSYM    DATA     BIT       IE1
      00000080H.3 SFRSYM    DATA     BIT       INT0_N
      00000080H.4 SFRSYM    DATA     BIT       INT1_N
      000000B8H   SFRSYM    DATA     BYTE      IP
      00000088H   SFRSYM    DATA     BIT       IT0
      00000088H.2 SFRSYM    DATA     BIT       IT1
      00000092H   SFRSYM    DATA     BYTE      MPAGE
      000000D0H.2 SFRSYM    DATA     BIT       OV
      000000D0H   SFRSYM    DATA     BIT       P
      00000080H   SFRSYM    DATA     BYTE      P0
      00000080H   SFRSYM    DATA     BIT       P0_0
      00000080H.1 SFRSYM    DATA     BIT       P0_1
      00000080H.2 SFRSYM    DATA     BIT       P0_2
      00000080H.3 SFRSYM    DATA     BIT       P0_3
      00000080H.4 SFRSYM    DATA     BIT       P0_4
      00000080H.5 SFRSYM    DATA     BIT       P0_5
      00000080H.6 SFRSYM    DATA     BIT       P0_6
      00000080H.7 SFRSYM    DATA     BIT       P0_7
      00000095H   SFRSYM    DATA     BYTE      P0_ALT
      00000094H   SFRSYM    DATA     BYTE      P0_DIR
      00000090H   SFRSYM    DATA     BYTE      P1
      00000090H   SFRSYM    DATA     BIT       P1_0
      00000090H.1 SFRSYM    DATA     BIT       P1_1
      00000090H.2 SFRSYM    DATA     BIT       P1_2
      00000097H   SFRSYM    DATA     BYTE      P1_ALT
      00000096H   SFRSYM    DATA     BYTE      P1_DIR
      00000087H   SFRSYM    DATA     BYTE      PCON
      000000B8H.4 SFRSYM    DATA     BIT       PS
      000000D0H   SFRSYM    DATA     BYTE      PSW
      000000B8H.1 SFRSYM    DATA     BIT       PT0
      000000B8H.3 SFRSYM    DATA     BIT       PT1
      000000B8H.5 SFRSYM    DATA     BIT       PT2
LX51 LINKER/LOCATER V4.34a                                                            04/28/2009  16:35:35  PAGE 38


      000000F8H.4 SFRSYM    DATA     BIT       PWDI
      00000080H.7 SFRSYM    DATA     BIT       PWM
      000000A9H   SFRSYM    DATA     BYTE      PWMCON
      000000AAH   SFRSYM    DATA     BYTE      PWMDUTY
      000000A0H.7 SFRSYM    DATA     BIT       PWR_UP
      000000B8H   SFRSYM    DATA     BIT       PX0
      000000B8H.2 SFRSYM    DATA     BIT       PX1
      000000F8H   SFRSYM    DATA     BIT       PX2
      000000F8H.1 SFRSYM    DATA     BIT       PX3
      000000F8H.2 SFRSYM    DATA     BIT       PX4
      000000F8H.3 SFRSYM    DATA     BIT       PX5
      000000A0H   SFRSYM    DATA     BYTE      RADIO
      00000098H.2 SFRSYM    DATA     BIT       RB8
      000000CBH   SFRSYM    DATA     BYTE      RCAP2H
      000000CAH   SFRSYM    DATA     BYTE      RCAP2L
      000000C8H.5 SFRSYM    DATA     BIT       RCLK
      000000ADH   SFRSYM    DATA     BYTE      REGX_CTRL
      000000ACH   SFRSYM    DATA     BYTE      REGX_LSB
      000000ABH   SFRSYM    DATA     BYTE      REGX_MSB
      00000098H.4 SFRSYM    DATA     BIT       REN
      00000098H   SFRSYM    DATA     BIT       RI
      000000D0H.3 SFRSYM    DATA     BIT       RS0
      000000D0H.4 SFRSYM    DATA     BIT       RS1
      000000B1H   SFRSYM    DATA     BYTE      RSTREAS
      00000080H.1 SFRSYM    DATA     BIT       RXD
      00000099H   SFRSYM    DATA     BYTE      SBUF
      00000098H   SFRSYM    DATA     BYTE      SCON
      00000098H.7 SFRSYM    DATA     BIT       SM0
      00000098H.6 SFRSYM    DATA     BIT       SM1
      00000098H.5 SFRSYM    DATA     BIT       SM2
      00000081H   SFRSYM    DATA     BYTE      SP
      0000008FH   SFRSYM    DATA     BYTE      SPC_FNC
      000000B3H   SFRSYM    DATA     BYTE      SPI_CTRL
      000000B2H   SFRSYM    DATA     BYTE      SPI_DATA
      000000B4H   SFRSYM    DATA     BYTE      SPICLK
      00000080H.5 SFRSYM    DATA     BIT       T0
      00000080H.6 SFRSYM    DATA     BIT       T1
      000000BCH   SFRSYM    DATA     BYTE      T1_1V2
      00000090H   SFRSYM    DATA     BIT       T2
      000000BDH   SFRSYM    DATA     BYTE      T2_1V2
      000000C8H   SFRSYM    DATA     BYTE      T2CON
      00000098H.3 SFRSYM    DATA     BIT       TB8
      000000C8H.4 SFRSYM    DATA     BIT       TCLK
      00000088H   SFRSYM    DATA     BYTE      TCON
      000000B7H   SFRSYM    DATA     BYTE      TEST_MODE
      00000088H.5 SFRSYM    DATA     BIT       TF0
      00000088H.7 SFRSYM    DATA     BIT       TF1
      000000C8H.7 SFRSYM    DATA     BIT       TF2
      0000008CH   SFRSYM    DATA     BYTE      TH0
      0000008DH   SFRSYM    DATA     BYTE      TH1
      000000CDH   SFRSYM    DATA     BYTE      TH2
      00000098H.1 SFRSYM    DATA     BIT       TI
      000000B5H   SFRSYM    DATA     BYTE      TICK_DV
      0000008AH   SFRSYM    DATA     BYTE      TL0
      0000008BH   SFRSYM    DATA     BYTE      TL1
      000000CCH   SFRSYM    DATA     BYTE      TL2
      00000089H   SFRSYM    DATA     BYTE      TMOD
      00000088H.4 SFRSYM    DATA     BIT       TR0
      00000088H.6 SFRSYM    DATA     BIT       TR1
      000000C8H.2 SFRSYM    DATA     BIT       TR2
      00000080H.2 SFRSYM    DATA     BIT       TXD
      000000D8H.3 SFRSYM    DATA     BIT       WDTI
      0000005DH   SYMBOL    DATA     BYTE      ?_EEPROM_READ?BYTE
      0000005AH   SYMBOL    DATA     BYTE      ?_EEPROM_WRITE?BYTE
      01000773H   SYMBOL    CODE     NEAR LAB  ?C0002
LX51 LINKER/LOCATER V4.34a                                                            04/28/2009  16:35:35  PAGE 39


      010005C3H   SYMBOL    CODE     NEAR LAB  ?C0003
      010005CAH   SYMBOL    CODE     NEAR LAB  ?C0004
      0100069DH   SYMBOL    CODE     NEAR LAB  ?C0006
      010006A4H   SYMBOL    CODE     NEAR LAB  ?C0007
      010006C1H   SYMBOL    CODE     NEAR LAB  ?C0008
      010006E7H   SYMBOL    CODE     NEAR LAB  ?C0009
      010006EEH   SYMBOL    CODE     NEAR LAB  ?C0010
      01000700H   SYMBOL    CODE     NEAR LAB  ?C0012
      0000005AH   SYMBOL    DATA     BYTE      ADDR?241
      0000005DH   SYMBOL    DATA     BYTE      ADDR?343
      0000005CH   SYMBOL    DATA     BYTE      BYTE?242
      0000005FH   SYMBOL    DATA     BYTE      BYTE?344

      0100079CH   BLOCK     CODE     NEAR LAB  LVL=0
      0100079CH   LINE      CODE     ---       #244
      0100079DH   LINE      CODE     ---       #245
      0100079EH   LINE      CODE     ---       #246
      010007A0H   LINE      CODE     ---       #247
      010007A3H   LINE      CODE     ---       #251
      010007A6H   LINE      CODE     ---       #254
      ---         BLOCKEND  ---      ---       LVL=0

      01000765H   BLOCK     CODE     NEAR LAB  LVL=0
      01000765H   LINE      CODE     ---       #270
      01000767H   LINE      CODE     ---       #273
      01000769H   LINE      CODE     ---       #274
      0100076CH   LINE      CODE     ---       #278
      0100076DH   LINE      CODE     ---       #279
      0100076EH   LINE      CODE     ---       #280
      01000771H   LINE      CODE     ---       #284
      01000773H   LINE      CODE     ---       #291
      ---         BLOCKEND  ---      ---       LVL=0

      010005BDH   BLOCK     CODE     NEAR LAB  LVL=0
      010005BDH   LINE      CODE     ---       #305
      010005BFH   LINE      CODE     ---       #306
      010005C1H   LINE      CODE     ---       #307
      010005C3H   LINE      CODE     ---       #313
      010005C6H   LINE      CODE     ---       #314
      010005C7H   LINE      CODE     ---       #315
      010005CAH   LINE      CODE     ---       #320
      010005CCH   LINE      CODE     ---       #323
      010005CEH   LINE      CODE     ---       #324
      010005D1H   LINE      CODE     ---       #327
      010005D3H   LINE      CODE     ---       #330
      010005D5H   LINE      CODE     ---       #333
      010005D7H   LINE      CODE     ---       #334
      010005DAH   LINE      CODE     ---       #337
      010005DCH   LINE      CODE     ---       #338
      010005DDH   LINE      CODE     ---       #339
      010005E0H   LINE      CODE     ---       #342
      010005E2H   LINE      CODE     ---       #343
      010005E4H   LINE      CODE     ---       #344
      010005E7H   LINE      CODE     ---       #347
      010005E9H   LINE      CODE     ---       #348
      010005ECH   LINE      CODE     ---       #351
      010005EEH   LINE      CODE     ---       #354
      010005F0H   LINE      CODE     ---       #357
      010005F2H   LINE      CODE     ---       #358
      010005F5H   LINE      CODE     ---       #361
      010005F7H   LINE      CODE     ---       #364
      ---         BLOCKEND  ---      ---       LVL=0

      01000696H   BLOCK     CODE     NEAR LAB  LVL=0
      01000696H   LINE      CODE     ---       #377
LX51 LINKER/LOCATER V4.34a                                                            04/28/2009  16:35:35  PAGE 40


      01000698H   LINE      CODE     ---       #378
      0100069AH   LINE      CODE     ---       #383
      0100069BH   LINE      CODE     ---       #384
      0100069DH   LINE      CODE     ---       #388
      010006A0H   LINE      CODE     ---       #389
      010006A1H   LINE      CODE     ---       #390
      010006A4H   LINE      CODE     ---       #395
      010006A6H   LINE      CODE     ---       #398
      010006A8H   LINE      CODE     ---       #399
      010006ABH   LINE      CODE     ---       #402
      010006ADH   LINE      CODE     ---       #403
      010006AEH   LINE      CODE     ---       #404
      010006B1H   LINE      CODE     ---       #407
      010006B3H   LINE      CODE     ---       #408
      010006B5H   LINE      CODE     ---       #409
      010006B8H   LINE      CODE     ---       #412
      010006B9H   LINE      CODE     ---       #413
      010006BAH   LINE      CODE     ---       #414
      010006BDH   LINE      CODE     ---       #415
      010006BFH   LINE      CODE     ---       #418
      010006C1H   LINE      CODE     ---       #424
      ---         BLOCKEND  ---      ---       LVL=0

      010006E7H   BLOCK     CODE     NEAR LAB  LVL=0
      010006E7H   LINE      CODE     ---       #440
      010006EAH   LINE      CODE     ---       #441
      010006EBH   LINE      CODE     ---       #442
      010006EEH   LINE      CODE     ---       #447
      010006F0H   LINE      CODE     ---       #450
      010006F2H   LINE      CODE     ---       #451
      010006F5H   LINE      CODE     ---       #454
      010006F7H   LINE      CODE     ---       #457
      010006F9H   LINE      CODE     ---       #460
      010006FBH   LINE      CODE     ---       #461
      010006FEH   LINE      CODE     ---       #464
      01000700H   LINE      CODE     ---       #472
      01000702H   LINE      CODE     ---       #475
      01000704H   LINE      CODE     ---       #476
      01000707H   LINE      CODE     ---       #479
      01000709H   LINE      CODE     ---       #482
      ---         BLOCKEND  ---      ---       LVL=0

      ---         MODULE    ---      ---       ?C_STARTUP
      01000000H   PUBLIC    CODE     ---       ?C_STARTUP

      ---         MODULE    ---      ---       ?C?CLDPTR
      01000056H   PUBLIC    CODE     ---       ?C?CLDPTR

      ---         MODULE    ---      ---       ?C?CLDOPTR
      0100006FH   PUBLIC    CODE     ---       ?C?CLDOPTR

      ---         MODULE    ---      ---       ?C?CSTPTR
      0100009CH   PUBLIC    CODE     ---       ?C?CSTPTR

      ---         MODULE    ---      ---       ?C?UIDIV
      010000AEH   PUBLIC    CODE     ---       ?C?UIDIV

      ---         MODULE    ---      ---       ?C?LMUL
      01000103H   PUBLIC    CODE     ---       ?C?LMUL

      ---         MODULE    ---      ---       ?C?ULDIV
      0100018EH   PUBLIC    CODE     ---       ?C?ULDIV

      ---         MODULE    ---      ---       ?C?ICASE
      01000220H   PUBLIC    CODE     ---       ?C?ICASE
LX51 LINKER/LOCATER V4.34a                                                            04/28/2009  16:35:35  PAGE 41



      ---         MODULE    ---      ---       ?C_IBP
      00000064H   PUBLIC    DATA     ---       ?C_IBP

      ---         MODULE    ---      ---       ?C_INIT
      01000377H   PUBLIC    CODE     ---       ?C_START

Program Size: data=109.0 xdata=0 const=0 code=2003
LX51 RUN COMPLETE.  0 WARNING(S),  0 ERROR(S)
