; ./paging.src generated from: .\paging.c
; COMPILER INVOKED BY:
;        C:\Keil\C51\BIN\C51.exe .\paging.c BROWSE DEBUG CODE LISTINCLUDE SYMBOLS PREPRINT INCDIR(../../Include) SRC(./paging.src)

$NOMOD51

NAME	PAGING

PWR_UP	BIT	0A0H.7
P0	DATA	080H
P1	DATA	090H
AC	BIT	0D0H.6
T0	BIT	080H.5
SPI_CTRL	DATA	0B3H
T1	BIT	080H.6
EA	BIT	0A8H.7
T2	BIT	090H.0
CE	BIT	0A0H.6
DEV_OFFSET	DATA	0BEH
CLK1	BIT	0A0H.1
DIN0	BIT	090H.2
CLK2	BIT	0A0H.5
DIO0	BIT	090H.0
DPH0	DATA	083H
DIO1	BIT	090H.1
IE	DATA	0A8H
DPH1	DATA	085H
DIO2	BIT	080H.0
DIO3	BIT	080H.1
P0_0	BIT	080H.0
P1_0	BIT	090H.0
DIO4	BIT	080H.2
P0_1	BIT	080H.1
DPL0	DATA	082H
P1_1	BIT	090H.1
DIO5	BIT	080H.3
P0_2	BIT	080H.2
DPL1	DATA	084H
P1_2	BIT	090H.2
DIO6	BIT	080H.4
P0_3	BIT	080H.3
DIO7	BIT	080H.5
P0_4	BIT	080H.4
ADCSTATIC	DATA	0A4H
DIO8	BIT	080H.6
P0_5	BIT	080H.5
EXF2	BIT	0C8H.6
CS	BIT	0A0H.3
DIO9	BIT	080H.7
P0_6	BIT	080H.6
P0_7	BIT	080H.7
ES	BIT	0A8H.4
IP	DATA	0B8H
DATA?	BIT	0A0H.0
RI	BIT	098H.0
CY	BIT	0D0H.7
TI	BIT	098H.1
T1_1V2	DATA	0BCH
SPC_FNC	DATA	08FH
T2_1V2	DATA	0BDH
RCAP2H	DATA	0CBH
PS	BIT	0B8H.4
SP	DATA	081H
OV	BIT	0D0H.2
CK_CTRL	DATA	0B6H
RCAP2L	DATA	0CAH
TICK_DV	DATA	0B5H
RSTREAS	DATA	0B1H
C_T2	BIT	0C8H.1
EWDI	BIT	0E8H.4
ADCCON	DATA	0A1H
RCLK	BIT	0C8H.5
ADCDATAH	DATA	0A2H
EXIF	DATA	091H
TCLK	BIT	0C8H.4
DR2_CE	BIT	0A0H.6
ADCDATAL	DATA	0A3H
SBUF	DATA	099H
PCON	DATA	087H
SCON	DATA	098H
PWDI	BIT	0F8H.4
TMOD	DATA	089H
TCON	DATA	088H
WDTI	BIT	0D8H.3
PWMDUTY	DATA	0AAH
IE0	BIT	088H.1
IE1	BIT	088H.3
P0_DIR	DATA	094H
B	DATA	0F0H
P1_DIR	DATA	096H
P0_ALT	DATA	095H
P1_ALT	DATA	097H
CP_RL2	BIT	0C8H.0
DR1	BIT	0A0H.2
ACC	DATA	0E0H
DR2	BIT	0A0H.6
TEST_MODE	DATA	0B7H
SPICLK	DATA	0B4H
CT2	BIT	0C8H.1
ET0	BIT	0A8H.1
ET1	BIT	0A8H.3
TF0	BIT	088H.5
INT0_N	BIT	080H.3
ET2	BIT	0A8H.5
TF1	BIT	088H.7
INT1_N	BIT	080H.4
TF2	BIT	0C8H.7
RB8	BIT	098H.2
TH0	DATA	08CH
EX0	BIT	0A8H.0
IT0	BIT	088H.0
TH1	DATA	08DH
EX1	BIT	0A8H.2
TB8	BIT	098H.3
IT1	BIT	088H.2
TH2	DATA	0CDH
REGX_CTRL	DATA	0ADH
EX2	BIT	0E8H.0
P	BIT	0D0H.0
EX3	BIT	0E8H.1
SM0	BIT	098H.7
TL0	DATA	08AH
EX4	BIT	0E8H.2
SM1	BIT	098H.6
TL1	DATA	08BH
EX5	BIT	0E8H.3
SM2	BIT	098H.5
TL2	DATA	0CCH
EIE	DATA	0E8H
PT0	BIT	0B8H.1
RS0	BIT	0D0H.3
PT1	BIT	0B8H.3
RS1	BIT	0D0H.4
PT2	BIT	0B8H.5
TR0	BIT	088H.4
PWMCON	DATA	0A9H
TR1	BIT	088H.6
TR2	BIT	0C8H.2
PX0	BIT	0B8H.0
PX1	BIT	0B8H.2
PX2	BIT	0F8H.0
PX3	BIT	0F8H.1
PX4	BIT	0F8H.2
DPH	DATA	083H
PX5	BIT	0F8H.3
EIP	DATA	0F8H
DPL	DATA	082H
EXEN2	BIT	0C8H.3
CPRL2	BIT	0C8H.0
REN	BIT	098H.4
T2CON	DATA	0C8H
DPS	DATA	086H
SPI_DATA	DATA	0B2H
MPAGE	DATA	092H
RXD	BIT	080H.1
DOUT2	BIT	0A0H.4
EICON	DATA	0D8H
CKCON	DATA	08EH
TXD	BIT	080H.2
RADIO	DATA	0A0H
PWM	BIT	080H.7
F0	BIT	0D0H.5
F1	BIT	0D0H.1
REGX_LSB	DATA	0ACH
PSW	DATA	0D0H
REGX_MSB	DATA	0ABH
?PR?ECO_PAGE_INIT?PAGING                 SEGMENT CODE 
?PR?_ECO_PAGE_TABLE_UPDATE?PAGING        SEGMENT CODE 
?PR?ECO_PAGE_SEGMENT_UPDATE?PAGING       SEGMENT CODE 
?DT?ECO_PAGE_SEGMENT_UPDATE?PAGING       SEGMENT DATA OVERLAYABLE 
?PR?ECO_PAGE_MANAGER?PAGING              SEGMENT CODE 
?DT?ECO_PAGE_MANAGER?PAGING              SEGMENT DATA OVERLAYABLE 
?PR?_blink_led_auto?PAGING               SEGMENT CODE 
?DT?_blink_led_auto?PAGING               SEGMENT DATA OVERLAYABLE 
?PR?_blink_led_by_time?PAGING            SEGMENT CODE 
?DT?_blink_led_by_time?PAGING            SEGMENT DATA OVERLAYABLE 
?PR?blink_fast?PAGING                    SEGMENT CODE 
?DT?blink_fast?PAGING                    SEGMENT DATA OVERLAYABLE 
?PR?blink_fast2?PAGING                   SEGMENT CODE 
?DT?blink_fast2?PAGING                   SEGMENT DATA OVERLAYABLE 
?PR?main?PAGING      SEGMENT CODE 
?DT?main?PAGING      SEGMENT DATA OVERLAYABLE 
?DT?PAGING           SEGMENT DATA 
	EXTRN	CODE (_mdelay)
	EXTRN	CODE (_eeprom_read)
	EXTRN	CODE (eeprom_init)
	EXTRN	CODE (_store_cpu_rate)
	EXTRN	CODE (?C?IMUL)
	EXTRN	CODE (?C_STARTUP)
	EXTRN	CODE (?C?ICALL2)
	PUBLIC	main
	PUBLIC	blink_fast2
	PUBLIC	blink_fast
	PUBLIC	_blink_led_by_time
	PUBLIC	?_blink_led_auto?BYTE
	PUBLIC	_blink_led_auto
	PUBLIC	ECO_PAGE_MANAGER
	PUBLIC	ECO_PAGE_SEGMENT_UPDATE
	PUBLIC	_ECO_PAGE_TABLE_UPDATE
	PUBLIC	ECO_PAGE_INIT

	RSEG  ?DT?blink_fast?PAGING
?blink_fast?BYTE:
          i?655:   DS   2

	RSEG  ?DT?main?PAGING
?main?BYTE:
          i?857:   DS   2

	RSEG  ?DT?ECO_PAGE_MANAGER?PAGING
?ECO_PAGE_MANAGER?BYTE:
	ORG  4
        seg?343:   DS   2
	ORG  0
          i?344:   DS   2
	ORG  2
 page_index?345:   DS   2

	RSEG  ?DT?_blink_led_auto?PAGING
?_blink_led_auto?BYTE:
          x?446:   DS   2
	ORG  2
          y?447:   DS   2
	ORG  4
          z?448:   DS   2
	ORG  6
          w?449:   DS   2
	ORG  8
          s?450:   DS   2
	ORG  10
          i?451:   DS   2

	RSEG  ?DT?blink_fast2?PAGING
?blink_fast2?BYTE:
          i?756:   DS   2

	RSEG  ?DT?ECO_PAGE_SEGMENT_UPDATE?PAGING
?ECO_PAGE_SEGMENT_UPDATE?BYTE:
        seg?242:   DS   2

	RSEG  ?DT?_blink_led_by_time?PAGING
?_blink_led_by_time?BYTE:
      times?552:   DS   2
	ORG  2
       slot?553:   DS   2
	ORG  4
          i?554:   DS   2

	RSEG  ?DT?PAGING
 ECO_PAGE_TABLE:   DS   10
  ECO_PAGE_ADDR:   DS   2
ECO_PAGE_TABLE_INDEX:   DS   2
; #include "Eco/reg24e1.h"
; #include "Eco/eco_sys.h"
; #include "utils/utils.h"
; #include "eeprom/eeprom.h"
; #include "eco_page.h"
; 
; #define EEPROM_HEADER 3
; #define ECO_PAGE_ADDR_OFFSET	6
; #define ECO_ADDR_SHIFT(x)	((unsigned int)(x) + 3)
; 
; //static unsigned char ECO_PAGE_TABLE[10];
; 
; //extern ECO_PAGE_ADDR;
; 
; 
; 
; void ECO_PAGE_INIT()

	RSEG  ?PR?ECO_PAGE_INIT?PAGING
ECO_PAGE_INIT:
			; SOURCE LINE # 17
; {
			; SOURCE LINE # 18
; 	
; 	ECO_PAGE_TABLE_INDEX = 5;
			; SOURCE LINE # 20
	MOV  	ECO_PAGE_TABLE_INDEX,#00H
	MOV  	ECO_PAGE_TABLE_INDEX+01H,#05H
; 		
; 	ECO_PAGE_TABLE[0] = -1;
			; SOURCE LINE # 22
	MOV  	ECO_PAGE_TABLE,#0FFH
; 	ECO_PAGE_TABLE[1] = -1;
			; SOURCE LINE # 23
	MOV  	ECO_PAGE_TABLE+01H,#0FFH
; 	ECO_PAGE_TABLE[2] = 8;
			; SOURCE LINE # 24
	MOV  	ECO_PAGE_TABLE+02H,#08H
; 	ECO_PAGE_TABLE[3] = -1;
			; SOURCE LINE # 25
	MOV  	ECO_PAGE_TABLE+03H,#0FFH
; 	ECO_PAGE_TABLE[4] = -1;
			; SOURCE LINE # 26
	MOV  	ECO_PAGE_TABLE+04H,#0FFH
; 	ECO_PAGE_TABLE[5] = -1;
			; SOURCE LINE # 27
	MOV  	ECO_PAGE_TABLE+05H,#0FFH
; 	ECO_PAGE_TABLE[6] = -1;
			; SOURCE LINE # 28
	MOV  	ECO_PAGE_TABLE+06H,#0FFH
; 	ECO_PAGE_TABLE[7] = -1;
			; SOURCE LINE # 29
	MOV  	ECO_PAGE_TABLE+07H,#0FFH
; 	ECO_PAGE_TABLE[8] = -1;
			; SOURCE LINE # 30
	MOV  	ECO_PAGE_TABLE+08H,#0FFH
; 	ECO_PAGE_TABLE[9] = -1; 
			; SOURCE LINE # 31
	MOV  	ECO_PAGE_TABLE+09H,#0FFH
; 
; }
			; SOURCE LINE # 33
	RET  	
; END OF ECO_PAGE_INIT

; 
; void ECO_PAGE_TABLE_UPDATE(int index,int page_number)

	RSEG  ?PR?_ECO_PAGE_TABLE_UPDATE?PAGING
_ECO_PAGE_TABLE_UPDATE:
	USING	0
			; SOURCE LINE # 35
;---- Variable 'page_number?141' assigned to Register 'R4/R5' ----
;---- Variable 'index?140' assigned to Register 'R6/R7' ----
; {
			; SOURCE LINE # 36
; 	ECO_PAGE_TABLE[index] = page_number;
			; SOURCE LINE # 37
	MOV  	A,#LOW (ECO_PAGE_TABLE)
	ADD  	A,R7
	MOV  	R0,A
	MOV  	@R0,AR5
; }
			; SOURCE LINE # 38
	RET  	
; END OF _ECO_PAGE_TABLE_UPDATE

; 
; void ECO_PAGE_SEGMENT_UPDATE()

	RSEG  ?PR?ECO_PAGE_SEGMENT_UPDATE?PAGING
ECO_PAGE_SEGMENT_UPDATE:
			; SOURCE LINE # 40
; {
			; SOURCE LINE # 41
; 	unsigned char xdata *seg = (unsigned char xdata *)(0x500);
			; SOURCE LINE # 42
	MOV  	seg?242,#05H
	MOV  	seg?242+01H,#00H
; 	
; }
			; SOURCE LINE # 44
	RET  	
; END OF ECO_PAGE_SEGMENT_UPDATE

; 
; void ECO_PAGE_MANAGER()

	RSEG  ?PR?ECO_PAGE_MANAGER?PAGING
ECO_PAGE_MANAGER:
	USING	0
			; SOURCE LINE # 46
; {
			; SOURCE LINE # 47
; 	unsigned int i,page_index = -1;	
			; SOURCE LINE # 48
	MOV  	A,#0FFH
	MOV  	page_index?345,A
	MOV  	page_index?345+01H,A
; 		
; 	//Check POP instruction 
; 	for(i=0;i<10;i++)
			; SOURCE LINE # 51
	CLR  	A
	MOV  	i?344,A
	MOV  	i?344+01H,A
?C0004:
; 	{	
			; SOURCE LINE # 52
; 		blink_led();
			; SOURCE LINE # 53
	XRL  	P0,#020H
; 		mdelay(400);
			; SOURCE LINE # 54
	MOV  	R7,#090H
	MOV  	R6,#01H
	LCALL	_mdelay
; 	}	
			; SOURCE LINE # 55
	INC  	i?344+01H
	MOV  	A,i?344+01H
	JNZ  	?C0043
	INC  	i?344
?C0043:
	CLR  	C
	SUBB 	A,#0AH
	MOV  	A,i?344
	SUBB 	A,#00H
	JC   	?C0004
?C0005:
; 
; 	mdelay(1000);
			; SOURCE LINE # 57
	MOV  	R7,#0E8H
	MOV  	R6,#03H
	LCALL	_mdelay
; 		
; 	//Check Table	
; 	for(i=0;i<10;i++)
			; SOURCE LINE # 60
	CLR  	A
	MOV  	i?344,A
	MOV  	i?344+01H,A
?C0007:
; 	{
			; SOURCE LINE # 61
; 		if(ECO_PAGE_ADDR == (ECO_PAGE_TABLE[i] << 8))
			; SOURCE LINE # 62
	MOV  	A,#LOW (ECO_PAGE_TABLE)
	ADD  	A,i?344+01H
	MOV  	R0,A
	MOV  	A,@R0
	MOV  	R6,A
	CLR  	A
	CJNE 	A,ECO_PAGE_ADDR+01H,?C0009
	MOV  	A,R6
	CJNE 	A,ECO_PAGE_ADDR,?C0009
; 		{
			; SOURCE LINE # 63
; 			page_index = i;
			; SOURCE LINE # 64
	MOV  	page_index?345,i?344
	MOV  	page_index?345+01H,i?344+01H
; 			break;		
			; SOURCE LINE # 65
	SJMP 	?C0008
; 		}	
			; SOURCE LINE # 66
; 		
; 	}
			; SOURCE LINE # 68
?C0009:
	INC  	i?344+01H
	MOV  	A,i?344+01H
	JNZ  	?C0045
	INC  	i?344
?C0045:
	XRL  	A,#0AH
	ORL  	A,i?344
	JNZ  	?C0007
?C0008:
; 	if(page_index != -1)
			; SOURCE LINE # 69
	MOV  	A,page_index?345+01H
	CPL  	A
	JNZ  	?C0046
	MOV  	A,page_index?345
	CPL  	A
?C0046:
	JZ   	?C0011
; 	{
			; SOURCE LINE # 70
; 		//memory page is in ram
; 		for(i=0;i<4;i++)
			; SOURCE LINE # 72
	CLR  	A
	MOV  	i?344,A
	MOV  	i?344+01H,A
?C0012:
; 		{
			; SOURCE LINE # 73
; 			blink_led();
			; SOURCE LINE # 74
	XRL  	P0,#020H
; 			mdelay(400);
			; SOURCE LINE # 75
	MOV  	R7,#090H
	MOV  	R6,#01H
	LCALL	_mdelay
; 		}
			; SOURCE LINE # 76
	INC  	i?344+01H
	MOV  	A,i?344+01H
	JNZ  	?C0047
	INC  	i?344
?C0047:
	CLR  	C
	SUBB 	A,#04H
	MOV  	A,i?344
	SUBB 	A,#00H
	JC   	?C0012
?C0013:
; 		ECO_PAGE_ADDR = (page_index + ECO_PAGE_ADDR_OFFSET) << 8;
			; SOURCE LINE # 77
	MOV  	A,page_index?345+01H
	ADD  	A,#06H
	MOV  	R7,A
	CLR  	A
	ADDC 	A,page_index?345
	MOV  	A,R7
	MOV  	ECO_PAGE_ADDR+01H,#00H
	MOV  	ECO_PAGE_ADDR,A
; 		#pragma asm
; 		MOV	DPH,ECO_PAGE_ADDR
	  MOV	DPH,ECO_PAGE_ADDR
; 		MOV	DPL,ECO_PAGE_ADDR+01H
	  MOV	DPL,ECO_PAGE_ADDR+01H
 	LCALL	?C?ICALL2
	  
; 		#pragma endasm
; 	}
			; SOURCE LINE # 83
	SJMP 	?C0015
?C0011:
; 	else
; 	{
			; SOURCE LINE # 85
; 		//page fault
; 		/* Move Data from EEPROM to iRAM */	
; 		unsigned char xdata *seg = (unsigned char xdata *)((ECO_PAGE_TABLE_INDEX + ECO_PAGE_ADDR_OFFSET)<<8);	
			; SOURCE LINE # 88
	MOV  	A,ECO_PAGE_TABLE_INDEX+01H
	ADD  	A,#06H
	MOV  	R7,A
	MOV  	A,R7
	MOV  	seg?343,A
	MOV  	seg?343+01H,#00H
; 			
; 		for(i=0;i<256;i++)
			; SOURCE LINE # 90
	CLR  	A
	MOV  	i?344,A
	MOV  	i?344+01H,A
?C0016:
; 		{
			; SOURCE LINE # 91
; 			*(seg+i) = eeprom_read(ECO_ADDR_SHIFT(ECO_PAGE_ADDR) +i);
			; SOURCE LINE # 92
	MOV  	A,ECO_PAGE_ADDR+01H
	ADD  	A,#03H
	XCH  	A,R7
	CLR  	A
	ADDC 	A,ECO_PAGE_ADDR
	XCH  	A,R7
	ADD  	A,i?344+01H
	XCH  	A,R7
	ADDC 	A,i?344
	MOV  	R6,A
	LCALL	_eeprom_read
	MOV  	A,seg?343+01H
	ADD  	A,i?344+01H
	MOV  	DPL,A
	MOV  	A,seg?343
	ADDC 	A,i?344
	MOV  	DPH,A
	MOV  	A,R7
	MOVX 	@DPTR,A
; 		}
			; SOURCE LINE # 93
	INC  	i?344+01H
	MOV  	A,i?344+01H
	JNZ  	?C0048
	INC  	i?344
?C0048:
	CLR  	C
	MOV  	A,i?344
	SUBB 	A,#01H
	JC   	?C0016
?C0017:
; 
; 		//Update Page Table
; 		ECO_PAGE_TABLE[ECO_PAGE_TABLE_INDEX] = ECO_PAGE_ADDR >> 8;
			; SOURCE LINE # 96
	MOV  	A,ECO_PAGE_ADDR
	MOV  	R7,A
	MOV  	A,#LOW (ECO_PAGE_TABLE)
	ADD  	A,ECO_PAGE_TABLE_INDEX+01H
	MOV  	R0,A
	MOV  	@R0,AR7
; 		
; 		//Update Page Address
; 		ECO_PAGE_ADDR = ((ECO_PAGE_TABLE_INDEX + ECO_PAGE_ADDR_OFFSET) << 8);
			; SOURCE LINE # 99
	MOV  	A,ECO_PAGE_TABLE_INDEX+01H
	ADD  	A,#06H
	MOV  	R7,A
	CLR  	A
	ADDC 	A,ECO_PAGE_TABLE_INDEX
	MOV  	A,R7
	MOV  	ECO_PAGE_ADDR+01H,#00H
	MOV  	ECO_PAGE_ADDR,A
; 	
; 		ECO_PAGE_TABLE_INDEX++;
			; SOURCE LINE # 101
	INC  	ECO_PAGE_TABLE_INDEX+01H
	MOV  	A,ECO_PAGE_TABLE_INDEX+01H
	JNZ  	?C0049
	INC  	ECO_PAGE_TABLE_INDEX
?C0049:
; 	
; 		//Jump	to Function Address	
; 		
; 		#pragma asm
; 		MOV	DPH,ECO_PAGE_ADDR
	  MOV	DPH,ECO_PAGE_ADDR
; 		MOV	DPL,ECO_PAGE_ADDR+01H
	  MOV	DPL,ECO_PAGE_ADDR+01H
 		LCALL	?C?ICALL2		
	  
; 		#pragma endasm
; 			
; 	}
			; SOURCE LINE # 111
?C0015:
; 	mdelay(1);
			; SOURCE LINE # 112
	MOV  	R7,#01H
	MOV  	R6,#00H
	LJMP 	_mdelay
; END OF ECO_PAGE_MANAGER

; }
; 
; int blink_led_auto(int x,int y,int z,int w,int s)

	RSEG  ?PR?_blink_led_auto?PAGING
_blink_led_auto:
	USING	0
			; SOURCE LINE # 115
	MOV  	x?446,R6
	MOV  	x?446+01H,R7
	MOV  	y?447,R4
	MOV  	y?447+01H,R5
	MOV  	z?448,R2
	MOV  	z?448+01H,R3
; {
			; SOURCE LINE # 116
; 	int i;
; 
; 	for(i=0;i<x;i++)
			; SOURCE LINE # 119
	CLR  	A
	MOV  	i?451,A
	MOV  	i?451+01H,A
?C0020:
	CLR  	C
	MOV  	A,i?451+01H
	SUBB 	A,x?446+01H
	MOV  	A,x?446
	XRL  	A,#080H
	MOV  	R0,A
	MOV  	A,i?451
	XRL  	A,#080H
	SUBB 	A,R0
	JNC  	?C0021
; 	{
			; SOURCE LINE # 120
; 		blink_led();
			; SOURCE LINE # 121
	XRL  	P0,#020H
; 		mdelay(y*100);
			; SOURCE LINE # 122
	MOV  	R6,y?447
	MOV  	R7,y?447+01H
	MOV  	R4,#00H
	MOV  	R5,#064H
	LCALL	?C?IMUL
	LCALL	_mdelay
; 	}
			; SOURCE LINE # 123
	INC  	i?451+01H
	MOV  	A,i?451+01H
	JNZ  	?C0020
	INC  	i?451
?C0050:
	SJMP 	?C0020
?C0021:
; 
; 	for(i=0;i<w;i++)
			; SOURCE LINE # 125
	CLR  	A
	MOV  	i?451,A
	MOV  	i?451+01H,A
?C0023:
	CLR  	C
	MOV  	A,i?451+01H
	SUBB 	A,w?449+01H
	MOV  	A,w?449
	XRL  	A,#080H
	MOV  	R0,A
	MOV  	A,i?451
	XRL  	A,#080H
	SUBB 	A,R0
	JNC  	?C0024
; 	{
			; SOURCE LINE # 126
; 		blink_led();
			; SOURCE LINE # 127
	XRL  	P0,#020H
; 		mdelay(z*100);
			; SOURCE LINE # 128
	MOV  	R6,z?448
	MOV  	R7,z?448+01H
	MOV  	R4,#00H
	MOV  	R5,#064H
	LCALL	?C?IMUL
	LCALL	_mdelay
; 	}
			; SOURCE LINE # 129
	INC  	i?451+01H
	MOV  	A,i?451+01H
	JNZ  	?C0023
	INC  	i?451
?C0051:
	SJMP 	?C0023
?C0024:
; 
; 	mdelay(s*100);
			; SOURCE LINE # 131
	MOV  	R6,s?450
	MOV  	R7,s?450+01H
	MOV  	R4,#00H
	MOV  	R5,#064H
	LCALL	?C?IMUL
	LCALL	_mdelay
; 
; 	return x+y+z;
			; SOURCE LINE # 133
	MOV  	A,x?446+01H
	ADD  	A,y?447+01H
	XCH  	A,R7
	MOV  	A,x?446
	ADDC 	A,y?447
	XCH  	A,R7
	ADD  	A,z?448+01H
	XCH  	A,R7
	ADDC 	A,z?448
	MOV  	R6,A
; }
			; SOURCE LINE # 134
?C0026:
	RET  	
; END OF _blink_led_auto

; 
; void blink_led_by_time(int times,int slot)

	RSEG  ?PR?_blink_led_by_time?PAGING
_blink_led_by_time:
	USING	0
			; SOURCE LINE # 136
	MOV  	times?552,R6
	MOV  	times?552+01H,R7
	MOV  	slot?553,R4
	MOV  	slot?553+01H,R5
; {
			; SOURCE LINE # 137
; 	int i;
; 	for(i=0;i<times;i++)
			; SOURCE LINE # 139
	CLR  	A
	MOV  	i?554,A
	MOV  	i?554+01H,A
?C0027:
	CLR  	C
	MOV  	A,i?554+01H
	SUBB 	A,times?552+01H
	MOV  	A,times?552
	XRL  	A,#080H
	MOV  	R0,A
	MOV  	A,i?554
	XRL  	A,#080H
	SUBB 	A,R0
	JNC  	?C0030
; 	{
			; SOURCE LINE # 140
; 		blink_led();
			; SOURCE LINE # 141
	XRL  	P0,#020H
; 		mdelay(slot*100);
			; SOURCE LINE # 142
	MOV  	R6,slot?553
	MOV  	R7,slot?553+01H
	MOV  	R4,#00H
	MOV  	R5,#064H
	LCALL	?C?IMUL
	LCALL	_mdelay
; 	}
			; SOURCE LINE # 143
	INC  	i?554+01H
	MOV  	A,i?554+01H
	JNZ  	?C0027
	INC  	i?554
?C0052:
	SJMP 	?C0027
; }
			; SOURCE LINE # 144
?C0030:
	RET  	
; END OF _blink_led_by_time

; 
; 
; void blink_fast()

	RSEG  ?PR?blink_fast?PAGING
blink_fast:
	USING	0
			; SOURCE LINE # 147
; {
			; SOURCE LINE # 148
; 	int i;
; 	mdelay(400);
			; SOURCE LINE # 150
	MOV  	R7,#090H
	MOV  	R6,#01H
	LCALL	_mdelay
; 	for(i=0;i<14;i++)	
			; SOURCE LINE # 151
	CLR  	A
	MOV  	i?655,A
	MOV  	i?655+01H,A
?C0031:
; 	{
			; SOURCE LINE # 152
; 		blink_led();	
			; SOURCE LINE # 153
	XRL  	P0,#020H
; 		mdelay(300);
			; SOURCE LINE # 154
	MOV  	R7,#02CH
	MOV  	R6,#01H
	LCALL	_mdelay
; 	}
			; SOURCE LINE # 155
	INC  	i?655+01H
	MOV  	A,i?655+01H
	JNZ  	?C0053
	INC  	i?655
?C0053:
	CLR  	C
	SUBB 	A,#0EH
	MOV  	A,i?655
	XRL  	A,#080H
	SUBB 	A,#080H
	JC   	?C0031
; }
			; SOURCE LINE # 156
?C0034:
	RET  	
; END OF blink_fast

; void blink_fast2()

	RSEG  ?PR?blink_fast2?PAGING
blink_fast2:
	USING	0
			; SOURCE LINE # 157
; {
			; SOURCE LINE # 158
; 	int i;
; 	mdelay(400);
			; SOURCE LINE # 160
	MOV  	R7,#090H
	MOV  	R6,#01H
	LCALL	_mdelay
; 	for(i=0;i<12;i++)	
			; SOURCE LINE # 161
	CLR  	A
	MOV  	i?756,A
	MOV  	i?756+01H,A
?C0035:
; 	{
			; SOURCE LINE # 162
; 		blink_led();	
			; SOURCE LINE # 163
	XRL  	P0,#020H
; 		mdelay(400);
			; SOURCE LINE # 164
	MOV  	R7,#090H
	MOV  	R6,#01H
	LCALL	_mdelay
; 	}
			; SOURCE LINE # 165
	INC  	i?756+01H
	MOV  	A,i?756+01H
	JNZ  	?C0054
	INC  	i?756
?C0054:
	CLR  	C
	SUBB 	A,#0CH
	MOV  	A,i?756
	XRL  	A,#080H
	SUBB 	A,#080H
	JC   	?C0035
; }
			; SOURCE LINE # 166
?C0038:
	RET  	
; END OF blink_fast2

; 
; 
; 
; void main(void)

	RSEG  ?PR?main?PAGING
main:
	USING	0
			; SOURCE LINE # 170
; {
			; SOURCE LINE # 171
; 	int i;
; 	//unsigned char xdata *seg = (unsigned char xdata *)(0x500);
; 
; 	//int auto_i;
; 	
; 	//init LED
; 	P0_DIR &= ~0x28;
			; SOURCE LINE # 178
	ANL  	P0_DIR,#0D7H
; 	P0_ALT &= ~0x28;
			; SOURCE LINE # 179
	ANL  	P0_ALT,#0D7H
; 
; 	store_cpu_rate(16);
			; SOURCE LINE # 181
	MOV  	R7,#010H
	MOV  	R6,#00H
	LCALL	_store_cpu_rate
; 
; 	for(i=0;i<6;i++)
			; SOURCE LINE # 183
	CLR  	A
	MOV  	i?857,A
	MOV  	i?857+01H,A
?C0039:
; 	{
			; SOURCE LINE # 184
; 		//LED blink
; 		blink_led();
			; SOURCE LINE # 186
	XRL  	P0,#020H
; 		mdelay(200);
			; SOURCE LINE # 187
	MOV  	R7,#0C8H
	MOV  	R6,#00H
	LCALL	_mdelay
; 	}
			; SOURCE LINE # 188
	INC  	i?857+01H
	MOV  	A,i?857+01H
	JNZ  	?C0055
	INC  	i?857
?C0055:
	CLR  	C
	SUBB 	A,#06H
	MOV  	A,i?857
	XRL  	A,#080H
	SUBB 	A,#080H
	JC   	?C0039
?C0040:
; 
; 	mdelay(1000);	
			; SOURCE LINE # 190
	MOV  	R7,#0E8H
	MOV  	R6,#03H
	LCALL	_mdelay
; 		
; 	eeprom_init();
			; SOURCE LINE # 192
	LCALL	eeprom_init
; 	
; 	//Get data from 0x1000 address
; 	//for(i=0;i<64;i++)
; 	//{
; 	//	*(seg+i) = eeprom_read(ECO_ADDR_SHIFT(4096) +i);
; 	//}	
; 	mdelay(1000);
			; SOURCE LINE # 199
	MOV  	R7,#0E8H
	MOV  	R6,#03H
	LCALL	_mdelay
; 
; 	ECO_PAGE_INIT();	
			; SOURCE LINE # 201
	LCALL	ECO_PAGE_INIT
; 		
; 	//ECO_PAGE_MANAGER();
; 
; 	blink_fast2();		
			; SOURCE LINE # 205
	;LCALL	blink_fast2
 	MOV	ECO_PAGE_ADDR,#HIGH (blink_fast2)
 	MOV	ECO_PAGE_ADDR+01H,#LOW (blink_fast2)	
 	LCALL	ECO_PAGE_MANAGER	
; 	
; 	mdelay(1000);		
			; SOURCE LINE # 210
	MOV  	R7,#0E8H
	MOV  	R6,#03H
	LCALL	_mdelay
; 
; 	//blink_led_by_time(4,6);
; 
; 	blink_fast();
			; SOURCE LINE # 214
	;LCALL	blink_fast
 	MOV	ECO_PAGE_ADDR,#HIGH (blink_fast)
 	MOV	ECO_PAGE_ADDR+01H,#LOW (blink_fast)	
 	LCALL	ECO_PAGE_MANAGER	
; 	//mdelay(1000);
; 	
; 	//auto_i = blink_led_auto(4,4,5,6,2);
; 	//ECO_PAGE_MANAGER();
; 	
; 	mdelay(1000);
			; SOURCE LINE # 223
	MOV  	R7,#0E8H
	MOV  	R6,#03H
	LCALL	_mdelay
; 	
; 	blink_fast();
			; SOURCE LINE # 225
	;LCALL	blink_fast
 	MOV	ECO_PAGE_ADDR,#HIGH (blink_fast)
 	MOV	ECO_PAGE_ADDR+01H,#LOW (blink_fast)	
 	LCALL	ECO_PAGE_MANAGER	
; 	mdelay(1);	
			; SOURCE LINE # 229
	MOV  	R7,#01H
	MOV  	R6,#00H
	LJMP 	_mdelay
; END OF main

	END
