; ./eco_page.src generated from: .\eco_page.c
; COMPILER INVOKED BY:
;        C:\Keil\C51\BIN\C51.exe .\eco_page.c BROWSE DEBUG CODE LISTINCLUDE SYMBOLS PREPRINT INCDIR(../../Include) SRC(./eco_page.src)

$NOMOD51

NAME	ECO_PAGE

PWR_UP	BIT	0A0H.7
P0	DATA	080H
P1	DATA	090H
AC	BIT	0D0H.6
T0	BIT	080H.5
SPI_CTRL	DATA	0B3H
T1	BIT	080H.6
EA	BIT	0A8H.7
T2	BIT	090H.0
CE	BIT	0A0H.6
DEV_OFFSET	DATA	0BEH
CLK1	BIT	0A0H.1
DIN0	BIT	090H.2
CLK2	BIT	0A0H.5
DIO0	BIT	090H.0
DPH0	DATA	083H
DIO1	BIT	090H.1
IE	DATA	0A8H
DPH1	DATA	085H
DIO2	BIT	080H.0
DIO3	BIT	080H.1
P0_0	BIT	080H.0
P1_0	BIT	090H.0
DIO4	BIT	080H.2
P0_1	BIT	080H.1
DPL0	DATA	082H
P1_1	BIT	090H.1
DIO5	BIT	080H.3
P0_2	BIT	080H.2
DPL1	DATA	084H
P1_2	BIT	090H.2
DIO6	BIT	080H.4
P0_3	BIT	080H.3
DIO7	BIT	080H.5
P0_4	BIT	080H.4
ADCSTATIC	DATA	0A4H
DIO8	BIT	080H.6
P0_5	BIT	080H.5
EXF2	BIT	0C8H.6
CS	BIT	0A0H.3
DIO9	BIT	080H.7
P0_6	BIT	080H.6
P0_7	BIT	080H.7
ES	BIT	0A8H.4
IP	DATA	0B8H
DATA?	BIT	0A0H.0
RI	BIT	098H.0
CY	BIT	0D0H.7
TI	BIT	098H.1
T1_1V2	DATA	0BCH
SPC_FNC	DATA	08FH
T2_1V2	DATA	0BDH
RCAP2H	DATA	0CBH
PS	BIT	0B8H.4
SP	DATA	081H
OV	BIT	0D0H.2
CK_CTRL	DATA	0B6H
RCAP2L	DATA	0CAH
TICK_DV	DATA	0B5H
RSTREAS	DATA	0B1H
C_T2	BIT	0C8H.1
EWDI	BIT	0E8H.4
ADCCON	DATA	0A1H
RCLK	BIT	0C8H.5
ADCDATAH	DATA	0A2H
EXIF	DATA	091H
TCLK	BIT	0C8H.4
DR2_CE	BIT	0A0H.6
ADCDATAL	DATA	0A3H
SBUF	DATA	099H
PCON	DATA	087H
SCON	DATA	098H
PWDI	BIT	0F8H.4
TMOD	DATA	089H
TCON	DATA	088H
WDTI	BIT	0D8H.3
PWMDUTY	DATA	0AAH
IE0	BIT	088H.1
IE1	BIT	088H.3
P0_DIR	DATA	094H
B	DATA	0F0H
P1_DIR	DATA	096H
P0_ALT	DATA	095H
P1_ALT	DATA	097H
CP_RL2	BIT	0C8H.0
DR1	BIT	0A0H.2
ACC	DATA	0E0H
DR2	BIT	0A0H.6
TEST_MODE	DATA	0B7H
SPICLK	DATA	0B4H
CT2	BIT	0C8H.1
ET0	BIT	0A8H.1
ET1	BIT	0A8H.3
TF0	BIT	088H.5
INT0_N	BIT	080H.3
ET2	BIT	0A8H.5
TF1	BIT	088H.7
INT1_N	BIT	080H.4
TF2	BIT	0C8H.7
RB8	BIT	098H.2
TH0	DATA	08CH
EX0	BIT	0A8H.0
IT0	BIT	088H.0
TH1	DATA	08DH
EX1	BIT	0A8H.2
TB8	BIT	098H.3
IT1	BIT	088H.2
TH2	DATA	0CDH
REGX_CTRL	DATA	0ADH
EX2	BIT	0E8H.0
P	BIT	0D0H.0
EX3	BIT	0E8H.1
SM0	BIT	098H.7
TL0	DATA	08AH
EX4	BIT	0E8H.2
SM1	BIT	098H.6
TL1	DATA	08BH
EX5	BIT	0E8H.3
SM2	BIT	098H.5
TL2	DATA	0CCH
EIE	DATA	0E8H
PT0	BIT	0B8H.1
RS0	BIT	0D0H.3
PT1	BIT	0B8H.3
RS1	BIT	0D0H.4
PT2	BIT	0B8H.5
TR0	BIT	088H.4
PWMCON	DATA	0A9H
TR1	BIT	088H.6
TR2	BIT	0C8H.2
PX0	BIT	0B8H.0
PX1	BIT	0B8H.2
PX2	BIT	0F8H.0
PX3	BIT	0F8H.1
PX4	BIT	0F8H.2
DPH	DATA	083H
PX5	BIT	0F8H.3
EIP	DATA	0F8H
DPL	DATA	082H
EXEN2	BIT	0C8H.3
CPRL2	BIT	0C8H.0
REN	BIT	098H.4
T2CON	DATA	0C8H
DPS	DATA	086H
SPI_DATA	DATA	0B2H
MPAGE	DATA	092H
RXD	BIT	080H.1
DOUT2	BIT	0A0H.4
EICON	DATA	0D8H
CKCON	DATA	08EH
TXD	BIT	080H.2
RADIO	DATA	0A0H
PWM	BIT	080H.7
F0	BIT	0D0H.5
F1	BIT	0D0H.1
REGX_LSB	DATA	0ACH
PSW	DATA	0D0H
REGX_MSB	DATA	0ABH
?PR?eco_page_init?ECO_PAGE               SEGMENT CODE 
?PR?eco_page_manager?ECO_PAGE            SEGMENT CODE 
?DT?eco_page_manager?ECO_PAGE            SEGMENT DATA OVERLAYABLE 
?DT?ECO_PAGE         SEGMENT DATA 
?ID?ECO_PAGE         SEGMENT IDATA 
	EXTRN	CODE (_eeprom_read)
	EXTRN	CODE (eeprom_init)
	PUBLIC	ECO_PAGE_TABLE_INDEX
	PUBLIC	ECO_PAGE_REGISTER7
	PUBLIC	ECO_PAGE_REGISTER6
	PUBLIC	ECO_PAGE_REGISTER5
	PUBLIC	ECO_PAGE_REGISTER4
	PUBLIC	ECO_PAGE_ADDR
	PUBLIC	ECO_PAGE_REGISTER3
	PUBLIC	ECO_PAGE_REGISTER2
	PUBLIC	ECO_PAGE_REGISTER1
	PUBLIC	ECO_PAGE_PREV_VID
	PUBLIC	ECO_PAGE_SPI_CONN
	PUBLIC	ECO_PAGE_PREV_PID
	PUBLIC	ECO_PAGE_TABLE
	PUBLIC	eco_page_manager
	PUBLIC	eco_page_init

	RSEG  ?DT?eco_page_manager?ECO_PAGE
?eco_page_manager?BYTE:
	ORG  2
        seg?140:   DS   2
	ORG  4
          j?141:   DS   2
	ORG  0
          i?142:   DS   2

	RSEG  ?DT?ECO_PAGE
 ECO_PAGE_TABLE:   DS   10
ECO_PAGE_PREV_PID:   DS   1
ECO_PAGE_SPI_CONN:   DS   1
ECO_PAGE_PREV_VID:   DS   1
  ECO_PAGE_ADDR:   DS   2
ECO_PAGE_TABLE_INDEX:   DS   2

	RSEG  ?ID?ECO_PAGE
ECO_PAGE_REGISTER1:   DS   1
ECO_PAGE_REGISTER2:   DS   1
ECO_PAGE_REGISTER3:   DS   1
ECO_PAGE_REGISTER4:   DS   1
ECO_PAGE_REGISTER5:   DS   1
ECO_PAGE_REGISTER6:   DS   1
ECO_PAGE_REGISTER7:   DS   1
; /*
;  * Author(s): Wei-Han Chen (Embedded Platform Lab, NTHU)
;  * Copyright (c) 2009 National Tsing Hua University (NTHU) 
;  * Permission to copy, modify, and distribute this program is granted 
;  * for noncommercial purposes, provided the author(s) and copyright
;  * notice are retained. All other uses require explicit written
;  * permission from NTHU. 
;  *
;  * Eco Paging Library 
;  *
;  * Wei-Han Chen <xwaynec@gmail.com> 
;  * 2009/2/13
;  */
; 
; 
; #include "eco_page.h"
; #include "eeprom/eeprom.h"
; 
; unsigned char ECO_PAGE_TABLE[10];
; unsigned int ECO_PAGE_TABLE_INDEX;
; 
; unsigned int ECO_PAGE_ADDR;
; unsigned char ECO_PAGE_SPI_CONN;
; 
; //Eco page virtual address id
; unsigned char ECO_PAGE_PREV_VID;
; 
; //Eco page physical address id 
; unsigned char ECO_PAGE_PREV_PID;
; 
; //unsigned char ECO_PAGE_REGISTER[7];
; 
; unsigned char idata ECO_PAGE_REGISTER1;
; unsigned char idata ECO_PAGE_REGISTER2;
; unsigned char idata ECO_PAGE_REGISTER3;
; unsigned char idata ECO_PAGE_REGISTER4;
; unsigned char idata ECO_PAGE_REGISTER5;
; unsigned char idata ECO_PAGE_REGISTER6;
; unsigned char idata ECO_PAGE_REGISTER7;
; 
; 
; void eco_page_init()

	RSEG  ?PR?eco_page_init?ECO_PAGE
eco_page_init:
			; SOURCE LINE # 42
; {
			; SOURCE LINE # 43
; 	ECO_PAGE_TABLE_INDEX = 5;
			; SOURCE LINE # 44
	MOV  	ECO_PAGE_TABLE_INDEX,#00H
	MOV  	ECO_PAGE_TABLE_INDEX+01H,#05H
; 	//ECO_PAGE_TABLE_INDEX++;	
; 	//ECO_PAGE_REGISTER5 = 0xA7;
; 	//ECO_PAGE_REGISTER3 = ECO_PAGE_TABLE_INDEX;
; 	ECO_PAGE_ADDR = 0;
			; SOURCE LINE # 48
	CLR  	A
	MOV  	ECO_PAGE_ADDR,A
	MOV  	ECO_PAGE_ADDR+01H,A
; 	ECO_PAGE_PREV_VID = 0;
			; SOURCE LINE # 49
	MOV  	ECO_PAGE_PREV_VID,A
; 	ECO_PAGE_PREV_PID = 0;
			; SOURCE LINE # 50
	MOV  	ECO_PAGE_PREV_PID,A
; 
; 	ECO_PAGE_TABLE[0] = -1; 
			; SOURCE LINE # 52
	MOV  	ECO_PAGE_TABLE,#0FFH
; 	ECO_PAGE_TABLE[1] = -1; 
			; SOURCE LINE # 53
	MOV  	ECO_PAGE_TABLE+01H,#0FFH
; 	ECO_PAGE_TABLE[2] = 8;
			; SOURCE LINE # 54
	MOV  	ECO_PAGE_TABLE+02H,#08H
; 	ECO_PAGE_TABLE[3] = -1; 
			; SOURCE LINE # 55
	MOV  	ECO_PAGE_TABLE+03H,#0FFH
; 	ECO_PAGE_TABLE[4] = -1; 
			; SOURCE LINE # 56
	MOV  	ECO_PAGE_TABLE+04H,#0FFH
; 	ECO_PAGE_TABLE[5] = -1; 
			; SOURCE LINE # 57
	MOV  	ECO_PAGE_TABLE+05H,#0FFH
; 	ECO_PAGE_TABLE[6] = -1; 
			; SOURCE LINE # 58
	MOV  	ECO_PAGE_TABLE+06H,#0FFH
; 	ECO_PAGE_TABLE[7] = -1; 
			; SOURCE LINE # 59
	MOV  	ECO_PAGE_TABLE+07H,#0FFH
; 	ECO_PAGE_TABLE[8] = -1; 
			; SOURCE LINE # 60
	MOV  	ECO_PAGE_TABLE+08H,#0FFH
; 	ECO_PAGE_TABLE[9] = -1; 
			; SOURCE LINE # 61
	MOV  	ECO_PAGE_TABLE+09H,#0FFH
; }
			; SOURCE LINE # 62
	RET  	
; END OF eco_page_init

; 
; //LRU page replacement
; void eco_page_manager()

	RSEG  ?PR?eco_page_manager?ECO_PAGE
eco_page_manager:
	USING	0
			; SOURCE LINE # 65
; {
			; SOURCE LINE # 66
; 	unsigned int i;
; 	unsigned int page_index = -1;
			; SOURCE LINE # 68
;---- Variable 'page_index?143' assigned to Register 'R4/R5' ----
	MOV  	A,#0FFH
	MOV  	R5,A
	MOV  	R4,A
; 
; 	//check page table
; 	for(i=0;i<10;i++)
			; SOURCE LINE # 71
	CLR  	A
	MOV  	i?142,A
	MOV  	i?142+01H,A
?C0002:
; 	{
			; SOURCE LINE # 72
; 		if(((ECO_PAGE_ADDR >> 8) & 0x7F) == (ECO_PAGE_TABLE[i] & 0x7F))
			; SOURCE LINE # 73
	MOV  	A,#LOW (ECO_PAGE_TABLE)
	ADD  	A,i?142+01H
	MOV  	R0,A
	MOV  	A,@R0
	MOV  	R1,A
	ANL  	A,#07FH
	MOV  	R3,A
	MOV  	A,ECO_PAGE_ADDR
	ANL  	A,#07FH
	CJNE 	A,AR3,?C0004
; 		{
			; SOURCE LINE # 74
; 			page_index = i;
			; SOURCE LINE # 75
	MOV  	R4,i?142
	MOV  	R5,i?142+01H
; 			//set LRU bit is 1
; 			ECO_PAGE_TABLE[i] = ECO_PAGE_TABLE[i] | 0x80;
			; SOURCE LINE # 77
	MOV  	A,#LOW (ECO_PAGE_TABLE)
	ADD  	A,i?142+01H
	MOV  	R0,A
	MOV  	A,R1
	ORL  	A,#080H
	MOV  	@R0,A
; 			break;
			; SOURCE LINE # 78
	SJMP 	?C0003
; 		}
			; SOURCE LINE # 79
; 	}
			; SOURCE LINE # 80
?C0004:
	INC  	i?142+01H
	MOV  	A,i?142+01H
	JNZ  	?C0018
	INC  	i?142
?C0018:
	XRL  	A,#0AH
	ORL  	A,i?142
	JNZ  	?C0002
?C0003:
; 
; 	if(page_index != -1)
			; SOURCE LINE # 82
	MOV  	A,R5
	CPL  	A
	JNZ  	?C0019
	MOV  	A,R4
	CPL  	A
?C0019:
	JZ   	?C0006
; 	{
			; SOURCE LINE # 83
; 		//store function physical addres id 
; 		ECO_PAGE_PREV_PID = ECO_PAGE_ADDR >> 8;
			; SOURCE LINE # 85
	MOV  	A,ECO_PAGE_ADDR
	MOV  	ECO_PAGE_PREV_PID,A
; 	
; 		//memory page is in ram
; 		ECO_PAGE_ADDR = ((page_index + ECO_PAGE_ADDR_OFFSET) << 8) + (ECO_PAGE_ADDR & 0x00FF);
			; SOURCE LINE # 88
	MOV  	A,R5
	ADD  	A,#06H
	MOV  	R7,A
	MOV  	A,R7
	MOV  	R6,A
	MOV  	R4,#00H
	CLR  	A
	ADD  	A,ECO_PAGE_ADDR+01H
	MOV  	ECO_PAGE_ADDR+01H,A
	MOV  	A,R4
	ADDC 	A,R6
	MOV  	ECO_PAGE_ADDR,A
; 
; 		//cache the virtual address id
; 		ECO_PAGE_PREV_VID = ECO_PAGE_ADDR >> 8;
			; SOURCE LINE # 91
	MOV  	ECO_PAGE_PREV_VID,A
; 
; 		#pragma asm
; 		//eco_page_function_call
	  
; 		//MOV     DPH,ECO_PAGE_ADDR
	  
; 		//MOV     DPL,ECO_PAGE_ADDR+01H
	  
; 		//LCALL	?C?ICALL2
	  
; 		#pragma endasm
; 				
; 	}	
			; SOURCE LINE # 100
	RET  	
?C0006:
; 	else
; 	{
			; SOURCE LINE # 102
; 		//printf("page fault");
; 
; 		for(i=ECO_PAGE_TABLE_INDEX+1; ;(i++)%10)
			; SOURCE LINE # 105
	MOV  	A,ECO_PAGE_TABLE_INDEX+01H
	ADD  	A,#01H
	MOV  	i?142+01H,A
	CLR  	A
	ADDC 	A,ECO_PAGE_TABLE_INDEX
	MOV  	i?142,A
?C0008:
; 		{
			; SOURCE LINE # 106
; 			if((ECO_PAGE_TABLE[i] & 0x80) == 0x80)
			; SOURCE LINE # 107
	MOV  	A,#LOW (ECO_PAGE_TABLE)
	ADD  	A,i?142+01H
	MOV  	R0,A
	MOV  	A,@R0
	JNB  	ACC.7,?C0011
; 			{
			; SOURCE LINE # 108
; 				//lru bit is 1
; 				ECO_PAGE_TABLE[i] = ECO_PAGE_TABLE[i] & 0x7F;
			; SOURCE LINE # 110
	ANL  	A,#07FH
	MOV  	@R0,A
; 				
; 				//store function physical addres id 
; 				ECO_PAGE_PREV_PID = ECO_PAGE_ADDR >> 8;
			; SOURCE LINE # 113
	MOV  	A,ECO_PAGE_ADDR
	MOV  	ECO_PAGE_PREV_PID,A
; 	
; 				//memory page is in ram
; 				ECO_PAGE_ADDR = ((i + ECO_PAGE_ADDR_OFFSET) << 8) + (ECO_PAGE_ADDR & 0x00FF);
			; SOURCE LINE # 116
	MOV  	A,i?142+01H
	ADD  	A,#06H
	MOV  	R7,A
	MOV  	A,R7
	MOV  	R6,A
	MOV  	R4,#00H
	CLR  	A
	ADD  	A,ECO_PAGE_ADDR+01H
	MOV  	ECO_PAGE_ADDR+01H,A
	MOV  	A,R4
	ADDC 	A,R6
	MOV  	ECO_PAGE_ADDR,A
; 
; 				//cache the virtual address id
; 				ECO_PAGE_PREV_VID = ECO_PAGE_ADDR >> 8;
			; SOURCE LINE # 119
	MOV  	ECO_PAGE_PREV_VID,A
; 
; 				ECO_PAGE_TABLE_INDEX = i;
			; SOURCE LINE # 121
	MOV  	ECO_PAGE_TABLE_INDEX,i?142
	MOV  	ECO_PAGE_TABLE_INDEX+01H,i?142+01H
; 
; 				#pragma asm
; 				//eco_page_function_call
	  
; 				//MOV     DPH,ECO_PAGE_ADDR
	  
; 				//MOV     DPL,ECO_PAGE_ADDR+01H
	  
; 				//LCALL	?C?ICALL2
	  
; 				#pragma endasm
; 
; 				break;
			; SOURCE LINE # 130
	RET  	
; 				
; 			}
			; SOURCE LINE # 132
?C0011:
; 			else
; 			{
			; SOURCE LINE # 134
; 				unsigned char xdata *seg = (unsigned char xdata *)((i + ECO_PAGE_ADDR_OFFSET)<<8);
			; SOURCE LINE # 135
	MOV  	A,i?142+01H
	ADD  	A,#06H
	MOV  	R7,A
	CLR  	A
	ADDC 	A,i?142
	MOV  	A,R7
	MOV  	seg?140,A
	MOV  	seg?140+01H,#00H
; 				unsigned int j;
; 				
; 				//memory page is in ram
; 				eeprom_init();
			; SOURCE LINE # 139
	LCALL	eeprom_init
; 
; 				//mov code from eeprom to external ram
; 				for(j=0;j<256;j++)
			; SOURCE LINE # 142
	CLR  	A
	MOV  	j?141,A
	MOV  	j?141+01H,A
?C0013:
; 				{
			; SOURCE LINE # 143
; 					*(seg+j) = eeprom_read(ECO_ADDR_SHIFT(ECO_PAGE_ADDR) +j);
			; SOURCE LINE # 144
	MOV  	A,ECO_PAGE_ADDR+01H
	ADD  	A,#03H
	XCH  	A,R7
	CLR  	A
	ADDC 	A,ECO_PAGE_ADDR
	XCH  	A,R7
	ADD  	A,j?141+01H
	XCH  	A,R7
	ADDC 	A,j?141
	MOV  	R6,A
	LCALL	_eeprom_read
	MOV  	A,seg?140+01H
	ADD  	A,j?141+01H
	MOV  	DPL,A
	MOV  	A,seg?140
	ADDC 	A,j?141
	MOV  	DPH,A
	MOV  	A,R7
	MOVX 	@DPTR,A
; 				}
			; SOURCE LINE # 145
	INC  	j?141+01H
	MOV  	A,j?141+01H
	JNZ  	?C0020
	INC  	j?141
?C0020:
	CLR  	C
	MOV  	A,j?141
	SUBB 	A,#01H
	JC   	?C0013
?C0014:
; 				
; 				//update page table to connect this physical address id with virtual address id 
; 				ECO_PAGE_TABLE[i] = ECO_PAGE_ADDR >> 8;
			; SOURCE LINE # 148
	MOV  	A,ECO_PAGE_ADDR
	MOV  	R7,A
	MOV  	R6,i?142+01H
	MOV  	A,#LOW (ECO_PAGE_TABLE)
	ADD  	A,R6
	MOV  	R0,A
	MOV  	@R0,AR7
; 
; 				//store physical address id
; 				ECO_PAGE_PREV_PID = ECO_PAGE_TABLE[i];
			; SOURCE LINE # 151
	MOV  	A,#LOW (ECO_PAGE_TABLE)
	ADD  	A,R6
	MOV  	R0,A
	MOV  	A,@R0
	MOV  	ECO_PAGE_PREV_PID,A
; 
; 				//update page address e.g.  (page_id<<8) + page_offset
; 				ECO_PAGE_ADDR = ((i + ECO_PAGE_ADDR_OFFSET) << 8) + (ECO_PAGE_ADDR &0x00FF);
			; SOURCE LINE # 154
	MOV  	A,i?142+01H
	ADD  	A,#06H
	MOV  	R7,A
	MOV  	A,R7
	MOV  	R6,A
	MOV  	R4,#00H
	CLR  	A
	ADD  	A,ECO_PAGE_ADDR+01H
	MOV  	ECO_PAGE_ADDR+01H,A
	MOV  	A,R4
	ADDC 	A,R6
	MOV  	ECO_PAGE_ADDR,A
; 
; 				//store virtual address id 
; 				ECO_PAGE_PREV_VID = ECO_PAGE_ADDR >> 8;	
			; SOURCE LINE # 157
	MOV  	ECO_PAGE_PREV_VID,A
; 
; 				//mov to the next index
; 				ECO_PAGE_TABLE_INDEX = i;
			; SOURCE LINE # 160
	MOV  	ECO_PAGE_TABLE_INDEX,i?142
	MOV  	ECO_PAGE_TABLE_INDEX+01H,i?142+01H
; 
; 				//jump  to function address
; 				#pragma asm
; 				//MOV     DPH,ECO_PAGE_ADDR
	  
; 				//MOV     DPL,ECO_PAGE_ADDR+01H
	  
; 				//LCALL        ?C?ICALL2               
	  
; 				#pragma endasm
; 				
; 				break;
			; SOURCE LINE # 169
	RET  	
; END OF eco_page_manager

	END
