LX51 LINKER/LOCATER V4.34a                                                              05/02/2009  16:05:32  PAGE 1


LX51 LINKER/LOCATER V4.34a, INVOKED BY:
C:\KEIL\C51\BIN\LX51.EXE MAIN.OBJ, ISR_RF.OBJ, ECO_PAGE.OBJ, ADC.OBJ, UTILS.OBJ, SERIAL.OBJ, SPI.OBJ, EEPROM.OBJ, C51S.L
>> IB, C51FPL.LIB TO MAIN SEGMENTS (?PR?ECO_PAGE_INIT?ECO_PAGE (C:0X1080)) SEGMENTS (?PR?DELTA_COMPRESS?MAIN (C:0X1000))
>>  SEGMENTS (?PR?_LOG_2?MAIN (C:0X1140))


CPU MODE:     8051 MODE


INPUT MODULES INCLUDED:
  MAIN.OBJ (MAIN)
         COMMENT TYPE 0: AX51 V3.06a
  ISR_RF.OBJ (ISR_RF)
         COMMENT TYPE 0: AX51 V3.06a
  ECO_PAGE.OBJ (ECO_PAGE)
         COMMENT TYPE 0: AX51 V3.06a
  ADC.OBJ (ADC)
         COMMENT TYPE 0: AX51 V3.06a
  UTILS.OBJ (UTILS)
         COMMENT TYPE 0: AX51 V3.06a
  SERIAL.OBJ (SERIAL)
         COMMENT TYPE 0: AX51 V3.06a
  SPI.OBJ (SPI)
         COMMENT TYPE 0: AX51 V3.06a
  EEPROM.OBJ (EEPROM)
         COMMENT TYPE 0: AX51 V3.06a
  C51S.LIB (?C_STARTUP)
         COMMENT TYPE 1: A51 / ASM51 Assembler
  C51S.LIB (?C?CLDPTR)
         COMMENT TYPE 1: A51 / ASM51 Assembler
  C51S.LIB (?C?CLDOPTR)
         COMMENT TYPE 1: A51 / ASM51 Assembler
  C51S.LIB (?C?CSTPTR)
         COMMENT TYPE 1: A51 / ASM51 Assembler
  C51S.LIB (?C?UIDIV)
         COMMENT TYPE 1: A51 / ASM51 Assembler
  C51S.LIB (?C?LMUL)
         COMMENT TYPE 1: A51 / ASM51 Assembler
  C51S.LIB (?C?ULDIV)
         COMMENT TYPE 1: A51 / ASM51 Assembler
  C51S.LIB (?C?LLDIDATA)
         COMMENT TYPE 1: A51 / ASM51 Assembler
  C51S.LIB (?C?LSTIDATA)
         COMMENT TYPE 1: A51 / ASM51 Assembler
  C51S.LIB (?C?ICASE)
         COMMENT TYPE 1: A51 / ASM51 Assembler
  C51S.LIB (?C?ICALL)
         COMMENT TYPE 1: A51 / ASM51 Assembler
  C51S.LIB (?C_IBP)
         COMMENT TYPE 1: A51 / ASM51 Assembler
  C51S.LIB (?C_INIT)
         COMMENT TYPE 1: A51 / ASM51 Assembler
  C51FPL.LIB (?C?FCAST)
         COMMENT TYPE 1: A51 / ASM51 Assembler
  C51FPL.LIB (?C?CASTF)
         COMMENT TYPE 1: A51 / ASM51 Assembler
  C51FPL.LIB (LOG)
         COMMENT TYPE 1: A51 / ASM51 Assembler
  C51FPL.LIB (?C?FPGETOPN)
         COMMENT TYPE 1: A51 / ASM51 Assembler
  C51FPL.LIB (?C?FPADD)
         COMMENT TYPE 1: A51 / ASM51 Assembler
  C51FPL.LIB (?C?FPMUL)
         COMMENT TYPE 1: A51 / ASM51 Assembler
  C51FPL.LIB (?C?FPDIV)
         COMMENT TYPE 1: A51 / ASM51 Assembler
LX51 LINKER/LOCATER V4.34a                                                            05/02/2009  16:05:32  PAGE 2


  C51FPL.LIB (?C?FPSERIES)
         COMMENT TYPE 1: A51 / ASM51 Assembler
  C51S.LIB (?C?LNEG)
         COMMENT TYPE 1: A51 / ASM51 Assembler
  C51S.LIB (?C?LLDCODE)
         COMMENT TYPE 1: A51 / ASM51 Assembler
  C51S.LIB (?C?LLDXDATA0)
         COMMENT TYPE 1: A51 / ASM51 Assembler
  C51S.LIB (?C?LLDCODE0)
         COMMENT TYPE 1: A51 / ASM51 Assembler
  C51S.LIB (?C?LSTXDATA)
         COMMENT TYPE 1: A51 / ASM51 Assembler


ACTIVE MEMORY CLASSES OF MODULE:  MAIN (MAIN)

BASE        START       END         USED      MEMORY CLASS
==========================================================
C:000000H   C:000000H   C:00FFFFH   001021H   CODE
I:000000H   I:000000H   I:00007FH   00007DH   DATA
I:000000H   I:000000H   I:0000FFH   000049H   IDATA
I:000020H.0 I:000020H.0 I:00002FH.7 000000H.1 BIT
X:000000H   X:000000H   X:00FFFFH   000004H   XDATA


MEMORY MAP OF MODULE:  MAIN (MAIN)


START     STOP      LENGTH    ALIGN  RELOC    MEMORY CLASS   SEGMENT NAME
=========================================================================

* * * * * * * * * * *   D A T A   M E M O R Y   * * * * * * * * * * * * *
000000H   000007H   000008H   ---    AT..     DATA           "REG BANK 0"
000008H   00001FH   000018H   BYTE   UNIT     DATA           ?DT?MAIN
000020H.0 000020H.0 000000H.1 BIT    UNIT     BIT            ?BI?LOG?LOG
000020H.1 000020H   000000H.7 ---    ---      **GAP**
000021H   000038H   000018H   BYTE   UNIT     DATA           ?DT?ISR_RF
000039H   000042H   00000AH   BYTE   UNIT     DATA           ?DT?_RF_SEND?ISR_RF
000043H   00004AH   000008H   BYTE   UNIT     DATA           ?DT?DELTA_COMPRESS?MAIN
00004BH   000052H   000008H   BYTE   UNIT     DATA           ?DT?ECO_PAGE
000053H   00005AH   000008H   BYTE   UNIT     DATA           ?DT?_STRNCPY?UTILS
00005BH   000060H   000006H   BYTE   UNIT     DATA           ?DT?ECO_PAGE_MANAGER?ECO_PAGE
000061H   000065H   000005H   BYTE   UNIT     DATA           ?DT?_RF_CONFIGURE?ISR_RF
000066H   000069H   000004H   BYTE   UNIT     DATA           ?DT?MAIN?MAIN
00006AH   00006DH   000004H   BYTE   UNIT     DATA           ?DT?UTILS
00006EH   000070H   000003H   BYTE   UNIT     DATA           ?DT?_PUTS?SERIAL
000071H   000073H   000003H   BYTE   UNIT     DATA           ?DT?_EEPROM_WRITE?EEPROM
000074H   000076H   000003H   BYTE   UNIT     DATA           ?DT?_EEPROM_READ?EEPROM
000077H   000078H   000002H   BYTE   UNIT     DATA           ?DT?_LOG_2?MAIN
000079H   00007AH   000002H   BYTE   UNIT     DATA           ?DT?RF_CH1_RECV?ISR_RF
00007BH   00007CH   000002H   BYTE   UNIT     DATA           ?DT?_MDELAY?UTILS
00007DH   00007DH   000001H   BYTE   UNIT     DATA           ?C?LIB_DATA
00007EH   0000B6H   000039H   BYTE   UNIT     IDATA          ?ID?MAIN
0000B7H   0000C1H   00000BH   BYTE   UNIT     IDATA          ?ID?ECO_PAGE
0000C2H   0000C5H   000004H   BYTE   UNIT     IDATA          ?ID?DELTA_COMPRESS?MAIN
0000C6H   0000C6H   000001H   BYTE   UNIT     IDATA          ?STACK

* * * * * * * * * * *   C O D E   M E M O R Y   * * * * * * * * * * * * *
000000H   000002H   000003H   ---    OFFS..   CODE           ?CO??C_STARTUP?0
000003H   00000AH   000008H   BYTE   UNIT     CODE           ?PR?_SERIAL_WRITE?SERIAL
00000BH   00000DH   000003H   ---    OFFS..   CODE           ?CO?MAIN?14
00000EH   000051H   000044H   BYTE   UNIT     CODE           ?PR?_STRNCPY?UTILS
000052H   000052H   000001H   ---    ---      **GAP**
000053H   000055H   000003H   ---    OFFS..   CODE           ?CO?ISR_RF?11
000056H   00065AH   000605H   BYTE   UNIT     CODE           ?C?LIB_CODE
LX51 LINKER/LOCATER V4.34a                                                            05/02/2009  16:05:32  PAGE 3


00065BH   000835H   0001DBH   BYTE   UNIT     CODE           ?PR?ECO_PAGE_MANAGER?ECO_PAGE
000836H   00095EH   000129H   BYTE   UNIT     CODE           ?PR?LOG?LOG
00095FH   000A61H   000103H   BYTE   UNIT     CODE           ?PR?MAIN?MAIN
000A62H   000AEDH   00008CH   BYTE   UNIT     CODE           ?C_C51STARTUP
000AEEH   000B6CH   00007FH   BYTE   UNIT     CODE           ?PR?DELTA_COMPRESS_2?MAIN
000B6DH   000BD7H   00006BH   BYTE   UNIT     CODE           ?PR?_RF_SEND?ISR_RF
000BD8H   000C37H   000060H   BYTE   UNIT     CODE           ?PR?RF_CH1_RECV?ISR_RF
000C38H   000C84H   00004DH   BYTE   UNIT     CODE           ?PR?P_ADC_READ?ADC
000C85H   000CCDH   000049H   BYTE   UNIT     CODE           ?PR?_MDELAY?UTILS
000CCEH   000D0AH   00003DH   BYTE   UNIT     CODE           ?PR?_SETUP_BAUDRATE?SERIAL
000D0BH   000D45H   00003BH   BYTE   UNIT     CODE           ?PR?_EEPROM_WRITE?EEPROM
000D46H   000D7FH   00003AH   BYTE   UNIT     CODE           ?PR?_?INT_PRINT?SERIAL
000D80H   000DB5H   000036H   BYTE   UNIT     CODE           ?C_INITSEG
000DB6H   000DEBH   000036H   BYTE   UNIT     CODE           ?PR?_RF_CONFIGURE?ISR_RF
000DECH   000E17H   00002CH   BYTE   UNIT     CODE           ?PR?TIMER0?MAIN
000E18H   000E43H   00002CH   BYTE   UNIT     CODE           ?PR?_EEPROM_READ?EEPROM
000E44H   000E68H   000025H   BYTE   UNIT     CODE           ?PR?_PUTS?SERIAL
000E69H   000E8BH   000023H   BYTE   UNIT     CODE           ?PR?FLASH_ERASE_ALL?EEPROM
000E8CH   000EA6H   00001BH   BYTE   UNIT     CODE           ?PR?_ADC_READ?ADC
000EA7H   000EB9H   000013H   BYTE   UNIT     CODE           ?PR?_ADC_INIT?ADC
000EBAH   000ECBH   000012H   BYTE   UNIT     CODE           ?PR?_WDT_LOAD?UTILS
000ECCH   000EDAH   00000FH   BYTE   UNIT     CODE           ?PR?EEPROM_STATUS?EEPROM
000EDBH   000EE8H   00000EH   BYTE   UNIT     CODE           ?PR?RF_INIT?ISR_RF
000EE9H   000EF5H   00000DH   BYTE   UNIT     CODE           ?PR?_STORE_CPU_RATE?UTILS
000EF6H   000F02H   00000DH   BYTE   UNIT     CODE           ?PR?_SPI_WRITE_THEN_READ?SPI
000F03H   000F0DH   00000BH   BYTE   UNIT     CODE           ?PR?EEPROM_INIT?EEPROM
000F0EH   000F17H   00000AH   BYTE   UNIT     CODE           ?PR?_SERIAL_INIT?SERIAL
000F18H   000F20H   000009H   BYTE   UNIT     CODE           ?CO?MAIN
000F21H   000F29H   000009H   BYTE   UNIT     CODE           ?PR?RF_WAIT_MSG?ISR_RF
000F2AH   000F31H   000008H   BYTE   UNIT     CODE           ?PR?SERIAL_READ?SERIAL
000F32H   000F36H   000005H   BYTE   UNIT     CODE           ?PR?_SPI_INIT?SPI
000F37H   000F3AH   000004H   BYTE   UNIT     CODE           ?PR?GETC?SERIAL
000F3BH   000F3DH   000003H   BYTE   UNIT     CODE           ?PR?_PUTC?SERIAL
000F3EH   000FFFH   0000C2H   ---    ---      **GAP**
001000H   001028H   000029H   BYTE   UNIT     CODE           ?PR?DELTA_COMPRESS?MAIN
001029H   00107FH   000057H   ---    ---      **GAP**
001080H   001108H   000089H   BYTE   UNIT     CODE           ?PR?ECO_PAGE_INIT?ECO_PAGE
001109H   00113FH   000037H   ---    ---      **GAP**
001140H   001171H   000032H   BYTE   UNIT     CODE           ?PR?_LOG_2?MAIN

* * * * * * * * * * *  X D A T A   M E M O R Y  * * * * * * * * * * * * *
000000H   000003H   000004H   BYTE   UNIT     XDATA          ?XD?LOG?LOG



PUBLIC SYMBOLS OF MODULE:  MAIN (MAIN)


      VALUE       CLASS    TYPE      PUBLIC SYMBOL NAME
      =================================================
      00000039H   DATA     BYTE      ?_RF_SEND?BYTE
      00000053H   DATA     BYTE      ?_STRNCPY?BYTE
      010002A9H   CODE     ---       ?C?CASTF
      0100006FH   CODE     ---       ?C?CLDOPTR
      01000056H   CODE     ---       ?C?CLDPTR
      00000000H   NUMBER   ---       ?C?CODESEG
      0100009CH   CODE     ---       ?C?CSTPTR
      01000275H   CODE     ---       ?C?FCASTC
      01000270H   CODE     ---       ?C?FCASTI
      0100026BH   CODE     ---       ?C?FCASTL
      010005C8H   CODE     ---       ?C?FP2SERIES
      01000331H   CODE     ---       ?C?FPADD
      0100052BH   CODE     ---       ?C?FPDIV
      010002E0H   CODE     ---       ?C?FPGETOPN2
      01000422H   CODE     ---       ?C?FPMUL
LX51 LINKER/LOCATER V4.34a                                                            05/02/2009  16:05:32  PAGE 4


      01000315H   CODE     ---       ?C?FPNANRESULT
      0100031FH   CODE     ---       ?C?FPOVERFLOW
      010002F7H   CODE     ---       ?C?FPRESULT
      0100030BH   CODE     ---       ?C?FPRESULT2
      010005D7H   CODE     ---       ?C?FPSERIES
      0100032DH   CODE     ---       ?C?FPSUB
      0100031CH   CODE     ---       ?C?FPUNDERFLOW
      01000265H   CODE     ---       ?C?ICALL
      01000269H   CODE     ---       ?C?ICALL2
      01000238H   CODE     ---       ?C?ICASE
      01000623H   CODE     ---       ?C?LLDCODE
      0100063FH   CODE     ---       ?C?LLDCODE0
      01000220H   CODE     ---       ?C?LLDIDATA
      01000633H   CODE     ---       ?C?LLDXDATA0
      01000103H   CODE     ---       ?C?LMUL
      01000615H   CODE     ---       ?C?LNEG
      0100022CH   CODE     ---       ?C?LSTIDATA
      0100064FH   CODE     ---       ?C?LSTXDATA
      010000AEH   CODE     ---       ?C?UIDIV
      0100018EH   CODE     ---       ?C?ULDIV
      00000000H   NUMBER   ---       ?C?XDATASEG
      0000007DH   DATA     ---       ?C_IBP
      01000AA9H   CODE     ---       ?C_START
      01000000H   CODE     ---       ?C_STARTUP
      01000D46H   CODE     NEAR LAB  _?INT_PRINT
      01000EA7H   CODE     NEAR LAB  _ADC_INIT
      01000E8CH   CODE     NEAR LAB  _ADC_READ
      01000E18H   CODE     NEAR LAB  _EEPROM_READ
      01000D0BH   CODE     NEAR LAB  _EEPROM_WRITE
      0100086AH   CODE     ---       _LOG
      01000866H   CODE     ---       _LOG10
      01001140H   CODE     NEAR LAB  _LOG_2
      01000C85H   CODE     NEAR LAB  _MDELAY
      01000F3BH   CODE     NEAR LAB  _PUTC
      01000E44H   CODE     NEAR LAB  _PUTS
      01000DB6H   CODE     NEAR LAB  _RF_CONFIGURE
      01000B6DH   CODE     NEAR LAB  _RF_SEND
      01000F0EH   CODE     NEAR LAB  _SERIAL_INIT
      01000F32H   CODE     NEAR LAB  _SPI_INIT
      01000EF6H   CODE     NEAR LAB  _SPI_WRITE_THEN_READ
      01000EE9H   CODE     NEAR LAB  _STORE_CPU_RATE
      0100000EH   CODE     NEAR LAB  _STRNCPY
      01000EBAH   CODE     NEAR LAB  _WDT_LOAD
*SFR* 000000D0H.6 DATA     BIT       AC
*SFR* 000000E0H   DATA     BYTE      ACC
*SFR* 000000A1H   DATA     BYTE      ADCCON
*SFR* 000000A2H   DATA     BYTE      ADCDATAH
*SFR* 000000A3H   DATA     BYTE      ADCDATAL
*SFR* 000000A4H   DATA     BYTE      ADCSTATIC
*SFR* 000000F0H   DATA     BYTE      B
*SFR* 000000C8H.1 DATA     BIT       C_T2
*SFR* 000000A0H.6 DATA     BIT       CE
      0000000EH   DATA     BYTE      CFG
*SFR* 000000B6H   DATA     BYTE      CK_CTRL
*SFR* 0000008EH   DATA     BYTE      CKCON
*SFR* 000000A0H.1 DATA     BIT       CLK1
*SFR* 000000A0H.5 DATA     BIT       CLK2
*SFR* 000000C8H   DATA     BIT       CP_RL2
*SFR* 000000C8H   DATA     BIT       CPRL2
*SFR* 000000A0H.3 DATA     BIT       CS
*SFR* 000000C8H.1 DATA     BIT       CT2
*SFR* 000000D0H.7 DATA     BIT       CY
*SFR* 000000A0H   DATA     BIT       DATA?
      01001000H   CODE     NEAR LAB  DELTA_COMPRESS
      01000AEEH   CODE     NEAR LAB  DELTA_COMPRESS_2
LX51 LINKER/LOCATER V4.34a                                                            05/02/2009  16:05:32  PAGE 5


*SFR* 000000BEH   DATA     BYTE      DEV_OFFSET
*SFR* 00000090H.2 DATA     BIT       DIN0
*SFR* 00000090H   DATA     BIT       DIO0
*SFR* 00000090H.1 DATA     BIT       DIO1
*SFR* 00000080H   DATA     BIT       DIO2
*SFR* 00000080H.1 DATA     BIT       DIO3
*SFR* 00000080H.2 DATA     BIT       DIO4
*SFR* 00000080H.3 DATA     BIT       DIO5
*SFR* 00000080H.4 DATA     BIT       DIO6
*SFR* 00000080H.5 DATA     BIT       DIO7
*SFR* 00000080H.6 DATA     BIT       DIO8
*SFR* 00000080H.7 DATA     BIT       DIO9
*SFR* 000000A0H.4 DATA     BIT       DOUT2
*SFR* 00000083H   DATA     BYTE      DPH
*SFR* 00000083H   DATA     BYTE      DPH0
*SFR* 00000085H   DATA     BYTE      DPH1
*SFR* 00000082H   DATA     BYTE      DPL
*SFR* 00000082H   DATA     BYTE      DPL0
*SFR* 00000084H   DATA     BYTE      DPL1
*SFR* 00000086H   DATA     BYTE      DPS
*SFR* 000000A0H.2 DATA     BIT       DR1
*SFR* 000000A0H.6 DATA     BIT       DR2
*SFR* 000000A0H.6 DATA     BIT       DR2_CE
      000000B4H   IDATA    BYTE      DST_ADDR
*SFR* 000000A8H.7 DATA     BIT       EA
      00000050H   DATA     BYTE      ECO_PAGE_ADDR
      01001080H   CODE     NEAR LAB  ECO_PAGE_INIT
      0100065BH   CODE     NEAR LAB  ECO_PAGE_MANAGER
      0000004CH   DATA     BYTE      ECO_PAGE_PREV_PID
      0000004EH   DATA     BYTE      ECO_PAGE_PREV_VID
      000000BBH   IDATA    BYTE      ECO_PAGE_REGISTER1
      000000BCH   IDATA    BYTE      ECO_PAGE_REGISTER2
      000000BDH   IDATA    BYTE      ECO_PAGE_REGISTER3
      000000BEH   IDATA    BYTE      ECO_PAGE_REGISTER4
      000000BFH   IDATA    BYTE      ECO_PAGE_REGISTER5
      000000C0H   IDATA    BYTE      ECO_PAGE_REGISTER6
      000000C1H   IDATA    BYTE      ECO_PAGE_REGISTER7
      0000004BH   DATA     BYTE      ECO_PAGE_SPI_CONN
      000000B7H   IDATA    BYTE      ECO_PAGE_TABLE
      00000052H   DATA     BYTE      ECO_PAGE_TABLE_INDEX
      01000F03H   CODE     NEAR LAB  EEPROM_INIT
      01000ECCH   CODE     NEAR LAB  EEPROM_STATUS
*SFR* 000000D8H   DATA     BYTE      EICON
*SFR* 000000E8H   DATA     BYTE      EIE
*SFR* 000000F8H   DATA     BYTE      EIP
*SFR* 000000A8H.4 DATA     BIT       ES
*SFR* 000000A8H.1 DATA     BIT       ET0
*SFR* 000000A8H.3 DATA     BIT       ET1
*SFR* 000000A8H.5 DATA     BIT       ET2
*SFR* 000000E8H.4 DATA     BIT       EWDI
*SFR* 000000A8H   DATA     BIT       EX0
*SFR* 000000A8H.2 DATA     BIT       EX1
*SFR* 000000E8H   DATA     BIT       EX2
*SFR* 000000E8H.1 DATA     BIT       EX3
*SFR* 000000E8H.2 DATA     BIT       EX4
*SFR* 000000E8H.3 DATA     BIT       EX5
*SFR* 000000C8H.3 DATA     BIT       EXEN2
*SFR* 000000C8H.6 DATA     BIT       EXF2
*SFR* 00000091H   DATA     BYTE      EXIF
*SFR* 000000D0H.5 DATA     BIT       F0
*SFR* 000000D0H.1 DATA     BIT       F1
      0000000AH   DATA     BYTE      FLAG
      01000E69H   CODE     NEAR LAB  FLASH_ERASE_ALL
      01000F37H   CODE     NEAR LAB  GETC
*SFR* 000000A8H   DATA     BYTE      IE
LX51 LINKER/LOCATER V4.34a                                                            05/02/2009  16:05:32  PAGE 6


*SFR* 00000088H.1 DATA     BIT       IE0
*SFR* 00000088H.3 DATA     BIT       IE1
*SFR* 00000080H.3 DATA     BIT       INT0_N
*SFR* 00000080H.4 DATA     BIT       INT1_N
*SFR* 000000B8H   DATA     BYTE      IP
*SFR* 00000088H   DATA     BIT       IT0
*SFR* 00000088H.2 DATA     BIT       IT1
      0100095FH   CODE     NEAR LAB  MAIN
      0000006AH   DATA     BYTE      MHZ
*SFR* 00000092H   DATA     BYTE      MPAGE
      0000007EH   IDATA    BYTE      MSG
*SFR* 000000D0H.2 DATA     BIT       OV
*SFR* 000000D0H   DATA     BIT       P
*SFR* 00000080H   DATA     BYTE      P0
*SFR* 00000080H   DATA     BIT       P0_0
*SFR* 00000080H.1 DATA     BIT       P0_1
*SFR* 00000080H.2 DATA     BIT       P0_2
*SFR* 00000080H.3 DATA     BIT       P0_3
*SFR* 00000080H.4 DATA     BIT       P0_4
*SFR* 00000080H.5 DATA     BIT       P0_5
*SFR* 00000080H.6 DATA     BIT       P0_6
*SFR* 00000080H.7 DATA     BIT       P0_7
*SFR* 00000095H   DATA     BYTE      P0_ALT
*SFR* 00000094H   DATA     BYTE      P0_DIR
*SFR* 00000090H   DATA     BYTE      P1
*SFR* 00000090H   DATA     BIT       P1_0
*SFR* 00000090H.1 DATA     BIT       P1_1
*SFR* 00000090H.2 DATA     BIT       P1_2
*SFR* 00000097H   DATA     BYTE      P1_ALT
*SFR* 00000096H   DATA     BYTE      P1_DIR
*SFR* 00000087H   DATA     BYTE      PCON
*SFR* 000000B8H.4 DATA     BIT       PS
*SFR* 000000D0H   DATA     BYTE      PSW
*SFR* 000000B8H.1 DATA     BIT       PT0
*SFR* 000000B8H.3 DATA     BIT       PT1
*SFR* 000000B8H.5 DATA     BIT       PT2
*SFR* 000000F8H.4 DATA     BIT       PWDI
*SFR* 00000080H.7 DATA     BIT       PWM
*SFR* 000000A9H   DATA     BYTE      PWMCON
*SFR* 000000AAH   DATA     BYTE      PWMDUTY
*SFR* 000000A0H.7 DATA     BIT       PWR_UP
*SFR* 000000B8H   DATA     BIT       PX0
*SFR* 000000B8H.2 DATA     BIT       PX1
*SFR* 000000F8H   DATA     BIT       PX2
*SFR* 000000F8H.1 DATA     BIT       PX3
*SFR* 000000F8H.2 DATA     BIT       PX4
*SFR* 000000F8H.3 DATA     BIT       PX5
*SFR* 000000A0H   DATA     BYTE      RADIO
*SFR* 00000098H.2 DATA     BIT       RB8
*SFR* 000000CBH   DATA     BYTE      RCAP2H
*SFR* 000000CAH   DATA     BYTE      RCAP2L
*SFR* 000000C8H.5 DATA     BIT       RCLK
*SFR* 000000ADH   DATA     BYTE      REGX_CTRL
*SFR* 000000ACH   DATA     BYTE      REGX_LSB
*SFR* 000000ABH   DATA     BYTE      REGX_MSB
*SFR* 00000098H.4 DATA     BIT       REN
      00000021H   DATA     BYTE      RF_BUF
      01000BD8H   CODE     NEAR LAB  RF_CH1_RECV
      00000011H   DATA     BYTE      RF_DATA
      01000EDBH   CODE     NEAR LAB  RF_INIT
      01000F21H   CODE     NEAR LAB  RF_WAIT_MSG
*SFR* 00000098H   DATA     BIT       RI
*SFR* 000000D0H.3 DATA     BIT       RS0
*SFR* 000000D0H.4 DATA     BIT       RS1
*SFR* 000000B1H   DATA     BYTE      RSTREAS
LX51 LINKER/LOCATER V4.34a                                                            05/02/2009  16:05:32  PAGE 7


*SFR* 00000080H.1 DATA     BIT       RXD
*SFR* 00000099H   DATA     BYTE      SBUF
*SFR* 00000098H   DATA     BYTE      SCON
*SFR* 00000098H.7 DATA     BIT       SM0
*SFR* 00000098H.6 DATA     BIT       SM1
*SFR* 00000098H.5 DATA     BIT       SM2
*SFR* 00000081H   DATA     BYTE      SP
*SFR* 0000008FH   DATA     BYTE      SPC_FNC
*SFR* 000000B3H   DATA     BYTE      SPI_CTRL
*SFR* 000000B2H   DATA     BYTE      SPI_DATA
*SFR* 000000B4H   DATA     BYTE      SPICLK
*SFR* 00000080H.5 DATA     BIT       T0
*SFR* 00000080H.6 DATA     BIT       T1
*SFR* 000000BCH   DATA     BYTE      T1_1V2
*SFR* 00000090H   DATA     BIT       T2
*SFR* 000000BDH   DATA     BYTE      T2_1V2
*SFR* 000000C8H   DATA     BYTE      T2CON
*SFR* 00000098H.3 DATA     BIT       TB8
*SFR* 000000C8H.4 DATA     BIT       TCLK
*SFR* 00000088H   DATA     BYTE      TCON
      0000000CH   DATA     BYTE      TEST_COUNTER
*SFR* 000000B7H   DATA     BYTE      TEST_MODE
*SFR* 00000088H.5 DATA     BIT       TF0
*SFR* 00000088H.7 DATA     BIT       TF1
*SFR* 000000C8H.7 DATA     BIT       TF2
*SFR* 0000008CH   DATA     BYTE      TH0
*SFR* 0000008DH   DATA     BYTE      TH1
*SFR* 000000CDH   DATA     BYTE      TH2
*SFR* 00000098H.1 DATA     BIT       TI
*SFR* 000000B5H   DATA     BYTE      TICK_DV
      01000DECH   CODE     NEAR LAB  TIMER0
      00000008H   DATA     BYTE      TIMER_COUNTER
*SFR* 0000008AH   DATA     BYTE      TL0
*SFR* 0000008BH   DATA     BYTE      TL1
*SFR* 000000CCH   DATA     BYTE      TL2
*SFR* 00000089H   DATA     BYTE      TMOD
*SFR* 00000088H.4 DATA     BIT       TR0
*SFR* 00000088H.6 DATA     BIT       TR1
*SFR* 000000C8H.2 DATA     BIT       TR2
*SFR* 00000080H.2 DATA     BIT       TXD
*SFR* 000000D8H.3 DATA     BIT       WDTI



SYMBOL TABLE OF MODULE:  MAIN (MAIN)

      VALUE       REP       CLASS    TYPE      SYMBOL NAME
      ====================================================
      ---         MODULE    ---      ---       MAIN
      01001140H   PUBLIC    CODE     NEAR LAB  _LOG_2
      0000000EH   PUBLIC    DATA     BYTE      CFG
      01001000H   PUBLIC    CODE     NEAR LAB  DELTA_COMPRESS
      01000AEEH   PUBLIC    CODE     NEAR LAB  DELTA_COMPRESS_2
      000000B4H   PUBLIC    IDATA    BYTE      DST_ADDR
      0000000AH   PUBLIC    DATA     BYTE      FLAG
      0100095FH   PUBLIC    CODE     NEAR LAB  MAIN
      0000007EH   PUBLIC    IDATA    BYTE      MSG
      00000011H   PUBLIC    DATA     BYTE      RF_DATA
      0000000CH   PUBLIC    DATA     BYTE      TEST_COUNTER
      01000DECH   PUBLIC    CODE     NEAR LAB  TIMER0
      00000008H   PUBLIC    DATA     BYTE      TIMER_COUNTER
      000000D0H.6 SFRSYM    DATA     BIT       AC
      000000E0H   SFRSYM    DATA     BYTE      ACC
      000000A1H   SFRSYM    DATA     BYTE      ADCCON
      000000A2H   SFRSYM    DATA     BYTE      ADCDATAH
LX51 LINKER/LOCATER V4.34a                                                            05/02/2009  16:05:32  PAGE 8


      000000A3H   SFRSYM    DATA     BYTE      ADCDATAL
      000000A4H   SFRSYM    DATA     BYTE      ADCSTATIC
      000000F0H   SFRSYM    DATA     BYTE      B
      000000C8H.1 SFRSYM    DATA     BIT       C_T2
      000000A0H.6 SFRSYM    DATA     BIT       CE
      000000B6H   SFRSYM    DATA     BYTE      CK_CTRL
      0000008EH   SFRSYM    DATA     BYTE      CKCON
      000000A0H.1 SFRSYM    DATA     BIT       CLK1
      000000A0H.5 SFRSYM    DATA     BIT       CLK2
      000000C8H   SFRSYM    DATA     BIT       CP_RL2
      000000C8H   SFRSYM    DATA     BIT       CPRL2
      000000A0H.3 SFRSYM    DATA     BIT       CS
      000000C8H.1 SFRSYM    DATA     BIT       CT2
      000000D0H.7 SFRSYM    DATA     BIT       CY
      000000A0H   SFRSYM    DATA     BIT       DATA?
      000000BEH   SFRSYM    DATA     BYTE      DEV_OFFSET
      00000090H.2 SFRSYM    DATA     BIT       DIN0
      00000090H   SFRSYM    DATA     BIT       DIO0
      00000090H.1 SFRSYM    DATA     BIT       DIO1
      00000080H   SFRSYM    DATA     BIT       DIO2
      00000080H.1 SFRSYM    DATA     BIT       DIO3
      00000080H.2 SFRSYM    DATA     BIT       DIO4
      00000080H.3 SFRSYM    DATA     BIT       DIO5
      00000080H.4 SFRSYM    DATA     BIT       DIO6
      00000080H.5 SFRSYM    DATA     BIT       DIO7
      00000080H.6 SFRSYM    DATA     BIT       DIO8
      00000080H.7 SFRSYM    DATA     BIT       DIO9
      000000A0H.4 SFRSYM    DATA     BIT       DOUT2
      00000083H   SFRSYM    DATA     BYTE      DPH
      00000083H   SFRSYM    DATA     BYTE      DPH0
      00000085H   SFRSYM    DATA     BYTE      DPH1
      00000082H   SFRSYM    DATA     BYTE      DPL
      00000082H   SFRSYM    DATA     BYTE      DPL0
      00000084H   SFRSYM    DATA     BYTE      DPL1
      00000086H   SFRSYM    DATA     BYTE      DPS
      000000A0H.2 SFRSYM    DATA     BIT       DR1
      000000A0H.6 SFRSYM    DATA     BIT       DR2
      000000A0H.6 SFRSYM    DATA     BIT       DR2_CE
      000000A8H.7 SFRSYM    DATA     BIT       EA
      000000D8H   SFRSYM    DATA     BYTE      EICON
      000000E8H   SFRSYM    DATA     BYTE      EIE
      000000F8H   SFRSYM    DATA     BYTE      EIP
      000000A8H.4 SFRSYM    DATA     BIT       ES
      000000A8H.1 SFRSYM    DATA     BIT       ET0
      000000A8H.3 SFRSYM    DATA     BIT       ET1
      000000A8H.5 SFRSYM    DATA     BIT       ET2
      000000E8H.4 SFRSYM    DATA     BIT       EWDI
      000000A8H   SFRSYM    DATA     BIT       EX0
      000000A8H.2 SFRSYM    DATA     BIT       EX1
      000000E8H   SFRSYM    DATA     BIT       EX2
      000000E8H.1 SFRSYM    DATA     BIT       EX3
      000000E8H.2 SFRSYM    DATA     BIT       EX4
      000000E8H.3 SFRSYM    DATA     BIT       EX5
      000000C8H.3 SFRSYM    DATA     BIT       EXEN2
      000000C8H.6 SFRSYM    DATA     BIT       EXF2
      00000091H   SFRSYM    DATA     BYTE      EXIF
      000000D0H.5 SFRSYM    DATA     BIT       F0
      000000D0H.1 SFRSYM    DATA     BIT       F1
      000000A8H   SFRSYM    DATA     BYTE      IE
      00000088H.1 SFRSYM    DATA     BIT       IE0
      00000088H.3 SFRSYM    DATA     BIT       IE1
      00000080H.3 SFRSYM    DATA     BIT       INT0_N
      00000080H.4 SFRSYM    DATA     BIT       INT1_N
      000000B8H   SFRSYM    DATA     BYTE      IP
      00000088H   SFRSYM    DATA     BIT       IT0
LX51 LINKER/LOCATER V4.34a                                                            05/02/2009  16:05:32  PAGE 9


      00000088H.2 SFRSYM    DATA     BIT       IT1
      00000092H   SFRSYM    DATA     BYTE      MPAGE
      000000D0H.2 SFRSYM    DATA     BIT       OV
      000000D0H   SFRSYM    DATA     BIT       P
      00000080H   SFRSYM    DATA     BYTE      P0
      00000080H   SFRSYM    DATA     BIT       P0_0
      00000080H.1 SFRSYM    DATA     BIT       P0_1
      00000080H.2 SFRSYM    DATA     BIT       P0_2
      00000080H.3 SFRSYM    DATA     BIT       P0_3
      00000080H.4 SFRSYM    DATA     BIT       P0_4
      00000080H.5 SFRSYM    DATA     BIT       P0_5
      00000080H.6 SFRSYM    DATA     BIT       P0_6
      00000080H.7 SFRSYM    DATA     BIT       P0_7
      00000095H   SFRSYM    DATA     BYTE      P0_ALT
      00000094H   SFRSYM    DATA     BYTE      P0_DIR
      00000090H   SFRSYM    DATA     BYTE      P1
      00000090H   SFRSYM    DATA     BIT       P1_0
      00000090H.1 SFRSYM    DATA     BIT       P1_1
      00000090H.2 SFRSYM    DATA     BIT       P1_2
      00000097H   SFRSYM    DATA     BYTE      P1_ALT
      00000096H   SFRSYM    DATA     BYTE      P1_DIR
      00000087H   SFRSYM    DATA     BYTE      PCON
      000000B8H.4 SFRSYM    DATA     BIT       PS
      000000D0H   SFRSYM    DATA     BYTE      PSW
      000000B8H.1 SFRSYM    DATA     BIT       PT0
      000000B8H.3 SFRSYM    DATA     BIT       PT1
      000000B8H.5 SFRSYM    DATA     BIT       PT2
      000000F8H.4 SFRSYM    DATA     BIT       PWDI
      00000080H.7 SFRSYM    DATA     BIT       PWM
      000000A9H   SFRSYM    DATA     BYTE      PWMCON
      000000AAH   SFRSYM    DATA     BYTE      PWMDUTY
      000000A0H.7 SFRSYM    DATA     BIT       PWR_UP
      000000B8H   SFRSYM    DATA     BIT       PX0
      000000B8H.2 SFRSYM    DATA     BIT       PX1
      000000F8H   SFRSYM    DATA     BIT       PX2
      000000F8H.1 SFRSYM    DATA     BIT       PX3
      000000F8H.2 SFRSYM    DATA     BIT       PX4
      000000F8H.3 SFRSYM    DATA     BIT       PX5
      000000A0H   SFRSYM    DATA     BYTE      RADIO
      00000098H.2 SFRSYM    DATA     BIT       RB8
      000000CBH   SFRSYM    DATA     BYTE      RCAP2H
      000000CAH   SFRSYM    DATA     BYTE      RCAP2L
      000000C8H.5 SFRSYM    DATA     BIT       RCLK
      000000ADH   SFRSYM    DATA     BYTE      REGX_CTRL
      000000ACH   SFRSYM    DATA     BYTE      REGX_LSB
      000000ABH   SFRSYM    DATA     BYTE      REGX_MSB
      00000098H.4 SFRSYM    DATA     BIT       REN
      00000098H   SFRSYM    DATA     BIT       RI
      000000D0H.3 SFRSYM    DATA     BIT       RS0
      000000D0H.4 SFRSYM    DATA     BIT       RS1
      000000B1H   SFRSYM    DATA     BYTE      RSTREAS
      00000080H.1 SFRSYM    DATA     BIT       RXD
      00000099H   SFRSYM    DATA     BYTE      SBUF
      00000098H   SFRSYM    DATA     BYTE      SCON
      00000098H.7 SFRSYM    DATA     BIT       SM0
      00000098H.6 SFRSYM    DATA     BIT       SM1
      00000098H.5 SFRSYM    DATA     BIT       SM2
      00000081H   SFRSYM    DATA     BYTE      SP
      0000008FH   SFRSYM    DATA     BYTE      SPC_FNC
      000000B3H   SFRSYM    DATA     BYTE      SPI_CTRL
      000000B2H   SFRSYM    DATA     BYTE      SPI_DATA
      000000B4H   SFRSYM    DATA     BYTE      SPICLK
      00000080H.5 SFRSYM    DATA     BIT       T0
      00000080H.6 SFRSYM    DATA     BIT       T1
      000000BCH   SFRSYM    DATA     BYTE      T1_1V2
LX51 LINKER/LOCATER V4.34a                                                            05/02/2009  16:05:32  PAGE 10


      00000090H   SFRSYM    DATA     BIT       T2
      000000BDH   SFRSYM    DATA     BYTE      T2_1V2
      000000C8H   SFRSYM    DATA     BYTE      T2CON
      00000098H.3 SFRSYM    DATA     BIT       TB8
      000000C8H.4 SFRSYM    DATA     BIT       TCLK
      00000088H   SFRSYM    DATA     BYTE      TCON
      000000B7H   SFRSYM    DATA     BYTE      TEST_MODE
      00000088H.5 SFRSYM    DATA     BIT       TF0
      00000088H.7 SFRSYM    DATA     BIT       TF1
      000000C8H.7 SFRSYM    DATA     BIT       TF2
      0000008CH   SFRSYM    DATA     BYTE      TH0
      0000008DH   SFRSYM    DATA     BYTE      TH1
      000000CDH   SFRSYM    DATA     BYTE      TH2
      00000098H.1 SFRSYM    DATA     BIT       TI
      000000B5H   SFRSYM    DATA     BYTE      TICK_DV
      0000008AH   SFRSYM    DATA     BYTE      TL0
      0000008BH   SFRSYM    DATA     BYTE      TL1
      000000CCH   SFRSYM    DATA     BYTE      TL2
      00000089H   SFRSYM    DATA     BYTE      TMOD
      00000088H.4 SFRSYM    DATA     BIT       TR0
      00000088H.6 SFRSYM    DATA     BIT       TR1
      000000C8H.2 SFRSYM    DATA     BIT       TR2
      00000080H.2 SFRSYM    DATA     BIT       TXD
      000000D8H.3 SFRSYM    DATA     BIT       WDTI
      00000077H   SYMBOL    DATA     BYTE      ?_LOG_2?BYTE
      01000E05H   SYMBOL    CODE     NEAR LAB  ?C0001
      01000E13H   SYMBOL    CODE     NEAR LAB  ?C0003
      01001171H   SYMBOL    CODE     NEAR LAB  ?C0004
      01001164H   SYMBOL    CODE     NEAR LAB  ?C0006
      01001171H   SYMBOL    CODE     NEAR LAB  ?C0010
      01000AFAH   SYMBOL    CODE     NEAR LAB  ?C0012
      01000B6CH   SYMBOL    CODE     NEAR LAB  ?C0015
      01000991H   SYMBOL    CODE     NEAR LAB  ?C0016
      010009AEH   SYMBOL    CODE     NEAR LAB  ?C0017
      010009DBH   SYMBOL    CODE     NEAR LAB  ?C0019
      010009E0H   SYMBOL    CODE     NEAR LAB  ?C0021
      01000A1BH   SYMBOL    CODE     NEAR LAB  ?C0022
      01000A48H   SYMBOL    CODE     NEAR LAB  ?C0024
      01000E03H   SYMBOL    CODE     NEAR LAB  ?C0026
      0100116EH   SYMBOL    CODE     NEAR LAB  ?C0027
      01001008H   SYMBOL    CODE     NEAR LAB  ?C0028
      01000B6AH   SYMBOL    CODE     NEAR LAB  ?C0029
      010009A3H   SYMBOL    CODE     NEAR LAB  ?C0030
      00000043H   SYMBOL    DATA     BYTE      ?DELTA_COMPRESS?BYTE
      00000066H   SYMBOL    DATA     BYTE      ?MAIN?BYTE
      01000F18H   SYMBOL    CODE     NEAR LAB  ?SC_0
      01000F1EH   SYMBOL    CODE     NEAR LAB  ?SC_6
      00000068H   SYMBOL    DATA     BYTE      ACCX?347
      000000C2H   SYMBOL    IDATA    BYTE      DELTA?243
      00000043H   SYMBOL    DATA     BYTE      I?241
      00000066H   SYMBOL    DATA     BYTE      I?346
      00000045H   SYMBOL    DATA     BYTE      J?242
      00000047H   SYMBOL    DATA     BYTE      NOW?244
      00000049H   SYMBOL    DATA     BYTE      PREV?245
      00000077H   SYMBOL    DATA     BYTE      X?140

      0100000BH   BLOCK     CODE     NEAR LAB  LVL=0
      0100000BH   LINE      CODE     ---       #323
      ---         BLOCKEND  ---      ---       LVL=0

      01000DECH   BLOCK     CODE     NEAR LAB  LVL=0
      01000DECH   LINE      CODE     ---       #330
      01000DEEH   LINE      CODE     ---       #331
      01000DF0H   LINE      CODE     ---       #336
      01000DF1H   LINE      CODE     ---       #337
LX51 LINKER/LOCATER V4.34a                                                            05/02/2009  16:05:32  PAGE 11


      01000DF3H   LINE      CODE     ---       #338
      01000DF5H   LINE      CODE     ---       #339
      01000DF7H   LINE      CODE     ---       #340
      01000DF9H   LINE      CODE     ---       #341
      01000DFBH   LINE      CODE     ---       #346
      01000DFDH   LINE      CODE     ---       #347
      01000DFFH   LINE      CODE     ---       #348
      01000E01H   LINE      CODE     ---       #349
      01000E03H   LINE      CODE     ---       #353
      01000E05H   LINE      CODE     ---       #360
      01000E08H   LINE      CODE     ---       #361
      01000E0BH   LINE      CODE     ---       #364
      01000E0EH   LINE      CODE     ---       #365
      01000E11H   LINE      CODE     ---       #368
      01000E13H   LINE      CODE     ---       #375
      01000E15H   LINE      CODE     ---       #376
      01000E17H   LINE      CODE     ---       #377
      ---         BLOCKEND  ---      ---       LVL=0

      01001140H   BLOCK     CODE     NEAR LAB  LVL=0
      01001140H   LINE      CODE     ---       #387
      01001142H   LINE      CODE     ---       #388
      01001144H   LINE      CODE     ---       #394
      01001145H   LINE      CODE     ---       #395
      01001147H   LINE      CODE     ---       #396
      01001149H   LINE      CODE     ---       #397
      0100114BH   LINE      CODE     ---       #398
      0100114DH   LINE      CODE     ---       #399
      0100114FH   LINE      CODE     ---       #400
      01001151H   LINE      CODE     ---       #406
      01001153H   LINE      CODE     ---       #407
      01001155H   LINE      CODE     ---       #408
      01001157H   LINE      CODE     ---       #409
      01001159H   LINE      CODE     ---       #410
      0100115BH   LINE      CODE     ---       #411
      0100115DH   LINE      CODE     ---       #412
      0100115EH   LINE      CODE     ---       #413
      01001161H   LINE      CODE     ---       #414
      01001164H   LINE      CODE     ---       #418
      01001166H   LINE      CODE     ---       #419
      01001168H   LINE      CODE     ---       #420
      0100116AH   LINE      CODE     ---       #421
      0100116CH   LINE      CODE     ---       #422
      0100116EH   LINE      CODE     ---       #424
      0100116FH   LINE      CODE     ---       #425
      01001171H   LINE      CODE     ---       #447
      ---         BLOCKEND  ---      ---       LVL=0

      01001000H   BLOCK     CODE     NEAR LAB  LVL=0
      01001000H   LINE      CODE     ---       #464
      01001002H   LINE      CODE     ---       #465
      01001004H   LINE      CODE     ---       #466
      01001006H   LINE      CODE     ---       #467
      01001008H   LINE      CODE     ---       #471
      0100100AH   LINE      CODE     ---       #472
      0100100BH   LINE      CODE     ---       #473
      0100100CH   LINE      CODE     ---       #474
      0100100DH   LINE      CODE     ---       #475
      0100100FH   LINE      CODE     ---       #476
      01001010H   LINE      CODE     ---       #477
      01001011H   LINE      CODE     ---       #478
      01001012H   LINE      CODE     ---       #479
      01001013H   LINE      CODE     ---       #480
      01001014H   LINE      CODE     ---       #481
      01001015H   LINE      CODE     ---       #482
LX51 LINKER/LOCATER V4.34a                                                            05/02/2009  16:05:32  PAGE 12


      01001017H   LINE      CODE     ---       #483
      01001018H   LINE      CODE     ---       #484
      01001019H   LINE      CODE     ---       #485
      0100101AH   LINE      CODE     ---       #486
      0100101BH   LINE      CODE     ---       #487
      0100101CH   LINE      CODE     ---       #488
      0100101DH   LINE      CODE     ---       #489
      0100101FH   LINE      CODE     ---       #490
      01001021H   LINE      CODE     ---       #491
      01001023H   LINE      CODE     ---       #492
      01001025H   LINE      CODE     ---       #498
      01001028H   LINE      CODE     ---       #499
      ---         BLOCKEND  ---      ---       LVL=0

      01000AEEH   BLOCK     CODE     NEAR LAB  LVL=0
      01000AEEH   LINE      CODE     ---       #507
      01000AF1H   LINE      CODE     ---       #508
      01000AF4H   LINE      CODE     ---       #509
      01000AF7H   LINE      CODE     ---       #510
      01000AFAH   LINE      CODE     ---       #512
      01000AFBH   LINE      CODE     ---       #513
      01000AFDH   LINE      CODE     ---       #514
      01000AFFH   LINE      CODE     ---       #515
      01000B01H   LINE      CODE     ---       #516
      01000B03H   LINE      CODE     ---       #517
      01000B05H   LINE      CODE     ---       #518
      01000B07H   LINE      CODE     ---       #523
      01000B0AH   LINE      CODE     ---       #524
      01000B0DH   LINE      CODE     ---       #527
      01000B0FH   LINE      CODE     ---       #528
      01000B11H   LINE      CODE     ---       #529
      01000B12H   LINE      CODE     ---       #530
      01000B13H   LINE      CODE     ---       #531
      01000B14H   LINE      CODE     ---       #532
      01000B15H   LINE      CODE     ---       #533
      01000B16H   LINE      CODE     ---       #534
      01000B17H   LINE      CODE     ---       #535
      01000B19H   LINE      CODE     ---       #536
      01000B1AH   LINE      CODE     ---       #537
      01000B1BH   LINE      CODE     ---       #538
      01000B1CH   LINE      CODE     ---       #539
      01000B1DH   LINE      CODE     ---       #540
      01000B1EH   LINE      CODE     ---       #541
      01000B20H   LINE      CODE     ---       #542
      01000B21H   LINE      CODE     ---       #543
      01000B22H   LINE      CODE     ---       #544
      01000B23H   LINE      CODE     ---       #545
      01000B25H   LINE      CODE     ---       #546
      01000B26H   LINE      CODE     ---       #547
      01000B27H   LINE      CODE     ---       #548
      01000B29H   LINE      CODE     ---       #551
      01000B2AH   LINE      CODE     ---       #552
      01000B2CH   LINE      CODE     ---       #553
      01000B2EH   LINE      CODE     ---       #554
      01000B2FH   LINE      CODE     ---       #555
      01000B31H   LINE      CODE     ---       #556
      01000B33H   LINE      CODE     ---       #557
      01000B34H   LINE      CODE     ---       #558
      01000B37H   LINE      CODE     ---       #559
      01000B39H   LINE      CODE     ---       #560
      01000B3CH   LINE      CODE     ---       #563
      01000B3EH   LINE      CODE     ---       #564
      01000B41H   LINE      CODE     ---       #565
      01000B44H   LINE      CODE     ---       #567
      01000B47H   LINE      CODE     ---       #568
LX51 LINKER/LOCATER V4.34a                                                            05/02/2009  16:05:32  PAGE 13


      01000B4AH   LINE      CODE     ---       #569
      01000B4DH   LINE      CODE     ---       #570
      01000B50H   LINE      CODE     ---       #573
      01000B52H   LINE      CODE     ---       #574
      01000B54H   LINE      CODE     ---       #575
      01000B55H   LINE      CODE     ---       #576
      01000B57H   LINE      CODE     ---       #579
      01000B59H   LINE      CODE     ---       #580
      01000B5BH   LINE      CODE     ---       #581
      01000B5DH   LINE      CODE     ---       #582
      01000B5EH   LINE      CODE     ---       #583
      01000B60H   LINE      CODE     ---       #584
      01000B62H   LINE      CODE     ---       #585
      01000B64H   LINE      CODE     ---       #586
      01000B66H   LINE      CODE     ---       #587
      01000B68H   LINE      CODE     ---       #588
      01000B6AH   LINE      CODE     ---       #590
      01000B6CH   LINE      CODE     ---       #594
      ---         BLOCKEND  ---      ---       LVL=0

      0100095FH   BLOCK     CODE     NEAR LAB  LVL=0
      0100095FH   LINE      CODE     ---       #612
      01000961H   LINE      CODE     ---       #613
      01000963H   LINE      CODE     ---       #620
      01000966H   LINE      CODE     ---       #627
      01000969H   LINE      CODE     ---       #630
      0100096CH   LINE      CODE     ---       #635
      0100096EH   LINE      CODE     ---       #636
      01000970H   LINE      CODE     ---       #637
      01000973H   LINE      CODE     ---       #651
      01000975H   LINE      CODE     ---       #652
      01000977H   LINE      CODE     ---       #653
      01000979H   LINE      CODE     ---       #654
      0100097CH   LINE      CODE     ---       #657
      0100097EH   LINE      CODE     ---       #658
      01000980H   LINE      CODE     ---       #659
      01000983H   LINE      CODE     ---       #662
      01000985H   LINE      CODE     ---       #663
      01000987H   LINE      CODE     ---       #664
      01000989H   LINE      CODE     ---       #665
      0100098CH   LINE      CODE     ---       #669
      0100098DH   LINE      CODE     ---       #670
      0100098FH   LINE      CODE     ---       #671
      01000991H   LINE      CODE     ---       #675
      01000994H   LINE      CODE     ---       #678
      01000996H   LINE      CODE     ---       #679
      01000998H   LINE      CODE     ---       #680
      0100099BH   LINE      CODE     ---       #683
      0100099DH   LINE      CODE     ---       #684
      0100099FH   LINE      CODE     ---       #685
      010009A1H   LINE      CODE     ---       #686
      010009A3H   LINE      CODE     ---       #688
      010009A4H   LINE      CODE     ---       #689
      010009A6H   LINE      CODE     ---       #690
      010009A8H   LINE      CODE     ---       #691
      010009AAH   LINE      CODE     ---       #692
      010009ACH   LINE      CODE     ---       #693
      010009AEH   LINE      CODE     ---       #698
      010009B0H   LINE      CODE     ---       #699
      010009B2H   LINE      CODE     ---       #700
      010009B4H   LINE      CODE     ---       #701
      010009B7H   LINE      CODE     ---       #719
      010009BAH   LINE      CODE     ---       #726
      010009BCH   LINE      CODE     ---       #727
      010009BEH   LINE      CODE     ---       #728
LX51 LINKER/LOCATER V4.34a                                                            05/02/2009  16:05:32  PAGE 14


      010009C0H   LINE      CODE     ---       #729
      010009C3H   LINE      CODE     ---       #734
      010009C4H   LINE      CODE     ---       #735
      010009C6H   LINE      CODE     ---       #736
      010009C8H   LINE      CODE     ---       #739
      010009CAH   LINE      CODE     ---       #740
      010009CCH   LINE      CODE     ---       #743
      010009CEH   LINE      CODE     ---       #744
      010009D0H   LINE      CODE     ---       #749
      010009D3H   LINE      CODE     ---       #752
      010009D5H   LINE      CODE     ---       #756
      010009D7H   LINE      CODE     ---       #760
      010009D9H   LINE      CODE     ---       #764
      010009DBH   LINE      CODE     ---       #773
      010009DCH   LINE      CODE     ---       #774
      010009DEH   LINE      CODE     ---       #775
      010009E0H   LINE      CODE     ---       #777
      010009E1H   LINE      CODE     ---       #778
      010009E3H   LINE      CODE     ---       #779
      010009E5H   LINE      CODE     ---       #780
      010009E7H   LINE      CODE     ---       #781
      010009E9H   LINE      CODE     ---       #782
      010009EBH   LINE      CODE     ---       #783
      010009EDH   LINE      CODE     ---       #788
      010009EFH   LINE      CODE     ---       #789
      010009F2H   LINE      CODE     ---       #790
      010009F4H   LINE      CODE     ---       #791
      010009F6H   LINE      CODE     ---       #794
      010009F8H   LINE      CODE     ---       #795
      010009F9H   LINE      CODE     ---       #796
      010009FBH   LINE      CODE     ---       #797
      010009FDH   LINE      CODE     ---       #798
      010009FEH   LINE      CODE     ---       #799
      010009FFH   LINE      CODE     ---       #800
      01000A01H   LINE      CODE     ---       #803
      01000A03H   LINE      CODE     ---       #804
      01000A04H   LINE      CODE     ---       #805
      01000A05H   LINE      CODE     ---       #806
      01000A07H   LINE      CODE     ---       #809
      01000A09H   LINE      CODE     ---       #810
      01000A0BH   LINE      CODE     ---       #811
      01000A0EH   LINE      CODE     ---       #814
      01000A10H   LINE      CODE     ---       #815
      01000A12H   LINE      CODE     ---       #816
      01000A14H   LINE      CODE     ---       #817
      01000A15H   LINE      CODE     ---       #818
      01000A17H   LINE      CODE     ---       #819
      01000A19H   LINE      CODE     ---       #820
      01000A1BH   LINE      CODE     ---       #826
      01000A1EH   LINE      CODE     ---       #827
      01000A21H   LINE      CODE     ---       #828
      01000A24H   LINE      CODE     ---       #829
      01000A27H   LINE      CODE     ---       #833
      01000A29H   LINE      CODE     ---       #834
      01000A2BH   LINE      CODE     ---       #835
      01000A2DH   LINE      CODE     ---       #836
      01000A2FH   LINE      CODE     ---       #841
      01000A31H   LINE      CODE     ---       #842
      01000A33H   LINE      CODE     ---       #845
      01000A36H   LINE      CODE     ---       #848
      01000A38H   LINE      CODE     ---       #849
      01000A3AH   LINE      CODE     ---       #850
      01000A3DH   LINE      CODE     ---       #854
      01000A3FH   LINE      CODE     ---       #855
      01000A41H   LINE      CODE     ---       #856
LX51 LINKER/LOCATER V4.34a                                                            05/02/2009  16:05:32  PAGE 15


      01000A43H   LINE      CODE     ---       #857
      01000A46H   LINE      CODE     ---       #860
      01000A48H   LINE      CODE     ---       #867
      01000A4BH   LINE      CODE     ---       #868
      01000A4EH   LINE      CODE     ---       #869
      01000A51H   LINE      CODE     ---       #870
      01000A54H   LINE      CODE     ---       #889
      01000A56H   LINE      CODE     ---       #890
      01000A58H   LINE      CODE     ---       #891
      01000A5AH   LINE      CODE     ---       #892
      01000A5CH   LINE      CODE     ---       #893
      01000A5FH   LINE      CODE     ---       #901
      ---         BLOCKEND  ---      ---       LVL=0

      ---         MODULE    ---      ---       ISR_RF
      00000039H   PUBLIC    DATA     BYTE      ?_RF_SEND?BYTE
      01000DB6H   PUBLIC    CODE     NEAR LAB  _RF_CONFIGURE
      01000B6DH   PUBLIC    CODE     NEAR LAB  _RF_SEND
      00000021H   PUBLIC    DATA     BYTE      RF_BUF
      01000BD8H   PUBLIC    CODE     NEAR LAB  RF_CH1_RECV
      01000EDBH   PUBLIC    CODE     NEAR LAB  RF_INIT
      01000F21H   PUBLIC    CODE     NEAR LAB  RF_WAIT_MSG
      000000D0H.6 SFRSYM    DATA     BIT       AC
      000000E0H   SFRSYM    DATA     BYTE      ACC
      000000A1H   SFRSYM    DATA     BYTE      ADCCON
      000000A2H   SFRSYM    DATA     BYTE      ADCDATAH
      000000A3H   SFRSYM    DATA     BYTE      ADCDATAL
      000000A4H   SFRSYM    DATA     BYTE      ADCSTATIC
      000000F0H   SFRSYM    DATA     BYTE      B
      000000C8H.1 SFRSYM    DATA     BIT       C_T2
      000000A0H.6 SFRSYM    DATA     BIT       CE
      000000B6H   SFRSYM    DATA     BYTE      CK_CTRL
      0000008EH   SFRSYM    DATA     BYTE      CKCON
      000000A0H.1 SFRSYM    DATA     BIT       CLK1
      000000A0H.5 SFRSYM    DATA     BIT       CLK2
      000000C8H   SFRSYM    DATA     BIT       CP_RL2
      000000C8H   SFRSYM    DATA     BIT       CPRL2
      000000A0H.3 SFRSYM    DATA     BIT       CS
      000000C8H.1 SFRSYM    DATA     BIT       CT2
      000000D0H.7 SFRSYM    DATA     BIT       CY
      000000A0H   SFRSYM    DATA     BIT       DATA?
      000000BEH   SFRSYM    DATA     BYTE      DEV_OFFSET
      00000090H.2 SFRSYM    DATA     BIT       DIN0
      00000090H   SFRSYM    DATA     BIT       DIO0
      00000090H.1 SFRSYM    DATA     BIT       DIO1
      00000080H   SFRSYM    DATA     BIT       DIO2
      00000080H.1 SFRSYM    DATA     BIT       DIO3
      00000080H.2 SFRSYM    DATA     BIT       DIO4
      00000080H.3 SFRSYM    DATA     BIT       DIO5
      00000080H.4 SFRSYM    DATA     BIT       DIO6
      00000080H.5 SFRSYM    DATA     BIT       DIO7
      00000080H.6 SFRSYM    DATA     BIT       DIO8
      00000080H.7 SFRSYM    DATA     BIT       DIO9
      000000A0H.4 SFRSYM    DATA     BIT       DOUT2
      00000083H   SFRSYM    DATA     BYTE      DPH
      00000083H   SFRSYM    DATA     BYTE      DPH0
      00000085H   SFRSYM    DATA     BYTE      DPH1
      00000082H   SFRSYM    DATA     BYTE      DPL
      00000082H   SFRSYM    DATA     BYTE      DPL0
      00000084H   SFRSYM    DATA     BYTE      DPL1
      00000086H   SFRSYM    DATA     BYTE      DPS
      000000A0H.2 SFRSYM    DATA     BIT       DR1
      000000A0H.6 SFRSYM    DATA     BIT       DR2
      000000A0H.6 SFRSYM    DATA     BIT       DR2_CE
      000000A8H.7 SFRSYM    DATA     BIT       EA
LX51 LINKER/LOCATER V4.34a                                                            05/02/2009  16:05:32  PAGE 16


      000000D8H   SFRSYM    DATA     BYTE      EICON
      000000E8H   SFRSYM    DATA     BYTE      EIE
      000000F8H   SFRSYM    DATA     BYTE      EIP
      000000A8H.4 SFRSYM    DATA     BIT       ES
      000000A8H.1 SFRSYM    DATA     BIT       ET0
      000000A8H.3 SFRSYM    DATA     BIT       ET1
      000000A8H.5 SFRSYM    DATA     BIT       ET2
      000000E8H.4 SFRSYM    DATA     BIT       EWDI
      000000A8H   SFRSYM    DATA     BIT       EX0
      000000A8H.2 SFRSYM    DATA     BIT       EX1
      000000E8H   SFRSYM    DATA     BIT       EX2
      000000E8H.1 SFRSYM    DATA     BIT       EX3
      000000E8H.2 SFRSYM    DATA     BIT       EX4
      000000E8H.3 SFRSYM    DATA     BIT       EX5
      000000C8H.3 SFRSYM    DATA     BIT       EXEN2
      000000C8H.6 SFRSYM    DATA     BIT       EXF2
      00000091H   SFRSYM    DATA     BYTE      EXIF
      000000D0H.5 SFRSYM    DATA     BIT       F0
      000000D0H.1 SFRSYM    DATA     BIT       F1
      000000A8H   SFRSYM    DATA     BYTE      IE
      00000088H.1 SFRSYM    DATA     BIT       IE0
      00000088H.3 SFRSYM    DATA     BIT       IE1
      00000080H.3 SFRSYM    DATA     BIT       INT0_N
      00000080H.4 SFRSYM    DATA     BIT       INT1_N
      000000B8H   SFRSYM    DATA     BYTE      IP
      00000088H   SFRSYM    DATA     BIT       IT0
      00000088H.2 SFRSYM    DATA     BIT       IT1
      00000092H   SFRSYM    DATA     BYTE      MPAGE
      000000D0H.2 SFRSYM    DATA     BIT       OV
      000000D0H   SFRSYM    DATA     BIT       P
      00000080H   SFRSYM    DATA     BYTE      P0
      00000080H   SFRSYM    DATA     BIT       P0_0
      00000080H.1 SFRSYM    DATA     BIT       P0_1
      00000080H.2 SFRSYM    DATA     BIT       P0_2
      00000080H.3 SFRSYM    DATA     BIT       P0_3
      00000080H.4 SFRSYM    DATA     BIT       P0_4
      00000080H.5 SFRSYM    DATA     BIT       P0_5
      00000080H.6 SFRSYM    DATA     BIT       P0_6
      00000080H.7 SFRSYM    DATA     BIT       P0_7
      00000095H   SFRSYM    DATA     BYTE      P0_ALT
      00000094H   SFRSYM    DATA     BYTE      P0_DIR
      00000090H   SFRSYM    DATA     BYTE      P1
      00000090H   SFRSYM    DATA     BIT       P1_0
      00000090H.1 SFRSYM    DATA     BIT       P1_1
      00000090H.2 SFRSYM    DATA     BIT       P1_2
      00000097H   SFRSYM    DATA     BYTE      P1_ALT
      00000096H   SFRSYM    DATA     BYTE      P1_DIR
      00000087H   SFRSYM    DATA     BYTE      PCON
      000000B8H.4 SFRSYM    DATA     BIT       PS
      000000D0H   SFRSYM    DATA     BYTE      PSW
      000000B8H.1 SFRSYM    DATA     BIT       PT0
      000000B8H.3 SFRSYM    DATA     BIT       PT1
      000000B8H.5 SFRSYM    DATA     BIT       PT2
      000000F8H.4 SFRSYM    DATA     BIT       PWDI
      00000080H.7 SFRSYM    DATA     BIT       PWM
      000000A9H   SFRSYM    DATA     BYTE      PWMCON
      000000AAH   SFRSYM    DATA     BYTE      PWMDUTY
      000000A0H.7 SFRSYM    DATA     BIT       PWR_UP
      000000B8H   SFRSYM    DATA     BIT       PX0
      000000B8H.2 SFRSYM    DATA     BIT       PX1
      000000F8H   SFRSYM    DATA     BIT       PX2
      000000F8H.1 SFRSYM    DATA     BIT       PX3
      000000F8H.2 SFRSYM    DATA     BIT       PX4
      000000F8H.3 SFRSYM    DATA     BIT       PX5
      000000A0H   SFRSYM    DATA     BYTE      RADIO
LX51 LINKER/LOCATER V4.34a                                                            05/02/2009  16:05:32  PAGE 17


      00000098H.2 SFRSYM    DATA     BIT       RB8
      000000CBH   SFRSYM    DATA     BYTE      RCAP2H
      000000CAH   SFRSYM    DATA     BYTE      RCAP2L
      000000C8H.5 SFRSYM    DATA     BIT       RCLK
      000000ADH   SFRSYM    DATA     BYTE      REGX_CTRL
      000000ACH   SFRSYM    DATA     BYTE      REGX_LSB
      000000ABH   SFRSYM    DATA     BYTE      REGX_MSB
      00000098H.4 SFRSYM    DATA     BIT       REN
      00000098H   SFRSYM    DATA     BIT       RI
      000000D0H.3 SFRSYM    DATA     BIT       RS0
      000000D0H.4 SFRSYM    DATA     BIT       RS1
      000000B1H   SFRSYM    DATA     BYTE      RSTREAS
      00000080H.1 SFRSYM    DATA     BIT       RXD
      00000099H   SFRSYM    DATA     BYTE      SBUF
      00000098H   SFRSYM    DATA     BYTE      SCON
      00000098H.7 SFRSYM    DATA     BIT       SM0
      00000098H.6 SFRSYM    DATA     BIT       SM1
      00000098H.5 SFRSYM    DATA     BIT       SM2
      00000081H   SFRSYM    DATA     BYTE      SP
      0000008FH   SFRSYM    DATA     BYTE      SPC_FNC
      000000B3H   SFRSYM    DATA     BYTE      SPI_CTRL
      000000B2H   SFRSYM    DATA     BYTE      SPI_DATA
      000000B4H   SFRSYM    DATA     BYTE      SPICLK
      00000080H.5 SFRSYM    DATA     BIT       T0
      00000080H.6 SFRSYM    DATA     BIT       T1
      000000BCH   SFRSYM    DATA     BYTE      T1_1V2
      00000090H   SFRSYM    DATA     BIT       T2
      000000BDH   SFRSYM    DATA     BYTE      T2_1V2
      000000C8H   SFRSYM    DATA     BYTE      T2CON
      00000098H.3 SFRSYM    DATA     BIT       TB8
      000000C8H.4 SFRSYM    DATA     BIT       TCLK
      00000088H   SFRSYM    DATA     BYTE      TCON
      000000B7H   SFRSYM    DATA     BYTE      TEST_MODE
      00000088H.5 SFRSYM    DATA     BIT       TF0
      00000088H.7 SFRSYM    DATA     BIT       TF1
      000000C8H.7 SFRSYM    DATA     BIT       TF2
      0000008CH   SFRSYM    DATA     BYTE      TH0
      0000008DH   SFRSYM    DATA     BYTE      TH1
      000000CDH   SFRSYM    DATA     BYTE      TH2
      00000098H.1 SFRSYM    DATA     BIT       TI
      000000B5H   SFRSYM    DATA     BYTE      TICK_DV
      0000008AH   SFRSYM    DATA     BYTE      TL0
      0000008BH   SFRSYM    DATA     BYTE      TL1
      000000CCH   SFRSYM    DATA     BYTE      TL2
      00000089H   SFRSYM    DATA     BYTE      TMOD
      00000088H.4 SFRSYM    DATA     BIT       TR0
      00000088H.6 SFRSYM    DATA     BIT       TR1
      000000C8H.2 SFRSYM    DATA     BIT       TR2
      00000080H.2 SFRSYM    DATA     BIT       TXD
      000000D8H.3 SFRSYM    DATA     BIT       WDTI
      00000061H   SYMBOL    DATA     BYTE      ?_RF_CONFIGURE?BYTE
      01000DC3H   SYMBOL    CODE     NEAR LAB  ?C0002
      01000DE9H   SYMBOL    CODE     NEAR LAB  ?C0003
      01000B7CH   SYMBOL    CODE     NEAR LAB  ?C0006
      01000BA6H   SYMBOL    CODE     NEAR LAB  ?C0007
      01000BABH   SYMBOL    CODE     NEAR LAB  ?C0009
      01000BD5H   SYMBOL    CODE     NEAR LAB  ?C0010
      01000BFFH   SYMBOL    CODE     NEAR LAB  ?C0015
      01000C17H   SYMBOL    CODE     NEAR LAB  ?C0016
      01000F23H   SYMBOL    CODE     NEAR LAB  ?C0018
      01000F27H   SYMBOL    CODE     NEAR LAB  ?C0019
      01000DDEH   SYMBOL    CODE     NEAR LAB  ?C0021
      01000BA4H   SYMBOL    CODE     NEAR LAB  ?C0022
      01000BD3H   SYMBOL    CODE     NEAR LAB  ?C0023
      01000C0FH   SYMBOL    CODE     NEAR LAB  ?C0024
LX51 LINKER/LOCATER V4.34a                                                            05/02/2009  16:05:32  PAGE 18


      00000079H   SYMBOL    DATA     BYTE      ?RF_CH1_RECV?BYTE
      01000C1AH   SYMBOL    CODE     NEAR LAB  ?RF_CH1_RECV?OUT
      00000039H   SYMBOL    DATA     BYTE      ADDR?243
      0000003CH   SYMBOL    DATA     BYTE      ADDR_LEN?244
      00000064H   SYMBOL    DATA     BYTE      I?142
      00000041H   SYMBOL    DATA     BYTE      I?247
      00000079H   SYMBOL    DATA     BYTE      I?348
      00000061H   SYMBOL    DATA     BYTE      P?141
      0000003DH   SYMBOL    DATA     BYTE      PAYLOAD?245
      00000040H   SYMBOL    DATA     BYTE      PL_LEN?246

      01000EDBH   BLOCK     CODE     NEAR LAB  LVL=0
      01000EDBH   LINE      CODE     ---       #265
      01000EDDH   LINE      CODE     ---       #269
      01000EDEH   LINE      CODE     ---       #270
      01000EDFH   LINE      CODE     ---       #271
      01000EE1H   LINE      CODE     ---       #272
      01000EE4H   LINE      CODE     ---       #275
      01000EE6H   LINE      CODE     ---       #278
      01000EE8H   LINE      CODE     ---       #281
      ---         BLOCKEND  ---      ---       LVL=0

      01000DB6H   BLOCK     CODE     NEAR LAB  LVL=0
      01000DB6H   LINE      CODE     ---       #304
      01000DB8H   LINE      CODE     ---       #308
      01000DBAH   LINE      CODE     ---       #309
      01000DBCH   LINE      CODE     ---       #310
      01000DBEH   LINE      CODE     ---       #314
      01000DBFH   LINE      CODE     ---       #315
      01000DC1H   LINE      CODE     ---       #316
      01000DC3H   LINE      CODE     ---       #320
      01000DC5H   LINE      CODE     ---       #321
      01000DC7H   LINE      CODE     ---       #322
      01000DC9H   LINE      CODE     ---       #323
      01000DCCH   LINE      CODE     ---       #324
      01000DCFH   LINE      CODE     ---       #325
      01000DD2H   LINE      CODE     ---       #326
      01000DD3H   LINE      CODE     ---       #327
      01000DD6H   LINE      CODE     ---       #330
      01000DD8H   LINE      CODE     ---       #331
      01000DDAH   LINE      CODE     ---       #332
      01000DDCH   LINE      CODE     ---       #333
      01000DDEH   LINE      CODE     ---       #335
      01000DDFH   LINE      CODE     ---       #336
      01000DE1H   LINE      CODE     ---       #337
      01000DE3H   LINE      CODE     ---       #338
      01000DE5H   LINE      CODE     ---       #339
      01000DE7H   LINE      CODE     ---       #340
      01000DE9H   LINE      CODE     ---       #345
      01000DEBH   LINE      CODE     ---       #348
      ---         BLOCKEND  ---      ---       LVL=0

      01000B6DH   BLOCK     CODE     NEAR LAB  LVL=0
      01000B6DH   LINE      CODE     ---       #365
      01000B6FH   LINE      CODE     ---       #366
      01000B71H   LINE      CODE     ---       #367
      01000B73H   LINE      CODE     ---       #368
      01000B75H   LINE      CODE     ---       #376
      01000B77H   LINE      CODE     ---       #381
      01000B78H   LINE      CODE     ---       #382
      01000B7AH   LINE      CODE     ---       #383
      01000B7CH   LINE      CODE     ---       #385
      01000B7DH   LINE      CODE     ---       #386
      01000B7FH   LINE      CODE     ---       #387
      01000B81H   LINE      CODE     ---       #388
LX51 LINKER/LOCATER V4.34a                                                            05/02/2009  16:05:32  PAGE 19


      01000B83H   LINE      CODE     ---       #389
      01000B84H   LINE      CODE     ---       #390
      01000B86H   LINE      CODE     ---       #391
      01000B87H   LINE      CODE     ---       #392
      01000B89H   LINE      CODE     ---       #395
      01000B8BH   LINE      CODE     ---       #396
      01000B8DH   LINE      CODE     ---       #397
      01000B8FH   LINE      CODE     ---       #398
      01000B92H   LINE      CODE     ---       #399
      01000B95H   LINE      CODE     ---       #400
      01000B98H   LINE      CODE     ---       #401
      01000B99H   LINE      CODE     ---       #402
      01000B9CH   LINE      CODE     ---       #403
      01000B9EH   LINE      CODE     ---       #404
      01000BA0H   LINE      CODE     ---       #405
      01000BA2H   LINE      CODE     ---       #406
      01000BA4H   LINE      CODE     ---       #408
      01000BA6H   LINE      CODE     ---       #413
      01000BA7H   LINE      CODE     ---       #414
      01000BA9H   LINE      CODE     ---       #415
      01000BABH   LINE      CODE     ---       #417
      01000BACH   LINE      CODE     ---       #418
      01000BAEH   LINE      CODE     ---       #419
      01000BB0H   LINE      CODE     ---       #420
      01000BB2H   LINE      CODE     ---       #421
      01000BB3H   LINE      CODE     ---       #422
      01000BB5H   LINE      CODE     ---       #423
      01000BB6H   LINE      CODE     ---       #424
      01000BB8H   LINE      CODE     ---       #427
      01000BBAH   LINE      CODE     ---       #428
      01000BBCH   LINE      CODE     ---       #429
      01000BBEH   LINE      CODE     ---       #430
      01000BC1H   LINE      CODE     ---       #431
      01000BC4H   LINE      CODE     ---       #432
      01000BC7H   LINE      CODE     ---       #433
      01000BC8H   LINE      CODE     ---       #434
      01000BCBH   LINE      CODE     ---       #435
      01000BCDH   LINE      CODE     ---       #436
      01000BCFH   LINE      CODE     ---       #437
      01000BD1H   LINE      CODE     ---       #438
      01000BD3H   LINE      CODE     ---       #440
      01000BD5H   LINE      CODE     ---       #445
      01000BD7H   LINE      CODE     ---       #448
      ---         BLOCKEND  ---      ---       LVL=0

      01000053H   BLOCK     CODE     NEAR LAB  LVL=0
      01000053H   LINE      CODE     ---       #452
      ---         BLOCKEND  ---      ---       LVL=0

      01000BD8H   BLOCK     CODE     NEAR LAB  LVL=0
      01000BD8H   LINE      CODE     ---       #461
      01000BDAH   LINE      CODE     ---       #462
      01000BDCH   LINE      CODE     ---       #463
      01000BDEH   LINE      CODE     ---       #464
      01000BE0H   LINE      CODE     ---       #465
      01000BE2H   LINE      CODE     ---       #466
      01000BE5H   LINE      CODE     ---       #467
      01000BE7H   LINE      CODE     ---       #468
      01000BE9H   LINE      CODE     ---       #469
      01000BEBH   LINE      CODE     ---       #470
      01000BEDH   LINE      CODE     ---       #471
      01000BEFH   LINE      CODE     ---       #472
      01000BF1H   LINE      CODE     ---       #473
      01000BF3H   LINE      CODE     ---       #474
      01000BF5H   LINE      CODE     ---       #480
LX51 LINKER/LOCATER V4.34a                                                            05/02/2009  16:05:32  PAGE 20


      01000BF8H   LINE      CODE     ---       #481
      01000BFBH   LINE      CODE     ---       #488
      01000BFDH   LINE      CODE     ---       #489
      01000BFFH   LINE      CODE     ---       #495
      01000C02H   LINE      CODE     ---       #498
      01000C03H   LINE      CODE     ---       #499
      01000C04H   LINE      CODE     ---       #500
      01000C07H   LINE      CODE     ---       #501
      01000C09H   LINE      CODE     ---       #502
      01000C0BH   LINE      CODE     ---       #503
      01000C0DH   LINE      CODE     ---       #504
      01000C0FH   LINE      CODE     ---       #506
      01000C10H   LINE      CODE     ---       #507
      01000C12H   LINE      CODE     ---       #508
      01000C13H   LINE      CODE     ---       #509
      01000C15H   LINE      CODE     ---       #512
      01000C17H   LINE      CODE     ---       #516
      01000C1AH   LINE      CODE     ---       #523
      01000C1DH   LINE      CODE     ---       #526
      01000C1FH   LINE      CODE     ---       #527
      01000C21H   LINE      CODE     ---       #528
      01000C23H   LINE      CODE     ---       #529
      01000C25H   LINE      CODE     ---       #530
      01000C27H   LINE      CODE     ---       #531
      01000C29H   LINE      CODE     ---       #532
      01000C2BH   LINE      CODE     ---       #533
      01000C2DH   LINE      CODE     ---       #534
      01000C2FH   LINE      CODE     ---       #535
      01000C31H   LINE      CODE     ---       #536
      01000C33H   LINE      CODE     ---       #537
      01000C35H   LINE      CODE     ---       #538
      01000C37H   LINE      CODE     ---       #539
      ---         BLOCKEND  ---      ---       LVL=0

      01000F21H   BLOCK     CODE     NEAR LAB  LVL=0
      01000F21H   LINE      CODE     ---       #555
      01000F23H   LINE      CODE     ---       #559
      01000F25H   LINE      CODE     ---       #560
      01000F27H   LINE      CODE     ---       #565
      01000F29H   LINE      CODE     ---       #568
      ---         BLOCKEND  ---      ---       LVL=0

      ---         MODULE    ---      ---       ECO_PAGE
      00000050H   PUBLIC    DATA     BYTE      ECO_PAGE_ADDR
      01001080H   PUBLIC    CODE     NEAR LAB  ECO_PAGE_INIT
      0100065BH   PUBLIC    CODE     NEAR LAB  ECO_PAGE_MANAGER
      0000004CH   PUBLIC    DATA     BYTE      ECO_PAGE_PREV_PID
      0000004EH   PUBLIC    DATA     BYTE      ECO_PAGE_PREV_VID
      000000BBH   PUBLIC    IDATA    BYTE      ECO_PAGE_REGISTER1
      000000BCH   PUBLIC    IDATA    BYTE      ECO_PAGE_REGISTER2
      000000BDH   PUBLIC    IDATA    BYTE      ECO_PAGE_REGISTER3
      000000BEH   PUBLIC    IDATA    BYTE      ECO_PAGE_REGISTER4
      000000BFH   PUBLIC    IDATA    BYTE      ECO_PAGE_REGISTER5
      000000C0H   PUBLIC    IDATA    BYTE      ECO_PAGE_REGISTER6
      000000C1H   PUBLIC    IDATA    BYTE      ECO_PAGE_REGISTER7
      0000004BH   PUBLIC    DATA     BYTE      ECO_PAGE_SPI_CONN
      000000B7H   PUBLIC    IDATA    BYTE      ECO_PAGE_TABLE
      00000052H   PUBLIC    DATA     BYTE      ECO_PAGE_TABLE_INDEX
      000000D0H.6 SFRSYM    DATA     BIT       AC
      000000E0H   SFRSYM    DATA     BYTE      ACC
      000000A1H   SFRSYM    DATA     BYTE      ADCCON
      000000A2H   SFRSYM    DATA     BYTE      ADCDATAH
      000000A3H   SFRSYM    DATA     BYTE      ADCDATAL
      000000A4H   SFRSYM    DATA     BYTE      ADCSTATIC
      000000F0H   SFRSYM    DATA     BYTE      B
LX51 LINKER/LOCATER V4.34a                                                            05/02/2009  16:05:32  PAGE 21


      000000C8H.1 SFRSYM    DATA     BIT       C_T2
      000000A0H.6 SFRSYM    DATA     BIT       CE
      000000B6H   SFRSYM    DATA     BYTE      CK_CTRL
      0000008EH   SFRSYM    DATA     BYTE      CKCON
      000000A0H.1 SFRSYM    DATA     BIT       CLK1
      000000A0H.5 SFRSYM    DATA     BIT       CLK2
      000000C8H   SFRSYM    DATA     BIT       CP_RL2
      000000C8H   SFRSYM    DATA     BIT       CPRL2
      000000A0H.3 SFRSYM    DATA     BIT       CS
      000000C8H.1 SFRSYM    DATA     BIT       CT2
      000000D0H.7 SFRSYM    DATA     BIT       CY
      000000A0H   SFRSYM    DATA     BIT       DATA?
      000000BEH   SFRSYM    DATA     BYTE      DEV_OFFSET
      00000090H.2 SFRSYM    DATA     BIT       DIN0
      00000090H   SFRSYM    DATA     BIT       DIO0
      00000090H.1 SFRSYM    DATA     BIT       DIO1
      00000080H   SFRSYM    DATA     BIT       DIO2
      00000080H.1 SFRSYM    DATA     BIT       DIO3
      00000080H.2 SFRSYM    DATA     BIT       DIO4
      00000080H.3 SFRSYM    DATA     BIT       DIO5
      00000080H.4 SFRSYM    DATA     BIT       DIO6
      00000080H.5 SFRSYM    DATA     BIT       DIO7
      00000080H.6 SFRSYM    DATA     BIT       DIO8
      00000080H.7 SFRSYM    DATA     BIT       DIO9
      000000A0H.4 SFRSYM    DATA     BIT       DOUT2
      00000083H   SFRSYM    DATA     BYTE      DPH
      00000083H   SFRSYM    DATA     BYTE      DPH0
      00000085H   SFRSYM    DATA     BYTE      DPH1
      00000082H   SFRSYM    DATA     BYTE      DPL
      00000082H   SFRSYM    DATA     BYTE      DPL0
      00000084H   SFRSYM    DATA     BYTE      DPL1
      00000086H   SFRSYM    DATA     BYTE      DPS
      000000A0H.2 SFRSYM    DATA     BIT       DR1
      000000A0H.6 SFRSYM    DATA     BIT       DR2
      000000A0H.6 SFRSYM    DATA     BIT       DR2_CE
      000000A8H.7 SFRSYM    DATA     BIT       EA
      000000D8H   SFRSYM    DATA     BYTE      EICON
      000000E8H   SFRSYM    DATA     BYTE      EIE
      000000F8H   SFRSYM    DATA     BYTE      EIP
      000000A8H.4 SFRSYM    DATA     BIT       ES
      000000A8H.1 SFRSYM    DATA     BIT       ET0
      000000A8H.3 SFRSYM    DATA     BIT       ET1
      000000A8H.5 SFRSYM    DATA     BIT       ET2
      000000E8H.4 SFRSYM    DATA     BIT       EWDI
      000000A8H   SFRSYM    DATA     BIT       EX0
      000000A8H.2 SFRSYM    DATA     BIT       EX1
      000000E8H   SFRSYM    DATA     BIT       EX2
      000000E8H.1 SFRSYM    DATA     BIT       EX3
      000000E8H.2 SFRSYM    DATA     BIT       EX4
      000000E8H.3 SFRSYM    DATA     BIT       EX5
      000000C8H.3 SFRSYM    DATA     BIT       EXEN2
      000000C8H.6 SFRSYM    DATA     BIT       EXF2
      00000091H   SFRSYM    DATA     BYTE      EXIF
      000000D0H.5 SFRSYM    DATA     BIT       F0
      000000D0H.1 SFRSYM    DATA     BIT       F1
      000000A8H   SFRSYM    DATA     BYTE      IE
      00000088H.1 SFRSYM    DATA     BIT       IE0
      00000088H.3 SFRSYM    DATA     BIT       IE1
      00000080H.3 SFRSYM    DATA     BIT       INT0_N
      00000080H.4 SFRSYM    DATA     BIT       INT1_N
      000000B8H   SFRSYM    DATA     BYTE      IP
      00000088H   SFRSYM    DATA     BIT       IT0
      00000088H.2 SFRSYM    DATA     BIT       IT1
      00000092H   SFRSYM    DATA     BYTE      MPAGE
      000000D0H.2 SFRSYM    DATA     BIT       OV
LX51 LINKER/LOCATER V4.34a                                                            05/02/2009  16:05:32  PAGE 22


      000000D0H   SFRSYM    DATA     BIT       P
      00000080H   SFRSYM    DATA     BYTE      P0
      00000080H   SFRSYM    DATA     BIT       P0_0
      00000080H.1 SFRSYM    DATA     BIT       P0_1
      00000080H.2 SFRSYM    DATA     BIT       P0_2
      00000080H.3 SFRSYM    DATA     BIT       P0_3
      00000080H.4 SFRSYM    DATA     BIT       P0_4
      00000080H.5 SFRSYM    DATA     BIT       P0_5
      00000080H.6 SFRSYM    DATA     BIT       P0_6
      00000080H.7 SFRSYM    DATA     BIT       P0_7
      00000095H   SFRSYM    DATA     BYTE      P0_ALT
      00000094H   SFRSYM    DATA     BYTE      P0_DIR
      00000090H   SFRSYM    DATA     BYTE      P1
      00000090H   SFRSYM    DATA     BIT       P1_0
      00000090H.1 SFRSYM    DATA     BIT       P1_1
      00000090H.2 SFRSYM    DATA     BIT       P1_2
      00000097H   SFRSYM    DATA     BYTE      P1_ALT
      00000096H   SFRSYM    DATA     BYTE      P1_DIR
      00000087H   SFRSYM    DATA     BYTE      PCON
      000000B8H.4 SFRSYM    DATA     BIT       PS
      000000D0H   SFRSYM    DATA     BYTE      PSW
      000000B8H.1 SFRSYM    DATA     BIT       PT0
      000000B8H.3 SFRSYM    DATA     BIT       PT1
      000000B8H.5 SFRSYM    DATA     BIT       PT2
      000000F8H.4 SFRSYM    DATA     BIT       PWDI
      00000080H.7 SFRSYM    DATA     BIT       PWM
      000000A9H   SFRSYM    DATA     BYTE      PWMCON
      000000AAH   SFRSYM    DATA     BYTE      PWMDUTY
      000000A0H.7 SFRSYM    DATA     BIT       PWR_UP
      000000B8H   SFRSYM    DATA     BIT       PX0
      000000B8H.2 SFRSYM    DATA     BIT       PX1
      000000F8H   SFRSYM    DATA     BIT       PX2
      000000F8H.1 SFRSYM    DATA     BIT       PX3
      000000F8H.2 SFRSYM    DATA     BIT       PX4
      000000F8H.3 SFRSYM    DATA     BIT       PX5
      000000A0H   SFRSYM    DATA     BYTE      RADIO
      00000098H.2 SFRSYM    DATA     BIT       RB8
      000000CBH   SFRSYM    DATA     BYTE      RCAP2H
      000000CAH   SFRSYM    DATA     BYTE      RCAP2L
      000000C8H.5 SFRSYM    DATA     BIT       RCLK
      000000ADH   SFRSYM    DATA     BYTE      REGX_CTRL
      000000ACH   SFRSYM    DATA     BYTE      REGX_LSB
      000000ABH   SFRSYM    DATA     BYTE      REGX_MSB
      00000098H.4 SFRSYM    DATA     BIT       REN
      00000098H   SFRSYM    DATA     BIT       RI
      000000D0H.3 SFRSYM    DATA     BIT       RS0
      000000D0H.4 SFRSYM    DATA     BIT       RS1
      000000B1H   SFRSYM    DATA     BYTE      RSTREAS
      00000080H.1 SFRSYM    DATA     BIT       RXD
      00000099H   SFRSYM    DATA     BYTE      SBUF
      00000098H   SFRSYM    DATA     BYTE      SCON
      00000098H.7 SFRSYM    DATA     BIT       SM0
      00000098H.6 SFRSYM    DATA     BIT       SM1
      00000098H.5 SFRSYM    DATA     BIT       SM2
      00000081H   SFRSYM    DATA     BYTE      SP
      0000008FH   SFRSYM    DATA     BYTE      SPC_FNC
      000000B3H   SFRSYM    DATA     BYTE      SPI_CTRL
      000000B2H   SFRSYM    DATA     BYTE      SPI_DATA
      000000B4H   SFRSYM    DATA     BYTE      SPICLK
      00000080H.5 SFRSYM    DATA     BIT       T0
      00000080H.6 SFRSYM    DATA     BIT       T1
      000000BCH   SFRSYM    DATA     BYTE      T1_1V2
      00000090H   SFRSYM    DATA     BIT       T2
      000000BDH   SFRSYM    DATA     BYTE      T2_1V2
      000000C8H   SFRSYM    DATA     BYTE      T2CON
LX51 LINKER/LOCATER V4.34a                                                            05/02/2009  16:05:32  PAGE 23


      00000098H.3 SFRSYM    DATA     BIT       TB8
      000000C8H.4 SFRSYM    DATA     BIT       TCLK
      00000088H   SFRSYM    DATA     BYTE      TCON
      000000B7H   SFRSYM    DATA     BYTE      TEST_MODE
      00000088H.5 SFRSYM    DATA     BIT       TF0
      00000088H.7 SFRSYM    DATA     BIT       TF1
      000000C8H.7 SFRSYM    DATA     BIT       TF2
      0000008CH   SFRSYM    DATA     BYTE      TH0
      0000008DH   SFRSYM    DATA     BYTE      TH1
      000000CDH   SFRSYM    DATA     BYTE      TH2
      00000098H.1 SFRSYM    DATA     BIT       TI
      000000B5H   SFRSYM    DATA     BYTE      TICK_DV
      0000008AH   SFRSYM    DATA     BYTE      TL0
      0000008BH   SFRSYM    DATA     BYTE      TL1
      000000CCH   SFRSYM    DATA     BYTE      TL2
      00000089H   SFRSYM    DATA     BYTE      TMOD
      00000088H.4 SFRSYM    DATA     BIT       TR0
      00000088H.6 SFRSYM    DATA     BIT       TR1
      000000C8H.2 SFRSYM    DATA     BIT       TR2
      00000080H.2 SFRSYM    DATA     BIT       TXD
      000000D8H.3 SFRSYM    DATA     BIT       WDTI
      010006B9H   SYMBOL    CODE     NEAR LAB  ?C0002
      01000835H   SYMBOL    CODE     NEAR LAB  ?C0003
      010006BEH   SYMBOL    CODE     NEAR LAB  ?C0004
      010006F0H   SYMBOL    CODE     NEAR LAB  ?C0005
      010006E2H   SYMBOL    CODE     NEAR LAB  ?C0006
      01000766H   SYMBOL    CODE     NEAR LAB  ?C0008
      01000784H   SYMBOL    CODE     NEAR LAB  ?C0010
      010007B7H   SYMBOL    CODE     NEAR LAB  ?C0011
      01000667H   SYMBOL    CODE     NEAR LAB  ?C0013
      0100067BH   SYMBOL    CODE     NEAR LAB  ?C0015
      010006CBH   SYMBOL    CODE     NEAR LAB  ?C0016
      010006D8H   SYMBOL    CODE     NEAR LAB  ?C0017
      010006EAH   SYMBOL    CODE     NEAR LAB  ?C0018
      010006F8H   SYMBOL    CODE     NEAR LAB  ?C0019
      01000700H   SYMBOL    CODE     NEAR LAB  ?C0020
      01000717H   SYMBOL    CODE     NEAR LAB  ?C0021
      01000732H   SYMBOL    CODE     NEAR LAB  ?C0022
      01000771H   SYMBOL    CODE     NEAR LAB  ?C0023
      010007AEH   SYMBOL    CODE     NEAR LAB  ?C0024
      010007BDH   SYMBOL    CODE     NEAR LAB  ?C0025
      010007E0H   SYMBOL    CODE     NEAR LAB  ?C0026
      010007FBH   SYMBOL    CODE     NEAR LAB  ?C0027
      0000005BH   SYMBOL    DATA     BYTE      ?ECO_PAGE_MANAGER?BYTE
      0000005BH   SYMBOL    DATA     BYTE      I?141
      0000005DH   SYMBOL    DATA     BYTE      PAGE_INDEX?142
      0000005FH   SYMBOL    DATA     BYTE      SEG?140

      01001080H   BLOCK     CODE     NEAR LAB  LVL=0
      01001080H   LINE      CODE     ---       #307
      01001083H   LINE      CODE     ---       #311
      01001084H   LINE      CODE     ---       #312
      01001086H   LINE      CODE     ---       #313
      01001088H   LINE      CODE     ---       #316
      0100108AH   LINE      CODE     ---       #317
      0100108CH   LINE      CODE     ---       #320
      0100108EH   LINE      CODE     ---       #321
      01001090H   LINE      CODE     ---       #325
      01001091H   LINE      CODE     ---       #341
      01001093H   LINE      CODE     ---       #342
      01001094H   LINE      CODE     ---       #343
      01001095H   LINE      CODE     ---       #344
      01001097H   LINE      CODE     ---       #345
      01001098H   LINE      CODE     ---       #346
      01001099H   LINE      CODE     ---       #347
LX51 LINKER/LOCATER V4.34a                                                            05/02/2009  16:05:32  PAGE 24


      0100109BH   LINE      CODE     ---       #348
      0100109CH   LINE      CODE     ---       #349
      0100109DH   LINE      CODE     ---       #350
      0100109FH   LINE      CODE     ---       #351
      010010A0H   LINE      CODE     ---       #352
      010010A1H   LINE      CODE     ---       #353
      010010A3H   LINE      CODE     ---       #354
      010010A4H   LINE      CODE     ---       #355
      010010A5H   LINE      CODE     ---       #356
      010010A7H   LINE      CODE     ---       #357
      010010A8H   LINE      CODE     ---       #358
      010010A9H   LINE      CODE     ---       #359
      010010ABH   LINE      CODE     ---       #360
      010010ACH   LINE      CODE     ---       #361
      010010ADH   LINE      CODE     ---       #362
      010010B0H   LINE      CODE     ---       #363
      010010B3H   LINE      CODE     ---       #364
      010010B6H   LINE      CODE     ---       #365
      010010B9H   LINE      CODE     ---       #399
      010010BBH   LINE      CODE     ---       #400
      010010BCH   LINE      CODE     ---       #401
      010010BDH   LINE      CODE     ---       #402
      010010BFH   LINE      CODE     ---       #403
      010010C0H   LINE      CODE     ---       #404
      010010C1H   LINE      CODE     ---       #405
      010010C3H   LINE      CODE     ---       #406
      010010C4H   LINE      CODE     ---       #407
      010010C5H   LINE      CODE     ---       #408
      010010C7H   LINE      CODE     ---       #409
      010010C8H   LINE      CODE     ---       #410
      010010C9H   LINE      CODE     ---       #411
      010010CBH   LINE      CODE     ---       #412
      010010CCH   LINE      CODE     ---       #413
      010010CDH   LINE      CODE     ---       #414
      010010CFH   LINE      CODE     ---       #415
      010010D0H   LINE      CODE     ---       #416
      010010D1H   LINE      CODE     ---       #417
      010010D3H   LINE      CODE     ---       #418
      010010D4H   LINE      CODE     ---       #419
      010010D5H   LINE      CODE     ---       #420
      010010D8H   LINE      CODE     ---       #421
      010010DBH   LINE      CODE     ---       #422
      010010DEH   LINE      CODE     ---       #423
      010010E1H   LINE      CODE     ---       #473
      010010E3H   LINE      CODE     ---       #474
      010010E4H   LINE      CODE     ---       #475
      010010E5H   LINE      CODE     ---       #476
      010010E7H   LINE      CODE     ---       #477
      010010E8H   LINE      CODE     ---       #478
      010010E9H   LINE      CODE     ---       #479
      010010EBH   LINE      CODE     ---       #480
      010010ECH   LINE      CODE     ---       #481
      010010EDH   LINE      CODE     ---       #482
      010010EFH   LINE      CODE     ---       #483
      010010F0H   LINE      CODE     ---       #484
      010010F1H   LINE      CODE     ---       #485
      010010F3H   LINE      CODE     ---       #486
      010010F4H   LINE      CODE     ---       #487
      010010F5H   LINE      CODE     ---       #488
      010010F7H   LINE      CODE     ---       #489
      010010F8H   LINE      CODE     ---       #490
      010010F9H   LINE      CODE     ---       #491
      010010FBH   LINE      CODE     ---       #492
      010010FCH   LINE      CODE     ---       #493
      010010FDH   LINE      CODE     ---       #494
LX51 LINKER/LOCATER V4.34a                                                            05/02/2009  16:05:32  PAGE 25


      01001100H   LINE      CODE     ---       #495
      01001103H   LINE      CODE     ---       #496
      01001106H   LINE      CODE     ---       #497
      ---         BLOCKEND  ---      ---       LVL=0

      0100065BH   BLOCK     CODE     NEAR LAB  LVL=0
      0100065BH   LINE      CODE     ---       #525
      0100065DH   LINE      CODE     ---       #526
      0100065FH   LINE      CODE     ---       #527
      01000661H   LINE      CODE     ---       #540
      01000663H   LINE      CODE     ---       #541
      01000665H   LINE      CODE     ---       #542
      01000667H   LINE      CODE     ---       #544
      01000668H   LINE      CODE     ---       #545
      01000669H   LINE      CODE     ---       #546
      0100066AH   LINE      CODE     ---       #547
      0100066BH   LINE      CODE     ---       #548
      0100066CH   LINE      CODE     ---       #549
      0100066EH   LINE      CODE     ---       #550
      01000671H   LINE      CODE     ---       #551
      01000672H   LINE      CODE     ---       #552
      01000675H   LINE      CODE     ---       #558
      01000677H   LINE      CODE     ---       #559
      01000679H   LINE      CODE     ---       #560
      0100067BH   LINE      CODE     ---       #562
      0100067CH   LINE      CODE     ---       #563
      0100067DH   LINE      CODE     ---       #564
      0100067EH   LINE      CODE     ---       #565
      0100067FH   LINE      CODE     ---       #566
      01000680H   LINE      CODE     ---       #567
      01000682H   LINE      CODE     ---       #568
      01000683H   LINE      CODE     ---       #569
      01000685H   LINE      CODE     ---       #570
      01000687H   LINE      CODE     ---       #571
      01000689H   LINE      CODE     ---       #572
      0100068AH   LINE      CODE     ---       #573
      0100068CH   LINE      CODE     ---       #574
      0100068DH   LINE      CODE     ---       #575
      0100068EH   LINE      CODE     ---       #576
      01000690H   LINE      CODE     ---       #578
      01000692H   LINE      CODE     ---       #579
      01000693H   LINE      CODE     ---       #580
      01000694H   LINE      CODE     ---       #581
      01000696H   LINE      CODE     ---       #582
      01000697H   LINE      CODE     ---       #583
      01000698H   LINE      CODE     ---       #584
      0100069AH   LINE      CODE     ---       #585
      0100069BH   LINE      CODE     ---       #586
      0100069CH   LINE      CODE     ---       #587
      0100069EH   LINE      CODE     ---       #588
      0100069FH   LINE      CODE     ---       #589
      010006A0H   LINE      CODE     ---       #590
      010006A2H   LINE      CODE     ---       #591
      010006A3H   LINE      CODE     ---       #592
      010006A4H   LINE      CODE     ---       #593
      010006A6H   LINE      CODE     ---       #594
      010006A7H   LINE      CODE     ---       #595
      010006A8H   LINE      CODE     ---       #596
      010006AAH   LINE      CODE     ---       #597
      010006ABH   LINE      CODE     ---       #598
      010006ACH   LINE      CODE     ---       #599
      010006AFH   LINE      CODE     ---       #600
      010006B2H   LINE      CODE     ---       #601
      010006B5H   LINE      CODE     ---       #602
      010006B8H   LINE      CODE     ---       #605
LX51 LINKER/LOCATER V4.34a                                                            05/02/2009  16:05:32  PAGE 26


      010006B9H   LINE      CODE     ---       #615
      010006BAH   LINE      CODE     ---       #616
      010006BCH   LINE      CODE     ---       #617
      010006BEH   LINE      CODE     ---       #623
      010006C0H   LINE      CODE     ---       #624
      010006C2H   LINE      CODE     ---       #625
      010006C4H   LINE      CODE     ---       #626
      010006C5H   LINE      CODE     ---       #627
      010006C7H   LINE      CODE     ---       #628
      010006C9H   LINE      CODE     ---       #629
      010006CBH   LINE      CODE     ---       #631
      010006CCH   LINE      CODE     ---       #632
      010006CDH   LINE      CODE     ---       #633
      010006CEH   LINE      CODE     ---       #634
      010006CFH   LINE      CODE     ---       #635
      010006D0H   LINE      CODE     ---       #636
      010006D2H   LINE      CODE     ---       #637
      010006D3H   LINE      CODE     ---       #638
      010006D5H   LINE      CODE     ---       #639
      010006D6H   LINE      CODE     ---       #640
      010006D7H   LINE      CODE     ---       #641
      010006D8H   LINE      CODE     ---       #643
      010006DAH   LINE      CODE     ---       #648
      010006DDH   LINE      CODE     ---       #649
      010006E0H   LINE      CODE     ---       #652
      010006E2H   LINE      CODE     ---       #658
      010006E4H   LINE      CODE     ---       #659
      010006E6H   LINE      CODE     ---       #660
      010006E8H   LINE      CODE     ---       #661
      010006EAH   LINE      CODE     ---       #663
      010006ECH   LINE      CODE     ---       #664
      010006EEH   LINE      CODE     ---       #665
      010006F0H   LINE      CODE     ---       #670
      010006F2H   LINE      CODE     ---       #671
      010006F3H   LINE      CODE     ---       #672
      010006F5H   LINE      CODE     ---       #673
      010006F7H   LINE      CODE     ---       #674
      010006F8H   LINE      CODE     ---       #676
      010006FAH   LINE      CODE     ---       #682
      010006FCH   LINE      CODE     ---       #683
      010006FEH   LINE      CODE     ---       #684
      01000700H   LINE      CODE     ---       #686
      01000701H   LINE      CODE     ---       #687
      01000702H   LINE      CODE     ---       #688
      01000703H   LINE      CODE     ---       #689
      01000704H   LINE      CODE     ---       #690
      01000705H   LINE      CODE     ---       #691
      01000707H   LINE      CODE     ---       #692
      01000709H   LINE      CODE     ---       #693
      0100070BH   LINE      CODE     ---       #698
      0100070DH   LINE      CODE     ---       #699
      0100070FH   LINE      CODE     ---       #700
      01000710H   LINE      CODE     ---       #701
      01000711H   LINE      CODE     ---       #702
      01000713H   LINE      CODE     ---       #703
      01000714H   LINE      CODE     ---       #704
      01000715H   LINE      CODE     ---       #705
      01000717H   LINE      CODE     ---       #707
      01000718H   LINE      CODE     ---       #708
      01000719H   LINE      CODE     ---       #709
      0100071AH   LINE      CODE     ---       #710
      0100071BH   LINE      CODE     ---       #711
      0100071CH   LINE      CODE     ---       #712
      0100071EH   LINE      CODE     ---       #713
      0100071FH   LINE      CODE     ---       #714
LX51 LINKER/LOCATER V4.34a                                                            05/02/2009  16:05:32  PAGE 27


      01000721H   LINE      CODE     ---       #715
      01000723H   LINE      CODE     ---       #716
      01000725H   LINE      CODE     ---       #717
      01000726H   LINE      CODE     ---       #718
      01000728H   LINE      CODE     ---       #719
      01000729H   LINE      CODE     ---       #720
      0100072AH   LINE      CODE     ---       #721
      0100072CH   LINE      CODE     ---       #726
      0100072EH   LINE      CODE     ---       #727
      01000730H   LINE      CODE     ---       #728
      01000732H   LINE      CODE     ---       #730
      01000733H   LINE      CODE     ---       #731
      01000734H   LINE      CODE     ---       #732
      01000735H   LINE      CODE     ---       #733
      01000736H   LINE      CODE     ---       #734
      01000737H   LINE      CODE     ---       #735
      01000739H   LINE      CODE     ---       #736
      0100073BH   LINE      CODE     ---       #737
      0100073DH   LINE      CODE     ---       #740
      0100073FH   LINE      CODE     ---       #741
      01000740H   LINE      CODE     ---       #742
      01000741H   LINE      CODE     ---       #743
      01000743H   LINE      CODE     ---       #744
      01000744H   LINE      CODE     ---       #745
      01000745H   LINE      CODE     ---       #746
      01000747H   LINE      CODE     ---       #747
      01000748H   LINE      CODE     ---       #748
      01000749H   LINE      CODE     ---       #749
      0100074BH   LINE      CODE     ---       #750
      0100074CH   LINE      CODE     ---       #751
      0100074DH   LINE      CODE     ---       #752
      0100074FH   LINE      CODE     ---       #753
      01000750H   LINE      CODE     ---       #754
      01000751H   LINE      CODE     ---       #755
      01000753H   LINE      CODE     ---       #756
      01000754H   LINE      CODE     ---       #757
      01000755H   LINE      CODE     ---       #758
      01000757H   LINE      CODE     ---       #759
      01000758H   LINE      CODE     ---       #760
      01000759H   LINE      CODE     ---       #761
      0100075CH   LINE      CODE     ---       #762
      0100075FH   LINE      CODE     ---       #763
      01000762H   LINE      CODE     ---       #764
      01000765H   LINE      CODE     ---       #776
      01000766H   LINE      CODE     ---       #785
      01000768H   LINE      CODE     ---       #786
      0100076AH   LINE      CODE     ---       #787
      0100076BH   LINE      CODE     ---       #788
      0100076CH   LINE      CODE     ---       #789
      0100076DH   LINE      CODE     ---       #790
      0100076EH   LINE      CODE     ---       #791
      0100076FH   LINE      CODE     ---       #792
      01000771H   LINE      CODE     ---       #794
      01000772H   LINE      CODE     ---       #795
      01000773H   LINE      CODE     ---       #796
      01000774H   LINE      CODE     ---       #797
      01000775H   LINE      CODE     ---       #798
      01000776H   LINE      CODE     ---       #799
      01000778H   LINE      CODE     ---       #800
      0100077AH   LINE      CODE     ---       #801
      0100077CH   LINE      CODE     ---       #806
      0100077FH   LINE      CODE     ---       #811
      01000780H   LINE      CODE     ---       #812
      01000782H   LINE      CODE     ---       #813
      01000784H   LINE      CODE     ---       #819
LX51 LINKER/LOCATER V4.34a                                                            05/02/2009  16:05:32  PAGE 28


      01000786H   LINE      CODE     ---       #820
      01000788H   LINE      CODE     ---       #821
      0100078AH   LINE      CODE     ---       #822
      0100078BH   LINE      CODE     ---       #823
      0100078CH   LINE      CODE     ---       #824
      0100078EH   LINE      CODE     ---       #825
      0100078FH   LINE      CODE     ---       #826
      01000791H   LINE      CODE     ---       #827
      01000792H   LINE      CODE     ---       #828
      01000794H   LINE      CODE     ---       #829
      01000795H   LINE      CODE     ---       #830
      01000798H   LINE      CODE     ---       #831
      0100079AH   LINE      CODE     ---       #832
      0100079CH   LINE      CODE     ---       #833
      0100079EH   LINE      CODE     ---       #834
      010007A0H   LINE      CODE     ---       #835
      010007A2H   LINE      CODE     ---       #836
      010007A4H   LINE      CODE     ---       #837
      010007A5H   LINE      CODE     ---       #838
      010007A6H   LINE      CODE     ---       #841
      010007A8H   LINE      CODE     ---       #842
      010007AAH   LINE      CODE     ---       #843
      010007ACH   LINE      CODE     ---       #844
      010007AEH   LINE      CODE     ---       #846
      010007AFH   LINE      CODE     ---       #847
      010007B1H   LINE      CODE     ---       #848
      010007B3H   LINE      CODE     ---       #849
      010007B5H   LINE      CODE     ---       #850
      010007B7H   LINE      CODE     ---       #856
      010007B9H   LINE      CODE     ---       #857
      010007BBH   LINE      CODE     ---       #858
      010007BDH   LINE      CODE     ---       #860
      010007BEH   LINE      CODE     ---       #861
      010007BFH   LINE      CODE     ---       #862
      010007C0H   LINE      CODE     ---       #863
      010007C1H   LINE      CODE     ---       #864
      010007C2H   LINE      CODE     ---       #865
      010007C4H   LINE      CODE     ---       #866
      010007C5H   LINE      CODE     ---       #867
      010007C7H   LINE      CODE     ---       #868
      010007C9H   LINE      CODE     ---       #869
      010007CBH   LINE      CODE     ---       #870
      010007CCH   LINE      CODE     ---       #871
      010007CEH   LINE      CODE     ---       #872
      010007CFH   LINE      CODE     ---       #873
      010007D1H   LINE      CODE     ---       #879
      010007D3H   LINE      CODE     ---       #880
      010007D5H   LINE      CODE     ---       #885
      010007D7H   LINE      CODE     ---       #886
      010007D9H   LINE      CODE     ---       #887
      010007DAH   LINE      CODE     ---       #888
      010007DBH   LINE      CODE     ---       #889
      010007DCH   LINE      CODE     ---       #890
      010007DDH   LINE      CODE     ---       #891
      010007DEH   LINE      CODE     ---       #892
      010007E0H   LINE      CODE     ---       #894
      010007E1H   LINE      CODE     ---       #895
      010007E2H   LINE      CODE     ---       #896
      010007E3H   LINE      CODE     ---       #897
      010007E4H   LINE      CODE     ---       #898
      010007E5H   LINE      CODE     ---       #899
      010007E7H   LINE      CODE     ---       #900
      010007E8H   LINE      CODE     ---       #901
      010007EAH   LINE      CODE     ---       #902
      010007ECH   LINE      CODE     ---       #903
LX51 LINKER/LOCATER V4.34a                                                            05/02/2009  16:05:32  PAGE 29


      010007EEH   LINE      CODE     ---       #904
      010007EFH   LINE      CODE     ---       #905
      010007F1H   LINE      CODE     ---       #906
      010007F2H   LINE      CODE     ---       #907
      010007F3H   LINE      CODE     ---       #908
      010007F5H   LINE      CODE     ---       #913
      010007F7H   LINE      CODE     ---       #914
      010007F9H   LINE      CODE     ---       #915
      010007FBH   LINE      CODE     ---       #917
      010007FCH   LINE      CODE     ---       #918
      010007FDH   LINE      CODE     ---       #919
      010007FEH   LINE      CODE     ---       #920
      010007FFH   LINE      CODE     ---       #921
      01000800H   LINE      CODE     ---       #922
      01000802H   LINE      CODE     ---       #923
      01000804H   LINE      CODE     ---       #924
      01000806H   LINE      CODE     ---       #929
      01000808H   LINE      CODE     ---       #930
      01000809H   LINE      CODE     ---       #931
      0100080BH   LINE      CODE     ---       #932
      0100080DH   LINE      CODE     ---       #936
      0100080FH   LINE      CODE     ---       #937
      01000810H   LINE      CODE     ---       #938
      01000811H   LINE      CODE     ---       #939
      01000813H   LINE      CODE     ---       #940
      01000814H   LINE      CODE     ---       #941
      01000815H   LINE      CODE     ---       #942
      01000817H   LINE      CODE     ---       #943
      01000818H   LINE      CODE     ---       #944
      01000819H   LINE      CODE     ---       #945
      0100081BH   LINE      CODE     ---       #946
      0100081CH   LINE      CODE     ---       #947
      0100081DH   LINE      CODE     ---       #948
      0100081FH   LINE      CODE     ---       #949
      01000820H   LINE      CODE     ---       #950
      01000821H   LINE      CODE     ---       #951
      01000823H   LINE      CODE     ---       #952
      01000824H   LINE      CODE     ---       #953
      01000825H   LINE      CODE     ---       #954
      01000827H   LINE      CODE     ---       #955
      01000828H   LINE      CODE     ---       #956
      01000829H   LINE      CODE     ---       #957
      0100082CH   LINE      CODE     ---       #958
      0100082FH   LINE      CODE     ---       #959
      01000832H   LINE      CODE     ---       #960
      01000835H   LINE      CODE     ---       #977
      ---         BLOCKEND  ---      ---       LVL=0

      ---         MODULE    ---      ---       ADC
      01000EA7H   PUBLIC    CODE     NEAR LAB  _ADC_INIT
      01000E8CH   PUBLIC    CODE     NEAR LAB  _ADC_READ
      000000D0H.6 SFRSYM    DATA     BIT       AC
      000000E0H   SFRSYM    DATA     BYTE      ACC
      000000A1H   SFRSYM    DATA     BYTE      ADCCON
      000000A2H   SFRSYM    DATA     BYTE      ADCDATAH
      000000A3H   SFRSYM    DATA     BYTE      ADCDATAL
      000000A4H   SFRSYM    DATA     BYTE      ADCSTATIC
      000000F0H   SFRSYM    DATA     BYTE      B
      000000C8H.1 SFRSYM    DATA     BIT       C_T2
      000000A0H.6 SFRSYM    DATA     BIT       CE
      000000B6H   SFRSYM    DATA     BYTE      CK_CTRL
      0000008EH   SFRSYM    DATA     BYTE      CKCON
      000000A0H.1 SFRSYM    DATA     BIT       CLK1
      000000A0H.5 SFRSYM    DATA     BIT       CLK2
      000000C8H   SFRSYM    DATA     BIT       CP_RL2
LX51 LINKER/LOCATER V4.34a                                                            05/02/2009  16:05:32  PAGE 30


      000000C8H   SFRSYM    DATA     BIT       CPRL2
      000000A0H.3 SFRSYM    DATA     BIT       CS
      000000C8H.1 SFRSYM    DATA     BIT       CT2
      000000D0H.7 SFRSYM    DATA     BIT       CY
      000000A0H   SFRSYM    DATA     BIT       DATA?
      000000BEH   SFRSYM    DATA     BYTE      DEV_OFFSET
      00000090H.2 SFRSYM    DATA     BIT       DIN0
      00000090H   SFRSYM    DATA     BIT       DIO0
      00000090H.1 SFRSYM    DATA     BIT       DIO1
      00000080H   SFRSYM    DATA     BIT       DIO2
      00000080H.1 SFRSYM    DATA     BIT       DIO3
      00000080H.2 SFRSYM    DATA     BIT       DIO4
      00000080H.3 SFRSYM    DATA     BIT       DIO5
      00000080H.4 SFRSYM    DATA     BIT       DIO6
      00000080H.5 SFRSYM    DATA     BIT       DIO7
      00000080H.6 SFRSYM    DATA     BIT       DIO8
      00000080H.7 SFRSYM    DATA     BIT       DIO9
      000000A0H.4 SFRSYM    DATA     BIT       DOUT2
      00000083H   SFRSYM    DATA     BYTE      DPH
      00000083H   SFRSYM    DATA     BYTE      DPH0
      00000085H   SFRSYM    DATA     BYTE      DPH1
      00000082H   SFRSYM    DATA     BYTE      DPL
      00000082H   SFRSYM    DATA     BYTE      DPL0
      00000084H   SFRSYM    DATA     BYTE      DPL1
      00000086H   SFRSYM    DATA     BYTE      DPS
      000000A0H.2 SFRSYM    DATA     BIT       DR1
      000000A0H.6 SFRSYM    DATA     BIT       DR2
      000000A0H.6 SFRSYM    DATA     BIT       DR2_CE
      000000A8H.7 SFRSYM    DATA     BIT       EA
      000000D8H   SFRSYM    DATA     BYTE      EICON
      000000E8H   SFRSYM    DATA     BYTE      EIE
      000000F8H   SFRSYM    DATA     BYTE      EIP
      000000A8H.4 SFRSYM    DATA     BIT       ES
      000000A8H.1 SFRSYM    DATA     BIT       ET0
      000000A8H.3 SFRSYM    DATA     BIT       ET1
      000000A8H.5 SFRSYM    DATA     BIT       ET2
      000000E8H.4 SFRSYM    DATA     BIT       EWDI
      000000A8H   SFRSYM    DATA     BIT       EX0
      000000A8H.2 SFRSYM    DATA     BIT       EX1
      000000E8H   SFRSYM    DATA     BIT       EX2
      000000E8H.1 SFRSYM    DATA     BIT       EX3
      000000E8H.2 SFRSYM    DATA     BIT       EX4
      000000E8H.3 SFRSYM    DATA     BIT       EX5
      000000C8H.3 SFRSYM    DATA     BIT       EXEN2
      000000C8H.6 SFRSYM    DATA     BIT       EXF2
      00000091H   SFRSYM    DATA     BYTE      EXIF
      000000D0H.5 SFRSYM    DATA     BIT       F0
      000000D0H.1 SFRSYM    DATA     BIT       F1
      000000A8H   SFRSYM    DATA     BYTE      IE
      00000088H.1 SFRSYM    DATA     BIT       IE0
      00000088H.3 SFRSYM    DATA     BIT       IE1
      00000080H.3 SFRSYM    DATA     BIT       INT0_N
      00000080H.4 SFRSYM    DATA     BIT       INT1_N
      000000B8H   SFRSYM    DATA     BYTE      IP
      00000088H   SFRSYM    DATA     BIT       IT0
      00000088H.2 SFRSYM    DATA     BIT       IT1
      00000092H   SFRSYM    DATA     BYTE      MPAGE
      000000D0H.2 SFRSYM    DATA     BIT       OV
      000000D0H   SFRSYM    DATA     BIT       P
      00000080H   SFRSYM    DATA     BYTE      P0
      00000080H   SFRSYM    DATA     BIT       P0_0
      00000080H.1 SFRSYM    DATA     BIT       P0_1
      00000080H.2 SFRSYM    DATA     BIT       P0_2
      00000080H.3 SFRSYM    DATA     BIT       P0_3
      00000080H.4 SFRSYM    DATA     BIT       P0_4
LX51 LINKER/LOCATER V4.34a                                                            05/02/2009  16:05:32  PAGE 31


      00000080H.5 SFRSYM    DATA     BIT       P0_5
      00000080H.6 SFRSYM    DATA     BIT       P0_6
      00000080H.7 SFRSYM    DATA     BIT       P0_7
      00000095H   SFRSYM    DATA     BYTE      P0_ALT
      00000094H   SFRSYM    DATA     BYTE      P0_DIR
      00000090H   SFRSYM    DATA     BYTE      P1
      00000090H   SFRSYM    DATA     BIT       P1_0
      00000090H.1 SFRSYM    DATA     BIT       P1_1
      00000090H.2 SFRSYM    DATA     BIT       P1_2
      00000097H   SFRSYM    DATA     BYTE      P1_ALT
      00000096H   SFRSYM    DATA     BYTE      P1_DIR
      00000087H   SFRSYM    DATA     BYTE      PCON
      000000B8H.4 SFRSYM    DATA     BIT       PS
      000000D0H   SFRSYM    DATA     BYTE      PSW
      000000B8H.1 SFRSYM    DATA     BIT       PT0
      000000B8H.3 SFRSYM    DATA     BIT       PT1
      000000B8H.5 SFRSYM    DATA     BIT       PT2
      000000F8H.4 SFRSYM    DATA     BIT       PWDI
      00000080H.7 SFRSYM    DATA     BIT       PWM
      000000A9H   SFRSYM    DATA     BYTE      PWMCON
      000000AAH   SFRSYM    DATA     BYTE      PWMDUTY
      000000A0H.7 SFRSYM    DATA     BIT       PWR_UP
      000000B8H   SFRSYM    DATA     BIT       PX0
      000000B8H.2 SFRSYM    DATA     BIT       PX1
      000000F8H   SFRSYM    DATA     BIT       PX2
      000000F8H.1 SFRSYM    DATA     BIT       PX3
      000000F8H.2 SFRSYM    DATA     BIT       PX4
      000000F8H.3 SFRSYM    DATA     BIT       PX5
      000000A0H   SFRSYM    DATA     BYTE      RADIO
      00000098H.2 SFRSYM    DATA     BIT       RB8
      000000CBH   SFRSYM    DATA     BYTE      RCAP2H
      000000CAH   SFRSYM    DATA     BYTE      RCAP2L
      000000C8H.5 SFRSYM    DATA     BIT       RCLK
      000000ADH   SFRSYM    DATA     BYTE      REGX_CTRL
      000000ACH   SFRSYM    DATA     BYTE      REGX_LSB
      000000ABH   SFRSYM    DATA     BYTE      REGX_MSB
      00000098H.4 SFRSYM    DATA     BIT       REN
      00000098H   SFRSYM    DATA     BIT       RI
      000000D0H.3 SFRSYM    DATA     BIT       RS0
      000000D0H.4 SFRSYM    DATA     BIT       RS1
      000000B1H   SFRSYM    DATA     BYTE      RSTREAS
      00000080H.1 SFRSYM    DATA     BIT       RXD
      00000099H   SFRSYM    DATA     BYTE      SBUF
      00000098H   SFRSYM    DATA     BYTE      SCON
      00000098H.7 SFRSYM    DATA     BIT       SM0
      00000098H.6 SFRSYM    DATA     BIT       SM1
      00000098H.5 SFRSYM    DATA     BIT       SM2
      00000081H   SFRSYM    DATA     BYTE      SP
      0000008FH   SFRSYM    DATA     BYTE      SPC_FNC
      000000B3H   SFRSYM    DATA     BYTE      SPI_CTRL
      000000B2H   SFRSYM    DATA     BYTE      SPI_DATA
      000000B4H   SFRSYM    DATA     BYTE      SPICLK
      00000080H.5 SFRSYM    DATA     BIT       T0
      00000080H.6 SFRSYM    DATA     BIT       T1
      000000BCH   SFRSYM    DATA     BYTE      T1_1V2
      00000090H   SFRSYM    DATA     BIT       T2
      000000BDH   SFRSYM    DATA     BYTE      T2_1V2
      000000C8H   SFRSYM    DATA     BYTE      T2CON
      00000098H.3 SFRSYM    DATA     BIT       TB8
      000000C8H.4 SFRSYM    DATA     BIT       TCLK
      00000088H   SFRSYM    DATA     BYTE      TCON
      000000B7H   SFRSYM    DATA     BYTE      TEST_MODE
      00000088H.5 SFRSYM    DATA     BIT       TF0
      00000088H.7 SFRSYM    DATA     BIT       TF1
      000000C8H.7 SFRSYM    DATA     BIT       TF2
LX51 LINKER/LOCATER V4.34a                                                            05/02/2009  16:05:32  PAGE 32


      0000008CH   SFRSYM    DATA     BYTE      TH0
      0000008DH   SFRSYM    DATA     BYTE      TH1
      000000CDH   SFRSYM    DATA     BYTE      TH2
      00000098H.1 SFRSYM    DATA     BIT       TI
      000000B5H   SFRSYM    DATA     BYTE      TICK_DV
      0000008AH   SFRSYM    DATA     BYTE      TL0
      0000008BH   SFRSYM    DATA     BYTE      TL1
      000000CCH   SFRSYM    DATA     BYTE      TL2
      00000089H   SFRSYM    DATA     BYTE      TMOD
      00000088H.4 SFRSYM    DATA     BIT       TR0
      00000088H.6 SFRSYM    DATA     BIT       TR1
      000000C8H.2 SFRSYM    DATA     BIT       TR2
      00000080H.2 SFRSYM    DATA     BIT       TXD
      000000D8H.3 SFRSYM    DATA     BIT       WDTI
      01000C80H   SYMBOL    CODE     NEAR LAB  ?C0002
      01000C50H   SYMBOL    CODE     NEAR LAB  ?C0004
      01000C58H   SYMBOL    CODE     NEAR LAB  ?C0005
      01000C6CH   SYMBOL    CODE     NEAR LAB  ?C0006
      01000C84H   SYMBOL    CODE     NEAR LAB  ?C0007
      01000E9BH   SYMBOL    CODE     NEAR LAB  ?C0011
      01000EA0H   SYMBOL    CODE     NEAR LAB  ?C0012
      01000EA6H   SYMBOL    CODE     NEAR LAB  ?C0013
      01000C38H   SYMBOL    CODE     NEAR LAB  P_ADC_READ

      01000EA7H   BLOCK     CODE     NEAR LAB  LVL=0
      01000EA7H   LINE      CODE     ---       #206
      01000EAAH   LINE      CODE     ---       #209
      01000EABH   LINE      CODE     ---       #210
      01000EADH   LINE      CODE     ---       #213
      01000EB0H   LINE      CODE     ---       #216
      01000EB1H   LINE      CODE     ---       #217
      01000EB3H   LINE      CODE     ---       #220
      01000EB6H   LINE      CODE     ---       #223
      01000EB7H   LINE      CODE     ---       #224
      01000EB9H   LINE      CODE     ---       #227
      ---         BLOCKEND  ---      ---       LVL=0

      01000C38H   BLOCK     CODE     NEAR LAB  LVL=0
      01000C38H   LINE      CODE     ---       #241
      01000C3AH   LINE      CODE     ---       #242
      01000C3CH   LINE      CODE     ---       #243
      01000C3DH   LINE      CODE     ---       #248
      01000C3EH   LINE      CODE     ---       #249
      01000C3FH   LINE      CODE     ---       #250
      01000C40H   LINE      CODE     ---       #253
      01000C42H   LINE      CODE     ---       #254
      01000C43H   LINE      CODE     ---       #255
      01000C44H   LINE      CODE     ---       #256
      01000C46H   LINE      CODE     ---       #257
      01000C47H   LINE      CODE     ---       #258
      01000C49H   LINE      CODE     ---       #259
      01000C4AH   LINE      CODE     ---       #260
      01000C4CH   LINE      CODE     ---       #261
      01000C4EH   LINE      CODE     ---       #262
      01000C50H   LINE      CODE     ---       #271
      01000C52H   LINE      CODE     ---       #272
      01000C54H   LINE      CODE     ---       #273
      01000C56H   LINE      CODE     ---       #276
      01000C58H   LINE      CODE     ---       #283
      01000C5AH   LINE      CODE     ---       #284
      01000C5BH   LINE      CODE     ---       #285
      01000C5EH   LINE      CODE     ---       #286
      01000C5FH   LINE      CODE     ---       #287
      01000C60H   LINE      CODE     ---       #288
      01000C62H   LINE      CODE     ---       #291
LX51 LINKER/LOCATER V4.34a                                                            05/02/2009  16:05:32  PAGE 33


      01000C64H   LINE      CODE     ---       #292
      01000C65H   LINE      CODE     ---       #293
      01000C66H   LINE      CODE     ---       #294
      01000C67H   LINE      CODE     ---       #295
      01000C69H   LINE      CODE     ---       #296
      01000C6AH   LINE      CODE     ---       #297
      01000C6BH   LINE      CODE     ---       #298
      01000C6CH   LINE      CODE     ---       #305
      01000C6EH   LINE      CODE     ---       #306
      01000C6FH   LINE      CODE     ---       #307
      01000C72H   LINE      CODE     ---       #308
      01000C73H   LINE      CODE     ---       #309
      01000C74H   LINE      CODE     ---       #310
      01000C76H   LINE      CODE     ---       #313
      01000C78H   LINE      CODE     ---       #314
      01000C79H   LINE      CODE     ---       #315
      01000C7BH   LINE      CODE     ---       #316
      01000C7CH   LINE      CODE     ---       #317
      01000C7DH   LINE      CODE     ---       #318
      01000C7EH   LINE      CODE     ---       #319
      01000C7FH   LINE      CODE     ---       #320
      01000C80H   LINE      CODE     ---       #326
      01000C82H   LINE      CODE     ---       #327
      01000C84H   LINE      CODE     ---       #331
      ---         BLOCKEND  ---      ---       LVL=0

      01000E8CH   BLOCK     CODE     NEAR LAB  LVL=0
      01000E8CH   LINE      CODE     ---       #347
      01000E8DH   LINE      CODE     ---       #348
      01000E8EH   LINE      CODE     ---       #349
      01000E8FH   LINE      CODE     ---       #353
      01000E92H   LINE      CODE     ---       #356
      01000E93H   LINE      CODE     ---       #357
      01000E95H   LINE      CODE     ---       #360
      01000E98H   LINE      CODE     ---       #361
      01000E9BH   LINE      CODE     ---       #366
      01000E9DH   LINE      CODE     ---       #367
      01000EA0H   LINE      CODE     ---       #373
      01000EA3H   LINE      CODE     ---       #377
      01000EA6H   LINE      CODE     ---       #383
      ---         BLOCKEND  ---      ---       LVL=0

      ---         MODULE    ---      ---       UTILS
      00000053H   PUBLIC    DATA     BYTE      ?_STRNCPY?BYTE
      01000C85H   PUBLIC    CODE     NEAR LAB  _MDELAY
      01000EE9H   PUBLIC    CODE     NEAR LAB  _STORE_CPU_RATE
      0100000EH   PUBLIC    CODE     NEAR LAB  _STRNCPY
      01000EBAH   PUBLIC    CODE     NEAR LAB  _WDT_LOAD
      0000006AH   PUBLIC    DATA     BYTE      MHZ
      000000D0H.6 SFRSYM    DATA     BIT       AC
      000000E0H   SFRSYM    DATA     BYTE      ACC
      000000A1H   SFRSYM    DATA     BYTE      ADCCON
      000000A2H   SFRSYM    DATA     BYTE      ADCDATAH
      000000A3H   SFRSYM    DATA     BYTE      ADCDATAL
      000000A4H   SFRSYM    DATA     BYTE      ADCSTATIC
      000000F0H   SFRSYM    DATA     BYTE      B
      000000C8H.1 SFRSYM    DATA     BIT       C_T2
      000000A0H.6 SFRSYM    DATA     BIT       CE
      000000B6H   SFRSYM    DATA     BYTE      CK_CTRL
      0000008EH   SFRSYM    DATA     BYTE      CKCON
      000000A0H.1 SFRSYM    DATA     BIT       CLK1
      000000A0H.5 SFRSYM    DATA     BIT       CLK2
      000000C8H   SFRSYM    DATA     BIT       CP_RL2
      000000C8H   SFRSYM    DATA     BIT       CPRL2
      000000A0H.3 SFRSYM    DATA     BIT       CS
LX51 LINKER/LOCATER V4.34a                                                            05/02/2009  16:05:32  PAGE 34


      000000C8H.1 SFRSYM    DATA     BIT       CT2
      000000D0H.7 SFRSYM    DATA     BIT       CY
      000000A0H   SFRSYM    DATA     BIT       DATA?
      000000BEH   SFRSYM    DATA     BYTE      DEV_OFFSET
      00000090H.2 SFRSYM    DATA     BIT       DIN0
      00000090H   SFRSYM    DATA     BIT       DIO0
      00000090H.1 SFRSYM    DATA     BIT       DIO1
      00000080H   SFRSYM    DATA     BIT       DIO2
      00000080H.1 SFRSYM    DATA     BIT       DIO3
      00000080H.2 SFRSYM    DATA     BIT       DIO4
      00000080H.3 SFRSYM    DATA     BIT       DIO5
      00000080H.4 SFRSYM    DATA     BIT       DIO6
      00000080H.5 SFRSYM    DATA     BIT       DIO7
      00000080H.6 SFRSYM    DATA     BIT       DIO8
      00000080H.7 SFRSYM    DATA     BIT       DIO9
      000000A0H.4 SFRSYM    DATA     BIT       DOUT2
      00000083H   SFRSYM    DATA     BYTE      DPH
      00000083H   SFRSYM    DATA     BYTE      DPH0
      00000085H   SFRSYM    DATA     BYTE      DPH1
      00000082H   SFRSYM    DATA     BYTE      DPL
      00000082H   SFRSYM    DATA     BYTE      DPL0
      00000084H   SFRSYM    DATA     BYTE      DPL1
      00000086H   SFRSYM    DATA     BYTE      DPS
      000000A0H.2 SFRSYM    DATA     BIT       DR1
      000000A0H.6 SFRSYM    DATA     BIT       DR2
      000000A0H.6 SFRSYM    DATA     BIT       DR2_CE
      000000A8H.7 SFRSYM    DATA     BIT       EA
      000000D8H   SFRSYM    DATA     BYTE      EICON
      000000E8H   SFRSYM    DATA     BYTE      EIE
      000000F8H   SFRSYM    DATA     BYTE      EIP
      000000A8H.4 SFRSYM    DATA     BIT       ES
      000000A8H.1 SFRSYM    DATA     BIT       ET0
      000000A8H.3 SFRSYM    DATA     BIT       ET1
      000000A8H.5 SFRSYM    DATA     BIT       ET2
      000000E8H.4 SFRSYM    DATA     BIT       EWDI
      000000A8H   SFRSYM    DATA     BIT       EX0
      000000A8H.2 SFRSYM    DATA     BIT       EX1
      000000E8H   SFRSYM    DATA     BIT       EX2
      000000E8H.1 SFRSYM    DATA     BIT       EX3
      000000E8H.2 SFRSYM    DATA     BIT       EX4
      000000E8H.3 SFRSYM    DATA     BIT       EX5
      000000C8H.3 SFRSYM    DATA     BIT       EXEN2
      000000C8H.6 SFRSYM    DATA     BIT       EXF2
      00000091H   SFRSYM    DATA     BYTE      EXIF
      000000D0H.5 SFRSYM    DATA     BIT       F0
      000000D0H.1 SFRSYM    DATA     BIT       F1
      000000A8H   SFRSYM    DATA     BYTE      IE
      00000088H.1 SFRSYM    DATA     BIT       IE0
      00000088H.3 SFRSYM    DATA     BIT       IE1
      00000080H.3 SFRSYM    DATA     BIT       INT0_N
      00000080H.4 SFRSYM    DATA     BIT       INT1_N
      000000B8H   SFRSYM    DATA     BYTE      IP
      00000088H   SFRSYM    DATA     BIT       IT0
      00000088H.2 SFRSYM    DATA     BIT       IT1
      00000092H   SFRSYM    DATA     BYTE      MPAGE
      000000D0H.2 SFRSYM    DATA     BIT       OV
      000000D0H   SFRSYM    DATA     BIT       P
      00000080H   SFRSYM    DATA     BYTE      P0
      00000080H   SFRSYM    DATA     BIT       P0_0
      00000080H.1 SFRSYM    DATA     BIT       P0_1
      00000080H.2 SFRSYM    DATA     BIT       P0_2
      00000080H.3 SFRSYM    DATA     BIT       P0_3
      00000080H.4 SFRSYM    DATA     BIT       P0_4
      00000080H.5 SFRSYM    DATA     BIT       P0_5
      00000080H.6 SFRSYM    DATA     BIT       P0_6
LX51 LINKER/LOCATER V4.34a                                                            05/02/2009  16:05:32  PAGE 35


      00000080H.7 SFRSYM    DATA     BIT       P0_7
      00000095H   SFRSYM    DATA     BYTE      P0_ALT
      00000094H   SFRSYM    DATA     BYTE      P0_DIR
      00000090H   SFRSYM    DATA     BYTE      P1
      00000090H   SFRSYM    DATA     BIT       P1_0
      00000090H.1 SFRSYM    DATA     BIT       P1_1
      00000090H.2 SFRSYM    DATA     BIT       P1_2
      00000097H   SFRSYM    DATA     BYTE      P1_ALT
      00000096H   SFRSYM    DATA     BYTE      P1_DIR
      00000087H   SFRSYM    DATA     BYTE      PCON
      000000B8H.4 SFRSYM    DATA     BIT       PS
      000000D0H   SFRSYM    DATA     BYTE      PSW
      000000B8H.1 SFRSYM    DATA     BIT       PT0
      000000B8H.3 SFRSYM    DATA     BIT       PT1
      000000B8H.5 SFRSYM    DATA     BIT       PT2
      000000F8H.4 SFRSYM    DATA     BIT       PWDI
      00000080H.7 SFRSYM    DATA     BIT       PWM
      000000A9H   SFRSYM    DATA     BYTE      PWMCON
      000000AAH   SFRSYM    DATA     BYTE      PWMDUTY
      000000A0H.7 SFRSYM    DATA     BIT       PWR_UP
      000000B8H   SFRSYM    DATA     BIT       PX0
      000000B8H.2 SFRSYM    DATA     BIT       PX1
      000000F8H   SFRSYM    DATA     BIT       PX2
      000000F8H.1 SFRSYM    DATA     BIT       PX3
      000000F8H.2 SFRSYM    DATA     BIT       PX4
      000000F8H.3 SFRSYM    DATA     BIT       PX5
      000000A0H   SFRSYM    DATA     BYTE      RADIO
      00000098H.2 SFRSYM    DATA     BIT       RB8
      000000CBH   SFRSYM    DATA     BYTE      RCAP2H
      000000CAH   SFRSYM    DATA     BYTE      RCAP2L
      000000C8H.5 SFRSYM    DATA     BIT       RCLK
      000000ADH   SFRSYM    DATA     BYTE      REGX_CTRL
      000000ACH   SFRSYM    DATA     BYTE      REGX_LSB
      000000ABH   SFRSYM    DATA     BYTE      REGX_MSB
      00000098H.4 SFRSYM    DATA     BIT       REN
      00000098H   SFRSYM    DATA     BIT       RI
      000000D0H.3 SFRSYM    DATA     BIT       RS0
      000000D0H.4 SFRSYM    DATA     BIT       RS1
      000000B1H   SFRSYM    DATA     BYTE      RSTREAS
      00000080H.1 SFRSYM    DATA     BIT       RXD
      00000099H   SFRSYM    DATA     BYTE      SBUF
      00000098H   SFRSYM    DATA     BYTE      SCON
      00000098H.7 SFRSYM    DATA     BIT       SM0
      00000098H.6 SFRSYM    DATA     BIT       SM1
      00000098H.5 SFRSYM    DATA     BIT       SM2
      00000081H   SFRSYM    DATA     BYTE      SP
      0000008FH   SFRSYM    DATA     BYTE      SPC_FNC
      000000B3H   SFRSYM    DATA     BYTE      SPI_CTRL
      000000B2H   SFRSYM    DATA     BYTE      SPI_DATA
      000000B4H   SFRSYM    DATA     BYTE      SPICLK
      00000080H.5 SFRSYM    DATA     BIT       T0
      00000080H.6 SFRSYM    DATA     BIT       T1
      000000BCH   SFRSYM    DATA     BYTE      T1_1V2
      00000090H   SFRSYM    DATA     BIT       T2
      000000BDH   SFRSYM    DATA     BYTE      T2_1V2
      000000C8H   SFRSYM    DATA     BYTE      T2CON
      00000098H.3 SFRSYM    DATA     BIT       TB8
      000000C8H.4 SFRSYM    DATA     BIT       TCLK
      00000088H   SFRSYM    DATA     BYTE      TCON
      000000B7H   SFRSYM    DATA     BYTE      TEST_MODE
      00000088H.5 SFRSYM    DATA     BIT       TF0
      00000088H.7 SFRSYM    DATA     BIT       TF1
      000000C8H.7 SFRSYM    DATA     BIT       TF2
      0000008CH   SFRSYM    DATA     BYTE      TH0
      0000008DH   SFRSYM    DATA     BYTE      TH1
LX51 LINKER/LOCATER V4.34a                                                            05/02/2009  16:05:32  PAGE 36


      000000CDH   SFRSYM    DATA     BYTE      TH2
      00000098H.1 SFRSYM    DATA     BIT       TI
      000000B5H   SFRSYM    DATA     BYTE      TICK_DV
      0000008AH   SFRSYM    DATA     BYTE      TL0
      0000008BH   SFRSYM    DATA     BYTE      TL1
      000000CCH   SFRSYM    DATA     BYTE      TL2
      00000089H   SFRSYM    DATA     BYTE      TMOD
      00000088H.4 SFRSYM    DATA     BIT       TR0
      00000088H.6 SFRSYM    DATA     BIT       TR1
      000000C8H.2 SFRSYM    DATA     BIT       TR2
      00000080H.2 SFRSYM    DATA     BIT       TXD
      000000D8H.3 SFRSYM    DATA     BIT       WDTI
      0000007BH   SYMBOL    DATA     BYTE      ?_MDELAY?BYTE
      01000CA6H   SYMBOL    CODE     NEAR LAB  ?C0002
      01000CC6H   SYMBOL    CODE     NEAR LAB  ?C0004
      01000CB2H   SYMBOL    CODE     NEAR LAB  ?C0005
      01000CCDH   SYMBOL    CODE     NEAR LAB  ?C0008
      01000EBEH   SYMBOL    CODE     NEAR LAB  ?C0009
      01000EC3H   SYMBOL    CODE     NEAR LAB  ?C0010
      01000017H   SYMBOL    CODE     NEAR LAB  ?C0012
      01000051H   SYMBOL    CODE     NEAR LAB  ?C0015
      01000CC4H   SYMBOL    CODE     NEAR LAB  ?C0016
      01000CCBH   SYMBOL    CODE     NEAR LAB  ?C0017
      01000032H   SYMBOL    CODE     NEAR LAB  ?C0018
      01000044H   SYMBOL    CODE     NEAR LAB  ?C0019
      0100004FH   SYMBOL    CODE     NEAR LAB  ?C0020
      00000056H   SYMBOL    DATA     BYTE      DST?347
      0000007BH   SYMBOL    DATA     BYTE      MSEC?141
      00000059H   SYMBOL    DATA     BYTE      N?348
      00000053H   SYMBOL    DATA     BYTE      SRC?346

      01000EE9H   BLOCK     CODE     NEAR LAB  LVL=0
      01000EE9H   LINE      CODE     ---       #231
      01000EEAH   LINE      CODE     ---       #232
      01000EEBH   LINE      CODE     ---       #233
      01000EEDH   LINE      CODE     ---       #234
      01000EEFH   LINE      CODE     ---       #235
      01000EF1H   LINE      CODE     ---       #236
      01000EF3H   LINE      CODE     ---       #237
      01000EF5H   LINE      CODE     ---       #240
      ---         BLOCKEND  ---      ---       LVL=0

      01000C85H   BLOCK     CODE     NEAR LAB  LVL=0
      01000C85H   LINE      CODE     ---       #256
      01000C87H   LINE      CODE     ---       #257
      01000C89H   LINE      CODE     ---       #263
      01000C8AH   LINE      CODE     ---       #264
      01000C8CH   LINE      CODE     ---       #265
      01000C8DH   LINE      CODE     ---       #266
      01000C8EH   LINE      CODE     ---       #267
      01000C8FH   LINE      CODE     ---       #268
      01000C91H   LINE      CODE     ---       #269
      01000C93H   LINE      CODE     ---       #270
      01000C95H   LINE      CODE     ---       #271
      01000C97H   LINE      CODE     ---       #272
      01000C9AH   LINE      CODE     ---       #273
      01000C9BH   LINE      CODE     ---       #274
      01000C9DH   LINE      CODE     ---       #275
      01000C9EH   LINE      CODE     ---       #276
      01000C9FH   LINE      CODE     ---       #277
      01000CA0H   LINE      CODE     ---       #278
      01000CA3H   LINE      CODE     ---       #283
      01000CA4H   LINE      CODE     ---       #284
      01000CA5H   LINE      CODE     ---       #285
      01000CA6H   LINE      CODE     ---       #287
LX51 LINKER/LOCATER V4.34a                                                            05/02/2009  16:05:32  PAGE 37


      01000CA7H   LINE      CODE     ---       #288
      01000CA8H   LINE      CODE     ---       #289
      01000CAAH   LINE      CODE     ---       #290
      01000CABH   LINE      CODE     ---       #291
      01000CADH   LINE      CODE     ---       #292
      01000CAFH   LINE      CODE     ---       #296
      01000CB0H   LINE      CODE     ---       #297
      01000CB1H   LINE      CODE     ---       #298
      01000CB2H   LINE      CODE     ---       #300
      01000CB3H   LINE      CODE     ---       #301
      01000CB4H   LINE      CODE     ---       #302
      01000CB5H   LINE      CODE     ---       #303
      01000CB6H   LINE      CODE     ---       #304
      01000CB8H   LINE      CODE     ---       #305
      01000CB9H   LINE      CODE     ---       #306
      01000CBAH   LINE      CODE     ---       #307
      01000CBCH   LINE      CODE     ---       #308
      01000CBDH   LINE      CODE     ---       #309
      01000CBFH   LINE      CODE     ---       #310
      01000CC0H   LINE      CODE     ---       #311
      01000CC3H   LINE      CODE     ---       #312
      01000CC4H   LINE      CODE     ---       #314
      01000CC6H   LINE      CODE     ---       #316
      01000CC7H   LINE      CODE     ---       #317
      01000CCAH   LINE      CODE     ---       #318
      01000CCBH   LINE      CODE     ---       #320
      01000CCDH   LINE      CODE     ---       #325
      ---         BLOCKEND  ---      ---       LVL=0

      01000EBAH   BLOCK     CODE     NEAR LAB  LVL=0
      01000EBAH   LINE      CODE     ---       #341
      01000EBCH   LINE      CODE     ---       #342
      01000EBEH   LINE      CODE     ---       #348
      01000EC0H   LINE      CODE     ---       #349
      01000EC3H   LINE      CODE     ---       #354
      01000EC5H   LINE      CODE     ---       #357
      01000EC6H   LINE      CODE     ---       #358
      01000EC8H   LINE      CODE     ---       #361
      01000ECBH   LINE      CODE     ---       #364
      ---         BLOCKEND  ---      ---       LVL=0

      0100000EH   BLOCK     CODE     NEAR LAB  LVL=0
      0100000EH   LINE      CODE     ---       #380
      01000010H   LINE      CODE     ---       #381
      01000012H   LINE      CODE     ---       #382
      01000014H   LINE      CODE     ---       #389
      01000015H   LINE      CODE     ---       #390
      01000016H   LINE      CODE     ---       #391
      01000017H   LINE      CODE     ---       #393
      01000018H   LINE      CODE     ---       #394
      01000019H   LINE      CODE     ---       #395
      0100001BH   LINE      CODE     ---       #396
      0100001DH   LINE      CODE     ---       #397
      0100001FH   LINE      CODE     ---       #398
      01000020H   LINE      CODE     ---       #399
      01000021H   LINE      CODE     ---       #400
      01000023H   LINE      CODE     ---       #401
      01000024H   LINE      CODE     ---       #402
      01000026H   LINE      CODE     ---       #405
      01000028H   LINE      CODE     ---       #406
      0100002AH   LINE      CODE     ---       #407
      0100002CH   LINE      CODE     ---       #408
      0100002EH   LINE      CODE     ---       #409
      01000030H   LINE      CODE     ---       #410
      01000032H   LINE      CODE     ---       #412
LX51 LINKER/LOCATER V4.34a                                                            05/02/2009  16:05:32  PAGE 38


      01000033H   LINE      CODE     ---       #413
      01000034H   LINE      CODE     ---       #414
      01000037H   LINE      CODE     ---       #415
      01000038H   LINE      CODE     ---       #416
      0100003AH   LINE      CODE     ---       #417
      0100003CH   LINE      CODE     ---       #418
      0100003EH   LINE      CODE     ---       #419
      01000040H   LINE      CODE     ---       #420
      01000042H   LINE      CODE     ---       #421
      01000044H   LINE      CODE     ---       #423
      01000045H   LINE      CODE     ---       #424
      01000046H   LINE      CODE     ---       #425
      01000047H   LINE      CODE     ---       #426
      0100004AH   LINE      CODE     ---       #429
      0100004BH   LINE      CODE     ---       #430
      0100004EH   LINE      CODE     ---       #431
      0100004FH   LINE      CODE     ---       #433
      01000051H   LINE      CODE     ---       #437
      ---         BLOCKEND  ---      ---       LVL=0

      ---         MODULE    ---      ---       SERIAL
      01000D46H   PUBLIC    CODE     NEAR LAB  _?INT_PRINT
      01000F3BH   PUBLIC    CODE     NEAR LAB  _PUTC
      01000E44H   PUBLIC    CODE     NEAR LAB  _PUTS
      01000F0EH   PUBLIC    CODE     NEAR LAB  _SERIAL_INIT
      01000F37H   PUBLIC    CODE     NEAR LAB  GETC
      000000D0H.6 SFRSYM    DATA     BIT       AC
      000000E0H   SFRSYM    DATA     BYTE      ACC
      000000A1H   SFRSYM    DATA     BYTE      ADCCON
      000000A2H   SFRSYM    DATA     BYTE      ADCDATAH
      000000A3H   SFRSYM    DATA     BYTE      ADCDATAL
      000000A4H   SFRSYM    DATA     BYTE      ADCSTATIC
      000000F0H   SFRSYM    DATA     BYTE      B
      000000C8H.1 SFRSYM    DATA     BIT       C_T2
      000000A0H.6 SFRSYM    DATA     BIT       CE
      000000B6H   SFRSYM    DATA     BYTE      CK_CTRL
      0000008EH   SFRSYM    DATA     BYTE      CKCON
      000000A0H.1 SFRSYM    DATA     BIT       CLK1
      000000A0H.5 SFRSYM    DATA     BIT       CLK2
      000000C8H   SFRSYM    DATA     BIT       CP_RL2
      000000C8H   SFRSYM    DATA     BIT       CPRL2
      000000A0H.3 SFRSYM    DATA     BIT       CS
      000000C8H.1 SFRSYM    DATA     BIT       CT2
      000000D0H.7 SFRSYM    DATA     BIT       CY
      000000A0H   SFRSYM    DATA     BIT       DATA?
      000000BEH   SFRSYM    DATA     BYTE      DEV_OFFSET
      00000090H.2 SFRSYM    DATA     BIT       DIN0
      00000090H   SFRSYM    DATA     BIT       DIO0
      00000090H.1 SFRSYM    DATA     BIT       DIO1
      00000080H   SFRSYM    DATA     BIT       DIO2
      00000080H.1 SFRSYM    DATA     BIT       DIO3
      00000080H.2 SFRSYM    DATA     BIT       DIO4
      00000080H.3 SFRSYM    DATA     BIT       DIO5
      00000080H.4 SFRSYM    DATA     BIT       DIO6
      00000080H.5 SFRSYM    DATA     BIT       DIO7
      00000080H.6 SFRSYM    DATA     BIT       DIO8
      00000080H.7 SFRSYM    DATA     BIT       DIO9
      000000A0H.4 SFRSYM    DATA     BIT       DOUT2
      00000083H   SFRSYM    DATA     BYTE      DPH
      00000083H   SFRSYM    DATA     BYTE      DPH0
      00000085H   SFRSYM    DATA     BYTE      DPH1
      00000082H   SFRSYM    DATA     BYTE      DPL
      00000082H   SFRSYM    DATA     BYTE      DPL0
      00000084H   SFRSYM    DATA     BYTE      DPL1
      00000086H   SFRSYM    DATA     BYTE      DPS
LX51 LINKER/LOCATER V4.34a                                                            05/02/2009  16:05:32  PAGE 39


      000000A0H.2 SFRSYM    DATA     BIT       DR1
      000000A0H.6 SFRSYM    DATA     BIT       DR2
      000000A0H.6 SFRSYM    DATA     BIT       DR2_CE
      000000A8H.7 SFRSYM    DATA     BIT       EA
      000000D8H   SFRSYM    DATA     BYTE      EICON
      000000E8H   SFRSYM    DATA     BYTE      EIE
      000000F8H   SFRSYM    DATA     BYTE      EIP
      000000A8H.4 SFRSYM    DATA     BIT       ES
      000000A8H.1 SFRSYM    DATA     BIT       ET0
      000000A8H.3 SFRSYM    DATA     BIT       ET1
      000000A8H.5 SFRSYM    DATA     BIT       ET2
      000000E8H.4 SFRSYM    DATA     BIT       EWDI
      000000A8H   SFRSYM    DATA     BIT       EX0
      000000A8H.2 SFRSYM    DATA     BIT       EX1
      000000E8H   SFRSYM    DATA     BIT       EX2
      000000E8H.1 SFRSYM    DATA     BIT       EX3
      000000E8H.2 SFRSYM    DATA     BIT       EX4
      000000E8H.3 SFRSYM    DATA     BIT       EX5
      000000C8H.3 SFRSYM    DATA     BIT       EXEN2
      000000C8H.6 SFRSYM    DATA     BIT       EXF2
      00000091H   SFRSYM    DATA     BYTE      EXIF
      000000D0H.5 SFRSYM    DATA     BIT       F0
      000000D0H.1 SFRSYM    DATA     BIT       F1
      000000A8H   SFRSYM    DATA     BYTE      IE
      00000088H.1 SFRSYM    DATA     BIT       IE0
      00000088H.3 SFRSYM    DATA     BIT       IE1
      00000080H.3 SFRSYM    DATA     BIT       INT0_N
      00000080H.4 SFRSYM    DATA     BIT       INT1_N
      000000B8H   SFRSYM    DATA     BYTE      IP
      00000088H   SFRSYM    DATA     BIT       IT0
      00000088H.2 SFRSYM    DATA     BIT       IT1
      00000092H   SFRSYM    DATA     BYTE      MPAGE
      000000D0H.2 SFRSYM    DATA     BIT       OV
      000000D0H   SFRSYM    DATA     BIT       P
      00000080H   SFRSYM    DATA     BYTE      P0
      00000080H   SFRSYM    DATA     BIT       P0_0
      00000080H.1 SFRSYM    DATA     BIT       P0_1
      00000080H.2 SFRSYM    DATA     BIT       P0_2
      00000080H.3 SFRSYM    DATA     BIT       P0_3
      00000080H.4 SFRSYM    DATA     BIT       P0_4
      00000080H.5 SFRSYM    DATA     BIT       P0_5
      00000080H.6 SFRSYM    DATA     BIT       P0_6
      00000080H.7 SFRSYM    DATA     BIT       P0_7
      00000095H   SFRSYM    DATA     BYTE      P0_ALT
      00000094H   SFRSYM    DATA     BYTE      P0_DIR
      00000090H   SFRSYM    DATA     BYTE      P1
      00000090H   SFRSYM    DATA     BIT       P1_0
      00000090H.1 SFRSYM    DATA     BIT       P1_1
      00000090H.2 SFRSYM    DATA     BIT       P1_2
      00000097H   SFRSYM    DATA     BYTE      P1_ALT
      00000096H   SFRSYM    DATA     BYTE      P1_DIR
      00000087H   SFRSYM    DATA     BYTE      PCON
      000000B8H.4 SFRSYM    DATA     BIT       PS
      000000D0H   SFRSYM    DATA     BYTE      PSW
      000000B8H.1 SFRSYM    DATA     BIT       PT0
      000000B8H.3 SFRSYM    DATA     BIT       PT1
      000000B8H.5 SFRSYM    DATA     BIT       PT2
      000000F8H.4 SFRSYM    DATA     BIT       PWDI
      00000080H.7 SFRSYM    DATA     BIT       PWM
      000000A9H   SFRSYM    DATA     BYTE      PWMCON
      000000AAH   SFRSYM    DATA     BYTE      PWMDUTY
      000000A0H.7 SFRSYM    DATA     BIT       PWR_UP
      000000B8H   SFRSYM    DATA     BIT       PX0
      000000B8H.2 SFRSYM    DATA     BIT       PX1
      000000F8H   SFRSYM    DATA     BIT       PX2
LX51 LINKER/LOCATER V4.34a                                                            05/02/2009  16:05:32  PAGE 40


      000000F8H.1 SFRSYM    DATA     BIT       PX3
      000000F8H.2 SFRSYM    DATA     BIT       PX4
      000000F8H.3 SFRSYM    DATA     BIT       PX5
      000000A0H   SFRSYM    DATA     BYTE      RADIO
      00000098H.2 SFRSYM    DATA     BIT       RB8
      000000CBH   SFRSYM    DATA     BYTE      RCAP2H
      000000CAH   SFRSYM    DATA     BYTE      RCAP2L
      000000C8H.5 SFRSYM    DATA     BIT       RCLK
      000000ADH   SFRSYM    DATA     BYTE      REGX_CTRL
      000000ACH   SFRSYM    DATA     BYTE      REGX_LSB
      000000ABH   SFRSYM    DATA     BYTE      REGX_MSB
      00000098H.4 SFRSYM    DATA     BIT       REN
      00000098H   SFRSYM    DATA     BIT       RI
      000000D0H.3 SFRSYM    DATA     BIT       RS0
      000000D0H.4 SFRSYM    DATA     BIT       RS1
      000000B1H   SFRSYM    DATA     BYTE      RSTREAS
      00000080H.1 SFRSYM    DATA     BIT       RXD
      00000099H   SFRSYM    DATA     BYTE      SBUF
      00000098H   SFRSYM    DATA     BYTE      SCON
      00000098H.7 SFRSYM    DATA     BIT       SM0
      00000098H.6 SFRSYM    DATA     BIT       SM1
      00000098H.5 SFRSYM    DATA     BIT       SM2
      00000081H   SFRSYM    DATA     BYTE      SP
      0000008FH   SFRSYM    DATA     BYTE      SPC_FNC
      000000B3H   SFRSYM    DATA     BYTE      SPI_CTRL
      000000B2H   SFRSYM    DATA     BYTE      SPI_DATA
      000000B4H   SFRSYM    DATA     BYTE      SPICLK
      00000080H.5 SFRSYM    DATA     BIT       T0
      00000080H.6 SFRSYM    DATA     BIT       T1
      000000BCH   SFRSYM    DATA     BYTE      T1_1V2
      00000090H   SFRSYM    DATA     BIT       T2
      000000BDH   SFRSYM    DATA     BYTE      T2_1V2
      000000C8H   SFRSYM    DATA     BYTE      T2CON
      00000098H.3 SFRSYM    DATA     BIT       TB8
      000000C8H.4 SFRSYM    DATA     BIT       TCLK
      00000088H   SFRSYM    DATA     BYTE      TCON
      000000B7H   SFRSYM    DATA     BYTE      TEST_MODE
      00000088H.5 SFRSYM    DATA     BIT       TF0
      00000088H.7 SFRSYM    DATA     BIT       TF1
      000000C8H.7 SFRSYM    DATA     BIT       TF2
      0000008CH   SFRSYM    DATA     BYTE      TH0
      0000008DH   SFRSYM    DATA     BYTE      TH1
      000000CDH   SFRSYM    DATA     BYTE      TH2
      00000098H.1 SFRSYM    DATA     BIT       TI
      000000B5H   SFRSYM    DATA     BYTE      TICK_DV
      0000008AH   SFRSYM    DATA     BYTE      TL0
      0000008BH   SFRSYM    DATA     BYTE      TL1
      000000CCH   SFRSYM    DATA     BYTE      TL2
      00000089H   SFRSYM    DATA     BYTE      TMOD
      00000088H.4 SFRSYM    DATA     BIT       TR0
      00000088H.6 SFRSYM    DATA     BIT       TR1
      000000C8H.2 SFRSYM    DATA     BIT       TR2
      00000080H.2 SFRSYM    DATA     BIT       TXD
      000000D8H.3 SFRSYM    DATA     BIT       WDTI
      0000006EH   SYMBOL    DATA     BYTE      ?_PUTS?BYTE
      01000D06H   SYMBOL    CODE     NEAR LAB  ?C0001
      01000CF2H   SYMBOL    CODE     NEAR LAB  ?C0002
      01000CFAH   SYMBOL    CODE     NEAR LAB  ?C0003
      01000D02H   SYMBOL    CODE     NEAR LAB  ?C0004
      01000D0AH   SYMBOL    CODE     NEAR LAB  ?C0005
      01000005H   SYMBOL    CODE     NEAR LAB  ?C0007
      01000008H   SYMBOL    CODE     NEAR LAB  ?C0008
      01000F2AH   SYMBOL    CODE     NEAR LAB  ?C0010
      01000F2DH   SYMBOL    CODE     NEAR LAB  ?C0011
      01000F31H   SYMBOL    CODE     NEAR LAB  ?C0012
LX51 LINKER/LOCATER V4.34a                                                            05/02/2009  16:05:32  PAGE 41


      01000E4AH   SYMBOL    CODE     NEAR LAB  ?C0014
      01000E68H   SYMBOL    CODE     NEAR LAB  ?C0016
      01000F3AH   SYMBOL    CODE     NEAR LAB  ?C0017
      01000D66H   SYMBOL    CODE     NEAR LAB  ?C0018
      01000E5DH   SYMBOL    CODE     NEAR LAB  ?C0020
      01000003H   SYMBOL    CODE     NEAR LAB  _SERIAL_WRITE
      01000CCEH   SYMBOL    CODE     NEAR LAB  _SETUP_BAUDRATE
      0000006EH   SYMBOL    DATA     BYTE      S?544
      01000F2AH   SYMBOL    CODE     NEAR LAB  SERIAL_READ

      01000CCEH   BLOCK     CODE     NEAR LAB  LVL=0
      01000CCEH   LINE      CODE     ---       #221
      01000CD1H   LINE      CODE     ---       #224
      01000CD3H   LINE      CODE     ---       #227
      01000CD5H   LINE      CODE     ---       #230
      01000CD7H   LINE      CODE     ---       #233
      01000CDAH   LINE      CODE     ---       #237
      01000CDDH   LINE      CODE     ---       #240
      01000CE0H   LINE      CODE     ---       #244
      01000CE1H   LINE      CODE     ---       #245
      01000CE3H   LINE      CODE     ---       #246
      01000CF2H   LINE      CODE     ---       #258
      01000CF5H   LINE      CODE     ---       #261
      01000CF8H   LINE      CODE     ---       #264
      01000CFAH   LINE      CODE     ---       #270
      01000CFDH   LINE      CODE     ---       #273
      01000D00H   LINE      CODE     ---       #276
      01000D02H   LINE      CODE     ---       #283
      01000D03H   LINE      CODE     ---       #284
      01000D04H   LINE      CODE     ---       #285
      01000D05H   LINE      CODE     ---       #286
      01000D06H   LINE      CODE     ---       #292
      01000D08H   LINE      CODE     ---       #293
      01000D0AH   LINE      CODE     ---       #297
      ---         BLOCKEND  ---      ---       LVL=0

      01000F0EH   BLOCK     CODE     NEAR LAB  LVL=0
      01000F0EH   LINE      CODE     ---       #319
      01000F11H   LINE      CODE     ---       #322
      01000F14H   LINE      CODE     ---       #325
      01000F17H   LINE      CODE     ---       #328
      ---         BLOCKEND  ---      ---       LVL=0

      01000003H   BLOCK     CODE     NEAR LAB  LVL=0
      01000003H   LINE      CODE     ---       #345
      01000005H   LINE      CODE     ---       #349
      01000008H   LINE      CODE     ---       #354
      0100000AH   LINE      CODE     ---       #357
      ---         BLOCKEND  ---      ---       LVL=0

      01000F2AH   BLOCK     CODE     NEAR LAB  LVL=0
      01000F2AH   LINE      CODE     ---       #375
      01000F2DH   LINE      CODE     ---       #380
      01000F2FH   LINE      CODE     ---       #383
      01000F31H   LINE      CODE     ---       #387
      ---         BLOCKEND  ---      ---       LVL=0

      01000F3BH   BLOCK     CODE     NEAR LAB  LVL=0
      01000F3BH   LINE      CODE     ---       #402
      ---         BLOCKEND  ---      ---       LVL=0

      01000E44H   BLOCK     CODE     NEAR LAB  LVL=0
      01000E44H   LINE      CODE     ---       #413
      01000E46H   LINE      CODE     ---       #414
      01000E48H   LINE      CODE     ---       #415
LX51 LINKER/LOCATER V4.34a                                                            05/02/2009  16:05:32  PAGE 42


      01000E4AH   LINE      CODE     ---       #421
      01000E4CH   LINE      CODE     ---       #422
      01000E4EH   LINE      CODE     ---       #423
      01000E50H   LINE      CODE     ---       #424
      01000E53H   LINE      CODE     ---       #425
      01000E55H   LINE      CODE     ---       #428
      01000E57H   LINE      CODE     ---       #429
      01000E59H   LINE      CODE     ---       #430
      01000E5BH   LINE      CODE     ---       #431
      01000E5DH   LINE      CODE     ---       #433
      01000E5EH   LINE      CODE     ---       #434
      01000E5FH   LINE      CODE     ---       #435
      01000E62H   LINE      CODE     ---       #436
      01000E63H   LINE      CODE     ---       #437
      01000E66H   LINE      CODE     ---       #438
      01000E68H   LINE      CODE     ---       #442
      ---         BLOCKEND  ---      ---       LVL=0

      01000F37H   BLOCK     CODE     NEAR LAB  LVL=0
      01000F37H   LINE      CODE     ---       #456
      01000F3AH   LINE      CODE     ---       #460
      ---         BLOCKEND  ---      ---       LVL=0

      01000D46H   BLOCK     CODE     NEAR LAB  LVL=0
      01000D46H   LINE      CODE     ---       #474
      01000D48H   LINE      CODE     ---       #475
      01000D4AH   LINE      CODE     ---       #476
      01000D4CH   LINE      CODE     ---       #477
      01000D4EH   LINE      CODE     ---       #478
      01000D4FH   LINE      CODE     ---       #479
      01000D51H   LINE      CODE     ---       #483
      01000D53H   LINE      CODE     ---       #484
      01000D54H   LINE      CODE     ---       #485
      01000D55H   LINE      CODE     ---       #486
      01000D56H   LINE      CODE     ---       #487
      01000D57H   LINE      CODE     ---       #488
      01000D58H   LINE      CODE     ---       #489
      01000D5AH   LINE      CODE     ---       #490
      01000D5CH   LINE      CODE     ---       #491
      01000D5FH   LINE      CODE     ---       #492
      01000D60H   LINE      CODE     ---       #493
      01000D61H   LINE      CODE     ---       #494
      01000D63H   LINE      CODE     ---       #497
      01000D66H   LINE      CODE     ---       #501
      01000D68H   LINE      CODE     ---       #502
      01000D69H   LINE      CODE     ---       #503
      01000D6AH   LINE      CODE     ---       #504
      01000D6BH   LINE      CODE     ---       #505
      01000D6CH   LINE      CODE     ---       #506
      01000D6DH   LINE      CODE     ---       #507
      01000D6FH   LINE      CODE     ---       #508
      01000D71H   LINE      CODE     ---       #509
      01000D74H   LINE      CODE     ---       #510
      01000D75H   LINE      CODE     ---       #511
      01000D77H   LINE      CODE     ---       #512
      01000D78H   LINE      CODE     ---       #513
      01000D7BH   LINE      CODE     ---       #516
      01000D7DH   LINE      CODE     ---       #517
      01000D7FH   LINE      CODE     ---       #518
      ---         BLOCKEND  ---      ---       LVL=0

      ---         MODULE    ---      ---       SPI
      01000F32H   PUBLIC    CODE     NEAR LAB  _SPI_INIT
      01000EF6H   PUBLIC    CODE     NEAR LAB  _SPI_WRITE_THEN_READ
      000000D0H.6 SFRSYM    DATA     BIT       AC
LX51 LINKER/LOCATER V4.34a                                                            05/02/2009  16:05:32  PAGE 43


      000000E0H   SFRSYM    DATA     BYTE      ACC
      000000A1H   SFRSYM    DATA     BYTE      ADCCON
      000000A2H   SFRSYM    DATA     BYTE      ADCDATAH
      000000A3H   SFRSYM    DATA     BYTE      ADCDATAL
      000000A4H   SFRSYM    DATA     BYTE      ADCSTATIC
      000000F0H   SFRSYM    DATA     BYTE      B
      000000C8H.1 SFRSYM    DATA     BIT       C_T2
      000000A0H.6 SFRSYM    DATA     BIT       CE
      000000B6H   SFRSYM    DATA     BYTE      CK_CTRL
      0000008EH   SFRSYM    DATA     BYTE      CKCON
      000000A0H.1 SFRSYM    DATA     BIT       CLK1
      000000A0H.5 SFRSYM    DATA     BIT       CLK2
      000000C8H   SFRSYM    DATA     BIT       CP_RL2
      000000C8H   SFRSYM    DATA     BIT       CPRL2
      000000A0H.3 SFRSYM    DATA     BIT       CS
      000000C8H.1 SFRSYM    DATA     BIT       CT2
      000000D0H.7 SFRSYM    DATA     BIT       CY
      000000A0H   SFRSYM    DATA     BIT       DATA?
      000000BEH   SFRSYM    DATA     BYTE      DEV_OFFSET
      00000090H.2 SFRSYM    DATA     BIT       DIN0
      00000090H   SFRSYM    DATA     BIT       DIO0
      00000090H.1 SFRSYM    DATA     BIT       DIO1
      00000080H   SFRSYM    DATA     BIT       DIO2
      00000080H.1 SFRSYM    DATA     BIT       DIO3
      00000080H.2 SFRSYM    DATA     BIT       DIO4
      00000080H.3 SFRSYM    DATA     BIT       DIO5
      00000080H.4 SFRSYM    DATA     BIT       DIO6
      00000080H.5 SFRSYM    DATA     BIT       DIO7
      00000080H.6 SFRSYM    DATA     BIT       DIO8
      00000080H.7 SFRSYM    DATA     BIT       DIO9
      000000A0H.4 SFRSYM    DATA     BIT       DOUT2
      00000083H   SFRSYM    DATA     BYTE      DPH
      00000083H   SFRSYM    DATA     BYTE      DPH0
      00000085H   SFRSYM    DATA     BYTE      DPH1
      00000082H   SFRSYM    DATA     BYTE      DPL
      00000082H   SFRSYM    DATA     BYTE      DPL0
      00000084H   SFRSYM    DATA     BYTE      DPL1
      00000086H   SFRSYM    DATA     BYTE      DPS
      000000A0H.2 SFRSYM    DATA     BIT       DR1
      000000A0H.6 SFRSYM    DATA     BIT       DR2
      000000A0H.6 SFRSYM    DATA     BIT       DR2_CE
      000000A8H.7 SFRSYM    DATA     BIT       EA
      000000D8H   SFRSYM    DATA     BYTE      EICON
      000000E8H   SFRSYM    DATA     BYTE      EIE
      000000F8H   SFRSYM    DATA     BYTE      EIP
      000000A8H.4 SFRSYM    DATA     BIT       ES
      000000A8H.1 SFRSYM    DATA     BIT       ET0
      000000A8H.3 SFRSYM    DATA     BIT       ET1
      000000A8H.5 SFRSYM    DATA     BIT       ET2
      000000E8H.4 SFRSYM    DATA     BIT       EWDI
      000000A8H   SFRSYM    DATA     BIT       EX0
      000000A8H.2 SFRSYM    DATA     BIT       EX1
      000000E8H   SFRSYM    DATA     BIT       EX2
      000000E8H.1 SFRSYM    DATA     BIT       EX3
      000000E8H.2 SFRSYM    DATA     BIT       EX4
      000000E8H.3 SFRSYM    DATA     BIT       EX5
      000000C8H.3 SFRSYM    DATA     BIT       EXEN2
      000000C8H.6 SFRSYM    DATA     BIT       EXF2
      00000091H   SFRSYM    DATA     BYTE      EXIF
      000000D0H.5 SFRSYM    DATA     BIT       F0
      000000D0H.1 SFRSYM    DATA     BIT       F1
      000000A8H   SFRSYM    DATA     BYTE      IE
      00000088H.1 SFRSYM    DATA     BIT       IE0
      00000088H.3 SFRSYM    DATA     BIT       IE1
      00000080H.3 SFRSYM    DATA     BIT       INT0_N
LX51 LINKER/LOCATER V4.34a                                                            05/02/2009  16:05:32  PAGE 44


      00000080H.4 SFRSYM    DATA     BIT       INT1_N
      000000B8H   SFRSYM    DATA     BYTE      IP
      00000088H   SFRSYM    DATA     BIT       IT0
      00000088H.2 SFRSYM    DATA     BIT       IT1
      00000092H   SFRSYM    DATA     BYTE      MPAGE
      000000D0H.2 SFRSYM    DATA     BIT       OV
      000000D0H   SFRSYM    DATA     BIT       P
      00000080H   SFRSYM    DATA     BYTE      P0
      00000080H   SFRSYM    DATA     BIT       P0_0
      00000080H.1 SFRSYM    DATA     BIT       P0_1
      00000080H.2 SFRSYM    DATA     BIT       P0_2
      00000080H.3 SFRSYM    DATA     BIT       P0_3
      00000080H.4 SFRSYM    DATA     BIT       P0_4
      00000080H.5 SFRSYM    DATA     BIT       P0_5
      00000080H.6 SFRSYM    DATA     BIT       P0_6
      00000080H.7 SFRSYM    DATA     BIT       P0_7
      00000095H   SFRSYM    DATA     BYTE      P0_ALT
      00000094H   SFRSYM    DATA     BYTE      P0_DIR
      00000090H   SFRSYM    DATA     BYTE      P1
      00000090H   SFRSYM    DATA     BIT       P1_0
      00000090H.1 SFRSYM    DATA     BIT       P1_1
      00000090H.2 SFRSYM    DATA     BIT       P1_2
      00000097H   SFRSYM    DATA     BYTE      P1_ALT
      00000096H   SFRSYM    DATA     BYTE      P1_DIR
      00000087H   SFRSYM    DATA     BYTE      PCON
      000000B8H.4 SFRSYM    DATA     BIT       PS
      000000D0H   SFRSYM    DATA     BYTE      PSW
      000000B8H.1 SFRSYM    DATA     BIT       PT0
      000000B8H.3 SFRSYM    DATA     BIT       PT1
      000000B8H.5 SFRSYM    DATA     BIT       PT2
      000000F8H.4 SFRSYM    DATA     BIT       PWDI
      00000080H.7 SFRSYM    DATA     BIT       PWM
      000000A9H   SFRSYM    DATA     BYTE      PWMCON
      000000AAH   SFRSYM    DATA     BYTE      PWMDUTY
      000000A0H.7 SFRSYM    DATA     BIT       PWR_UP
      000000B8H   SFRSYM    DATA     BIT       PX0
      000000B8H.2 SFRSYM    DATA     BIT       PX1
      000000F8H   SFRSYM    DATA     BIT       PX2
      000000F8H.1 SFRSYM    DATA     BIT       PX3
      000000F8H.2 SFRSYM    DATA     BIT       PX4
      000000F8H.3 SFRSYM    DATA     BIT       PX5
      000000A0H   SFRSYM    DATA     BYTE      RADIO
      00000098H.2 SFRSYM    DATA     BIT       RB8
      000000CBH   SFRSYM    DATA     BYTE      RCAP2H
      000000CAH   SFRSYM    DATA     BYTE      RCAP2L
      000000C8H.5 SFRSYM    DATA     BIT       RCLK
      000000ADH   SFRSYM    DATA     BYTE      REGX_CTRL
      000000ACH   SFRSYM    DATA     BYTE      REGX_LSB
      000000ABH   SFRSYM    DATA     BYTE      REGX_MSB
      00000098H.4 SFRSYM    DATA     BIT       REN
      00000098H   SFRSYM    DATA     BIT       RI
      000000D0H.3 SFRSYM    DATA     BIT       RS0
      000000D0H.4 SFRSYM    DATA     BIT       RS1
      000000B1H   SFRSYM    DATA     BYTE      RSTREAS
      00000080H.1 SFRSYM    DATA     BIT       RXD
      00000099H   SFRSYM    DATA     BYTE      SBUF
      00000098H   SFRSYM    DATA     BYTE      SCON
      00000098H.7 SFRSYM    DATA     BIT       SM0
      00000098H.6 SFRSYM    DATA     BIT       SM1
      00000098H.5 SFRSYM    DATA     BIT       SM2
      00000081H   SFRSYM    DATA     BYTE      SP
      0000008FH   SFRSYM    DATA     BYTE      SPC_FNC
      000000B3H   SFRSYM    DATA     BYTE      SPI_CTRL
      000000B2H   SFRSYM    DATA     BYTE      SPI_DATA
      000000B4H   SFRSYM    DATA     BYTE      SPICLK
LX51 LINKER/LOCATER V4.34a                                                            05/02/2009  16:05:32  PAGE 45


      00000080H.5 SFRSYM    DATA     BIT       T0
      00000080H.6 SFRSYM    DATA     BIT       T1
      000000BCH   SFRSYM    DATA     BYTE      T1_1V2
      00000090H   SFRSYM    DATA     BIT       T2
      000000BDH   SFRSYM    DATA     BYTE      T2_1V2
      000000C8H   SFRSYM    DATA     BYTE      T2CON
      00000098H.3 SFRSYM    DATA     BIT       TB8
      000000C8H.4 SFRSYM    DATA     BIT       TCLK
      00000088H   SFRSYM    DATA     BYTE      TCON
      000000B7H   SFRSYM    DATA     BYTE      TEST_MODE
      00000088H.5 SFRSYM    DATA     BIT       TF0
      00000088H.7 SFRSYM    DATA     BIT       TF1
      000000C8H.7 SFRSYM    DATA     BIT       TF2
      0000008CH   SFRSYM    DATA     BYTE      TH0
      0000008DH   SFRSYM    DATA     BYTE      TH1
      000000CDH   SFRSYM    DATA     BYTE      TH2
      00000098H.1 SFRSYM    DATA     BIT       TI
      000000B5H   SFRSYM    DATA     BYTE      TICK_DV
      0000008AH   SFRSYM    DATA     BYTE      TL0
      0000008BH   SFRSYM    DATA     BYTE      TL1
      000000CCH   SFRSYM    DATA     BYTE      TL2
      00000089H   SFRSYM    DATA     BYTE      TMOD
      00000088H.4 SFRSYM    DATA     BIT       TR0
      00000088H.6 SFRSYM    DATA     BIT       TR1
      000000C8H.2 SFRSYM    DATA     BIT       TR2
      00000080H.2 SFRSYM    DATA     BIT       TXD
      000000D8H.3 SFRSYM    DATA     BIT       WDTI
      01000EFBH   SYMBOL    CODE     NEAR LAB  ?C0002
      01000F00H   SYMBOL    CODE     NEAR LAB  ?C0003
      01000F02H   SYMBOL    CODE     NEAR LAB  ?C0004

      01000F32H   BLOCK     CODE     NEAR LAB  LVL=0
      01000F32H   LINE      CODE     ---       #203
      01000F34H   LINE      CODE     ---       #206
      01000F36H   LINE      CODE     ---       #209
      ---         BLOCKEND  ---      ---       LVL=0

      01000EF6H   BLOCK     CODE     NEAR LAB  LVL=0
      01000EF6H   LINE      CODE     ---       #229
      01000EF9H   LINE      CODE     ---       #232
      01000EFBH   LINE      CODE     ---       #236
      01000EFDH   LINE      CODE     ---       #237
      01000F00H   LINE      CODE     ---       #242
      01000F02H   LINE      CODE     ---       #246
      ---         BLOCKEND  ---      ---       LVL=0

      ---         MODULE    ---      ---       EEPROM
      01000E18H   PUBLIC    CODE     NEAR LAB  _EEPROM_READ
      01000D0BH   PUBLIC    CODE     NEAR LAB  _EEPROM_WRITE
      01000F03H   PUBLIC    CODE     NEAR LAB  EEPROM_INIT
      01000ECCH   PUBLIC    CODE     NEAR LAB  EEPROM_STATUS
      01000E69H   PUBLIC    CODE     NEAR LAB  FLASH_ERASE_ALL
      000000D0H.6 SFRSYM    DATA     BIT       AC
      000000E0H   SFRSYM    DATA     BYTE      ACC
      000000A1H   SFRSYM    DATA     BYTE      ADCCON
      000000A2H   SFRSYM    DATA     BYTE      ADCDATAH
      000000A3H   SFRSYM    DATA     BYTE      ADCDATAL
      000000A4H   SFRSYM    DATA     BYTE      ADCSTATIC
      000000F0H   SFRSYM    DATA     BYTE      B
      000000C8H.1 SFRSYM    DATA     BIT       C_T2
      000000A0H.6 SFRSYM    DATA     BIT       CE
      000000B6H   SFRSYM    DATA     BYTE      CK_CTRL
      0000008EH   SFRSYM    DATA     BYTE      CKCON
      000000A0H.1 SFRSYM    DATA     BIT       CLK1
      000000A0H.5 SFRSYM    DATA     BIT       CLK2
LX51 LINKER/LOCATER V4.34a                                                            05/02/2009  16:05:32  PAGE 46


      000000C8H   SFRSYM    DATA     BIT       CP_RL2
      000000C8H   SFRSYM    DATA     BIT       CPRL2
      000000A0H.3 SFRSYM    DATA     BIT       CS
      000000C8H.1 SFRSYM    DATA     BIT       CT2
      000000D0H.7 SFRSYM    DATA     BIT       CY
      000000A0H   SFRSYM    DATA     BIT       DATA?
      000000BEH   SFRSYM    DATA     BYTE      DEV_OFFSET
      00000090H.2 SFRSYM    DATA     BIT       DIN0
      00000090H   SFRSYM    DATA     BIT       DIO0
      00000090H.1 SFRSYM    DATA     BIT       DIO1
      00000080H   SFRSYM    DATA     BIT       DIO2
      00000080H.1 SFRSYM    DATA     BIT       DIO3
      00000080H.2 SFRSYM    DATA     BIT       DIO4
      00000080H.3 SFRSYM    DATA     BIT       DIO5
      00000080H.4 SFRSYM    DATA     BIT       DIO6
      00000080H.5 SFRSYM    DATA     BIT       DIO7
      00000080H.6 SFRSYM    DATA     BIT       DIO8
      00000080H.7 SFRSYM    DATA     BIT       DIO9
      000000A0H.4 SFRSYM    DATA     BIT       DOUT2
      00000083H   SFRSYM    DATA     BYTE      DPH
      00000083H   SFRSYM    DATA     BYTE      DPH0
      00000085H   SFRSYM    DATA     BYTE      DPH1
      00000082H   SFRSYM    DATA     BYTE      DPL
      00000082H   SFRSYM    DATA     BYTE      DPL0
      00000084H   SFRSYM    DATA     BYTE      DPL1
      00000086H   SFRSYM    DATA     BYTE      DPS
      000000A0H.2 SFRSYM    DATA     BIT       DR1
      000000A0H.6 SFRSYM    DATA     BIT       DR2
      000000A0H.6 SFRSYM    DATA     BIT       DR2_CE
      000000A8H.7 SFRSYM    DATA     BIT       EA
      000000D8H   SFRSYM    DATA     BYTE      EICON
      000000E8H   SFRSYM    DATA     BYTE      EIE
      000000F8H   SFRSYM    DATA     BYTE      EIP
      000000A8H.4 SFRSYM    DATA     BIT       ES
      000000A8H.1 SFRSYM    DATA     BIT       ET0
      000000A8H.3 SFRSYM    DATA     BIT       ET1
      000000A8H.5 SFRSYM    DATA     BIT       ET2
      000000E8H.4 SFRSYM    DATA     BIT       EWDI
      000000A8H   SFRSYM    DATA     BIT       EX0
      000000A8H.2 SFRSYM    DATA     BIT       EX1
      000000E8H   SFRSYM    DATA     BIT       EX2
      000000E8H.1 SFRSYM    DATA     BIT       EX3
      000000E8H.2 SFRSYM    DATA     BIT       EX4
      000000E8H.3 SFRSYM    DATA     BIT       EX5
      000000C8H.3 SFRSYM    DATA     BIT       EXEN2
      000000C8H.6 SFRSYM    DATA     BIT       EXF2
      00000091H   SFRSYM    DATA     BYTE      EXIF
      000000D0H.5 SFRSYM    DATA     BIT       F0
      000000D0H.1 SFRSYM    DATA     BIT       F1
      000000A8H   SFRSYM    DATA     BYTE      IE
      00000088H.1 SFRSYM    DATA     BIT       IE0
      00000088H.3 SFRSYM    DATA     BIT       IE1
      00000080H.3 SFRSYM    DATA     BIT       INT0_N
      00000080H.4 SFRSYM    DATA     BIT       INT1_N
      000000B8H   SFRSYM    DATA     BYTE      IP
      00000088H   SFRSYM    DATA     BIT       IT0
      00000088H.2 SFRSYM    DATA     BIT       IT1
      00000092H   SFRSYM    DATA     BYTE      MPAGE
      000000D0H.2 SFRSYM    DATA     BIT       OV
      000000D0H   SFRSYM    DATA     BIT       P
      00000080H   SFRSYM    DATA     BYTE      P0
      00000080H   SFRSYM    DATA     BIT       P0_0
      00000080H.1 SFRSYM    DATA     BIT       P0_1
      00000080H.2 SFRSYM    DATA     BIT       P0_2
      00000080H.3 SFRSYM    DATA     BIT       P0_3
LX51 LINKER/LOCATER V4.34a                                                            05/02/2009  16:05:32  PAGE 47


      00000080H.4 SFRSYM    DATA     BIT       P0_4
      00000080H.5 SFRSYM    DATA     BIT       P0_5
      00000080H.6 SFRSYM    DATA     BIT       P0_6
      00000080H.7 SFRSYM    DATA     BIT       P0_7
      00000095H   SFRSYM    DATA     BYTE      P0_ALT
      00000094H   SFRSYM    DATA     BYTE      P0_DIR
      00000090H   SFRSYM    DATA     BYTE      P1
      00000090H   SFRSYM    DATA     BIT       P1_0
      00000090H.1 SFRSYM    DATA     BIT       P1_1
      00000090H.2 SFRSYM    DATA     BIT       P1_2
      00000097H   SFRSYM    DATA     BYTE      P1_ALT
      00000096H   SFRSYM    DATA     BYTE      P1_DIR
      00000087H   SFRSYM    DATA     BYTE      PCON
      000000B8H.4 SFRSYM    DATA     BIT       PS
      000000D0H   SFRSYM    DATA     BYTE      PSW
      000000B8H.1 SFRSYM    DATA     BIT       PT0
      000000B8H.3 SFRSYM    DATA     BIT       PT1
      000000B8H.5 SFRSYM    DATA     BIT       PT2
      000000F8H.4 SFRSYM    DATA     BIT       PWDI
      00000080H.7 SFRSYM    DATA     BIT       PWM
      000000A9H   SFRSYM    DATA     BYTE      PWMCON
      000000AAH   SFRSYM    DATA     BYTE      PWMDUTY
      000000A0H.7 SFRSYM    DATA     BIT       PWR_UP
      000000B8H   SFRSYM    DATA     BIT       PX0
      000000B8H.2 SFRSYM    DATA     BIT       PX1
      000000F8H   SFRSYM    DATA     BIT       PX2
      000000F8H.1 SFRSYM    DATA     BIT       PX3
      000000F8H.2 SFRSYM    DATA     BIT       PX4
      000000F8H.3 SFRSYM    DATA     BIT       PX5
      000000A0H   SFRSYM    DATA     BYTE      RADIO
      00000098H.2 SFRSYM    DATA     BIT       RB8
      000000CBH   SFRSYM    DATA     BYTE      RCAP2H
      000000CAH   SFRSYM    DATA     BYTE      RCAP2L
      000000C8H.5 SFRSYM    DATA     BIT       RCLK
      000000ADH   SFRSYM    DATA     BYTE      REGX_CTRL
      000000ACH   SFRSYM    DATA     BYTE      REGX_LSB
      000000ABH   SFRSYM    DATA     BYTE      REGX_MSB
      00000098H.4 SFRSYM    DATA     BIT       REN
      00000098H   SFRSYM    DATA     BIT       RI
      000000D0H.3 SFRSYM    DATA     BIT       RS0
      000000D0H.4 SFRSYM    DATA     BIT       RS1
      000000B1H   SFRSYM    DATA     BYTE      RSTREAS
      00000080H.1 SFRSYM    DATA     BIT       RXD
      00000099H   SFRSYM    DATA     BYTE      SBUF
      00000098H   SFRSYM    DATA     BYTE      SCON
      00000098H.7 SFRSYM    DATA     BIT       SM0
      00000098H.6 SFRSYM    DATA     BIT       SM1
      00000098H.5 SFRSYM    DATA     BIT       SM2
      00000081H   SFRSYM    DATA     BYTE      SP
      0000008FH   SFRSYM    DATA     BYTE      SPC_FNC
      000000B3H   SFRSYM    DATA     BYTE      SPI_CTRL
      000000B2H   SFRSYM    DATA     BYTE      SPI_DATA
      000000B4H   SFRSYM    DATA     BYTE      SPICLK
      00000080H.5 SFRSYM    DATA     BIT       T0
      00000080H.6 SFRSYM    DATA     BIT       T1
      000000BCH   SFRSYM    DATA     BYTE      T1_1V2
      00000090H   SFRSYM    DATA     BIT       T2
      000000BDH   SFRSYM    DATA     BYTE      T2_1V2
      000000C8H   SFRSYM    DATA     BYTE      T2CON
      00000098H.3 SFRSYM    DATA     BIT       TB8
      000000C8H.4 SFRSYM    DATA     BIT       TCLK
      00000088H   SFRSYM    DATA     BYTE      TCON
      000000B7H   SFRSYM    DATA     BYTE      TEST_MODE
      00000088H.5 SFRSYM    DATA     BIT       TF0
      00000088H.7 SFRSYM    DATA     BIT       TF1
LX51 LINKER/LOCATER V4.34a                                                            05/02/2009  16:05:32  PAGE 48


      000000C8H.7 SFRSYM    DATA     BIT       TF2
      0000008CH   SFRSYM    DATA     BYTE      TH0
      0000008DH   SFRSYM    DATA     BYTE      TH1
      000000CDH   SFRSYM    DATA     BYTE      TH2
      00000098H.1 SFRSYM    DATA     BIT       TI
      000000B5H   SFRSYM    DATA     BYTE      TICK_DV
      0000008AH   SFRSYM    DATA     BYTE      TL0
      0000008BH   SFRSYM    DATA     BYTE      TL1
      000000CCH   SFRSYM    DATA     BYTE      TL2
      00000089H   SFRSYM    DATA     BYTE      TMOD
      00000088H.4 SFRSYM    DATA     BIT       TR0
      00000088H.6 SFRSYM    DATA     BIT       TR1
      000000C8H.2 SFRSYM    DATA     BIT       TR2
      00000080H.2 SFRSYM    DATA     BIT       TXD
      000000D8H.3 SFRSYM    DATA     BIT       WDTI
      00000074H   SYMBOL    DATA     BYTE      ?_EEPROM_READ?BYTE
      00000071H   SYMBOL    DATA     BYTE      ?_EEPROM_WRITE?BYTE
      01000EDAH   SYMBOL    CODE     NEAR LAB  ?C0002
      01000D11H   SYMBOL    CODE     NEAR LAB  ?C0003
      01000D18H   SYMBOL    CODE     NEAR LAB  ?C0004
      01000E1FH   SYMBOL    CODE     NEAR LAB  ?C0006
      01000E26H   SYMBOL    CODE     NEAR LAB  ?C0007
      01000E43H   SYMBOL    CODE     NEAR LAB  ?C0008
      01000E69H   SYMBOL    CODE     NEAR LAB  ?C0009
      01000E70H   SYMBOL    CODE     NEAR LAB  ?C0010
      01000E82H   SYMBOL    CODE     NEAR LAB  ?C0012
      00000071H   SYMBOL    DATA     BYTE      ADDR?241
      00000074H   SYMBOL    DATA     BYTE      ADDR?343
      00000073H   SYMBOL    DATA     BYTE      BYTE?242
      00000076H   SYMBOL    DATA     BYTE      BYTE?344

      01000F03H   BLOCK     CODE     NEAR LAB  LVL=0
      01000F03H   LINE      CODE     ---       #244
      01000F04H   LINE      CODE     ---       #245
      01000F05H   LINE      CODE     ---       #246
      01000F07H   LINE      CODE     ---       #247
      01000F0AH   LINE      CODE     ---       #251
      01000F0DH   LINE      CODE     ---       #254
      ---         BLOCKEND  ---      ---       LVL=0

      01000ECCH   BLOCK     CODE     NEAR LAB  LVL=0
      01000ECCH   LINE      CODE     ---       #270
      01000ECEH   LINE      CODE     ---       #273
      01000ED0H   LINE      CODE     ---       #274
      01000ED3H   LINE      CODE     ---       #278
      01000ED4H   LINE      CODE     ---       #279
      01000ED5H   LINE      CODE     ---       #280
      01000ED8H   LINE      CODE     ---       #284
      01000EDAH   LINE      CODE     ---       #291
      ---         BLOCKEND  ---      ---       LVL=0

      01000D0BH   BLOCK     CODE     NEAR LAB  LVL=0
      01000D0BH   LINE      CODE     ---       #305
      01000D0DH   LINE      CODE     ---       #306
      01000D0FH   LINE      CODE     ---       #307
      01000D11H   LINE      CODE     ---       #313
      01000D14H   LINE      CODE     ---       #314
      01000D15H   LINE      CODE     ---       #315
      01000D18H   LINE      CODE     ---       #320
      01000D1AH   LINE      CODE     ---       #323
      01000D1CH   LINE      CODE     ---       #324
      01000D1FH   LINE      CODE     ---       #327
      01000D21H   LINE      CODE     ---       #330
      01000D23H   LINE      CODE     ---       #333
      01000D25H   LINE      CODE     ---       #334
LX51 LINKER/LOCATER V4.34a                                                            05/02/2009  16:05:32  PAGE 49


      01000D28H   LINE      CODE     ---       #337
      01000D2AH   LINE      CODE     ---       #338
      01000D2BH   LINE      CODE     ---       #339
      01000D2EH   LINE      CODE     ---       #342
      01000D30H   LINE      CODE     ---       #343
      01000D32H   LINE      CODE     ---       #344
      01000D35H   LINE      CODE     ---       #347
      01000D37H   LINE      CODE     ---       #348
      01000D3AH   LINE      CODE     ---       #351
      01000D3CH   LINE      CODE     ---       #354
      01000D3EH   LINE      CODE     ---       #357
      01000D40H   LINE      CODE     ---       #358
      01000D43H   LINE      CODE     ---       #361
      01000D45H   LINE      CODE     ---       #364
      ---         BLOCKEND  ---      ---       LVL=0

      01000E18H   BLOCK     CODE     NEAR LAB  LVL=0
      01000E18H   LINE      CODE     ---       #377
      01000E1AH   LINE      CODE     ---       #378
      01000E1CH   LINE      CODE     ---       #383
      01000E1DH   LINE      CODE     ---       #384
      01000E1FH   LINE      CODE     ---       #388
      01000E22H   LINE      CODE     ---       #389
      01000E23H   LINE      CODE     ---       #390
      01000E26H   LINE      CODE     ---       #395
      01000E28H   LINE      CODE     ---       #398
      01000E2AH   LINE      CODE     ---       #399
      01000E2DH   LINE      CODE     ---       #402
      01000E2FH   LINE      CODE     ---       #403
      01000E30H   LINE      CODE     ---       #404
      01000E33H   LINE      CODE     ---       #407
      01000E35H   LINE      CODE     ---       #408
      01000E37H   LINE      CODE     ---       #409
      01000E3AH   LINE      CODE     ---       #412
      01000E3BH   LINE      CODE     ---       #413
      01000E3CH   LINE      CODE     ---       #414
      01000E3FH   LINE      CODE     ---       #415
      01000E41H   LINE      CODE     ---       #418
      01000E43H   LINE      CODE     ---       #424
      ---         BLOCKEND  ---      ---       LVL=0

      01000E69H   BLOCK     CODE     NEAR LAB  LVL=0
      01000E69H   LINE      CODE     ---       #440
      01000E6CH   LINE      CODE     ---       #441
      01000E6DH   LINE      CODE     ---       #442
      01000E70H   LINE      CODE     ---       #447
      01000E72H   LINE      CODE     ---       #450
      01000E74H   LINE      CODE     ---       #451
      01000E77H   LINE      CODE     ---       #454
      01000E79H   LINE      CODE     ---       #457
      01000E7BH   LINE      CODE     ---       #460
      01000E7DH   LINE      CODE     ---       #461
      01000E80H   LINE      CODE     ---       #464
      01000E82H   LINE      CODE     ---       #472
      01000E84H   LINE      CODE     ---       #475
      01000E86H   LINE      CODE     ---       #476
      01000E89H   LINE      CODE     ---       #479
      01000E8BH   LINE      CODE     ---       #482
      ---         BLOCKEND  ---      ---       LVL=0

      ---         MODULE    ---      ---       ?C_STARTUP
      01000000H   PUBLIC    CODE     ---       ?C_STARTUP

      ---         MODULE    ---      ---       ?C?CLDPTR
      01000056H   PUBLIC    CODE     ---       ?C?CLDPTR
LX51 LINKER/LOCATER V4.34a                                                            05/02/2009  16:05:32  PAGE 50



      ---         MODULE    ---      ---       ?C?CLDOPTR
      0100006FH   PUBLIC    CODE     ---       ?C?CLDOPTR

      ---         MODULE    ---      ---       ?C?CSTPTR
      0100009CH   PUBLIC    CODE     ---       ?C?CSTPTR

      ---         MODULE    ---      ---       ?C?UIDIV
      010000AEH   PUBLIC    CODE     ---       ?C?UIDIV

      ---         MODULE    ---      ---       ?C?LMUL
      01000103H   PUBLIC    CODE     ---       ?C?LMUL

      ---         MODULE    ---      ---       ?C?ULDIV
      0100018EH   PUBLIC    CODE     ---       ?C?ULDIV

      ---         MODULE    ---      ---       ?C?LLDIDATA
      01000220H   PUBLIC    CODE     ---       ?C?LLDIDATA

      ---         MODULE    ---      ---       ?C?LSTIDATA
      0100022CH   PUBLIC    CODE     ---       ?C?LSTIDATA

      ---         MODULE    ---      ---       ?C?ICASE
      01000238H   PUBLIC    CODE     ---       ?C?ICASE

      ---         MODULE    ---      ---       ?C?ICALL
      01000265H   PUBLIC    CODE     ---       ?C?ICALL
      01000269H   PUBLIC    CODE     ---       ?C?ICALL2

      ---         MODULE    ---      ---       ?C_IBP
      0000007DH   PUBLIC    DATA     ---       ?C_IBP

      ---         MODULE    ---      ---       ?C_INIT
      01000AA9H   PUBLIC    CODE     ---       ?C_START

      ---         MODULE    ---      ---       ?C?FCAST
      01000275H   PUBLIC    CODE     ---       ?C?FCASTC
      01000270H   PUBLIC    CODE     ---       ?C?FCASTI
      0100026BH   PUBLIC    CODE     ---       ?C?FCASTL

      ---         MODULE    ---      ---       ?C?CASTF
      010002A9H   PUBLIC    CODE     ---       ?C?CASTF

      ---         MODULE    ---      ---       LOG
      0100086AH   PUBLIC    CODE     ---       _LOG
      01000866H   PUBLIC    CODE     ---       _LOG10

      ---         MODULE    ---      ---       ?C?FPGETOPN
      010002E0H   PUBLIC    CODE     ---       ?C?FPGETOPN2
      01000315H   PUBLIC    CODE     ---       ?C?FPNANRESULT
      0100031FH   PUBLIC    CODE     ---       ?C?FPOVERFLOW
      010002F7H   PUBLIC    CODE     ---       ?C?FPRESULT
      0100030BH   PUBLIC    CODE     ---       ?C?FPRESULT2
      0100031CH   PUBLIC    CODE     ---       ?C?FPUNDERFLOW

      ---         MODULE    ---      ---       ?C?FPADD
      01000331H   PUBLIC    CODE     ---       ?C?FPADD
      0100032DH   PUBLIC    CODE     ---       ?C?FPSUB

      ---         MODULE    ---      ---       ?C?FPMUL
      01000422H   PUBLIC    CODE     ---       ?C?FPMUL

      ---         MODULE    ---      ---       ?C?FPDIV
      0100052BH   PUBLIC    CODE     ---       ?C?FPDIV

LX51 LINKER/LOCATER V4.34a                                                            05/02/2009  16:05:32  PAGE 51


      ---         MODULE    ---      ---       ?C?FPSERIES
      010005C8H   PUBLIC    CODE     ---       ?C?FP2SERIES
      010005D7H   PUBLIC    CODE     ---       ?C?FPSERIES

      ---         MODULE    ---      ---       ?C?LNEG
      01000615H   PUBLIC    CODE     ---       ?C?LNEG

      ---         MODULE    ---      ---       ?C?LLDCODE
      01000623H   PUBLIC    CODE     ---       ?C?LLDCODE

      ---         MODULE    ---      ---       ?C?LLDXDATA0
      01000633H   PUBLIC    CODE     ---       ?C?LLDXDATA0

      ---         MODULE    ---      ---       ?C?LLDCODE0
      0100063FH   PUBLIC    CODE     ---       ?C?LLDCODE0

      ---         MODULE    ---      ---       ?C?LSTXDATA
      0100064FH   PUBLIC    CODE     ---       ?C?LSTXDATA

Program Size: data=198.1 xdata=4 const=0 code=4129
LX51 RUN COMPLETE.  0 WARNING(S),  0 ERROR(S)
