LX51 LINKER/LOCATER V4.34a                                                              04/29/2009  14:26:02  PAGE 1


LX51 LINKER/LOCATER V4.34a, INVOKED BY:
C:\KEIL\C51\BIN\LX51.EXE MAIN.OBJ, ISR_RF.OBJ, ECO_PAGE.OBJ, ADC.OBJ, UTILS.OBJ, SERIAL.OBJ, SPI.OBJ, EEPROM.OBJ, C51S.L
>> IB TO MAIN SEGMENTS (?PR?_RF_SEND?ISR_RF (C:0X1000)) SEGMENTS (?PR?_ADC_INIT?ADC (C:0X1080)) SEGMENTS (?PR?_ADC_READ?
>> ADC (C:0X10A0))


CPU MODE:     8051 MODE


INPUT MODULES INCLUDED:
  MAIN.OBJ (MAIN)
         COMMENT TYPE 0: AX51 V3.06a
  ISR_RF.OBJ (ISR_RF)
         COMMENT TYPE 0: AX51 V3.06a
  ECO_PAGE.OBJ (ECO_PAGE)
         COMMENT TYPE 0: AX51 V3.06a
  ADC.OBJ (ADC)
         COMMENT TYPE 0: AX51 V3.06a
  UTILS.OBJ (UTILS)
         COMMENT TYPE 0: AX51 V3.06a
  SERIAL.OBJ (SERIAL)
         COMMENT TYPE 0: AX51 V3.06a
  SPI.OBJ (SPI)
         COMMENT TYPE 0: AX51 V3.06a
  EEPROM.OBJ (EEPROM)
         COMMENT TYPE 0: AX51 V3.06a
  C51S.LIB (?C_STARTUP)
         COMMENT TYPE 1: A51 / ASM51 Assembler
  C51S.LIB (?C?CLDPTR)
         COMMENT TYPE 1: A51 / ASM51 Assembler
  C51S.LIB (?C?CLDOPTR)
         COMMENT TYPE 1: A51 / ASM51 Assembler
  C51S.LIB (?C?CSTPTR)
         COMMENT TYPE 1: A51 / ASM51 Assembler
  C51S.LIB (?C?UIDIV)
         COMMENT TYPE 1: A51 / ASM51 Assembler
  C51S.LIB (?C?LMUL)
         COMMENT TYPE 1: A51 / ASM51 Assembler
  C51S.LIB (?C?ULDIV)
         COMMENT TYPE 1: A51 / ASM51 Assembler
  C51S.LIB (?C?ICASE)
         COMMENT TYPE 1: A51 / ASM51 Assembler
  C51S.LIB (?C?ICALL)
         COMMENT TYPE 1: A51 / ASM51 Assembler
  C51S.LIB (?C_IBP)
         COMMENT TYPE 1: A51 / ASM51 Assembler
  C51S.LIB (?C_INIT)
         COMMENT TYPE 1: A51 / ASM51 Assembler


ACTIVE MEMORY CLASSES OF MODULE:  MAIN (MAIN)

BASE        START       END         USED      MEMORY CLASS
==========================================================
C:000000H   C:000000H   C:00FFFFH   0009A9H   CODE
I:000000H   I:000000H   I:00007FH   000076H   DATA
I:000000H   I:000000H   I:0000FFH   00003CH   IDATA


MEMORY MAP OF MODULE:  MAIN (MAIN)


START     STOP      LENGTH    ALIGN  RELOC    MEMORY CLASS   SEGMENT NAME
=========================================================================

* * * * * * * * * * *   D A T A   M E M O R Y   * * * * * * * * * * * * *
LX51 LINKER/LOCATER V4.34a                                                            04/29/2009  14:26:02  PAGE 2


000000H   000007H   000008H   ---    AT..     DATA           "REG BANK 0"
000008H   00001FH   000018H   BYTE   UNIT     DATA           ?DT?ISR_RF
000020H   000034H   000015H   BYTE   UNIT     DATA           ?DT?MAIN
000035H   00003EH   00000AH   BYTE   UNIT     DATA           ?DT?_RF_SEND?ISR_RF
00003FH   000046H   000008H   BYTE   UNIT     DATA           ?DT?MAIN?MAIN
000047H   00004EH   000008H   BYTE   UNIT     DATA           ?DT?ECO_PAGE_MANAGER?ECO_PAGE
00004FH   000056H   000008H   BYTE   UNIT     DATA           ?DT?ECO_PAGE
000057H   00005EH   000008H   BYTE   UNIT     DATA           ?DT?_STRNCPY?UTILS
00005FH   000063H   000005H   BYTE   UNIT     DATA           ?DT?_RF_CONFIGURE?ISR_RF
000064H   000067H   000004H   BYTE   UNIT     DATA           ?DT?UTILS
000068H   00006AH   000003H   BYTE   UNIT     DATA           ?DT?_PUTS?SERIAL
00006BH   00006DH   000003H   BYTE   UNIT     DATA           ?DT?_EEPROM_WRITE?EEPROM
00006EH   000070H   000003H   BYTE   UNIT     DATA           ?DT?_EEPROM_READ?EEPROM
000071H   000072H   000002H   BYTE   UNIT     DATA           ?DT?RF_CH1_RECV?ISR_RF
000073H   000074H   000002H   BYTE   UNIT     DATA           ?DT?_MDELAY?UTILS
000075H   000075H   000001H   BYTE   UNIT     DATA           ?C?LIB_DATA
000076H   00009CH   000027H   BYTE   UNIT     IDATA          ?ID?ECO_PAGE
00009DH   0000B0H   000014H   BYTE   UNIT     IDATA          ?ID?MAIN
0000B1H   0000B1H   000001H   BYTE   UNIT     IDATA          ?STACK

* * * * * * * * * * *   C O D E   M E M O R Y   * * * * * * * * * * * * *
000000H   000002H   000003H   ---    OFFS..   CODE           ?CO??C_STARTUP?0
000003H   00004FH   00004DH   BYTE   UNIT     CODE           ?PR?P_ADC_READ?ADC
000050H   000052H   000003H   BYTE   UNIT     CODE           ?PR?_PUTC?SERIAL
000053H   000055H   000003H   ---    OFFS..   CODE           ?CO?ISR_RF?11
000056H   00027FH   00022AH   BYTE   UNIT     CODE           ?PR?ECO_PAGE_MANAGER?ECO_PAGE
000280H   00047CH   0001FDH   BYTE   UNIT     CODE           ?C?LIB_CODE
00047DH   000574H   0000F8H   BYTE   UNIT     CODE           ?PR?MAIN?MAIN
000575H   000600H   00008CH   BYTE   UNIT     CODE           ?C_C51STARTUP
000601H   000660H   000060H   BYTE   UNIT     CODE           ?PR?RF_CH1_RECV?ISR_RF
000661H   0006A9H   000049H   BYTE   UNIT     CODE           ?PR?_MDELAY?UTILS
0006AAH   0006EDH   000044H   BYTE   UNIT     CODE           ?PR?_STRNCPY?UTILS
0006EEH   00072AH   00003DH   BYTE   UNIT     CODE           ?PR?_SETUP_BAUDRATE?SERIAL
00072BH   000765H   00003BH   BYTE   UNIT     CODE           ?PR?_EEPROM_WRITE?EEPROM
000766H   00079FH   00003AH   BYTE   UNIT     CODE           ?PR?_?INT_PRINT?SERIAL
0007A0H   0007D5H   000036H   BYTE   UNIT     CODE           ?C_INITSEG
0007D6H   00080BH   000036H   BYTE   UNIT     CODE           ?PR?_RF_CONFIGURE?ISR_RF
00080CH   000837H   00002CH   BYTE   UNIT     CODE           ?PR?_EEPROM_READ?EEPROM
000838H   00085CH   000025H   BYTE   UNIT     CODE           ?PR?_PUTS?SERIAL
00085DH   00087FH   000023H   BYTE   UNIT     CODE           ?PR?FLASH_ERASE_ALL?EEPROM
000880H   000891H   000012H   BYTE   UNIT     CODE           ?PR?_WDT_LOAD?UTILS
000892H   0008A1H   000010H   BYTE   UNIT     CODE           ?PR?ECO_PAGE_INIT?ECO_PAGE
0008A2H   0008B0H   00000FH   BYTE   UNIT     CODE           ?PR?EEPROM_STATUS?EEPROM
0008B1H   0008BEH   00000EH   BYTE   UNIT     CODE           ?PR?RF_INIT?ISR_RF
0008BFH   0008CBH   00000DH   BYTE   UNIT     CODE           ?PR?_STORE_CPU_RATE?UTILS
0008CCH   0008D8H   00000DH   BYTE   UNIT     CODE           ?PR?_SPI_WRITE_THEN_READ?SPI
0008D9H   0008E3H   00000BH   BYTE   UNIT     CODE           ?PR?EEPROM_INIT?EEPROM
0008E4H   0008EDH   00000AH   BYTE   UNIT     CODE           ?PR?_SERIAL_INIT?SERIAL
0008EEH   0008F6H   000009H   BYTE   UNIT     CODE           ?PR?RF_WAIT_MSG?ISR_RF
0008F7H   0008FEH   000008H   BYTE   UNIT     CODE           ?PR?_SERIAL_WRITE?SERIAL
0008FFH   000906H   000008H   BYTE   UNIT     CODE           ?PR?SERIAL_READ?SERIAL
000907H   00090BH   000005H   BYTE   UNIT     CODE           ?PR?_SPI_INIT?SPI
00090CH   00090FH   000004H   BYTE   UNIT     CODE           ?PR?GETC?SERIAL
000910H   000FFFH   0006F0H   ---    ---      **GAP**
001000H   00106AH   00006BH   BYTE   UNIT     CODE           ?PR?_RF_SEND?ISR_RF
00106BH   00107FH   000015H   ---    ---      **GAP**
001080H   001092H   000013H   BYTE   UNIT     CODE           ?PR?_ADC_INIT?ADC
001093H   00109FH   00000DH   ---    ---      **GAP**
0010A0H   0010BAH   00001BH   BYTE   UNIT     CODE           ?PR?_ADC_READ?ADC



PUBLIC SYMBOLS OF MODULE:  MAIN (MAIN)


LX51 LINKER/LOCATER V4.34a                                                            04/29/2009  14:26:02  PAGE 3


      VALUE       CLASS    TYPE      PUBLIC SYMBOL NAME
      =================================================
      00000035H   DATA     BYTE      ?_RF_SEND?BYTE
      00000057H   DATA     BYTE      ?_STRNCPY?BYTE
      01000299H   CODE     ---       ?C?CLDOPTR
      01000280H   CODE     ---       ?C?CLDPTR
      00000000H   NUMBER   ---       ?C?CODESEG
      010002C6H   CODE     ---       ?C?CSTPTR
      01000477H   CODE     ---       ?C?ICALL
      0100047BH   CODE     ---       ?C?ICALL2
      0100044AH   CODE     ---       ?C?ICASE
      0100032DH   CODE     ---       ?C?LMUL
      010002D8H   CODE     ---       ?C?UIDIV
      010003B8H   CODE     ---       ?C?ULDIV
      00000000H   NUMBER   ---       ?C?XDATASEG
      00000075H   DATA     ---       ?C_IBP
      010005BCH   CODE     ---       ?C_START
      01000000H   CODE     ---       ?C_STARTUP
      01000766H   CODE     NEAR LAB  _?INT_PRINT
      01001080H   CODE     NEAR LAB  _ADC_INIT
      010010A0H   CODE     NEAR LAB  _ADC_READ
      0100080CH   CODE     NEAR LAB  _EEPROM_READ
      0100072BH   CODE     NEAR LAB  _EEPROM_WRITE
      01000661H   CODE     NEAR LAB  _MDELAY
      01000050H   CODE     NEAR LAB  _PUTC
      01000838H   CODE     NEAR LAB  _PUTS
      010007D6H   CODE     NEAR LAB  _RF_CONFIGURE
      01001000H   CODE     NEAR LAB  _RF_SEND
      010008E4H   CODE     NEAR LAB  _SERIAL_INIT
      01000907H   CODE     NEAR LAB  _SPI_INIT
      010008CCH   CODE     NEAR LAB  _SPI_WRITE_THEN_READ
      010008BFH   CODE     NEAR LAB  _STORE_CPU_RATE
      010006AAH   CODE     NEAR LAB  _STRNCPY
      01000880H   CODE     NEAR LAB  _WDT_LOAD
*SFR* 000000D0H.6 DATA     BIT       AC
*SFR* 000000E0H   DATA     BYTE      ACC
*SFR* 000000A1H   DATA     BYTE      ADCCON
*SFR* 000000A2H   DATA     BYTE      ADCDATAH
*SFR* 000000A3H   DATA     BYTE      ADCDATAL
*SFR* 000000A4H   DATA     BYTE      ADCSTATIC
*SFR* 000000F0H   DATA     BYTE      B
*SFR* 000000C8H.1 DATA     BIT       C_T2
*SFR* 000000A0H.6 DATA     BIT       CE
      00000020H   DATA     BYTE      CFG
*SFR* 000000B6H   DATA     BYTE      CK_CTRL
*SFR* 0000008EH   DATA     BYTE      CKCON
*SFR* 000000A0H.1 DATA     BIT       CLK1
*SFR* 000000A0H.5 DATA     BIT       CLK2
*SFR* 000000C8H   DATA     BIT       CP_RL2
*SFR* 000000C8H   DATA     BIT       CPRL2
*SFR* 000000A0H.3 DATA     BIT       CS
*SFR* 000000C8H.1 DATA     BIT       CT2
*SFR* 000000D0H.7 DATA     BIT       CY
*SFR* 000000A0H   DATA     BIT       DATA?
*SFR* 000000BEH   DATA     BYTE      DEV_OFFSET
*SFR* 00000090H.2 DATA     BIT       DIN0
*SFR* 00000090H   DATA     BIT       DIO0
*SFR* 00000090H.1 DATA     BIT       DIO1
*SFR* 00000080H   DATA     BIT       DIO2
*SFR* 00000080H.1 DATA     BIT       DIO3
*SFR* 00000080H.2 DATA     BIT       DIO4
*SFR* 00000080H.3 DATA     BIT       DIO5
*SFR* 00000080H.4 DATA     BIT       DIO6
*SFR* 00000080H.5 DATA     BIT       DIO7
*SFR* 00000080H.6 DATA     BIT       DIO8
LX51 LINKER/LOCATER V4.34a                                                            04/29/2009  14:26:02  PAGE 4


*SFR* 00000080H.7 DATA     BIT       DIO9
*SFR* 000000A0H.4 DATA     BIT       DOUT2
*SFR* 00000083H   DATA     BYTE      DPH
*SFR* 00000083H   DATA     BYTE      DPH0
*SFR* 00000085H   DATA     BYTE      DPH1
*SFR* 00000082H   DATA     BYTE      DPL
*SFR* 00000082H   DATA     BYTE      DPL0
*SFR* 00000084H   DATA     BYTE      DPL1
*SFR* 00000086H   DATA     BYTE      DPS
*SFR* 000000A0H.2 DATA     BIT       DR1
*SFR* 000000A0H.6 DATA     BIT       DR2
*SFR* 000000A0H.6 DATA     BIT       DR2_CE
      00000023H   DATA     BYTE      DST_ADDR
*SFR* 000000A8H.7 DATA     BIT       EA
      00000054H   DATA     BYTE      ECO_PAGE_ADDR
      01000892H   CODE     NEAR LAB  ECO_PAGE_INIT
      01000056H   CODE     NEAR LAB  ECO_PAGE_MANAGER
      00000050H   DATA     BYTE      ECO_PAGE_PREV_PID
      00000052H   DATA     BYTE      ECO_PAGE_PREV_VID
      00000096H   IDATA    BYTE      ECO_PAGE_REGISTER1
      00000097H   IDATA    BYTE      ECO_PAGE_REGISTER2
      00000098H   IDATA    BYTE      ECO_PAGE_REGISTER3
      00000099H   IDATA    BYTE      ECO_PAGE_REGISTER4
      0000009AH   IDATA    BYTE      ECO_PAGE_REGISTER5
      0000009BH   IDATA    BYTE      ECO_PAGE_REGISTER6
      0000009CH   IDATA    BYTE      ECO_PAGE_REGISTER7
      0000004FH   DATA     BYTE      ECO_PAGE_SPI_CONN
      00000076H   IDATA    BYTE      ECO_PAGE_TABLE
      00000056H   DATA     BYTE      ECO_PAGE_TABLE_INDEX
      010008D9H   CODE     NEAR LAB  EEPROM_INIT
      010008A2H   CODE     NEAR LAB  EEPROM_STATUS
*SFR* 000000D8H   DATA     BYTE      EICON
*SFR* 000000E8H   DATA     BYTE      EIE
*SFR* 000000F8H   DATA     BYTE      EIP
*SFR* 000000A8H.4 DATA     BIT       ES
*SFR* 000000A8H.1 DATA     BIT       ET0
*SFR* 000000A8H.3 DATA     BIT       ET1
*SFR* 000000A8H.5 DATA     BIT       ET2
*SFR* 000000E8H.4 DATA     BIT       EWDI
*SFR* 000000A8H   DATA     BIT       EX0
*SFR* 000000A8H.2 DATA     BIT       EX1
*SFR* 000000E8H   DATA     BIT       EX2
*SFR* 000000E8H.1 DATA     BIT       EX3
*SFR* 000000E8H.2 DATA     BIT       EX4
*SFR* 000000E8H.3 DATA     BIT       EX5
*SFR* 000000C8H.3 DATA     BIT       EXEN2
*SFR* 000000C8H.6 DATA     BIT       EXF2
*SFR* 00000091H   DATA     BYTE      EXIF
*SFR* 000000D0H.5 DATA     BIT       F0
*SFR* 000000D0H.1 DATA     BIT       F1
      0100085DH   CODE     NEAR LAB  FLASH_ERASE_ALL
      0100090CH   CODE     NEAR LAB  GETC
*SFR* 000000A8H   DATA     BYTE      IE
*SFR* 00000088H.1 DATA     BIT       IE0
*SFR* 00000088H.3 DATA     BIT       IE1
*SFR* 00000080H.3 DATA     BIT       INT0_N
*SFR* 00000080H.4 DATA     BIT       INT1_N
*SFR* 000000B8H   DATA     BYTE      IP
*SFR* 00000088H   DATA     BIT       IT0
*SFR* 00000088H.2 DATA     BIT       IT1
      0100047DH   CODE     NEAR LAB  MAIN
      00000064H   DATA     BYTE      MHZ
*SFR* 00000092H   DATA     BYTE      MPAGE
      0000009DH   IDATA    BYTE      MSG
*SFR* 000000D0H.2 DATA     BIT       OV
LX51 LINKER/LOCATER V4.34a                                                            04/29/2009  14:26:02  PAGE 5


*SFR* 000000D0H   DATA     BIT       P
*SFR* 00000080H   DATA     BYTE      P0
*SFR* 00000080H   DATA     BIT       P0_0
*SFR* 00000080H.1 DATA     BIT       P0_1
*SFR* 00000080H.2 DATA     BIT       P0_2
*SFR* 00000080H.3 DATA     BIT       P0_3
*SFR* 00000080H.4 DATA     BIT       P0_4
*SFR* 00000080H.5 DATA     BIT       P0_5
*SFR* 00000080H.6 DATA     BIT       P0_6
*SFR* 00000080H.7 DATA     BIT       P0_7
*SFR* 00000095H   DATA     BYTE      P0_ALT
*SFR* 00000094H   DATA     BYTE      P0_DIR
*SFR* 00000090H   DATA     BYTE      P1
*SFR* 00000090H   DATA     BIT       P1_0
*SFR* 00000090H.1 DATA     BIT       P1_1
*SFR* 00000090H.2 DATA     BIT       P1_2
*SFR* 00000097H   DATA     BYTE      P1_ALT
*SFR* 00000096H   DATA     BYTE      P1_DIR
*SFR* 00000087H   DATA     BYTE      PCON
*SFR* 000000B8H.4 DATA     BIT       PS
*SFR* 000000D0H   DATA     BYTE      PSW
*SFR* 000000B8H.1 DATA     BIT       PT0
*SFR* 000000B8H.3 DATA     BIT       PT1
*SFR* 000000B8H.5 DATA     BIT       PT2
*SFR* 000000F8H.4 DATA     BIT       PWDI
*SFR* 00000080H.7 DATA     BIT       PWM
*SFR* 000000A9H   DATA     BYTE      PWMCON
*SFR* 000000AAH   DATA     BYTE      PWMDUTY
*SFR* 000000A0H.7 DATA     BIT       PWR_UP
*SFR* 000000B8H   DATA     BIT       PX0
*SFR* 000000B8H.2 DATA     BIT       PX1
*SFR* 000000F8H   DATA     BIT       PX2
*SFR* 000000F8H.1 DATA     BIT       PX3
*SFR* 000000F8H.2 DATA     BIT       PX4
*SFR* 000000F8H.3 DATA     BIT       PX5
*SFR* 000000A0H   DATA     BYTE      RADIO
*SFR* 00000098H.2 DATA     BIT       RB8
*SFR* 000000CBH   DATA     BYTE      RCAP2H
*SFR* 000000CAH   DATA     BYTE      RCAP2L
*SFR* 000000C8H.5 DATA     BIT       RCLK
*SFR* 000000ADH   DATA     BYTE      REGX_CTRL
*SFR* 000000ACH   DATA     BYTE      REGX_LSB
*SFR* 000000ABH   DATA     BYTE      REGX_MSB
*SFR* 00000098H.4 DATA     BIT       REN
      00000008H   DATA     BYTE      RF_BUF
      01000601H   CODE     NEAR LAB  RF_CH1_RECV
      00000026H   DATA     BYTE      RF_DATA
      010008B1H   CODE     NEAR LAB  RF_INIT
      010008EEH   CODE     NEAR LAB  RF_WAIT_MSG
*SFR* 00000098H   DATA     BIT       RI
*SFR* 000000D0H.3 DATA     BIT       RS0
*SFR* 000000D0H.4 DATA     BIT       RS1
*SFR* 000000B1H   DATA     BYTE      RSTREAS
*SFR* 00000080H.1 DATA     BIT       RXD
*SFR* 00000099H   DATA     BYTE      SBUF
*SFR* 00000098H   DATA     BYTE      SCON
*SFR* 00000098H.7 DATA     BIT       SM0
*SFR* 00000098H.6 DATA     BIT       SM1
*SFR* 00000098H.5 DATA     BIT       SM2
*SFR* 00000081H   DATA     BYTE      SP
*SFR* 0000008FH   DATA     BYTE      SPC_FNC
*SFR* 000000B3H   DATA     BYTE      SPI_CTRL
*SFR* 000000B2H   DATA     BYTE      SPI_DATA
*SFR* 000000B4H   DATA     BYTE      SPICLK
*SFR* 00000080H.5 DATA     BIT       T0
LX51 LINKER/LOCATER V4.34a                                                            04/29/2009  14:26:02  PAGE 6


*SFR* 00000080H.6 DATA     BIT       T1
*SFR* 000000BCH   DATA     BYTE      T1_1V2
*SFR* 00000090H   DATA     BIT       T2
*SFR* 000000BDH   DATA     BYTE      T2_1V2
*SFR* 000000C8H   DATA     BYTE      T2CON
*SFR* 00000098H.3 DATA     BIT       TB8
*SFR* 000000C8H.4 DATA     BIT       TCLK
*SFR* 00000088H   DATA     BYTE      TCON
*SFR* 000000B7H   DATA     BYTE      TEST_MODE
*SFR* 00000088H.5 DATA     BIT       TF0
*SFR* 00000088H.7 DATA     BIT       TF1
*SFR* 000000C8H.7 DATA     BIT       TF2
*SFR* 0000008CH   DATA     BYTE      TH0
*SFR* 0000008DH   DATA     BYTE      TH1
*SFR* 000000CDH   DATA     BYTE      TH2
*SFR* 00000098H.1 DATA     BIT       TI
*SFR* 000000B5H   DATA     BYTE      TICK_DV
*SFR* 0000008AH   DATA     BYTE      TL0
*SFR* 0000008BH   DATA     BYTE      TL1
*SFR* 000000CCH   DATA     BYTE      TL2
*SFR* 00000089H   DATA     BYTE      TMOD
*SFR* 00000088H.4 DATA     BIT       TR0
*SFR* 00000088H.6 DATA     BIT       TR1
*SFR* 000000C8H.2 DATA     BIT       TR2
*SFR* 00000080H.2 DATA     BIT       TXD
*SFR* 000000D8H.3 DATA     BIT       WDTI



SYMBOL TABLE OF MODULE:  MAIN (MAIN)

      VALUE       REP       CLASS    TYPE      SYMBOL NAME
      ====================================================
      ---         MODULE    ---      ---       MAIN
      00000020H   PUBLIC    DATA     BYTE      CFG
      00000023H   PUBLIC    DATA     BYTE      DST_ADDR
      0100047DH   PUBLIC    CODE     NEAR LAB  MAIN
      0000009DH   PUBLIC    IDATA    BYTE      MSG
      00000026H   PUBLIC    DATA     BYTE      RF_DATA
      000000D0H.6 SFRSYM    DATA     BIT       AC
      000000E0H   SFRSYM    DATA     BYTE      ACC
      000000A1H   SFRSYM    DATA     BYTE      ADCCON
      000000A2H   SFRSYM    DATA     BYTE      ADCDATAH
      000000A3H   SFRSYM    DATA     BYTE      ADCDATAL
      000000A4H   SFRSYM    DATA     BYTE      ADCSTATIC
      000000F0H   SFRSYM    DATA     BYTE      B
      000000C8H.1 SFRSYM    DATA     BIT       C_T2
      000000A0H.6 SFRSYM    DATA     BIT       CE
      000000B6H   SFRSYM    DATA     BYTE      CK_CTRL
      0000008EH   SFRSYM    DATA     BYTE      CKCON
      000000A0H.1 SFRSYM    DATA     BIT       CLK1
      000000A0H.5 SFRSYM    DATA     BIT       CLK2
      000000C8H   SFRSYM    DATA     BIT       CP_RL2
      000000C8H   SFRSYM    DATA     BIT       CPRL2
      000000A0H.3 SFRSYM    DATA     BIT       CS
      000000C8H.1 SFRSYM    DATA     BIT       CT2
      000000D0H.7 SFRSYM    DATA     BIT       CY
      000000A0H   SFRSYM    DATA     BIT       DATA?
      000000BEH   SFRSYM    DATA     BYTE      DEV_OFFSET
      00000090H.2 SFRSYM    DATA     BIT       DIN0
      00000090H   SFRSYM    DATA     BIT       DIO0
      00000090H.1 SFRSYM    DATA     BIT       DIO1
      00000080H   SFRSYM    DATA     BIT       DIO2
      00000080H.1 SFRSYM    DATA     BIT       DIO3
      00000080H.2 SFRSYM    DATA     BIT       DIO4
LX51 LINKER/LOCATER V4.34a                                                            04/29/2009  14:26:02  PAGE 7


      00000080H.3 SFRSYM    DATA     BIT       DIO5
      00000080H.4 SFRSYM    DATA     BIT       DIO6
      00000080H.5 SFRSYM    DATA     BIT       DIO7
      00000080H.6 SFRSYM    DATA     BIT       DIO8
      00000080H.7 SFRSYM    DATA     BIT       DIO9
      000000A0H.4 SFRSYM    DATA     BIT       DOUT2
      00000083H   SFRSYM    DATA     BYTE      DPH
      00000083H   SFRSYM    DATA     BYTE      DPH0
      00000085H   SFRSYM    DATA     BYTE      DPH1
      00000082H   SFRSYM    DATA     BYTE      DPL
      00000082H   SFRSYM    DATA     BYTE      DPL0
      00000084H   SFRSYM    DATA     BYTE      DPL1
      00000086H   SFRSYM    DATA     BYTE      DPS
      000000A0H.2 SFRSYM    DATA     BIT       DR1
      000000A0H.6 SFRSYM    DATA     BIT       DR2
      000000A0H.6 SFRSYM    DATA     BIT       DR2_CE
      000000A8H.7 SFRSYM    DATA     BIT       EA
      000000D8H   SFRSYM    DATA     BYTE      EICON
      000000E8H   SFRSYM    DATA     BYTE      EIE
      000000F8H   SFRSYM    DATA     BYTE      EIP
      000000A8H.4 SFRSYM    DATA     BIT       ES
      000000A8H.1 SFRSYM    DATA     BIT       ET0
      000000A8H.3 SFRSYM    DATA     BIT       ET1
      000000A8H.5 SFRSYM    DATA     BIT       ET2
      000000E8H.4 SFRSYM    DATA     BIT       EWDI
      000000A8H   SFRSYM    DATA     BIT       EX0
      000000A8H.2 SFRSYM    DATA     BIT       EX1
      000000E8H   SFRSYM    DATA     BIT       EX2
      000000E8H.1 SFRSYM    DATA     BIT       EX3
      000000E8H.2 SFRSYM    DATA     BIT       EX4
      000000E8H.3 SFRSYM    DATA     BIT       EX5
      000000C8H.3 SFRSYM    DATA     BIT       EXEN2
      000000C8H.6 SFRSYM    DATA     BIT       EXF2
      00000091H   SFRSYM    DATA     BYTE      EXIF
      000000D0H.5 SFRSYM    DATA     BIT       F0
      000000D0H.1 SFRSYM    DATA     BIT       F1
      000000A8H   SFRSYM    DATA     BYTE      IE
      00000088H.1 SFRSYM    DATA     BIT       IE0
      00000088H.3 SFRSYM    DATA     BIT       IE1
      00000080H.3 SFRSYM    DATA     BIT       INT0_N
      00000080H.4 SFRSYM    DATA     BIT       INT1_N
      000000B8H   SFRSYM    DATA     BYTE      IP
      00000088H   SFRSYM    DATA     BIT       IT0
      00000088H.2 SFRSYM    DATA     BIT       IT1
      00000092H   SFRSYM    DATA     BYTE      MPAGE
      000000D0H.2 SFRSYM    DATA     BIT       OV
      000000D0H   SFRSYM    DATA     BIT       P
      00000080H   SFRSYM    DATA     BYTE      P0
      00000080H   SFRSYM    DATA     BIT       P0_0
      00000080H.1 SFRSYM    DATA     BIT       P0_1
      00000080H.2 SFRSYM    DATA     BIT       P0_2
      00000080H.3 SFRSYM    DATA     BIT       P0_3
      00000080H.4 SFRSYM    DATA     BIT       P0_4
      00000080H.5 SFRSYM    DATA     BIT       P0_5
      00000080H.6 SFRSYM    DATA     BIT       P0_6
      00000080H.7 SFRSYM    DATA     BIT       P0_7
      00000095H   SFRSYM    DATA     BYTE      P0_ALT
      00000094H   SFRSYM    DATA     BYTE      P0_DIR
      00000090H   SFRSYM    DATA     BYTE      P1
      00000090H   SFRSYM    DATA     BIT       P1_0
      00000090H.1 SFRSYM    DATA     BIT       P1_1
      00000090H.2 SFRSYM    DATA     BIT       P1_2
      00000097H   SFRSYM    DATA     BYTE      P1_ALT
      00000096H   SFRSYM    DATA     BYTE      P1_DIR
      00000087H   SFRSYM    DATA     BYTE      PCON
LX51 LINKER/LOCATER V4.34a                                                            04/29/2009  14:26:02  PAGE 8


      000000B8H.4 SFRSYM    DATA     BIT       PS
      000000D0H   SFRSYM    DATA     BYTE      PSW
      000000B8H.1 SFRSYM    DATA     BIT       PT0
      000000B8H.3 SFRSYM    DATA     BIT       PT1
      000000B8H.5 SFRSYM    DATA     BIT       PT2
      000000F8H.4 SFRSYM    DATA     BIT       PWDI
      00000080H.7 SFRSYM    DATA     BIT       PWM
      000000A9H   SFRSYM    DATA     BYTE      PWMCON
      000000AAH   SFRSYM    DATA     BYTE      PWMDUTY
      000000A0H.7 SFRSYM    DATA     BIT       PWR_UP
      000000B8H   SFRSYM    DATA     BIT       PX0
      000000B8H.2 SFRSYM    DATA     BIT       PX1
      000000F8H   SFRSYM    DATA     BIT       PX2
      000000F8H.1 SFRSYM    DATA     BIT       PX3
      000000F8H.2 SFRSYM    DATA     BIT       PX4
      000000F8H.3 SFRSYM    DATA     BIT       PX5
      000000A0H   SFRSYM    DATA     BYTE      RADIO
      00000098H.2 SFRSYM    DATA     BIT       RB8
      000000CBH   SFRSYM    DATA     BYTE      RCAP2H
      000000CAH   SFRSYM    DATA     BYTE      RCAP2L
      000000C8H.5 SFRSYM    DATA     BIT       RCLK
      000000ADH   SFRSYM    DATA     BYTE      REGX_CTRL
      000000ACH   SFRSYM    DATA     BYTE      REGX_LSB
      000000ABH   SFRSYM    DATA     BYTE      REGX_MSB
      00000098H.4 SFRSYM    DATA     BIT       REN
      00000098H   SFRSYM    DATA     BIT       RI
      000000D0H.3 SFRSYM    DATA     BIT       RS0
      000000D0H.4 SFRSYM    DATA     BIT       RS1
      000000B1H   SFRSYM    DATA     BYTE      RSTREAS
      00000080H.1 SFRSYM    DATA     BIT       RXD
      00000099H   SFRSYM    DATA     BYTE      SBUF
      00000098H   SFRSYM    DATA     BYTE      SCON
      00000098H.7 SFRSYM    DATA     BIT       SM0
      00000098H.6 SFRSYM    DATA     BIT       SM1
      00000098H.5 SFRSYM    DATA     BIT       SM2
      00000081H   SFRSYM    DATA     BYTE      SP
      0000008FH   SFRSYM    DATA     BYTE      SPC_FNC
      000000B3H   SFRSYM    DATA     BYTE      SPI_CTRL
      000000B2H   SFRSYM    DATA     BYTE      SPI_DATA
      000000B4H   SFRSYM    DATA     BYTE      SPICLK
      00000080H.5 SFRSYM    DATA     BIT       T0
      00000080H.6 SFRSYM    DATA     BIT       T1
      000000BCH   SFRSYM    DATA     BYTE      T1_1V2
      00000090H   SFRSYM    DATA     BIT       T2
      000000BDH   SFRSYM    DATA     BYTE      T2_1V2
      000000C8H   SFRSYM    DATA     BYTE      T2CON
      00000098H.3 SFRSYM    DATA     BIT       TB8
      000000C8H.4 SFRSYM    DATA     BIT       TCLK
      00000088H   SFRSYM    DATA     BYTE      TCON
      000000B7H   SFRSYM    DATA     BYTE      TEST_MODE
      00000088H.5 SFRSYM    DATA     BIT       TF0
      00000088H.7 SFRSYM    DATA     BIT       TF1
      000000C8H.7 SFRSYM    DATA     BIT       TF2
      0000008CH   SFRSYM    DATA     BYTE      TH0
      0000008DH   SFRSYM    DATA     BYTE      TH1
      000000CDH   SFRSYM    DATA     BYTE      TH2
      00000098H.1 SFRSYM    DATA     BIT       TI
      000000B5H   SFRSYM    DATA     BYTE      TICK_DV
      0000008AH   SFRSYM    DATA     BYTE      TL0
      0000008BH   SFRSYM    DATA     BYTE      TL1
      000000CCH   SFRSYM    DATA     BYTE      TL2
      00000089H   SFRSYM    DATA     BYTE      TMOD
      00000088H.4 SFRSYM    DATA     BIT       TR0
      00000088H.6 SFRSYM    DATA     BIT       TR1
      000000C8H.2 SFRSYM    DATA     BIT       TR2
LX51 LINKER/LOCATER V4.34a                                                            04/29/2009  14:26:02  PAGE 9


      00000080H.2 SFRSYM    DATA     BIT       TXD
      000000D8H.3 SFRSYM    DATA     BIT       WDTI
      010004BAH   SYMBOL    CODE     NEAR LAB  ?C0001
      010004D5H   SYMBOL    CODE     NEAR LAB  ?C0002
      010004DCH   SYMBOL    CODE     NEAR LAB  ?C0004
      010004CCH   SYMBOL    CODE     NEAR LAB  ?C0007
      0000003FH   SYMBOL    DATA     BYTE      ?MAIN?BYTE
      00000041H   SYMBOL    DATA     BYTE      ACC_X?040
      00000043H   SYMBOL    DATA     BYTE      ACC_Y?041
      00000045H   SYMBOL    DATA     BYTE      ACC_Z?042
      0000003FH   SYMBOL    DATA     BYTE      I?043

      0100047DH   BLOCK     CODE     NEAR LAB  LVL=0
      0100047DH   LINE      CODE     ---       #318
      0100047EH   LINE      CODE     ---       #319
      01000480H   LINE      CODE     ---       #320
      01000482H   LINE      CODE     ---       #323
      01000484H   LINE      CODE     ---       #324
      01000485H   LINE      CODE     ---       #325
      01000488H   LINE      CODE     ---       #328
      0100048BH   LINE      CODE     ---       #331
      0100048EH   LINE      CODE     ---       #338
      01000490H   LINE      CODE     ---       #339
      01000492H   LINE      CODE     ---       #344
      01000494H   LINE      CODE     ---       #345
      01000496H   LINE      CODE     ---       #350
      01000498H   LINE      CODE     ---       #351
      0100049AH   LINE      CODE     ---       #356
      0100049DH   LINE      CODE     ---       #357
      010004A0H   LINE      CODE     ---       #358
      010004A3H   LINE      CODE     ---       #359
      010004A6H   LINE      CODE     ---       #365
      010004A9H   LINE      CODE     ---       #368
      010004ABH   LINE      CODE     ---       #369
      010004ADH   LINE      CODE     ---       #370
      010004AFH   LINE      CODE     ---       #371
      010004B2H   LINE      CODE     ---       #375
      010004B5H   LINE      CODE     ---       #379
      010004B6H   LINE      CODE     ---       #380
      010004B8H   LINE      CODE     ---       #381
      010004BAH   LINE      CODE     ---       #387
      010004BDH   LINE      CODE     ---       #390
      010004BFH   LINE      CODE     ---       #391
      010004C1H   LINE      CODE     ---       #392
      010004C4H   LINE      CODE     ---       #395
      010004C6H   LINE      CODE     ---       #396
      010004C8H   LINE      CODE     ---       #397
      010004CAH   LINE      CODE     ---       #398
      010004CCH   LINE      CODE     ---       #400
      010004CDH   LINE      CODE     ---       #401
      010004CFH   LINE      CODE     ---       #402
      010004D1H   LINE      CODE     ---       #403
      010004D3H   LINE      CODE     ---       #404
      010004D5H   LINE      CODE     ---       #409
      010004D7H   LINE      CODE     ---       #410
      010004D9H   LINE      CODE     ---       #411
      010004DCH   LINE      CODE     ---       #425
      010004DEH   LINE      CODE     ---       #426
      010004E0H   LINE      CODE     ---       #431
      010004E3H   LINE      CODE     ---       #432
      010004E6H   LINE      CODE     ---       #433
      010004E9H   LINE      CODE     ---       #434
      010004ECH   LINE      CODE     ---       #437
      010004EEH   LINE      CODE     ---       #438
      010004F0H   LINE      CODE     ---       #444
LX51 LINKER/LOCATER V4.34a                                                            04/29/2009  14:26:02  PAGE 10


      010004F2H   LINE      CODE     ---       #445
      010004F4H   LINE      CODE     ---       #450
      010004F7H   LINE      CODE     ---       #451
      010004FAH   LINE      CODE     ---       #452
      010004FDH   LINE      CODE     ---       #453
      01000500H   LINE      CODE     ---       #456
      01000502H   LINE      CODE     ---       #457
      01000504H   LINE      CODE     ---       #463
      01000506H   LINE      CODE     ---       #464
      01000508H   LINE      CODE     ---       #469
      0100050BH   LINE      CODE     ---       #470
      0100050EH   LINE      CODE     ---       #471
      01000511H   LINE      CODE     ---       #472
      01000514H   LINE      CODE     ---       #475
      01000516H   LINE      CODE     ---       #476
      01000518H   LINE      CODE     ---       #480
      0100051AH   LINE      CODE     ---       #481
      0100051CH   LINE      CODE     ---       #482
      0100051DH   LINE      CODE     ---       #485
      0100051FH   LINE      CODE     ---       #486
      01000520H   LINE      CODE     ---       #487
      01000521H   LINE      CODE     ---       #488
      01000523H   LINE      CODE     ---       #489
      01000524H   LINE      CODE     ---       #490
      01000526H   LINE      CODE     ---       #494
      01000528H   LINE      CODE     ---       #495
      01000529H   LINE      CODE     ---       #496
      0100052AH   LINE      CODE     ---       #499
      0100052CH   LINE      CODE     ---       #500
      0100052DH   LINE      CODE     ---       #501
      0100052EH   LINE      CODE     ---       #502
      01000530H   LINE      CODE     ---       #503
      01000531H   LINE      CODE     ---       #504
      01000533H   LINE      CODE     ---       #508
      01000535H   LINE      CODE     ---       #509
      01000536H   LINE      CODE     ---       #510
      01000537H   LINE      CODE     ---       #513
      01000539H   LINE      CODE     ---       #514
      0100053AH   LINE      CODE     ---       #515
      0100053BH   LINE      CODE     ---       #516
      0100053DH   LINE      CODE     ---       #517
      0100053EH   LINE      CODE     ---       #518
      01000540H   LINE      CODE     ---       #522
      01000543H   LINE      CODE     ---       #523
      01000546H   LINE      CODE     ---       #524
      01000549H   LINE      CODE     ---       #525
      0100054CH   LINE      CODE     ---       #529
      0100054EH   LINE      CODE     ---       #530
      01000550H   LINE      CODE     ---       #535
      01000552H   LINE      CODE     ---       #536
      01000554H   LINE      CODE     ---       #541
      01000556H   LINE      CODE     ---       #542
      01000558H   LINE      CODE     ---       #547
      0100055AH   LINE      CODE     ---       #548
      0100055CH   LINE      CODE     ---       #553
      0100055FH   LINE      CODE     ---       #554
      01000562H   LINE      CODE     ---       #555
      01000565H   LINE      CODE     ---       #556
      01000568H   LINE      CODE     ---       #563
      0100056AH   LINE      CODE     ---       #564
      0100056CH   LINE      CODE     ---       #565
      0100056FH   LINE      CODE     ---       #568
      01000572H   LINE      CODE     ---       #572
      ---         BLOCKEND  ---      ---       LVL=0

LX51 LINKER/LOCATER V4.34a                                                            04/29/2009  14:26:02  PAGE 11


      ---         MODULE    ---      ---       ISR_RF
      00000035H   PUBLIC    DATA     BYTE      ?_RF_SEND?BYTE
      010007D6H   PUBLIC    CODE     NEAR LAB  _RF_CONFIGURE
      01001000H   PUBLIC    CODE     NEAR LAB  _RF_SEND
      00000008H   PUBLIC    DATA     BYTE      RF_BUF
      01000601H   PUBLIC    CODE     NEAR LAB  RF_CH1_RECV
      010008B1H   PUBLIC    CODE     NEAR LAB  RF_INIT
      010008EEH   PUBLIC    CODE     NEAR LAB  RF_WAIT_MSG
      000000D0H.6 SFRSYM    DATA     BIT       AC
      000000E0H   SFRSYM    DATA     BYTE      ACC
      000000A1H   SFRSYM    DATA     BYTE      ADCCON
      000000A2H   SFRSYM    DATA     BYTE      ADCDATAH
      000000A3H   SFRSYM    DATA     BYTE      ADCDATAL
      000000A4H   SFRSYM    DATA     BYTE      ADCSTATIC
      000000F0H   SFRSYM    DATA     BYTE      B
      000000C8H.1 SFRSYM    DATA     BIT       C_T2
      000000A0H.6 SFRSYM    DATA     BIT       CE
      000000B6H   SFRSYM    DATA     BYTE      CK_CTRL
      0000008EH   SFRSYM    DATA     BYTE      CKCON
      000000A0H.1 SFRSYM    DATA     BIT       CLK1
      000000A0H.5 SFRSYM    DATA     BIT       CLK2
      000000C8H   SFRSYM    DATA     BIT       CP_RL2
      000000C8H   SFRSYM    DATA     BIT       CPRL2
      000000A0H.3 SFRSYM    DATA     BIT       CS
      000000C8H.1 SFRSYM    DATA     BIT       CT2
      000000D0H.7 SFRSYM    DATA     BIT       CY
      000000A0H   SFRSYM    DATA     BIT       DATA?
      000000BEH   SFRSYM    DATA     BYTE      DEV_OFFSET
      00000090H.2 SFRSYM    DATA     BIT       DIN0
      00000090H   SFRSYM    DATA     BIT       DIO0
      00000090H.1 SFRSYM    DATA     BIT       DIO1
      00000080H   SFRSYM    DATA     BIT       DIO2
      00000080H.1 SFRSYM    DATA     BIT       DIO3
      00000080H.2 SFRSYM    DATA     BIT       DIO4
      00000080H.3 SFRSYM    DATA     BIT       DIO5
      00000080H.4 SFRSYM    DATA     BIT       DIO6
      00000080H.5 SFRSYM    DATA     BIT       DIO7
      00000080H.6 SFRSYM    DATA     BIT       DIO8
      00000080H.7 SFRSYM    DATA     BIT       DIO9
      000000A0H.4 SFRSYM    DATA     BIT       DOUT2
      00000083H   SFRSYM    DATA     BYTE      DPH
      00000083H   SFRSYM    DATA     BYTE      DPH0
      00000085H   SFRSYM    DATA     BYTE      DPH1
      00000082H   SFRSYM    DATA     BYTE      DPL
      00000082H   SFRSYM    DATA     BYTE      DPL0
      00000084H   SFRSYM    DATA     BYTE      DPL1
      00000086H   SFRSYM    DATA     BYTE      DPS
      000000A0H.2 SFRSYM    DATA     BIT       DR1
      000000A0H.6 SFRSYM    DATA     BIT       DR2
      000000A0H.6 SFRSYM    DATA     BIT       DR2_CE
      000000A8H.7 SFRSYM    DATA     BIT       EA
      000000D8H   SFRSYM    DATA     BYTE      EICON
      000000E8H   SFRSYM    DATA     BYTE      EIE
      000000F8H   SFRSYM    DATA     BYTE      EIP
      000000A8H.4 SFRSYM    DATA     BIT       ES
      000000A8H.1 SFRSYM    DATA     BIT       ET0
      000000A8H.3 SFRSYM    DATA     BIT       ET1
      000000A8H.5 SFRSYM    DATA     BIT       ET2
      000000E8H.4 SFRSYM    DATA     BIT       EWDI
      000000A8H   SFRSYM    DATA     BIT       EX0
      000000A8H.2 SFRSYM    DATA     BIT       EX1
      000000E8H   SFRSYM    DATA     BIT       EX2
      000000E8H.1 SFRSYM    DATA     BIT       EX3
      000000E8H.2 SFRSYM    DATA     BIT       EX4
      000000E8H.3 SFRSYM    DATA     BIT       EX5
LX51 LINKER/LOCATER V4.34a                                                            04/29/2009  14:26:02  PAGE 12


      000000C8H.3 SFRSYM    DATA     BIT       EXEN2
      000000C8H.6 SFRSYM    DATA     BIT       EXF2
      00000091H   SFRSYM    DATA     BYTE      EXIF
      000000D0H.5 SFRSYM    DATA     BIT       F0
      000000D0H.1 SFRSYM    DATA     BIT       F1
      000000A8H   SFRSYM    DATA     BYTE      IE
      00000088H.1 SFRSYM    DATA     BIT       IE0
      00000088H.3 SFRSYM    DATA     BIT       IE1
      00000080H.3 SFRSYM    DATA     BIT       INT0_N
      00000080H.4 SFRSYM    DATA     BIT       INT1_N
      000000B8H   SFRSYM    DATA     BYTE      IP
      00000088H   SFRSYM    DATA     BIT       IT0
      00000088H.2 SFRSYM    DATA     BIT       IT1
      00000092H   SFRSYM    DATA     BYTE      MPAGE
      000000D0H.2 SFRSYM    DATA     BIT       OV
      000000D0H   SFRSYM    DATA     BIT       P
      00000080H   SFRSYM    DATA     BYTE      P0
      00000080H   SFRSYM    DATA     BIT       P0_0
      00000080H.1 SFRSYM    DATA     BIT       P0_1
      00000080H.2 SFRSYM    DATA     BIT       P0_2
      00000080H.3 SFRSYM    DATA     BIT       P0_3
      00000080H.4 SFRSYM    DATA     BIT       P0_4
      00000080H.5 SFRSYM    DATA     BIT       P0_5
      00000080H.6 SFRSYM    DATA     BIT       P0_6
      00000080H.7 SFRSYM    DATA     BIT       P0_7
      00000095H   SFRSYM    DATA     BYTE      P0_ALT
      00000094H   SFRSYM    DATA     BYTE      P0_DIR
      00000090H   SFRSYM    DATA     BYTE      P1
      00000090H   SFRSYM    DATA     BIT       P1_0
      00000090H.1 SFRSYM    DATA     BIT       P1_1
      00000090H.2 SFRSYM    DATA     BIT       P1_2
      00000097H   SFRSYM    DATA     BYTE      P1_ALT
      00000096H   SFRSYM    DATA     BYTE      P1_DIR
      00000087H   SFRSYM    DATA     BYTE      PCON
      000000B8H.4 SFRSYM    DATA     BIT       PS
      000000D0H   SFRSYM    DATA     BYTE      PSW
      000000B8H.1 SFRSYM    DATA     BIT       PT0
      000000B8H.3 SFRSYM    DATA     BIT       PT1
      000000B8H.5 SFRSYM    DATA     BIT       PT2
      000000F8H.4 SFRSYM    DATA     BIT       PWDI
      00000080H.7 SFRSYM    DATA     BIT       PWM
      000000A9H   SFRSYM    DATA     BYTE      PWMCON
      000000AAH   SFRSYM    DATA     BYTE      PWMDUTY
      000000A0H.7 SFRSYM    DATA     BIT       PWR_UP
      000000B8H   SFRSYM    DATA     BIT       PX0
      000000B8H.2 SFRSYM    DATA     BIT       PX1
      000000F8H   SFRSYM    DATA     BIT       PX2
      000000F8H.1 SFRSYM    DATA     BIT       PX3
      000000F8H.2 SFRSYM    DATA     BIT       PX4
      000000F8H.3 SFRSYM    DATA     BIT       PX5
      000000A0H   SFRSYM    DATA     BYTE      RADIO
      00000098H.2 SFRSYM    DATA     BIT       RB8
      000000CBH   SFRSYM    DATA     BYTE      RCAP2H
      000000CAH   SFRSYM    DATA     BYTE      RCAP2L
      000000C8H.5 SFRSYM    DATA     BIT       RCLK
      000000ADH   SFRSYM    DATA     BYTE      REGX_CTRL
      000000ACH   SFRSYM    DATA     BYTE      REGX_LSB
      000000ABH   SFRSYM    DATA     BYTE      REGX_MSB
      00000098H.4 SFRSYM    DATA     BIT       REN
      00000098H   SFRSYM    DATA     BIT       RI
      000000D0H.3 SFRSYM    DATA     BIT       RS0
      000000D0H.4 SFRSYM    DATA     BIT       RS1
      000000B1H   SFRSYM    DATA     BYTE      RSTREAS
      00000080H.1 SFRSYM    DATA     BIT       RXD
      00000099H   SFRSYM    DATA     BYTE      SBUF
LX51 LINKER/LOCATER V4.34a                                                            04/29/2009  14:26:02  PAGE 13


      00000098H   SFRSYM    DATA     BYTE      SCON
      00000098H.7 SFRSYM    DATA     BIT       SM0
      00000098H.6 SFRSYM    DATA     BIT       SM1
      00000098H.5 SFRSYM    DATA     BIT       SM2
      00000081H   SFRSYM    DATA     BYTE      SP
      0000008FH   SFRSYM    DATA     BYTE      SPC_FNC
      000000B3H   SFRSYM    DATA     BYTE      SPI_CTRL
      000000B2H   SFRSYM    DATA     BYTE      SPI_DATA
      000000B4H   SFRSYM    DATA     BYTE      SPICLK
      00000080H.5 SFRSYM    DATA     BIT       T0
      00000080H.6 SFRSYM    DATA     BIT       T1
      000000BCH   SFRSYM    DATA     BYTE      T1_1V2
      00000090H   SFRSYM    DATA     BIT       T2
      000000BDH   SFRSYM    DATA     BYTE      T2_1V2
      000000C8H   SFRSYM    DATA     BYTE      T2CON
      00000098H.3 SFRSYM    DATA     BIT       TB8
      000000C8H.4 SFRSYM    DATA     BIT       TCLK
      00000088H   SFRSYM    DATA     BYTE      TCON
      000000B7H   SFRSYM    DATA     BYTE      TEST_MODE
      00000088H.5 SFRSYM    DATA     BIT       TF0
      00000088H.7 SFRSYM    DATA     BIT       TF1
      000000C8H.7 SFRSYM    DATA     BIT       TF2
      0000008CH   SFRSYM    DATA     BYTE      TH0
      0000008DH   SFRSYM    DATA     BYTE      TH1
      000000CDH   SFRSYM    DATA     BYTE      TH2
      00000098H.1 SFRSYM    DATA     BIT       TI
      000000B5H   SFRSYM    DATA     BYTE      TICK_DV
      0000008AH   SFRSYM    DATA     BYTE      TL0
      0000008BH   SFRSYM    DATA     BYTE      TL1
      000000CCH   SFRSYM    DATA     BYTE      TL2
      00000089H   SFRSYM    DATA     BYTE      TMOD
      00000088H.4 SFRSYM    DATA     BIT       TR0
      00000088H.6 SFRSYM    DATA     BIT       TR1
      000000C8H.2 SFRSYM    DATA     BIT       TR2
      00000080H.2 SFRSYM    DATA     BIT       TXD
      000000D8H.3 SFRSYM    DATA     BIT       WDTI
      0000005FH   SYMBOL    DATA     BYTE      ?_RF_CONFIGURE?BYTE
      010007E3H   SYMBOL    CODE     NEAR LAB  ?C0002
      01000809H   SYMBOL    CODE     NEAR LAB  ?C0003
      0100100FH   SYMBOL    CODE     NEAR LAB  ?C0006
      01001039H   SYMBOL    CODE     NEAR LAB  ?C0007
      0100103EH   SYMBOL    CODE     NEAR LAB  ?C0009
      01001068H   SYMBOL    CODE     NEAR LAB  ?C0010
      01000628H   SYMBOL    CODE     NEAR LAB  ?C0015
      01000640H   SYMBOL    CODE     NEAR LAB  ?C0016
      010008F0H   SYMBOL    CODE     NEAR LAB  ?C0018
      010008F4H   SYMBOL    CODE     NEAR LAB  ?C0019
      010007FEH   SYMBOL    CODE     NEAR LAB  ?C0021
      01001037H   SYMBOL    CODE     NEAR LAB  ?C0022
      01001066H   SYMBOL    CODE     NEAR LAB  ?C0023
      01000638H   SYMBOL    CODE     NEAR LAB  ?C0024
      00000071H   SYMBOL    DATA     BYTE      ?RF_CH1_RECV?BYTE
      01000643H   SYMBOL    CODE     NEAR LAB  ?RF_CH1_RECV?OUT
      00000035H   SYMBOL    DATA     BYTE      ADDR?243
      00000038H   SYMBOL    DATA     BYTE      ADDR_LEN?244
      00000062H   SYMBOL    DATA     BYTE      I?142
      0000003DH   SYMBOL    DATA     BYTE      I?247
      00000071H   SYMBOL    DATA     BYTE      I?348
      0000005FH   SYMBOL    DATA     BYTE      P?141
      00000039H   SYMBOL    DATA     BYTE      PAYLOAD?245
      0000003CH   SYMBOL    DATA     BYTE      PL_LEN?246

      010008B1H   BLOCK     CODE     NEAR LAB  LVL=0
      010008B1H   LINE      CODE     ---       #265
      010008B3H   LINE      CODE     ---       #269
LX51 LINKER/LOCATER V4.34a                                                            04/29/2009  14:26:02  PAGE 14


      010008B4H   LINE      CODE     ---       #270
      010008B5H   LINE      CODE     ---       #271
      010008B7H   LINE      CODE     ---       #272
      010008BAH   LINE      CODE     ---       #275
      010008BCH   LINE      CODE     ---       #278
      010008BEH   LINE      CODE     ---       #281
      ---         BLOCKEND  ---      ---       LVL=0

      010007D6H   BLOCK     CODE     NEAR LAB  LVL=0
      010007D6H   LINE      CODE     ---       #304
      010007D8H   LINE      CODE     ---       #308
      010007DAH   LINE      CODE     ---       #309
      010007DCH   LINE      CODE     ---       #310
      010007DEH   LINE      CODE     ---       #314
      010007DFH   LINE      CODE     ---       #315
      010007E1H   LINE      CODE     ---       #316
      010007E3H   LINE      CODE     ---       #320
      010007E5H   LINE      CODE     ---       #321
      010007E7H   LINE      CODE     ---       #322
      010007E9H   LINE      CODE     ---       #323
      010007ECH   LINE      CODE     ---       #324
      010007EFH   LINE      CODE     ---       #325
      010007F2H   LINE      CODE     ---       #326
      010007F3H   LINE      CODE     ---       #327
      010007F6H   LINE      CODE     ---       #330
      010007F8H   LINE      CODE     ---       #331
      010007FAH   LINE      CODE     ---       #332
      010007FCH   LINE      CODE     ---       #333
      010007FEH   LINE      CODE     ---       #335
      010007FFH   LINE      CODE     ---       #336
      01000801H   LINE      CODE     ---       #337
      01000803H   LINE      CODE     ---       #338
      01000805H   LINE      CODE     ---       #339
      01000807H   LINE      CODE     ---       #340
      01000809H   LINE      CODE     ---       #345
      0100080BH   LINE      CODE     ---       #348
      ---         BLOCKEND  ---      ---       LVL=0

      01001000H   BLOCK     CODE     NEAR LAB  LVL=0
      01001000H   LINE      CODE     ---       #365
      01001002H   LINE      CODE     ---       #366
      01001004H   LINE      CODE     ---       #367
      01001006H   LINE      CODE     ---       #368
      01001008H   LINE      CODE     ---       #376
      0100100AH   LINE      CODE     ---       #381
      0100100BH   LINE      CODE     ---       #382
      0100100DH   LINE      CODE     ---       #383
      0100100FH   LINE      CODE     ---       #385
      01001010H   LINE      CODE     ---       #386
      01001012H   LINE      CODE     ---       #387
      01001014H   LINE      CODE     ---       #388
      01001016H   LINE      CODE     ---       #389
      01001017H   LINE      CODE     ---       #390
      01001019H   LINE      CODE     ---       #391
      0100101AH   LINE      CODE     ---       #392
      0100101CH   LINE      CODE     ---       #395
      0100101EH   LINE      CODE     ---       #396
      01001020H   LINE      CODE     ---       #397
      01001022H   LINE      CODE     ---       #398
      01001025H   LINE      CODE     ---       #399
      01001028H   LINE      CODE     ---       #400
      0100102BH   LINE      CODE     ---       #401
      0100102CH   LINE      CODE     ---       #402
      0100102FH   LINE      CODE     ---       #403
      01001031H   LINE      CODE     ---       #404
LX51 LINKER/LOCATER V4.34a                                                            04/29/2009  14:26:02  PAGE 15


      01001033H   LINE      CODE     ---       #405
      01001035H   LINE      CODE     ---       #406
      01001037H   LINE      CODE     ---       #408
      01001039H   LINE      CODE     ---       #413
      0100103AH   LINE      CODE     ---       #414
      0100103CH   LINE      CODE     ---       #415
      0100103EH   LINE      CODE     ---       #417
      0100103FH   LINE      CODE     ---       #418
      01001041H   LINE      CODE     ---       #419
      01001043H   LINE      CODE     ---       #420
      01001045H   LINE      CODE     ---       #421
      01001046H   LINE      CODE     ---       #422
      01001048H   LINE      CODE     ---       #423
      01001049H   LINE      CODE     ---       #424
      0100104BH   LINE      CODE     ---       #427
      0100104DH   LINE      CODE     ---       #428
      0100104FH   LINE      CODE     ---       #429
      01001051H   LINE      CODE     ---       #430
      01001054H   LINE      CODE     ---       #431
      01001057H   LINE      CODE     ---       #432
      0100105AH   LINE      CODE     ---       #433
      0100105BH   LINE      CODE     ---       #434
      0100105EH   LINE      CODE     ---       #435
      01001060H   LINE      CODE     ---       #436
      01001062H   LINE      CODE     ---       #437
      01001064H   LINE      CODE     ---       #438
      01001066H   LINE      CODE     ---       #440
      01001068H   LINE      CODE     ---       #445
      0100106AH   LINE      CODE     ---       #448
      ---         BLOCKEND  ---      ---       LVL=0

      01000053H   BLOCK     CODE     NEAR LAB  LVL=0
      01000053H   LINE      CODE     ---       #452
      ---         BLOCKEND  ---      ---       LVL=0

      01000601H   BLOCK     CODE     NEAR LAB  LVL=0
      01000601H   LINE      CODE     ---       #461
      01000603H   LINE      CODE     ---       #462
      01000605H   LINE      CODE     ---       #463
      01000607H   LINE      CODE     ---       #464
      01000609H   LINE      CODE     ---       #465
      0100060BH   LINE      CODE     ---       #466
      0100060EH   LINE      CODE     ---       #467
      01000610H   LINE      CODE     ---       #468
      01000612H   LINE      CODE     ---       #469
      01000614H   LINE      CODE     ---       #470
      01000616H   LINE      CODE     ---       #471
      01000618H   LINE      CODE     ---       #472
      0100061AH   LINE      CODE     ---       #473
      0100061CH   LINE      CODE     ---       #474
      0100061EH   LINE      CODE     ---       #480
      01000621H   LINE      CODE     ---       #481
      01000624H   LINE      CODE     ---       #488
      01000626H   LINE      CODE     ---       #489
      01000628H   LINE      CODE     ---       #495
      0100062BH   LINE      CODE     ---       #498
      0100062CH   LINE      CODE     ---       #499
      0100062DH   LINE      CODE     ---       #500
      01000630H   LINE      CODE     ---       #501
      01000632H   LINE      CODE     ---       #502
      01000634H   LINE      CODE     ---       #503
      01000636H   LINE      CODE     ---       #504
      01000638H   LINE      CODE     ---       #506
      01000639H   LINE      CODE     ---       #507
      0100063BH   LINE      CODE     ---       #508
LX51 LINKER/LOCATER V4.34a                                                            04/29/2009  14:26:02  PAGE 16


      0100063CH   LINE      CODE     ---       #509
      0100063EH   LINE      CODE     ---       #512
      01000640H   LINE      CODE     ---       #516
      01000643H   LINE      CODE     ---       #523
      01000646H   LINE      CODE     ---       #526
      01000648H   LINE      CODE     ---       #527
      0100064AH   LINE      CODE     ---       #528
      0100064CH   LINE      CODE     ---       #529
      0100064EH   LINE      CODE     ---       #530
      01000650H   LINE      CODE     ---       #531
      01000652H   LINE      CODE     ---       #532
      01000654H   LINE      CODE     ---       #533
      01000656H   LINE      CODE     ---       #534
      01000658H   LINE      CODE     ---       #535
      0100065AH   LINE      CODE     ---       #536
      0100065CH   LINE      CODE     ---       #537
      0100065EH   LINE      CODE     ---       #538
      01000660H   LINE      CODE     ---       #539
      ---         BLOCKEND  ---      ---       LVL=0

      010008EEH   BLOCK     CODE     NEAR LAB  LVL=0
      010008EEH   LINE      CODE     ---       #555
      010008F0H   LINE      CODE     ---       #559
      010008F2H   LINE      CODE     ---       #560
      010008F4H   LINE      CODE     ---       #565
      010008F6H   LINE      CODE     ---       #568
      ---         BLOCKEND  ---      ---       LVL=0

      ---         MODULE    ---      ---       ECO_PAGE
      00000054H   PUBLIC    DATA     BYTE      ECO_PAGE_ADDR
      01000892H   PUBLIC    CODE     NEAR LAB  ECO_PAGE_INIT
      01000056H   PUBLIC    CODE     NEAR LAB  ECO_PAGE_MANAGER
      00000050H   PUBLIC    DATA     BYTE      ECO_PAGE_PREV_PID
      00000052H   PUBLIC    DATA     BYTE      ECO_PAGE_PREV_VID
      00000096H   PUBLIC    IDATA    BYTE      ECO_PAGE_REGISTER1
      00000097H   PUBLIC    IDATA    BYTE      ECO_PAGE_REGISTER2
      00000098H   PUBLIC    IDATA    BYTE      ECO_PAGE_REGISTER3
      00000099H   PUBLIC    IDATA    BYTE      ECO_PAGE_REGISTER4
      0000009AH   PUBLIC    IDATA    BYTE      ECO_PAGE_REGISTER5
      0000009BH   PUBLIC    IDATA    BYTE      ECO_PAGE_REGISTER6
      0000009CH   PUBLIC    IDATA    BYTE      ECO_PAGE_REGISTER7
      0000004FH   PUBLIC    DATA     BYTE      ECO_PAGE_SPI_CONN
      00000076H   PUBLIC    IDATA    BYTE      ECO_PAGE_TABLE
      00000056H   PUBLIC    DATA     BYTE      ECO_PAGE_TABLE_INDEX
      000000D0H.6 SFRSYM    DATA     BIT       AC
      000000E0H   SFRSYM    DATA     BYTE      ACC
      000000A1H   SFRSYM    DATA     BYTE      ADCCON
      000000A2H   SFRSYM    DATA     BYTE      ADCDATAH
      000000A3H   SFRSYM    DATA     BYTE      ADCDATAL
      000000A4H   SFRSYM    DATA     BYTE      ADCSTATIC
      000000F0H   SFRSYM    DATA     BYTE      B
      000000C8H.1 SFRSYM    DATA     BIT       C_T2
      000000A0H.6 SFRSYM    DATA     BIT       CE
      000000B6H   SFRSYM    DATA     BYTE      CK_CTRL
      0000008EH   SFRSYM    DATA     BYTE      CKCON
      000000A0H.1 SFRSYM    DATA     BIT       CLK1
      000000A0H.5 SFRSYM    DATA     BIT       CLK2
      000000C8H   SFRSYM    DATA     BIT       CP_RL2
      000000C8H   SFRSYM    DATA     BIT       CPRL2
      000000A0H.3 SFRSYM    DATA     BIT       CS
      000000C8H.1 SFRSYM    DATA     BIT       CT2
      000000D0H.7 SFRSYM    DATA     BIT       CY
      000000A0H   SFRSYM    DATA     BIT       DATA?
      000000BEH   SFRSYM    DATA     BYTE      DEV_OFFSET
      00000090H.2 SFRSYM    DATA     BIT       DIN0
LX51 LINKER/LOCATER V4.34a                                                            04/29/2009  14:26:02  PAGE 17


      00000090H   SFRSYM    DATA     BIT       DIO0
      00000090H.1 SFRSYM    DATA     BIT       DIO1
      00000080H   SFRSYM    DATA     BIT       DIO2
      00000080H.1 SFRSYM    DATA     BIT       DIO3
      00000080H.2 SFRSYM    DATA     BIT       DIO4
      00000080H.3 SFRSYM    DATA     BIT       DIO5
      00000080H.4 SFRSYM    DATA     BIT       DIO6
      00000080H.5 SFRSYM    DATA     BIT       DIO7
      00000080H.6 SFRSYM    DATA     BIT       DIO8
      00000080H.7 SFRSYM    DATA     BIT       DIO9
      000000A0H.4 SFRSYM    DATA     BIT       DOUT2
      00000083H   SFRSYM    DATA     BYTE      DPH
      00000083H   SFRSYM    DATA     BYTE      DPH0
      00000085H   SFRSYM    DATA     BYTE      DPH1
      00000082H   SFRSYM    DATA     BYTE      DPL
      00000082H   SFRSYM    DATA     BYTE      DPL0
      00000084H   SFRSYM    DATA     BYTE      DPL1
      00000086H   SFRSYM    DATA     BYTE      DPS
      000000A0H.2 SFRSYM    DATA     BIT       DR1
      000000A0H.6 SFRSYM    DATA     BIT       DR2
      000000A0H.6 SFRSYM    DATA     BIT       DR2_CE
      000000A8H.7 SFRSYM    DATA     BIT       EA
      000000D8H   SFRSYM    DATA     BYTE      EICON
      000000E8H   SFRSYM    DATA     BYTE      EIE
      000000F8H   SFRSYM    DATA     BYTE      EIP
      000000A8H.4 SFRSYM    DATA     BIT       ES
      000000A8H.1 SFRSYM    DATA     BIT       ET0
      000000A8H.3 SFRSYM    DATA     BIT       ET1
      000000A8H.5 SFRSYM    DATA     BIT       ET2
      000000E8H.4 SFRSYM    DATA     BIT       EWDI
      000000A8H   SFRSYM    DATA     BIT       EX0
      000000A8H.2 SFRSYM    DATA     BIT       EX1
      000000E8H   SFRSYM    DATA     BIT       EX2
      000000E8H.1 SFRSYM    DATA     BIT       EX3
      000000E8H.2 SFRSYM    DATA     BIT       EX4
      000000E8H.3 SFRSYM    DATA     BIT       EX5
      000000C8H.3 SFRSYM    DATA     BIT       EXEN2
      000000C8H.6 SFRSYM    DATA     BIT       EXF2
      00000091H   SFRSYM    DATA     BYTE      EXIF
      000000D0H.5 SFRSYM    DATA     BIT       F0
      000000D0H.1 SFRSYM    DATA     BIT       F1
      000000A8H   SFRSYM    DATA     BYTE      IE
      00000088H.1 SFRSYM    DATA     BIT       IE0
      00000088H.3 SFRSYM    DATA     BIT       IE1
      00000080H.3 SFRSYM    DATA     BIT       INT0_N
      00000080H.4 SFRSYM    DATA     BIT       INT1_N
      000000B8H   SFRSYM    DATA     BYTE      IP
      00000088H   SFRSYM    DATA     BIT       IT0
      00000088H.2 SFRSYM    DATA     BIT       IT1
      00000092H   SFRSYM    DATA     BYTE      MPAGE
      000000D0H.2 SFRSYM    DATA     BIT       OV
      000000D0H   SFRSYM    DATA     BIT       P
      00000080H   SFRSYM    DATA     BYTE      P0
      00000080H   SFRSYM    DATA     BIT       P0_0
      00000080H.1 SFRSYM    DATA     BIT       P0_1
      00000080H.2 SFRSYM    DATA     BIT       P0_2
      00000080H.3 SFRSYM    DATA     BIT       P0_3
      00000080H.4 SFRSYM    DATA     BIT       P0_4
      00000080H.5 SFRSYM    DATA     BIT       P0_5
      00000080H.6 SFRSYM    DATA     BIT       P0_6
      00000080H.7 SFRSYM    DATA     BIT       P0_7
      00000095H   SFRSYM    DATA     BYTE      P0_ALT
      00000094H   SFRSYM    DATA     BYTE      P0_DIR
      00000090H   SFRSYM    DATA     BYTE      P1
      00000090H   SFRSYM    DATA     BIT       P1_0
LX51 LINKER/LOCATER V4.34a                                                            04/29/2009  14:26:02  PAGE 18


      00000090H.1 SFRSYM    DATA     BIT       P1_1
      00000090H.2 SFRSYM    DATA     BIT       P1_2
      00000097H   SFRSYM    DATA     BYTE      P1_ALT
      00000096H   SFRSYM    DATA     BYTE      P1_DIR
      00000087H   SFRSYM    DATA     BYTE      PCON
      000000B8H.4 SFRSYM    DATA     BIT       PS
      000000D0H   SFRSYM    DATA     BYTE      PSW
      000000B8H.1 SFRSYM    DATA     BIT       PT0
      000000B8H.3 SFRSYM    DATA     BIT       PT1
      000000B8H.5 SFRSYM    DATA     BIT       PT2
      000000F8H.4 SFRSYM    DATA     BIT       PWDI
      00000080H.7 SFRSYM    DATA     BIT       PWM
      000000A9H   SFRSYM    DATA     BYTE      PWMCON
      000000AAH   SFRSYM    DATA     BYTE      PWMDUTY
      000000A0H.7 SFRSYM    DATA     BIT       PWR_UP
      000000B8H   SFRSYM    DATA     BIT       PX0
      000000B8H.2 SFRSYM    DATA     BIT       PX1
      000000F8H   SFRSYM    DATA     BIT       PX2
      000000F8H.1 SFRSYM    DATA     BIT       PX3
      000000F8H.2 SFRSYM    DATA     BIT       PX4
      000000F8H.3 SFRSYM    DATA     BIT       PX5
      000000A0H   SFRSYM    DATA     BYTE      RADIO
      00000098H.2 SFRSYM    DATA     BIT       RB8
      000000CBH   SFRSYM    DATA     BYTE      RCAP2H
      000000CAH   SFRSYM    DATA     BYTE      RCAP2L
      000000C8H.5 SFRSYM    DATA     BIT       RCLK
      000000ADH   SFRSYM    DATA     BYTE      REGX_CTRL
      000000ACH   SFRSYM    DATA     BYTE      REGX_LSB
      000000ABH   SFRSYM    DATA     BYTE      REGX_MSB
      00000098H.4 SFRSYM    DATA     BIT       REN
      00000098H   SFRSYM    DATA     BIT       RI
      000000D0H.3 SFRSYM    DATA     BIT       RS0
      000000D0H.4 SFRSYM    DATA     BIT       RS1
      000000B1H   SFRSYM    DATA     BYTE      RSTREAS
      00000080H.1 SFRSYM    DATA     BIT       RXD
      00000099H   SFRSYM    DATA     BYTE      SBUF
      00000098H   SFRSYM    DATA     BYTE      SCON
      00000098H.7 SFRSYM    DATA     BIT       SM0
      00000098H.6 SFRSYM    DATA     BIT       SM1
      00000098H.5 SFRSYM    DATA     BIT       SM2
      00000081H   SFRSYM    DATA     BYTE      SP
      0000008FH   SFRSYM    DATA     BYTE      SPC_FNC
      000000B3H   SFRSYM    DATA     BYTE      SPI_CTRL
      000000B2H   SFRSYM    DATA     BYTE      SPI_DATA
      000000B4H   SFRSYM    DATA     BYTE      SPICLK
      00000080H.5 SFRSYM    DATA     BIT       T0
      00000080H.6 SFRSYM    DATA     BIT       T1
      000000BCH   SFRSYM    DATA     BYTE      T1_1V2
      00000090H   SFRSYM    DATA     BIT       T2
      000000BDH   SFRSYM    DATA     BYTE      T2_1V2
      000000C8H   SFRSYM    DATA     BYTE      T2CON
      00000098H.3 SFRSYM    DATA     BIT       TB8
      000000C8H.4 SFRSYM    DATA     BIT       TCLK
      00000088H   SFRSYM    DATA     BYTE      TCON
      000000B7H   SFRSYM    DATA     BYTE      TEST_MODE
      00000088H.5 SFRSYM    DATA     BIT       TF0
      00000088H.7 SFRSYM    DATA     BIT       TF1
      000000C8H.7 SFRSYM    DATA     BIT       TF2
      0000008CH   SFRSYM    DATA     BYTE      TH0
      0000008DH   SFRSYM    DATA     BYTE      TH1
      000000CDH   SFRSYM    DATA     BYTE      TH2
      00000098H.1 SFRSYM    DATA     BIT       TI
      000000B5H   SFRSYM    DATA     BYTE      TICK_DV
      0000008AH   SFRSYM    DATA     BYTE      TL0
      0000008BH   SFRSYM    DATA     BYTE      TL1
LX51 LINKER/LOCATER V4.34a                                                            04/29/2009  14:26:02  PAGE 19


      000000CCH   SFRSYM    DATA     BYTE      TL2
      00000089H   SFRSYM    DATA     BYTE      TMOD
      00000088H.4 SFRSYM    DATA     BIT       TR0
      00000088H.6 SFRSYM    DATA     BIT       TR1
      000000C8H.2 SFRSYM    DATA     BIT       TR2
      00000080H.2 SFRSYM    DATA     BIT       TXD
      000000D8H.3 SFRSYM    DATA     BIT       WDTI
      010000B4H   SYMBOL    CODE     NEAR LAB  ?C0002
      010000B9H   SYMBOL    CODE     NEAR LAB  ?C0004
      010000FFH   SYMBOL    CODE     NEAR LAB  ?C0005
      010000F1H   SYMBOL    CODE     NEAR LAB  ?C0006
      01000175H   SYMBOL    CODE     NEAR LAB  ?C0008
      0100017FH   SYMBOL    CODE     NEAR LAB  ?C0010
      01000270H   SYMBOL    CODE     NEAR LAB  ?C0012
      01000198H   SYMBOL    CODE     NEAR LAB  ?C0013
      010001B7H   SYMBOL    CODE     NEAR LAB  ?C0015
      010001EAH   SYMBOL    CODE     NEAR LAB  ?C0016
      01000062H   SYMBOL    CODE     NEAR LAB  ?C0018
      01000076H   SYMBOL    CODE     NEAR LAB  ?C0020
      010000CEH   SYMBOL    CODE     NEAR LAB  ?C0021
      010000F9H   SYMBOL    CODE     NEAR LAB  ?C0023
      01000107H   SYMBOL    CODE     NEAR LAB  ?C0024
      0100010FH   SYMBOL    CODE     NEAR LAB  ?C0025
      01000126H   SYMBOL    CODE     NEAR LAB  ?C0026
      01000141H   SYMBOL    CODE     NEAR LAB  ?C0027
      010001A4H   SYMBOL    CODE     NEAR LAB  ?C0028
      010001E1H   SYMBOL    CODE     NEAR LAB  ?C0029
      010001F0H   SYMBOL    CODE     NEAR LAB  ?C0030
      0100021EH   SYMBOL    CODE     NEAR LAB  ?C0031
      01000239H   SYMBOL    CODE     NEAR LAB  ?C0032
      00000047H   SYMBOL    DATA     BYTE      ?ECO_PAGE_MANAGER?BYTE
      00000047H   SYMBOL    DATA     BYTE      I?142
      0000004DH   SYMBOL    DATA     BYTE      J?141
      00000049H   SYMBOL    DATA     BYTE      PAGE_INDEX?143
      0000004BH   SYMBOL    DATA     BYTE      SEG?140

      01000892H   BLOCK     CODE     NEAR LAB  LVL=0
      01000892H   LINE      CODE     ---       #317
      01000893H   LINE      CODE     ---       #318
      01000895H   LINE      CODE     ---       #321
      01000897H   LINE      CODE     ---       #322
      01000899H   LINE      CODE     ---       #325
      0100089BH   LINE      CODE     ---       #326
      0100089DH   LINE      CODE     ---       #329
      0100089FH   LINE      CODE     ---       #330
      010008A1H   LINE      CODE     ---       #334
      ---         BLOCKEND  ---      ---       LVL=0

      01000056H   BLOCK     CODE     NEAR LAB  LVL=0
      01000056H   LINE      CODE     ---       #352
      01000058H   LINE      CODE     ---       #353
      0100005AH   LINE      CODE     ---       #354
      0100005CH   LINE      CODE     ---       #359
      0100005EH   LINE      CODE     ---       #360
      01000060H   LINE      CODE     ---       #361
      01000062H   LINE      CODE     ---       #363
      01000063H   LINE      CODE     ---       #364
      01000064H   LINE      CODE     ---       #365
      01000065H   LINE      CODE     ---       #366
      01000066H   LINE      CODE     ---       #367
      01000067H   LINE      CODE     ---       #368
      01000069H   LINE      CODE     ---       #369
      0100006CH   LINE      CODE     ---       #370
      0100006DH   LINE      CODE     ---       #371
      01000070H   LINE      CODE     ---       #377
LX51 LINKER/LOCATER V4.34a                                                            04/29/2009  14:26:02  PAGE 20


      01000072H   LINE      CODE     ---       #378
      01000074H   LINE      CODE     ---       #379
      01000076H   LINE      CODE     ---       #381
      01000077H   LINE      CODE     ---       #382
      01000078H   LINE      CODE     ---       #383
      01000079H   LINE      CODE     ---       #384
      0100007AH   LINE      CODE     ---       #385
      0100007BH   LINE      CODE     ---       #386
      0100007DH   LINE      CODE     ---       #387
      0100007EH   LINE      CODE     ---       #388
      01000080H   LINE      CODE     ---       #389
      01000082H   LINE      CODE     ---       #390
      01000084H   LINE      CODE     ---       #391
      01000085H   LINE      CODE     ---       #392
      01000087H   LINE      CODE     ---       #393
      01000088H   LINE      CODE     ---       #394
      01000089H   LINE      CODE     ---       #395
      0100008BH   LINE      CODE     ---       #397
      0100008DH   LINE      CODE     ---       #398
      0100008EH   LINE      CODE     ---       #399
      0100008FH   LINE      CODE     ---       #400
      01000091H   LINE      CODE     ---       #401
      01000092H   LINE      CODE     ---       #402
      01000093H   LINE      CODE     ---       #403
      01000095H   LINE      CODE     ---       #404
      01000096H   LINE      CODE     ---       #405
      01000097H   LINE      CODE     ---       #406
      01000099H   LINE      CODE     ---       #407
      0100009AH   LINE      CODE     ---       #408
      0100009BH   LINE      CODE     ---       #409
      0100009DH   LINE      CODE     ---       #410
      0100009EH   LINE      CODE     ---       #411
      0100009FH   LINE      CODE     ---       #412
      010000A1H   LINE      CODE     ---       #413
      010000A2H   LINE      CODE     ---       #414
      010000A3H   LINE      CODE     ---       #415
      010000A5H   LINE      CODE     ---       #416
      010000A6H   LINE      CODE     ---       #417
      010000A7H   LINE      CODE     ---       #418
      010000AAH   LINE      CODE     ---       #419
      010000ADH   LINE      CODE     ---       #420
      010000B0H   LINE      CODE     ---       #421
      010000B3H   LINE      CODE     ---       #424
      010000B4H   LINE      CODE     ---       #434
      010000B5H   LINE      CODE     ---       #435
      010000B7H   LINE      CODE     ---       #436
      010000B9H   LINE      CODE     ---       #442
      010000BBH   LINE      CODE     ---       #443
      010000BCH   LINE      CODE     ---       #444
      010000BEH   LINE      CODE     ---       #445
      010000C0H   LINE      CODE     ---       #446
      010000C1H   LINE      CODE     ---       #447
      010000C2H   LINE      CODE     ---       #448
      010000C4H   LINE      CODE     ---       #449
      010000C5H   LINE      CODE     ---       #450
      010000C6H   LINE      CODE     ---       #451
      010000C7H   LINE      CODE     ---       #452
      010000C8H   LINE      CODE     ---       #453
      010000CAH   LINE      CODE     ---       #454
      010000CCH   LINE      CODE     ---       #455
      010000CEH   LINE      CODE     ---       #457
      010000CFH   LINE      CODE     ---       #458
      010000D0H   LINE      CODE     ---       #459
      010000D1H   LINE      CODE     ---       #460
      010000D2H   LINE      CODE     ---       #461
LX51 LINKER/LOCATER V4.34a                                                            04/29/2009  14:26:02  PAGE 21


      010000D3H   LINE      CODE     ---       #462
      010000D5H   LINE      CODE     ---       #463
      010000D8H   LINE      CODE     ---       #464
      010000D9H   LINE      CODE     ---       #465
      010000DCH   LINE      CODE     ---       #470
      010000DFH   LINE      CODE     ---       #471
      010000E2H   LINE      CODE     ---       #476
      010000E3H   LINE      CODE     ---       #477
      010000E5H   LINE      CODE     ---       #478
      010000E7H   LINE      CODE     ---       #479
      010000E8H   LINE      CODE     ---       #480
      010000EAH   LINE      CODE     ---       #481
      010000EBH   LINE      CODE     ---       #482
      010000ECH   LINE      CODE     ---       #483
      010000EDH   LINE      CODE     ---       #484
      010000EEH   LINE      CODE     ---       #485
      010000EFH   LINE      CODE     ---       #488
      010000F1H   LINE      CODE     ---       #494
      010000F3H   LINE      CODE     ---       #495
      010000F5H   LINE      CODE     ---       #496
      010000F7H   LINE      CODE     ---       #497
      010000F9H   LINE      CODE     ---       #499
      010000FBH   LINE      CODE     ---       #500
      010000FDH   LINE      CODE     ---       #501
      010000FFH   LINE      CODE     ---       #506
      01000101H   LINE      CODE     ---       #507
      01000102H   LINE      CODE     ---       #508
      01000104H   LINE      CODE     ---       #509
      01000106H   LINE      CODE     ---       #510
      01000107H   LINE      CODE     ---       #512
      01000109H   LINE      CODE     ---       #518
      0100010BH   LINE      CODE     ---       #519
      0100010DH   LINE      CODE     ---       #520
      0100010FH   LINE      CODE     ---       #522
      01000110H   LINE      CODE     ---       #523
      01000111H   LINE      CODE     ---       #524
      01000112H   LINE      CODE     ---       #525
      01000113H   LINE      CODE     ---       #526
      01000114H   LINE      CODE     ---       #527
      01000116H   LINE      CODE     ---       #528
      01000118H   LINE      CODE     ---       #529
      0100011AH   LINE      CODE     ---       #534
      0100011CH   LINE      CODE     ---       #535
      0100011EH   LINE      CODE     ---       #536
      0100011FH   LINE      CODE     ---       #537
      01000120H   LINE      CODE     ---       #538
      01000122H   LINE      CODE     ---       #539
      01000123H   LINE      CODE     ---       #540
      01000124H   LINE      CODE     ---       #541
      01000126H   LINE      CODE     ---       #543
      01000127H   LINE      CODE     ---       #544
      01000128H   LINE      CODE     ---       #545
      01000129H   LINE      CODE     ---       #546
      0100012AH   LINE      CODE     ---       #547
      0100012BH   LINE      CODE     ---       #548
      0100012DH   LINE      CODE     ---       #549
      0100012EH   LINE      CODE     ---       #550
      01000130H   LINE      CODE     ---       #551
      01000132H   LINE      CODE     ---       #552
      01000134H   LINE      CODE     ---       #553
      01000135H   LINE      CODE     ---       #554
      01000137H   LINE      CODE     ---       #555
      01000138H   LINE      CODE     ---       #556
      01000139H   LINE      CODE     ---       #557
      0100013BH   LINE      CODE     ---       #562
LX51 LINKER/LOCATER V4.34a                                                            04/29/2009  14:26:02  PAGE 22


      0100013DH   LINE      CODE     ---       #563
      0100013FH   LINE      CODE     ---       #564
      01000141H   LINE      CODE     ---       #566
      01000142H   LINE      CODE     ---       #567
      01000143H   LINE      CODE     ---       #568
      01000144H   LINE      CODE     ---       #569
      01000145H   LINE      CODE     ---       #570
      01000146H   LINE      CODE     ---       #571
      01000148H   LINE      CODE     ---       #572
      0100014AH   LINE      CODE     ---       #573
      0100014CH   LINE      CODE     ---       #578
      0100014EH   LINE      CODE     ---       #579
      0100014FH   LINE      CODE     ---       #580
      01000150H   LINE      CODE     ---       #581
      01000152H   LINE      CODE     ---       #582
      01000153H   LINE      CODE     ---       #583
      01000154H   LINE      CODE     ---       #584
      01000156H   LINE      CODE     ---       #585
      01000157H   LINE      CODE     ---       #586
      01000158H   LINE      CODE     ---       #587
      0100015AH   LINE      CODE     ---       #588
      0100015BH   LINE      CODE     ---       #589
      0100015CH   LINE      CODE     ---       #590
      0100015EH   LINE      CODE     ---       #591
      0100015FH   LINE      CODE     ---       #592
      01000160H   LINE      CODE     ---       #593
      01000162H   LINE      CODE     ---       #594
      01000163H   LINE      CODE     ---       #595
      01000164H   LINE      CODE     ---       #596
      01000166H   LINE      CODE     ---       #597
      01000167H   LINE      CODE     ---       #598
      01000168H   LINE      CODE     ---       #599
      0100016BH   LINE      CODE     ---       #600
      0100016EH   LINE      CODE     ---       #601
      01000171H   LINE      CODE     ---       #602
      01000174H   LINE      CODE     ---       #611
      01000175H   LINE      CODE     ---       #624
      01000177H   LINE      CODE     ---       #625
      01000179H   LINE      CODE     ---       #626
      0100017BH   LINE      CODE     ---       #627
      0100017CH   LINE      CODE     ---       #628
      0100017DH   LINE      CODE     ---       #629
      0100017FH   LINE      CODE     ---       #635
      01000181H   LINE      CODE     ---       #636
      01000182H   LINE      CODE     ---       #637
      01000184H   LINE      CODE     ---       #638
      01000186H   LINE      CODE     ---       #639
      01000187H   LINE      CODE     ---       #640
      01000188H   LINE      CODE     ---       #641
      0100018BH   LINE      CODE     ---       #647
      0100018CH   LINE      CODE     ---       #648
      0100018EH   LINE      CODE     ---       #649
      01000190H   LINE      CODE     ---       #650
      01000191H   LINE      CODE     ---       #651
      01000193H   LINE      CODE     ---       #652
      01000194H   LINE      CODE     ---       #653
      01000195H   LINE      CODE     ---       #656
      01000198H   LINE      CODE     ---       #663
      0100019AH   LINE      CODE     ---       #664
      0100019CH   LINE      CODE     ---       #665
      0100019DH   LINE      CODE     ---       #666
      0100019EH   LINE      CODE     ---       #667
      010001A0H   LINE      CODE     ---       #668
      010001A1H   LINE      CODE     ---       #669
      010001A2H   LINE      CODE     ---       #670
LX51 LINKER/LOCATER V4.34a                                                            04/29/2009  14:26:02  PAGE 23


      010001A4H   LINE      CODE     ---       #672
      010001A5H   LINE      CODE     ---       #673
      010001A6H   LINE      CODE     ---       #674
      010001A7H   LINE      CODE     ---       #675
      010001A8H   LINE      CODE     ---       #676
      010001A9H   LINE      CODE     ---       #677
      010001ABH   LINE      CODE     ---       #678
      010001ADH   LINE      CODE     ---       #679
      010001AFH   LINE      CODE     ---       #685
      010001B2H   LINE      CODE     ---       #690
      010001B3H   LINE      CODE     ---       #691
      010001B5H   LINE      CODE     ---       #692
      010001B7H   LINE      CODE     ---       #698
      010001B9H   LINE      CODE     ---       #699
      010001BBH   LINE      CODE     ---       #700
      010001BDH   LINE      CODE     ---       #701
      010001BEH   LINE      CODE     ---       #702
      010001BFH   LINE      CODE     ---       #703
      010001C1H   LINE      CODE     ---       #704
      010001C2H   LINE      CODE     ---       #705
      010001C4H   LINE      CODE     ---       #706
      010001C5H   LINE      CODE     ---       #707
      010001C7H   LINE      CODE     ---       #708
      010001C8H   LINE      CODE     ---       #709
      010001CBH   LINE      CODE     ---       #710
      010001CDH   LINE      CODE     ---       #711
      010001CFH   LINE      CODE     ---       #712
      010001D1H   LINE      CODE     ---       #713
      010001D3H   LINE      CODE     ---       #714
      010001D5H   LINE      CODE     ---       #715
      010001D7H   LINE      CODE     ---       #716
      010001D8H   LINE      CODE     ---       #717
      010001D9H   LINE      CODE     ---       #720
      010001DBH   LINE      CODE     ---       #721
      010001DDH   LINE      CODE     ---       #722
      010001DFH   LINE      CODE     ---       #723
      010001E1H   LINE      CODE     ---       #725
      010001E2H   LINE      CODE     ---       #726
      010001E4H   LINE      CODE     ---       #727
      010001E6H   LINE      CODE     ---       #728
      010001E8H   LINE      CODE     ---       #729
      010001EAH   LINE      CODE     ---       #735
      010001ECH   LINE      CODE     ---       #736
      010001EEH   LINE      CODE     ---       #737
      010001F0H   LINE      CODE     ---       #739
      010001F1H   LINE      CODE     ---       #740
      010001F2H   LINE      CODE     ---       #741
      010001F3H   LINE      CODE     ---       #742
      010001F4H   LINE      CODE     ---       #743
      010001F5H   LINE      CODE     ---       #744
      010001F7H   LINE      CODE     ---       #745
      010001F8H   LINE      CODE     ---       #746
      010001FAH   LINE      CODE     ---       #747
      010001FBH   LINE      CODE     ---       #748
      010001FDH   LINE      CODE     ---       #749
      010001FFH   LINE      CODE     ---       #750
      01000200H   LINE      CODE     ---       #751
      01000202H   LINE      CODE     ---       #752
      01000203H   LINE      CODE     ---       #753
      01000205H   LINE      CODE     ---       #758
      01000206H   LINE      CODE     ---       #759
      01000208H   LINE      CODE     ---       #760
      0100020AH   LINE      CODE     ---       #761
      0100020BH   LINE      CODE     ---       #762
      0100020CH   LINE      CODE     ---       #763
LX51 LINKER/LOCATER V4.34a                                                            04/29/2009  14:26:02  PAGE 24


      0100020EH   LINE      CODE     ---       #764
      0100020FH   LINE      CODE     ---       #765
      01000210H   LINE      CODE     ---       #766
      01000212H   LINE      CODE     ---       #771
      01000214H   LINE      CODE     ---       #772
      01000216H   LINE      CODE     ---       #773
      01000217H   LINE      CODE     ---       #774
      01000218H   LINE      CODE     ---       #775
      0100021AH   LINE      CODE     ---       #776
      0100021BH   LINE      CODE     ---       #777
      0100021CH   LINE      CODE     ---       #778
      0100021EH   LINE      CODE     ---       #780
      0100021FH   LINE      CODE     ---       #781
      01000220H   LINE      CODE     ---       #782
      01000221H   LINE      CODE     ---       #783
      01000222H   LINE      CODE     ---       #784
      01000223H   LINE      CODE     ---       #785
      01000225H   LINE      CODE     ---       #786
      01000226H   LINE      CODE     ---       #787
      01000228H   LINE      CODE     ---       #788
      0100022AH   LINE      CODE     ---       #789
      0100022CH   LINE      CODE     ---       #790
      0100022DH   LINE      CODE     ---       #791
      0100022FH   LINE      CODE     ---       #792
      01000230H   LINE      CODE     ---       #793
      01000231H   LINE      CODE     ---       #794
      01000233H   LINE      CODE     ---       #799
      01000235H   LINE      CODE     ---       #800
      01000237H   LINE      CODE     ---       #801
      01000239H   LINE      CODE     ---       #803
      0100023AH   LINE      CODE     ---       #804
      0100023BH   LINE      CODE     ---       #805
      0100023CH   LINE      CODE     ---       #806
      0100023DH   LINE      CODE     ---       #807
      0100023EH   LINE      CODE     ---       #808
      01000240H   LINE      CODE     ---       #809
      01000242H   LINE      CODE     ---       #810
      01000244H   LINE      CODE     ---       #815
      01000247H   LINE      CODE     ---       #819
      01000249H   LINE      CODE     ---       #820
      0100024AH   LINE      CODE     ---       #821
      0100024BH   LINE      CODE     ---       #822
      0100024DH   LINE      CODE     ---       #823
      0100024EH   LINE      CODE     ---       #824
      0100024FH   LINE      CODE     ---       #825
      01000251H   LINE      CODE     ---       #826
      01000252H   LINE      CODE     ---       #827
      01000253H   LINE      CODE     ---       #828
      01000255H   LINE      CODE     ---       #829
      01000256H   LINE      CODE     ---       #830
      01000257H   LINE      CODE     ---       #831
      01000259H   LINE      CODE     ---       #832
      0100025AH   LINE      CODE     ---       #833
      0100025BH   LINE      CODE     ---       #834
      0100025DH   LINE      CODE     ---       #835
      0100025EH   LINE      CODE     ---       #836
      0100025FH   LINE      CODE     ---       #837
      01000261H   LINE      CODE     ---       #838
      01000262H   LINE      CODE     ---       #839
      01000263H   LINE      CODE     ---       #840
      01000266H   LINE      CODE     ---       #841
      01000269H   LINE      CODE     ---       #842
      0100026CH   LINE      CODE     ---       #843
      0100026FH   LINE      CODE     ---       #852
      01000270H   LINE      CODE     ---       #862
LX51 LINKER/LOCATER V4.34a                                                            04/29/2009  14:26:02  PAGE 25


      01000272H   LINE      CODE     ---       #863
      01000274H   LINE      CODE     ---       #864
      01000275H   LINE      CODE     ---       #865
      01000278H   LINE      CODE     ---       #866
      01000279H   LINE      CODE     ---       #867
      0100027BH   LINE      CODE     ---       #868
      0100027DH   LINE      CODE     ---       #869
      ---         BLOCKEND  ---      ---       LVL=0

      ---         MODULE    ---      ---       ADC
      01001080H   PUBLIC    CODE     NEAR LAB  _ADC_INIT
      010010A0H   PUBLIC    CODE     NEAR LAB  _ADC_READ
      000000D0H.6 SFRSYM    DATA     BIT       AC
      000000E0H   SFRSYM    DATA     BYTE      ACC
      000000A1H   SFRSYM    DATA     BYTE      ADCCON
      000000A2H   SFRSYM    DATA     BYTE      ADCDATAH
      000000A3H   SFRSYM    DATA     BYTE      ADCDATAL
      000000A4H   SFRSYM    DATA     BYTE      ADCSTATIC
      000000F0H   SFRSYM    DATA     BYTE      B
      000000C8H.1 SFRSYM    DATA     BIT       C_T2
      000000A0H.6 SFRSYM    DATA     BIT       CE
      000000B6H   SFRSYM    DATA     BYTE      CK_CTRL
      0000008EH   SFRSYM    DATA     BYTE      CKCON
      000000A0H.1 SFRSYM    DATA     BIT       CLK1
      000000A0H.5 SFRSYM    DATA     BIT       CLK2
      000000C8H   SFRSYM    DATA     BIT       CP_RL2
      000000C8H   SFRSYM    DATA     BIT       CPRL2
      000000A0H.3 SFRSYM    DATA     BIT       CS
      000000C8H.1 SFRSYM    DATA     BIT       CT2
      000000D0H.7 SFRSYM    DATA     BIT       CY
      000000A0H   SFRSYM    DATA     BIT       DATA?
      000000BEH   SFRSYM    DATA     BYTE      DEV_OFFSET
      00000090H.2 SFRSYM    DATA     BIT       DIN0
      00000090H   SFRSYM    DATA     BIT       DIO0
      00000090H.1 SFRSYM    DATA     BIT       DIO1
      00000080H   SFRSYM    DATA     BIT       DIO2
      00000080H.1 SFRSYM    DATA     BIT       DIO3
      00000080H.2 SFRSYM    DATA     BIT       DIO4
      00000080H.3 SFRSYM    DATA     BIT       DIO5
      00000080H.4 SFRSYM    DATA     BIT       DIO6
      00000080H.5 SFRSYM    DATA     BIT       DIO7
      00000080H.6 SFRSYM    DATA     BIT       DIO8
      00000080H.7 SFRSYM    DATA     BIT       DIO9
      000000A0H.4 SFRSYM    DATA     BIT       DOUT2
      00000083H   SFRSYM    DATA     BYTE      DPH
      00000083H   SFRSYM    DATA     BYTE      DPH0
      00000085H   SFRSYM    DATA     BYTE      DPH1
      00000082H   SFRSYM    DATA     BYTE      DPL
      00000082H   SFRSYM    DATA     BYTE      DPL0
      00000084H   SFRSYM    DATA     BYTE      DPL1
      00000086H   SFRSYM    DATA     BYTE      DPS
      000000A0H.2 SFRSYM    DATA     BIT       DR1
      000000A0H.6 SFRSYM    DATA     BIT       DR2
      000000A0H.6 SFRSYM    DATA     BIT       DR2_CE
      000000A8H.7 SFRSYM    DATA     BIT       EA
      000000D8H   SFRSYM    DATA     BYTE      EICON
      000000E8H   SFRSYM    DATA     BYTE      EIE
      000000F8H   SFRSYM    DATA     BYTE      EIP
      000000A8H.4 SFRSYM    DATA     BIT       ES
      000000A8H.1 SFRSYM    DATA     BIT       ET0
      000000A8H.3 SFRSYM    DATA     BIT       ET1
      000000A8H.5 SFRSYM    DATA     BIT       ET2
      000000E8H.4 SFRSYM    DATA     BIT       EWDI
      000000A8H   SFRSYM    DATA     BIT       EX0
      000000A8H.2 SFRSYM    DATA     BIT       EX1
LX51 LINKER/LOCATER V4.34a                                                            04/29/2009  14:26:02  PAGE 26


      000000E8H   SFRSYM    DATA     BIT       EX2
      000000E8H.1 SFRSYM    DATA     BIT       EX3
      000000E8H.2 SFRSYM    DATA     BIT       EX4
      000000E8H.3 SFRSYM    DATA     BIT       EX5
      000000C8H.3 SFRSYM    DATA     BIT       EXEN2
      000000C8H.6 SFRSYM    DATA     BIT       EXF2
      00000091H   SFRSYM    DATA     BYTE      EXIF
      000000D0H.5 SFRSYM    DATA     BIT       F0
      000000D0H.1 SFRSYM    DATA     BIT       F1
      000000A8H   SFRSYM    DATA     BYTE      IE
      00000088H.1 SFRSYM    DATA     BIT       IE0
      00000088H.3 SFRSYM    DATA     BIT       IE1
      00000080H.3 SFRSYM    DATA     BIT       INT0_N
      00000080H.4 SFRSYM    DATA     BIT       INT1_N
      000000B8H   SFRSYM    DATA     BYTE      IP
      00000088H   SFRSYM    DATA     BIT       IT0
      00000088H.2 SFRSYM    DATA     BIT       IT1
      00000092H   SFRSYM    DATA     BYTE      MPAGE
      000000D0H.2 SFRSYM    DATA     BIT       OV
      000000D0H   SFRSYM    DATA     BIT       P
      00000080H   SFRSYM    DATA     BYTE      P0
      00000080H   SFRSYM    DATA     BIT       P0_0
      00000080H.1 SFRSYM    DATA     BIT       P0_1
      00000080H.2 SFRSYM    DATA     BIT       P0_2
      00000080H.3 SFRSYM    DATA     BIT       P0_3
      00000080H.4 SFRSYM    DATA     BIT       P0_4
      00000080H.5 SFRSYM    DATA     BIT       P0_5
      00000080H.6 SFRSYM    DATA     BIT       P0_6
      00000080H.7 SFRSYM    DATA     BIT       P0_7
      00000095H   SFRSYM    DATA     BYTE      P0_ALT
      00000094H   SFRSYM    DATA     BYTE      P0_DIR
      00000090H   SFRSYM    DATA     BYTE      P1
      00000090H   SFRSYM    DATA     BIT       P1_0
      00000090H.1 SFRSYM    DATA     BIT       P1_1
      00000090H.2 SFRSYM    DATA     BIT       P1_2
      00000097H   SFRSYM    DATA     BYTE      P1_ALT
      00000096H   SFRSYM    DATA     BYTE      P1_DIR
      00000087H   SFRSYM    DATA     BYTE      PCON
      000000B8H.4 SFRSYM    DATA     BIT       PS
      000000D0H   SFRSYM    DATA     BYTE      PSW
      000000B8H.1 SFRSYM    DATA     BIT       PT0
      000000B8H.3 SFRSYM    DATA     BIT       PT1
      000000B8H.5 SFRSYM    DATA     BIT       PT2
      000000F8H.4 SFRSYM    DATA     BIT       PWDI
      00000080H.7 SFRSYM    DATA     BIT       PWM
      000000A9H   SFRSYM    DATA     BYTE      PWMCON
      000000AAH   SFRSYM    DATA     BYTE      PWMDUTY
      000000A0H.7 SFRSYM    DATA     BIT       PWR_UP
      000000B8H   SFRSYM    DATA     BIT       PX0
      000000B8H.2 SFRSYM    DATA     BIT       PX1
      000000F8H   SFRSYM    DATA     BIT       PX2
      000000F8H.1 SFRSYM    DATA     BIT       PX3
      000000F8H.2 SFRSYM    DATA     BIT       PX4
      000000F8H.3 SFRSYM    DATA     BIT       PX5
      000000A0H   SFRSYM    DATA     BYTE      RADIO
      00000098H.2 SFRSYM    DATA     BIT       RB8
      000000CBH   SFRSYM    DATA     BYTE      RCAP2H
      000000CAH   SFRSYM    DATA     BYTE      RCAP2L
      000000C8H.5 SFRSYM    DATA     BIT       RCLK
      000000ADH   SFRSYM    DATA     BYTE      REGX_CTRL
      000000ACH   SFRSYM    DATA     BYTE      REGX_LSB
      000000ABH   SFRSYM    DATA     BYTE      REGX_MSB
      00000098H.4 SFRSYM    DATA     BIT       REN
      00000098H   SFRSYM    DATA     BIT       RI
      000000D0H.3 SFRSYM    DATA     BIT       RS0
LX51 LINKER/LOCATER V4.34a                                                            04/29/2009  14:26:02  PAGE 27


      000000D0H.4 SFRSYM    DATA     BIT       RS1
      000000B1H   SFRSYM    DATA     BYTE      RSTREAS
      00000080H.1 SFRSYM    DATA     BIT       RXD
      00000099H   SFRSYM    DATA     BYTE      SBUF
      00000098H   SFRSYM    DATA     BYTE      SCON
      00000098H.7 SFRSYM    DATA     BIT       SM0
      00000098H.6 SFRSYM    DATA     BIT       SM1
      00000098H.5 SFRSYM    DATA     BIT       SM2
      00000081H   SFRSYM    DATA     BYTE      SP
      0000008FH   SFRSYM    DATA     BYTE      SPC_FNC
      000000B3H   SFRSYM    DATA     BYTE      SPI_CTRL
      000000B2H   SFRSYM    DATA     BYTE      SPI_DATA
      000000B4H   SFRSYM    DATA     BYTE      SPICLK
      00000080H.5 SFRSYM    DATA     BIT       T0
      00000080H.6 SFRSYM    DATA     BIT       T1
      000000BCH   SFRSYM    DATA     BYTE      T1_1V2
      00000090H   SFRSYM    DATA     BIT       T2
      000000BDH   SFRSYM    DATA     BYTE      T2_1V2
      000000C8H   SFRSYM    DATA     BYTE      T2CON
      00000098H.3 SFRSYM    DATA     BIT       TB8
      000000C8H.4 SFRSYM    DATA     BIT       TCLK
      00000088H   SFRSYM    DATA     BYTE      TCON
      000000B7H   SFRSYM    DATA     BYTE      TEST_MODE
      00000088H.5 SFRSYM    DATA     BIT       TF0
      00000088H.7 SFRSYM    DATA     BIT       TF1
      000000C8H.7 SFRSYM    DATA     BIT       TF2
      0000008CH   SFRSYM    DATA     BYTE      TH0
      0000008DH   SFRSYM    DATA     BYTE      TH1
      000000CDH   SFRSYM    DATA     BYTE      TH2
      00000098H.1 SFRSYM    DATA     BIT       TI
      000000B5H   SFRSYM    DATA     BYTE      TICK_DV
      0000008AH   SFRSYM    DATA     BYTE      TL0
      0000008BH   SFRSYM    DATA     BYTE      TL1
      000000CCH   SFRSYM    DATA     BYTE      TL2
      00000089H   SFRSYM    DATA     BYTE      TMOD
      00000088H.4 SFRSYM    DATA     BIT       TR0
      00000088H.6 SFRSYM    DATA     BIT       TR1
      000000C8H.2 SFRSYM    DATA     BIT       TR2
      00000080H.2 SFRSYM    DATA     BIT       TXD
      000000D8H.3 SFRSYM    DATA     BIT       WDTI
      0100004BH   SYMBOL    CODE     NEAR LAB  ?C0002
      0100001BH   SYMBOL    CODE     NEAR LAB  ?C0004
      01000023H   SYMBOL    CODE     NEAR LAB  ?C0005
      01000037H   SYMBOL    CODE     NEAR LAB  ?C0006
      0100004FH   SYMBOL    CODE     NEAR LAB  ?C0007
      010010AFH   SYMBOL    CODE     NEAR LAB  ?C0011
      010010B4H   SYMBOL    CODE     NEAR LAB  ?C0012
      010010BAH   SYMBOL    CODE     NEAR LAB  ?C0013
      01000003H   SYMBOL    CODE     NEAR LAB  P_ADC_READ

      01001080H   BLOCK     CODE     NEAR LAB  LVL=0
      01001080H   LINE      CODE     ---       #206
      01001083H   LINE      CODE     ---       #209
      01001084H   LINE      CODE     ---       #210
      01001086H   LINE      CODE     ---       #213
      01001089H   LINE      CODE     ---       #216
      0100108AH   LINE      CODE     ---       #217
      0100108CH   LINE      CODE     ---       #220
      0100108FH   LINE      CODE     ---       #223
      01001090H   LINE      CODE     ---       #224
      01001092H   LINE      CODE     ---       #227
      ---         BLOCKEND  ---      ---       LVL=0

      01000003H   BLOCK     CODE     NEAR LAB  LVL=0
      01000003H   LINE      CODE     ---       #241
LX51 LINKER/LOCATER V4.34a                                                            04/29/2009  14:26:02  PAGE 28


      01000005H   LINE      CODE     ---       #242
      01000007H   LINE      CODE     ---       #243
      01000008H   LINE      CODE     ---       #248
      01000009H   LINE      CODE     ---       #249
      0100000AH   LINE      CODE     ---       #250
      0100000BH   LINE      CODE     ---       #253
      0100000DH   LINE      CODE     ---       #254
      0100000EH   LINE      CODE     ---       #255
      0100000FH   LINE      CODE     ---       #256
      01000011H   LINE      CODE     ---       #257
      01000012H   LINE      CODE     ---       #258
      01000014H   LINE      CODE     ---       #259
      01000015H   LINE      CODE     ---       #260
      01000017H   LINE      CODE     ---       #261
      01000019H   LINE      CODE     ---       #262
      0100001BH   LINE      CODE     ---       #271
      0100001DH   LINE      CODE     ---       #272
      0100001FH   LINE      CODE     ---       #273
      01000021H   LINE      CODE     ---       #276
      01000023H   LINE      CODE     ---       #283
      01000025H   LINE      CODE     ---       #284
      01000026H   LINE      CODE     ---       #285
      01000029H   LINE      CODE     ---       #286
      0100002AH   LINE      CODE     ---       #287
      0100002BH   LINE      CODE     ---       #288
      0100002DH   LINE      CODE     ---       #291
      0100002FH   LINE      CODE     ---       #292
      01000030H   LINE      CODE     ---       #293
      01000031H   LINE      CODE     ---       #294
      01000032H   LINE      CODE     ---       #295
      01000034H   LINE      CODE     ---       #296
      01000035H   LINE      CODE     ---       #297
      01000036H   LINE      CODE     ---       #298
      01000037H   LINE      CODE     ---       #305
      01000039H   LINE      CODE     ---       #306
      0100003AH   LINE      CODE     ---       #307
      0100003DH   LINE      CODE     ---       #308
      0100003EH   LINE      CODE     ---       #309
      0100003FH   LINE      CODE     ---       #310
      01000041H   LINE      CODE     ---       #313
      01000043H   LINE      CODE     ---       #314
      01000044H   LINE      CODE     ---       #315
      01000046H   LINE      CODE     ---       #316
      01000047H   LINE      CODE     ---       #317
      01000048H   LINE      CODE     ---       #318
      01000049H   LINE      CODE     ---       #319
      0100004AH   LINE      CODE     ---       #320
      0100004BH   LINE      CODE     ---       #326
      0100004DH   LINE      CODE     ---       #327
      0100004FH   LINE      CODE     ---       #331
      ---         BLOCKEND  ---      ---       LVL=0

      010010A0H   BLOCK     CODE     NEAR LAB  LVL=0
      010010A0H   LINE      CODE     ---       #347
      010010A1H   LINE      CODE     ---       #348
      010010A2H   LINE      CODE     ---       #349
      010010A3H   LINE      CODE     ---       #353
      010010A6H   LINE      CODE     ---       #356
      010010A7H   LINE      CODE     ---       #357
      010010A9H   LINE      CODE     ---       #360
      010010ACH   LINE      CODE     ---       #361
      010010AFH   LINE      CODE     ---       #366
      010010B1H   LINE      CODE     ---       #367
      010010B4H   LINE      CODE     ---       #373
      010010B7H   LINE      CODE     ---       #377
LX51 LINKER/LOCATER V4.34a                                                            04/29/2009  14:26:02  PAGE 29


      010010BAH   LINE      CODE     ---       #383
      ---         BLOCKEND  ---      ---       LVL=0

      ---         MODULE    ---      ---       UTILS
      00000057H   PUBLIC    DATA     BYTE      ?_STRNCPY?BYTE
      01000661H   PUBLIC    CODE     NEAR LAB  _MDELAY
      010008BFH   PUBLIC    CODE     NEAR LAB  _STORE_CPU_RATE
      010006AAH   PUBLIC    CODE     NEAR LAB  _STRNCPY
      01000880H   PUBLIC    CODE     NEAR LAB  _WDT_LOAD
      00000064H   PUBLIC    DATA     BYTE      MHZ
      000000D0H.6 SFRSYM    DATA     BIT       AC
      000000E0H   SFRSYM    DATA     BYTE      ACC
      000000A1H   SFRSYM    DATA     BYTE      ADCCON
      000000A2H   SFRSYM    DATA     BYTE      ADCDATAH
      000000A3H   SFRSYM    DATA     BYTE      ADCDATAL
      000000A4H   SFRSYM    DATA     BYTE      ADCSTATIC
      000000F0H   SFRSYM    DATA     BYTE      B
      000000C8H.1 SFRSYM    DATA     BIT       C_T2
      000000A0H.6 SFRSYM    DATA     BIT       CE
      000000B6H   SFRSYM    DATA     BYTE      CK_CTRL
      0000008EH   SFRSYM    DATA     BYTE      CKCON
      000000A0H.1 SFRSYM    DATA     BIT       CLK1
      000000A0H.5 SFRSYM    DATA     BIT       CLK2
      000000C8H   SFRSYM    DATA     BIT       CP_RL2
      000000C8H   SFRSYM    DATA     BIT       CPRL2
      000000A0H.3 SFRSYM    DATA     BIT       CS
      000000C8H.1 SFRSYM    DATA     BIT       CT2
      000000D0H.7 SFRSYM    DATA     BIT       CY
      000000A0H   SFRSYM    DATA     BIT       DATA?
      000000BEH   SFRSYM    DATA     BYTE      DEV_OFFSET
      00000090H.2 SFRSYM    DATA     BIT       DIN0
      00000090H   SFRSYM    DATA     BIT       DIO0
      00000090H.1 SFRSYM    DATA     BIT       DIO1
      00000080H   SFRSYM    DATA     BIT       DIO2
      00000080H.1 SFRSYM    DATA     BIT       DIO3
      00000080H.2 SFRSYM    DATA     BIT       DIO4
      00000080H.3 SFRSYM    DATA     BIT       DIO5
      00000080H.4 SFRSYM    DATA     BIT       DIO6
      00000080H.5 SFRSYM    DATA     BIT       DIO7
      00000080H.6 SFRSYM    DATA     BIT       DIO8
      00000080H.7 SFRSYM    DATA     BIT       DIO9
      000000A0H.4 SFRSYM    DATA     BIT       DOUT2
      00000083H   SFRSYM    DATA     BYTE      DPH
      00000083H   SFRSYM    DATA     BYTE      DPH0
      00000085H   SFRSYM    DATA     BYTE      DPH1
      00000082H   SFRSYM    DATA     BYTE      DPL
      00000082H   SFRSYM    DATA     BYTE      DPL0
      00000084H   SFRSYM    DATA     BYTE      DPL1
      00000086H   SFRSYM    DATA     BYTE      DPS
      000000A0H.2 SFRSYM    DATA     BIT       DR1
      000000A0H.6 SFRSYM    DATA     BIT       DR2
      000000A0H.6 SFRSYM    DATA     BIT       DR2_CE
      000000A8H.7 SFRSYM    DATA     BIT       EA
      000000D8H   SFRSYM    DATA     BYTE      EICON
      000000E8H   SFRSYM    DATA     BYTE      EIE
      000000F8H   SFRSYM    DATA     BYTE      EIP
      000000A8H.4 SFRSYM    DATA     BIT       ES
      000000A8H.1 SFRSYM    DATA     BIT       ET0
      000000A8H.3 SFRSYM    DATA     BIT       ET1
      000000A8H.5 SFRSYM    DATA     BIT       ET2
      000000E8H.4 SFRSYM    DATA     BIT       EWDI
      000000A8H   SFRSYM    DATA     BIT       EX0
      000000A8H.2 SFRSYM    DATA     BIT       EX1
      000000E8H   SFRSYM    DATA     BIT       EX2
      000000E8H.1 SFRSYM    DATA     BIT       EX3
LX51 LINKER/LOCATER V4.34a                                                            04/29/2009  14:26:02  PAGE 30


      000000E8H.2 SFRSYM    DATA     BIT       EX4
      000000E8H.3 SFRSYM    DATA     BIT       EX5
      000000C8H.3 SFRSYM    DATA     BIT       EXEN2
      000000C8H.6 SFRSYM    DATA     BIT       EXF2
      00000091H   SFRSYM    DATA     BYTE      EXIF
      000000D0H.5 SFRSYM    DATA     BIT       F0
      000000D0H.1 SFRSYM    DATA     BIT       F1
      000000A8H   SFRSYM    DATA     BYTE      IE
      00000088H.1 SFRSYM    DATA     BIT       IE0
      00000088H.3 SFRSYM    DATA     BIT       IE1
      00000080H.3 SFRSYM    DATA     BIT       INT0_N
      00000080H.4 SFRSYM    DATA     BIT       INT1_N
      000000B8H   SFRSYM    DATA     BYTE      IP
      00000088H   SFRSYM    DATA     BIT       IT0
      00000088H.2 SFRSYM    DATA     BIT       IT1
      00000092H   SFRSYM    DATA     BYTE      MPAGE
      000000D0H.2 SFRSYM    DATA     BIT       OV
      000000D0H   SFRSYM    DATA     BIT       P
      00000080H   SFRSYM    DATA     BYTE      P0
      00000080H   SFRSYM    DATA     BIT       P0_0
      00000080H.1 SFRSYM    DATA     BIT       P0_1
      00000080H.2 SFRSYM    DATA     BIT       P0_2
      00000080H.3 SFRSYM    DATA     BIT       P0_3
      00000080H.4 SFRSYM    DATA     BIT       P0_4
      00000080H.5 SFRSYM    DATA     BIT       P0_5
      00000080H.6 SFRSYM    DATA     BIT       P0_6
      00000080H.7 SFRSYM    DATA     BIT       P0_7
      00000095H   SFRSYM    DATA     BYTE      P0_ALT
      00000094H   SFRSYM    DATA     BYTE      P0_DIR
      00000090H   SFRSYM    DATA     BYTE      P1
      00000090H   SFRSYM    DATA     BIT       P1_0
      00000090H.1 SFRSYM    DATA     BIT       P1_1
      00000090H.2 SFRSYM    DATA     BIT       P1_2
      00000097H   SFRSYM    DATA     BYTE      P1_ALT
      00000096H   SFRSYM    DATA     BYTE      P1_DIR
      00000087H   SFRSYM    DATA     BYTE      PCON
      000000B8H.4 SFRSYM    DATA     BIT       PS
      000000D0H   SFRSYM    DATA     BYTE      PSW
      000000B8H.1 SFRSYM    DATA     BIT       PT0
      000000B8H.3 SFRSYM    DATA     BIT       PT1
      000000B8H.5 SFRSYM    DATA     BIT       PT2
      000000F8H.4 SFRSYM    DATA     BIT       PWDI
      00000080H.7 SFRSYM    DATA     BIT       PWM
      000000A9H   SFRSYM    DATA     BYTE      PWMCON
      000000AAH   SFRSYM    DATA     BYTE      PWMDUTY
      000000A0H.7 SFRSYM    DATA     BIT       PWR_UP
      000000B8H   SFRSYM    DATA     BIT       PX0
      000000B8H.2 SFRSYM    DATA     BIT       PX1
      000000F8H   SFRSYM    DATA     BIT       PX2
      000000F8H.1 SFRSYM    DATA     BIT       PX3
      000000F8H.2 SFRSYM    DATA     BIT       PX4
      000000F8H.3 SFRSYM    DATA     BIT       PX5
      000000A0H   SFRSYM    DATA     BYTE      RADIO
      00000098H.2 SFRSYM    DATA     BIT       RB8
      000000CBH   SFRSYM    DATA     BYTE      RCAP2H
      000000CAH   SFRSYM    DATA     BYTE      RCAP2L
      000000C8H.5 SFRSYM    DATA     BIT       RCLK
      000000ADH   SFRSYM    DATA     BYTE      REGX_CTRL
      000000ACH   SFRSYM    DATA     BYTE      REGX_LSB
      000000ABH   SFRSYM    DATA     BYTE      REGX_MSB
      00000098H.4 SFRSYM    DATA     BIT       REN
      00000098H   SFRSYM    DATA     BIT       RI
      000000D0H.3 SFRSYM    DATA     BIT       RS0
      000000D0H.4 SFRSYM    DATA     BIT       RS1
      000000B1H   SFRSYM    DATA     BYTE      RSTREAS
LX51 LINKER/LOCATER V4.34a                                                            04/29/2009  14:26:02  PAGE 31


      00000080H.1 SFRSYM    DATA     BIT       RXD
      00000099H   SFRSYM    DATA     BYTE      SBUF
      00000098H   SFRSYM    DATA     BYTE      SCON
      00000098H.7 SFRSYM    DATA     BIT       SM0
      00000098H.6 SFRSYM    DATA     BIT       SM1
      00000098H.5 SFRSYM    DATA     BIT       SM2
      00000081H   SFRSYM    DATA     BYTE      SP
      0000008FH   SFRSYM    DATA     BYTE      SPC_FNC
      000000B3H   SFRSYM    DATA     BYTE      SPI_CTRL
      000000B2H   SFRSYM    DATA     BYTE      SPI_DATA
      000000B4H   SFRSYM    DATA     BYTE      SPICLK
      00000080H.5 SFRSYM    DATA     BIT       T0
      00000080H.6 SFRSYM    DATA     BIT       T1
      000000BCH   SFRSYM    DATA     BYTE      T1_1V2
      00000090H   SFRSYM    DATA     BIT       T2
      000000BDH   SFRSYM    DATA     BYTE      T2_1V2
      000000C8H   SFRSYM    DATA     BYTE      T2CON
      00000098H.3 SFRSYM    DATA     BIT       TB8
      000000C8H.4 SFRSYM    DATA     BIT       TCLK
      00000088H   SFRSYM    DATA     BYTE      TCON
      000000B7H   SFRSYM    DATA     BYTE      TEST_MODE
      00000088H.5 SFRSYM    DATA     BIT       TF0
      00000088H.7 SFRSYM    DATA     BIT       TF1
      000000C8H.7 SFRSYM    DATA     BIT       TF2
      0000008CH   SFRSYM    DATA     BYTE      TH0
      0000008DH   SFRSYM    DATA     BYTE      TH1
      000000CDH   SFRSYM    DATA     BYTE      TH2
      00000098H.1 SFRSYM    DATA     BIT       TI
      000000B5H   SFRSYM    DATA     BYTE      TICK_DV
      0000008AH   SFRSYM    DATA     BYTE      TL0
      0000008BH   SFRSYM    DATA     BYTE      TL1
      000000CCH   SFRSYM    DATA     BYTE      TL2
      00000089H   SFRSYM    DATA     BYTE      TMOD
      00000088H.4 SFRSYM    DATA     BIT       TR0
      00000088H.6 SFRSYM    DATA     BIT       TR1
      000000C8H.2 SFRSYM    DATA     BIT       TR2
      00000080H.2 SFRSYM    DATA     BIT       TXD
      000000D8H.3 SFRSYM    DATA     BIT       WDTI
      00000073H   SYMBOL    DATA     BYTE      ?_MDELAY?BYTE
      01000682H   SYMBOL    CODE     NEAR LAB  ?C0002
      010006A2H   SYMBOL    CODE     NEAR LAB  ?C0004
      0100068EH   SYMBOL    CODE     NEAR LAB  ?C0005
      010006A9H   SYMBOL    CODE     NEAR LAB  ?C0008
      01000884H   SYMBOL    CODE     NEAR LAB  ?C0009
      01000889H   SYMBOL    CODE     NEAR LAB  ?C0010
      010006B3H   SYMBOL    CODE     NEAR LAB  ?C0012
      010006EDH   SYMBOL    CODE     NEAR LAB  ?C0015
      010006A0H   SYMBOL    CODE     NEAR LAB  ?C0016
      010006A7H   SYMBOL    CODE     NEAR LAB  ?C0017
      010006CEH   SYMBOL    CODE     NEAR LAB  ?C0018
      010006E0H   SYMBOL    CODE     NEAR LAB  ?C0019
      010006EBH   SYMBOL    CODE     NEAR LAB  ?C0020
      0000005AH   SYMBOL    DATA     BYTE      DST?347
      00000073H   SYMBOL    DATA     BYTE      MSEC?141
      0000005DH   SYMBOL    DATA     BYTE      N?348
      00000057H   SYMBOL    DATA     BYTE      SRC?346

      010008BFH   BLOCK     CODE     NEAR LAB  LVL=0
      010008BFH   LINE      CODE     ---       #231
      010008C0H   LINE      CODE     ---       #232
      010008C1H   LINE      CODE     ---       #233
      010008C3H   LINE      CODE     ---       #234
      010008C5H   LINE      CODE     ---       #235
      010008C7H   LINE      CODE     ---       #236
      010008C9H   LINE      CODE     ---       #237
LX51 LINKER/LOCATER V4.34a                                                            04/29/2009  14:26:02  PAGE 32


      010008CBH   LINE      CODE     ---       #240
      ---         BLOCKEND  ---      ---       LVL=0

      01000661H   BLOCK     CODE     NEAR LAB  LVL=0
      01000661H   LINE      CODE     ---       #256
      01000663H   LINE      CODE     ---       #257
      01000665H   LINE      CODE     ---       #263
      01000666H   LINE      CODE     ---       #264
      01000668H   LINE      CODE     ---       #265
      01000669H   LINE      CODE     ---       #266
      0100066AH   LINE      CODE     ---       #267
      0100066BH   LINE      CODE     ---       #268
      0100066DH   LINE      CODE     ---       #269
      0100066FH   LINE      CODE     ---       #270
      01000671H   LINE      CODE     ---       #271
      01000673H   LINE      CODE     ---       #272
      01000676H   LINE      CODE     ---       #273
      01000677H   LINE      CODE     ---       #274
      01000679H   LINE      CODE     ---       #275
      0100067AH   LINE      CODE     ---       #276
      0100067BH   LINE      CODE     ---       #277
      0100067CH   LINE      CODE     ---       #278
      0100067FH   LINE      CODE     ---       #283
      01000680H   LINE      CODE     ---       #284
      01000681H   LINE      CODE     ---       #285
      01000682H   LINE      CODE     ---       #287
      01000683H   LINE      CODE     ---       #288
      01000684H   LINE      CODE     ---       #289
      01000686H   LINE      CODE     ---       #290
      01000687H   LINE      CODE     ---       #291
      01000689H   LINE      CODE     ---       #292
      0100068BH   LINE      CODE     ---       #296
      0100068CH   LINE      CODE     ---       #297
      0100068DH   LINE      CODE     ---       #298
      0100068EH   LINE      CODE     ---       #300
      0100068FH   LINE      CODE     ---       #301
      01000690H   LINE      CODE     ---       #302
      01000691H   LINE      CODE     ---       #303
      01000692H   LINE      CODE     ---       #304
      01000694H   LINE      CODE     ---       #305
      01000695H   LINE      CODE     ---       #306
      01000696H   LINE      CODE     ---       #307
      01000698H   LINE      CODE     ---       #308
      01000699H   LINE      CODE     ---       #309
      0100069BH   LINE      CODE     ---       #310
      0100069CH   LINE      CODE     ---       #311
      0100069FH   LINE      CODE     ---       #312
      010006A0H   LINE      CODE     ---       #314
      010006A2H   LINE      CODE     ---       #316
      010006A3H   LINE      CODE     ---       #317
      010006A6H   LINE      CODE     ---       #318
      010006A7H   LINE      CODE     ---       #320
      010006A9H   LINE      CODE     ---       #325
      ---         BLOCKEND  ---      ---       LVL=0

      01000880H   BLOCK     CODE     NEAR LAB  LVL=0
      01000880H   LINE      CODE     ---       #341
      01000882H   LINE      CODE     ---       #342
      01000884H   LINE      CODE     ---       #348
      01000886H   LINE      CODE     ---       #349
      01000889H   LINE      CODE     ---       #354
      0100088BH   LINE      CODE     ---       #357
      0100088CH   LINE      CODE     ---       #358
      0100088EH   LINE      CODE     ---       #361
      01000891H   LINE      CODE     ---       #364
LX51 LINKER/LOCATER V4.34a                                                            04/29/2009  14:26:02  PAGE 33


      ---         BLOCKEND  ---      ---       LVL=0

      010006AAH   BLOCK     CODE     NEAR LAB  LVL=0
      010006AAH   LINE      CODE     ---       #380
      010006ACH   LINE      CODE     ---       #381
      010006AEH   LINE      CODE     ---       #382
      010006B0H   LINE      CODE     ---       #389
      010006B1H   LINE      CODE     ---       #390
      010006B2H   LINE      CODE     ---       #391
      010006B3H   LINE      CODE     ---       #393
      010006B4H   LINE      CODE     ---       #394
      010006B5H   LINE      CODE     ---       #395
      010006B7H   LINE      CODE     ---       #396
      010006B9H   LINE      CODE     ---       #397
      010006BBH   LINE      CODE     ---       #398
      010006BCH   LINE      CODE     ---       #399
      010006BDH   LINE      CODE     ---       #400
      010006BFH   LINE      CODE     ---       #401
      010006C0H   LINE      CODE     ---       #402
      010006C2H   LINE      CODE     ---       #405
      010006C4H   LINE      CODE     ---       #406
      010006C6H   LINE      CODE     ---       #407
      010006C8H   LINE      CODE     ---       #408
      010006CAH   LINE      CODE     ---       #409
      010006CCH   LINE      CODE     ---       #410
      010006CEH   LINE      CODE     ---       #412
      010006CFH   LINE      CODE     ---       #413
      010006D0H   LINE      CODE     ---       #414
      010006D3H   LINE      CODE     ---       #415
      010006D4H   LINE      CODE     ---       #416
      010006D6H   LINE      CODE     ---       #417
      010006D8H   LINE      CODE     ---       #418
      010006DAH   LINE      CODE     ---       #419
      010006DCH   LINE      CODE     ---       #420
      010006DEH   LINE      CODE     ---       #421
      010006E0H   LINE      CODE     ---       #423
      010006E1H   LINE      CODE     ---       #424
      010006E2H   LINE      CODE     ---       #425
      010006E3H   LINE      CODE     ---       #426
      010006E6H   LINE      CODE     ---       #429
      010006E7H   LINE      CODE     ---       #430
      010006EAH   LINE      CODE     ---       #431
      010006EBH   LINE      CODE     ---       #433
      010006EDH   LINE      CODE     ---       #437
      ---         BLOCKEND  ---      ---       LVL=0

      ---         MODULE    ---      ---       SERIAL
      01000766H   PUBLIC    CODE     NEAR LAB  _?INT_PRINT
      01000050H   PUBLIC    CODE     NEAR LAB  _PUTC
      01000838H   PUBLIC    CODE     NEAR LAB  _PUTS
      010008E4H   PUBLIC    CODE     NEAR LAB  _SERIAL_INIT
      0100090CH   PUBLIC    CODE     NEAR LAB  GETC
      000000D0H.6 SFRSYM    DATA     BIT       AC
      000000E0H   SFRSYM    DATA     BYTE      ACC
      000000A1H   SFRSYM    DATA     BYTE      ADCCON
      000000A2H   SFRSYM    DATA     BYTE      ADCDATAH
      000000A3H   SFRSYM    DATA     BYTE      ADCDATAL
      000000A4H   SFRSYM    DATA     BYTE      ADCSTATIC
      000000F0H   SFRSYM    DATA     BYTE      B
      000000C8H.1 SFRSYM    DATA     BIT       C_T2
      000000A0H.6 SFRSYM    DATA     BIT       CE
      000000B6H   SFRSYM    DATA     BYTE      CK_CTRL
      0000008EH   SFRSYM    DATA     BYTE      CKCON
      000000A0H.1 SFRSYM    DATA     BIT       CLK1
      000000A0H.5 SFRSYM    DATA     BIT       CLK2
LX51 LINKER/LOCATER V4.34a                                                            04/29/2009  14:26:02  PAGE 34


      000000C8H   SFRSYM    DATA     BIT       CP_RL2
      000000C8H   SFRSYM    DATA     BIT       CPRL2
      000000A0H.3 SFRSYM    DATA     BIT       CS
      000000C8H.1 SFRSYM    DATA     BIT       CT2
      000000D0H.7 SFRSYM    DATA     BIT       CY
      000000A0H   SFRSYM    DATA     BIT       DATA?
      000000BEH   SFRSYM    DATA     BYTE      DEV_OFFSET
      00000090H.2 SFRSYM    DATA     BIT       DIN0
      00000090H   SFRSYM    DATA     BIT       DIO0
      00000090H.1 SFRSYM    DATA     BIT       DIO1
      00000080H   SFRSYM    DATA     BIT       DIO2
      00000080H.1 SFRSYM    DATA     BIT       DIO3
      00000080H.2 SFRSYM    DATA     BIT       DIO4
      00000080H.3 SFRSYM    DATA     BIT       DIO5
      00000080H.4 SFRSYM    DATA     BIT       DIO6
      00000080H.5 SFRSYM    DATA     BIT       DIO7
      00000080H.6 SFRSYM    DATA     BIT       DIO8
      00000080H.7 SFRSYM    DATA     BIT       DIO9
      000000A0H.4 SFRSYM    DATA     BIT       DOUT2
      00000083H   SFRSYM    DATA     BYTE      DPH
      00000083H   SFRSYM    DATA     BYTE      DPH0
      00000085H   SFRSYM    DATA     BYTE      DPH1
      00000082H   SFRSYM    DATA     BYTE      DPL
      00000082H   SFRSYM    DATA     BYTE      DPL0
      00000084H   SFRSYM    DATA     BYTE      DPL1
      00000086H   SFRSYM    DATA     BYTE      DPS
      000000A0H.2 SFRSYM    DATA     BIT       DR1
      000000A0H.6 SFRSYM    DATA     BIT       DR2
      000000A0H.6 SFRSYM    DATA     BIT       DR2_CE
      000000A8H.7 SFRSYM    DATA     BIT       EA
      000000D8H   SFRSYM    DATA     BYTE      EICON
      000000E8H   SFRSYM    DATA     BYTE      EIE
      000000F8H   SFRSYM    DATA     BYTE      EIP
      000000A8H.4 SFRSYM    DATA     BIT       ES
      000000A8H.1 SFRSYM    DATA     BIT       ET0
      000000A8H.3 SFRSYM    DATA     BIT       ET1
      000000A8H.5 SFRSYM    DATA     BIT       ET2
      000000E8H.4 SFRSYM    DATA     BIT       EWDI
      000000A8H   SFRSYM    DATA     BIT       EX0
      000000A8H.2 SFRSYM    DATA     BIT       EX1
      000000E8H   SFRSYM    DATA     BIT       EX2
      000000E8H.1 SFRSYM    DATA     BIT       EX3
      000000E8H.2 SFRSYM    DATA     BIT       EX4
      000000E8H.3 SFRSYM    DATA     BIT       EX5
      000000C8H.3 SFRSYM    DATA     BIT       EXEN2
      000000C8H.6 SFRSYM    DATA     BIT       EXF2
      00000091H   SFRSYM    DATA     BYTE      EXIF
      000000D0H.5 SFRSYM    DATA     BIT       F0
      000000D0H.1 SFRSYM    DATA     BIT       F1
      000000A8H   SFRSYM    DATA     BYTE      IE
      00000088H.1 SFRSYM    DATA     BIT       IE0
      00000088H.3 SFRSYM    DATA     BIT       IE1
      00000080H.3 SFRSYM    DATA     BIT       INT0_N
      00000080H.4 SFRSYM    DATA     BIT       INT1_N
      000000B8H   SFRSYM    DATA     BYTE      IP
      00000088H   SFRSYM    DATA     BIT       IT0
      00000088H.2 SFRSYM    DATA     BIT       IT1
      00000092H   SFRSYM    DATA     BYTE      MPAGE
      000000D0H.2 SFRSYM    DATA     BIT       OV
      000000D0H   SFRSYM    DATA     BIT       P
      00000080H   SFRSYM    DATA     BYTE      P0
      00000080H   SFRSYM    DATA     BIT       P0_0
      00000080H.1 SFRSYM    DATA     BIT       P0_1
      00000080H.2 SFRSYM    DATA     BIT       P0_2
      00000080H.3 SFRSYM    DATA     BIT       P0_3
LX51 LINKER/LOCATER V4.34a                                                            04/29/2009  14:26:02  PAGE 35


      00000080H.4 SFRSYM    DATA     BIT       P0_4
      00000080H.5 SFRSYM    DATA     BIT       P0_5
      00000080H.6 SFRSYM    DATA     BIT       P0_6
      00000080H.7 SFRSYM    DATA     BIT       P0_7
      00000095H   SFRSYM    DATA     BYTE      P0_ALT
      00000094H   SFRSYM    DATA     BYTE      P0_DIR
      00000090H   SFRSYM    DATA     BYTE      P1
      00000090H   SFRSYM    DATA     BIT       P1_0
      00000090H.1 SFRSYM    DATA     BIT       P1_1
      00000090H.2 SFRSYM    DATA     BIT       P1_2
      00000097H   SFRSYM    DATA     BYTE      P1_ALT
      00000096H   SFRSYM    DATA     BYTE      P1_DIR
      00000087H   SFRSYM    DATA     BYTE      PCON
      000000B8H.4 SFRSYM    DATA     BIT       PS
      000000D0H   SFRSYM    DATA     BYTE      PSW
      000000B8H.1 SFRSYM    DATA     BIT       PT0
      000000B8H.3 SFRSYM    DATA     BIT       PT1
      000000B8H.5 SFRSYM    DATA     BIT       PT2
      000000F8H.4 SFRSYM    DATA     BIT       PWDI
      00000080H.7 SFRSYM    DATA     BIT       PWM
      000000A9H   SFRSYM    DATA     BYTE      PWMCON
      000000AAH   SFRSYM    DATA     BYTE      PWMDUTY
      000000A0H.7 SFRSYM    DATA     BIT       PWR_UP
      000000B8H   SFRSYM    DATA     BIT       PX0
      000000B8H.2 SFRSYM    DATA     BIT       PX1
      000000F8H   SFRSYM    DATA     BIT       PX2
      000000F8H.1 SFRSYM    DATA     BIT       PX3
      000000F8H.2 SFRSYM    DATA     BIT       PX4
      000000F8H.3 SFRSYM    DATA     BIT       PX5
      000000A0H   SFRSYM    DATA     BYTE      RADIO
      00000098H.2 SFRSYM    DATA     BIT       RB8
      000000CBH   SFRSYM    DATA     BYTE      RCAP2H
      000000CAH   SFRSYM    DATA     BYTE      RCAP2L
      000000C8H.5 SFRSYM    DATA     BIT       RCLK
      000000ADH   SFRSYM    DATA     BYTE      REGX_CTRL
      000000ACH   SFRSYM    DATA     BYTE      REGX_LSB
      000000ABH   SFRSYM    DATA     BYTE      REGX_MSB
      00000098H.4 SFRSYM    DATA     BIT       REN
      00000098H   SFRSYM    DATA     BIT       RI
      000000D0H.3 SFRSYM    DATA     BIT       RS0
      000000D0H.4 SFRSYM    DATA     BIT       RS1
      000000B1H   SFRSYM    DATA     BYTE      RSTREAS
      00000080H.1 SFRSYM    DATA     BIT       RXD
      00000099H   SFRSYM    DATA     BYTE      SBUF
      00000098H   SFRSYM    DATA     BYTE      SCON
      00000098H.7 SFRSYM    DATA     BIT       SM0
      00000098H.6 SFRSYM    DATA     BIT       SM1
      00000098H.5 SFRSYM    DATA     BIT       SM2
      00000081H   SFRSYM    DATA     BYTE      SP
      0000008FH   SFRSYM    DATA     BYTE      SPC_FNC
      000000B3H   SFRSYM    DATA     BYTE      SPI_CTRL
      000000B2H   SFRSYM    DATA     BYTE      SPI_DATA
      000000B4H   SFRSYM    DATA     BYTE      SPICLK
      00000080H.5 SFRSYM    DATA     BIT       T0
      00000080H.6 SFRSYM    DATA     BIT       T1
      000000BCH   SFRSYM    DATA     BYTE      T1_1V2
      00000090H   SFRSYM    DATA     BIT       T2
      000000BDH   SFRSYM    DATA     BYTE      T2_1V2
      000000C8H   SFRSYM    DATA     BYTE      T2CON
      00000098H.3 SFRSYM    DATA     BIT       TB8
      000000C8H.4 SFRSYM    DATA     BIT       TCLK
      00000088H   SFRSYM    DATA     BYTE      TCON
      000000B7H   SFRSYM    DATA     BYTE      TEST_MODE
      00000088H.5 SFRSYM    DATA     BIT       TF0
      00000088H.7 SFRSYM    DATA     BIT       TF1
LX51 LINKER/LOCATER V4.34a                                                            04/29/2009  14:26:02  PAGE 36


      000000C8H.7 SFRSYM    DATA     BIT       TF2
      0000008CH   SFRSYM    DATA     BYTE      TH0
      0000008DH   SFRSYM    DATA     BYTE      TH1
      000000CDH   SFRSYM    DATA     BYTE      TH2
      00000098H.1 SFRSYM    DATA     BIT       TI
      000000B5H   SFRSYM    DATA     BYTE      TICK_DV
      0000008AH   SFRSYM    DATA     BYTE      TL0
      0000008BH   SFRSYM    DATA     BYTE      TL1
      000000CCH   SFRSYM    DATA     BYTE      TL2
      00000089H   SFRSYM    DATA     BYTE      TMOD
      00000088H.4 SFRSYM    DATA     BIT       TR0
      00000088H.6 SFRSYM    DATA     BIT       TR1
      000000C8H.2 SFRSYM    DATA     BIT       TR2
      00000080H.2 SFRSYM    DATA     BIT       TXD
      000000D8H.3 SFRSYM    DATA     BIT       WDTI
      00000068H   SYMBOL    DATA     BYTE      ?_PUTS?BYTE
      01000726H   SYMBOL    CODE     NEAR LAB  ?C0001
      01000712H   SYMBOL    CODE     NEAR LAB  ?C0002
      0100071AH   SYMBOL    CODE     NEAR LAB  ?C0003
      01000722H   SYMBOL    CODE     NEAR LAB  ?C0004
      0100072AH   SYMBOL    CODE     NEAR LAB  ?C0005
      010008F9H   SYMBOL    CODE     NEAR LAB  ?C0007
      010008FCH   SYMBOL    CODE     NEAR LAB  ?C0008
      010008FFH   SYMBOL    CODE     NEAR LAB  ?C0010
      01000902H   SYMBOL    CODE     NEAR LAB  ?C0011
      01000906H   SYMBOL    CODE     NEAR LAB  ?C0012
      0100083EH   SYMBOL    CODE     NEAR LAB  ?C0014
      0100085CH   SYMBOL    CODE     NEAR LAB  ?C0016
      0100090FH   SYMBOL    CODE     NEAR LAB  ?C0017
      01000786H   SYMBOL    CODE     NEAR LAB  ?C0018
      01000851H   SYMBOL    CODE     NEAR LAB  ?C0020
      010008F7H   SYMBOL    CODE     NEAR LAB  _SERIAL_WRITE
      010006EEH   SYMBOL    CODE     NEAR LAB  _SETUP_BAUDRATE
      00000068H   SYMBOL    DATA     BYTE      S?544
      010008FFH   SYMBOL    CODE     NEAR LAB  SERIAL_READ

      010006EEH   BLOCK     CODE     NEAR LAB  LVL=0
      010006EEH   LINE      CODE     ---       #221
      010006F1H   LINE      CODE     ---       #224
      010006F3H   LINE      CODE     ---       #227
      010006F5H   LINE      CODE     ---       #230
      010006F7H   LINE      CODE     ---       #233
      010006FAH   LINE      CODE     ---       #237
      010006FDH   LINE      CODE     ---       #240
      01000700H   LINE      CODE     ---       #244
      01000701H   LINE      CODE     ---       #245
      01000703H   LINE      CODE     ---       #246
      01000712H   LINE      CODE     ---       #258
      01000715H   LINE      CODE     ---       #261
      01000718H   LINE      CODE     ---       #264
      0100071AH   LINE      CODE     ---       #270
      0100071DH   LINE      CODE     ---       #273
      01000720H   LINE      CODE     ---       #276
      01000722H   LINE      CODE     ---       #283
      01000723H   LINE      CODE     ---       #284
      01000724H   LINE      CODE     ---       #285
      01000725H   LINE      CODE     ---       #286
      01000726H   LINE      CODE     ---       #292
      01000728H   LINE      CODE     ---       #293
      0100072AH   LINE      CODE     ---       #297
      ---         BLOCKEND  ---      ---       LVL=0

      010008E4H   BLOCK     CODE     NEAR LAB  LVL=0
      010008E4H   LINE      CODE     ---       #319
      010008E7H   LINE      CODE     ---       #322
LX51 LINKER/LOCATER V4.34a                                                            04/29/2009  14:26:02  PAGE 37


      010008EAH   LINE      CODE     ---       #325
      010008EDH   LINE      CODE     ---       #328
      ---         BLOCKEND  ---      ---       LVL=0

      010008F7H   BLOCK     CODE     NEAR LAB  LVL=0
      010008F7H   LINE      CODE     ---       #345
      010008F9H   LINE      CODE     ---       #349
      010008FCH   LINE      CODE     ---       #354
      010008FEH   LINE      CODE     ---       #357
      ---         BLOCKEND  ---      ---       LVL=0

      010008FFH   BLOCK     CODE     NEAR LAB  LVL=0
      010008FFH   LINE      CODE     ---       #375
      01000902H   LINE      CODE     ---       #380
      01000904H   LINE      CODE     ---       #383
      01000906H   LINE      CODE     ---       #387
      ---         BLOCKEND  ---      ---       LVL=0

      01000050H   BLOCK     CODE     NEAR LAB  LVL=0
      01000050H   LINE      CODE     ---       #402
      ---         BLOCKEND  ---      ---       LVL=0

      01000838H   BLOCK     CODE     NEAR LAB  LVL=0
      01000838H   LINE      CODE     ---       #413
      0100083AH   LINE      CODE     ---       #414
      0100083CH   LINE      CODE     ---       #415
      0100083EH   LINE      CODE     ---       #421
      01000840H   LINE      CODE     ---       #422
      01000842H   LINE      CODE     ---       #423
      01000844H   LINE      CODE     ---       #424
      01000847H   LINE      CODE     ---       #425
      01000849H   LINE      CODE     ---       #428
      0100084BH   LINE      CODE     ---       #429
      0100084DH   LINE      CODE     ---       #430
      0100084FH   LINE      CODE     ---       #431
      01000851H   LINE      CODE     ---       #433
      01000852H   LINE      CODE     ---       #434
      01000853H   LINE      CODE     ---       #435
      01000856H   LINE      CODE     ---       #436
      01000857H   LINE      CODE     ---       #437
      0100085AH   LINE      CODE     ---       #438
      0100085CH   LINE      CODE     ---       #442
      ---         BLOCKEND  ---      ---       LVL=0

      0100090CH   BLOCK     CODE     NEAR LAB  LVL=0
      0100090CH   LINE      CODE     ---       #456
      0100090FH   LINE      CODE     ---       #460
      ---         BLOCKEND  ---      ---       LVL=0

      01000766H   BLOCK     CODE     NEAR LAB  LVL=0
      01000766H   LINE      CODE     ---       #474
      01000768H   LINE      CODE     ---       #475
      0100076AH   LINE      CODE     ---       #476
      0100076CH   LINE      CODE     ---       #477
      0100076EH   LINE      CODE     ---       #478
      0100076FH   LINE      CODE     ---       #479
      01000771H   LINE      CODE     ---       #483
      01000773H   LINE      CODE     ---       #484
      01000774H   LINE      CODE     ---       #485
      01000775H   LINE      CODE     ---       #486
      01000776H   LINE      CODE     ---       #487
      01000777H   LINE      CODE     ---       #488
      01000778H   LINE      CODE     ---       #489
      0100077AH   LINE      CODE     ---       #490
      0100077CH   LINE      CODE     ---       #491
LX51 LINKER/LOCATER V4.34a                                                            04/29/2009  14:26:02  PAGE 38


      0100077FH   LINE      CODE     ---       #492
      01000780H   LINE      CODE     ---       #493
      01000781H   LINE      CODE     ---       #494
      01000783H   LINE      CODE     ---       #497
      01000786H   LINE      CODE     ---       #501
      01000788H   LINE      CODE     ---       #502
      01000789H   LINE      CODE     ---       #503
      0100078AH   LINE      CODE     ---       #504
      0100078BH   LINE      CODE     ---       #505
      0100078CH   LINE      CODE     ---       #506
      0100078DH   LINE      CODE     ---       #507
      0100078FH   LINE      CODE     ---       #508
      01000791H   LINE      CODE     ---       #509
      01000794H   LINE      CODE     ---       #510
      01000795H   LINE      CODE     ---       #511
      01000797H   LINE      CODE     ---       #512
      01000798H   LINE      CODE     ---       #513
      0100079BH   LINE      CODE     ---       #516
      0100079DH   LINE      CODE     ---       #517
      0100079FH   LINE      CODE     ---       #518
      ---         BLOCKEND  ---      ---       LVL=0

      ---         MODULE    ---      ---       SPI
      01000907H   PUBLIC    CODE     NEAR LAB  _SPI_INIT
      010008CCH   PUBLIC    CODE     NEAR LAB  _SPI_WRITE_THEN_READ
      000000D0H.6 SFRSYM    DATA     BIT       AC
      000000E0H   SFRSYM    DATA     BYTE      ACC
      000000A1H   SFRSYM    DATA     BYTE      ADCCON
      000000A2H   SFRSYM    DATA     BYTE      ADCDATAH
      000000A3H   SFRSYM    DATA     BYTE      ADCDATAL
      000000A4H   SFRSYM    DATA     BYTE      ADCSTATIC
      000000F0H   SFRSYM    DATA     BYTE      B
      000000C8H.1 SFRSYM    DATA     BIT       C_T2
      000000A0H.6 SFRSYM    DATA     BIT       CE
      000000B6H   SFRSYM    DATA     BYTE      CK_CTRL
      0000008EH   SFRSYM    DATA     BYTE      CKCON
      000000A0H.1 SFRSYM    DATA     BIT       CLK1
      000000A0H.5 SFRSYM    DATA     BIT       CLK2
      000000C8H   SFRSYM    DATA     BIT       CP_RL2
      000000C8H   SFRSYM    DATA     BIT       CPRL2
      000000A0H.3 SFRSYM    DATA     BIT       CS
      000000C8H.1 SFRSYM    DATA     BIT       CT2
      000000D0H.7 SFRSYM    DATA     BIT       CY
      000000A0H   SFRSYM    DATA     BIT       DATA?
      000000BEH   SFRSYM    DATA     BYTE      DEV_OFFSET
      00000090H.2 SFRSYM    DATA     BIT       DIN0
      00000090H   SFRSYM    DATA     BIT       DIO0
      00000090H.1 SFRSYM    DATA     BIT       DIO1
      00000080H   SFRSYM    DATA     BIT       DIO2
      00000080H.1 SFRSYM    DATA     BIT       DIO3
      00000080H.2 SFRSYM    DATA     BIT       DIO4
      00000080H.3 SFRSYM    DATA     BIT       DIO5
      00000080H.4 SFRSYM    DATA     BIT       DIO6
      00000080H.5 SFRSYM    DATA     BIT       DIO7
      00000080H.6 SFRSYM    DATA     BIT       DIO8
      00000080H.7 SFRSYM    DATA     BIT       DIO9
      000000A0H.4 SFRSYM    DATA     BIT       DOUT2
      00000083H   SFRSYM    DATA     BYTE      DPH
      00000083H   SFRSYM    DATA     BYTE      DPH0
      00000085H   SFRSYM    DATA     BYTE      DPH1
      00000082H   SFRSYM    DATA     BYTE      DPL
      00000082H   SFRSYM    DATA     BYTE      DPL0
      00000084H   SFRSYM    DATA     BYTE      DPL1
      00000086H   SFRSYM    DATA     BYTE      DPS
      000000A0H.2 SFRSYM    DATA     BIT       DR1
LX51 LINKER/LOCATER V4.34a                                                            04/29/2009  14:26:02  PAGE 39


      000000A0H.6 SFRSYM    DATA     BIT       DR2
      000000A0H.6 SFRSYM    DATA     BIT       DR2_CE
      000000A8H.7 SFRSYM    DATA     BIT       EA
      000000D8H   SFRSYM    DATA     BYTE      EICON
      000000E8H   SFRSYM    DATA     BYTE      EIE
      000000F8H   SFRSYM    DATA     BYTE      EIP
      000000A8H.4 SFRSYM    DATA     BIT       ES
      000000A8H.1 SFRSYM    DATA     BIT       ET0
      000000A8H.3 SFRSYM    DATA     BIT       ET1
      000000A8H.5 SFRSYM    DATA     BIT       ET2
      000000E8H.4 SFRSYM    DATA     BIT       EWDI
      000000A8H   SFRSYM    DATA     BIT       EX0
      000000A8H.2 SFRSYM    DATA     BIT       EX1
      000000E8H   SFRSYM    DATA     BIT       EX2
      000000E8H.1 SFRSYM    DATA     BIT       EX3
      000000E8H.2 SFRSYM    DATA     BIT       EX4
      000000E8H.3 SFRSYM    DATA     BIT       EX5
      000000C8H.3 SFRSYM    DATA     BIT       EXEN2
      000000C8H.6 SFRSYM    DATA     BIT       EXF2
      00000091H   SFRSYM    DATA     BYTE      EXIF
      000000D0H.5 SFRSYM    DATA     BIT       F0
      000000D0H.1 SFRSYM    DATA     BIT       F1
      000000A8H   SFRSYM    DATA     BYTE      IE
      00000088H.1 SFRSYM    DATA     BIT       IE0
      00000088H.3 SFRSYM    DATA     BIT       IE1
      00000080H.3 SFRSYM    DATA     BIT       INT0_N
      00000080H.4 SFRSYM    DATA     BIT       INT1_N
      000000B8H   SFRSYM    DATA     BYTE      IP
      00000088H   SFRSYM    DATA     BIT       IT0
      00000088H.2 SFRSYM    DATA     BIT       IT1
      00000092H   SFRSYM    DATA     BYTE      MPAGE
      000000D0H.2 SFRSYM    DATA     BIT       OV
      000000D0H   SFRSYM    DATA     BIT       P
      00000080H   SFRSYM    DATA     BYTE      P0
      00000080H   SFRSYM    DATA     BIT       P0_0
      00000080H.1 SFRSYM    DATA     BIT       P0_1
      00000080H.2 SFRSYM    DATA     BIT       P0_2
      00000080H.3 SFRSYM    DATA     BIT       P0_3
      00000080H.4 SFRSYM    DATA     BIT       P0_4
      00000080H.5 SFRSYM    DATA     BIT       P0_5
      00000080H.6 SFRSYM    DATA     BIT       P0_6
      00000080H.7 SFRSYM    DATA     BIT       P0_7
      00000095H   SFRSYM    DATA     BYTE      P0_ALT
      00000094H   SFRSYM    DATA     BYTE      P0_DIR
      00000090H   SFRSYM    DATA     BYTE      P1
      00000090H   SFRSYM    DATA     BIT       P1_0
      00000090H.1 SFRSYM    DATA     BIT       P1_1
      00000090H.2 SFRSYM    DATA     BIT       P1_2
      00000097H   SFRSYM    DATA     BYTE      P1_ALT
      00000096H   SFRSYM    DATA     BYTE      P1_DIR
      00000087H   SFRSYM    DATA     BYTE      PCON
      000000B8H.4 SFRSYM    DATA     BIT       PS
      000000D0H   SFRSYM    DATA     BYTE      PSW
      000000B8H.1 SFRSYM    DATA     BIT       PT0
      000000B8H.3 SFRSYM    DATA     BIT       PT1
      000000B8H.5 SFRSYM    DATA     BIT       PT2
      000000F8H.4 SFRSYM    DATA     BIT       PWDI
      00000080H.7 SFRSYM    DATA     BIT       PWM
      000000A9H   SFRSYM    DATA     BYTE      PWMCON
      000000AAH   SFRSYM    DATA     BYTE      PWMDUTY
      000000A0H.7 SFRSYM    DATA     BIT       PWR_UP
      000000B8H   SFRSYM    DATA     BIT       PX0
      000000B8H.2 SFRSYM    DATA     BIT       PX1
      000000F8H   SFRSYM    DATA     BIT       PX2
      000000F8H.1 SFRSYM    DATA     BIT       PX3
LX51 LINKER/LOCATER V4.34a                                                            04/29/2009  14:26:02  PAGE 40


      000000F8H.2 SFRSYM    DATA     BIT       PX4
      000000F8H.3 SFRSYM    DATA     BIT       PX5
      000000A0H   SFRSYM    DATA     BYTE      RADIO
      00000098H.2 SFRSYM    DATA     BIT       RB8
      000000CBH   SFRSYM    DATA     BYTE      RCAP2H
      000000CAH   SFRSYM    DATA     BYTE      RCAP2L
      000000C8H.5 SFRSYM    DATA     BIT       RCLK
      000000ADH   SFRSYM    DATA     BYTE      REGX_CTRL
      000000ACH   SFRSYM    DATA     BYTE      REGX_LSB
      000000ABH   SFRSYM    DATA     BYTE      REGX_MSB
      00000098H.4 SFRSYM    DATA     BIT       REN
      00000098H   SFRSYM    DATA     BIT       RI
      000000D0H.3 SFRSYM    DATA     BIT       RS0
      000000D0H.4 SFRSYM    DATA     BIT       RS1
      000000B1H   SFRSYM    DATA     BYTE      RSTREAS
      00000080H.1 SFRSYM    DATA     BIT       RXD
      00000099H   SFRSYM    DATA     BYTE      SBUF
      00000098H   SFRSYM    DATA     BYTE      SCON
      00000098H.7 SFRSYM    DATA     BIT       SM0
      00000098H.6 SFRSYM    DATA     BIT       SM1
      00000098H.5 SFRSYM    DATA     BIT       SM2
      00000081H   SFRSYM    DATA     BYTE      SP
      0000008FH   SFRSYM    DATA     BYTE      SPC_FNC
      000000B3H   SFRSYM    DATA     BYTE      SPI_CTRL
      000000B2H   SFRSYM    DATA     BYTE      SPI_DATA
      000000B4H   SFRSYM    DATA     BYTE      SPICLK
      00000080H.5 SFRSYM    DATA     BIT       T0
      00000080H.6 SFRSYM    DATA     BIT       T1
      000000BCH   SFRSYM    DATA     BYTE      T1_1V2
      00000090H   SFRSYM    DATA     BIT       T2
      000000BDH   SFRSYM    DATA     BYTE      T2_1V2
      000000C8H   SFRSYM    DATA     BYTE      T2CON
      00000098H.3 SFRSYM    DATA     BIT       TB8
      000000C8H.4 SFRSYM    DATA     BIT       TCLK
      00000088H   SFRSYM    DATA     BYTE      TCON
      000000B7H   SFRSYM    DATA     BYTE      TEST_MODE
      00000088H.5 SFRSYM    DATA     BIT       TF0
      00000088H.7 SFRSYM    DATA     BIT       TF1
      000000C8H.7 SFRSYM    DATA     BIT       TF2
      0000008CH   SFRSYM    DATA     BYTE      TH0
      0000008DH   SFRSYM    DATA     BYTE      TH1
      000000CDH   SFRSYM    DATA     BYTE      TH2
      00000098H.1 SFRSYM    DATA     BIT       TI
      000000B5H   SFRSYM    DATA     BYTE      TICK_DV
      0000008AH   SFRSYM    DATA     BYTE      TL0
      0000008BH   SFRSYM    DATA     BYTE      TL1
      000000CCH   SFRSYM    DATA     BYTE      TL2
      00000089H   SFRSYM    DATA     BYTE      TMOD
      00000088H.4 SFRSYM    DATA     BIT       TR0
      00000088H.6 SFRSYM    DATA     BIT       TR1
      000000C8H.2 SFRSYM    DATA     BIT       TR2
      00000080H.2 SFRSYM    DATA     BIT       TXD
      000000D8H.3 SFRSYM    DATA     BIT       WDTI
      010008D1H   SYMBOL    CODE     NEAR LAB  ?C0002
      010008D6H   SYMBOL    CODE     NEAR LAB  ?C0003
      010008D8H   SYMBOL    CODE     NEAR LAB  ?C0004

      01000907H   BLOCK     CODE     NEAR LAB  LVL=0
      01000907H   LINE      CODE     ---       #203
      01000909H   LINE      CODE     ---       #206
      0100090BH   LINE      CODE     ---       #209
      ---         BLOCKEND  ---      ---       LVL=0

      010008CCH   BLOCK     CODE     NEAR LAB  LVL=0
      010008CCH   LINE      CODE     ---       #229
LX51 LINKER/LOCATER V4.34a                                                            04/29/2009  14:26:02  PAGE 41


      010008CFH   LINE      CODE     ---       #232
      010008D1H   LINE      CODE     ---       #236
      010008D3H   LINE      CODE     ---       #237
      010008D6H   LINE      CODE     ---       #242
      010008D8H   LINE      CODE     ---       #246
      ---         BLOCKEND  ---      ---       LVL=0

      ---         MODULE    ---      ---       EEPROM
      0100080CH   PUBLIC    CODE     NEAR LAB  _EEPROM_READ
      0100072BH   PUBLIC    CODE     NEAR LAB  _EEPROM_WRITE
      010008D9H   PUBLIC    CODE     NEAR LAB  EEPROM_INIT
      010008A2H   PUBLIC    CODE     NEAR LAB  EEPROM_STATUS
      0100085DH   PUBLIC    CODE     NEAR LAB  FLASH_ERASE_ALL
      000000D0H.6 SFRSYM    DATA     BIT       AC
      000000E0H   SFRSYM    DATA     BYTE      ACC
      000000A1H   SFRSYM    DATA     BYTE      ADCCON
      000000A2H   SFRSYM    DATA     BYTE      ADCDATAH
      000000A3H   SFRSYM    DATA     BYTE      ADCDATAL
      000000A4H   SFRSYM    DATA     BYTE      ADCSTATIC
      000000F0H   SFRSYM    DATA     BYTE      B
      000000C8H.1 SFRSYM    DATA     BIT       C_T2
      000000A0H.6 SFRSYM    DATA     BIT       CE
      000000B6H   SFRSYM    DATA     BYTE      CK_CTRL
      0000008EH   SFRSYM    DATA     BYTE      CKCON
      000000A0H.1 SFRSYM    DATA     BIT       CLK1
      000000A0H.5 SFRSYM    DATA     BIT       CLK2
      000000C8H   SFRSYM    DATA     BIT       CP_RL2
      000000C8H   SFRSYM    DATA     BIT       CPRL2
      000000A0H.3 SFRSYM    DATA     BIT       CS
      000000C8H.1 SFRSYM    DATA     BIT       CT2
      000000D0H.7 SFRSYM    DATA     BIT       CY
      000000A0H   SFRSYM    DATA     BIT       DATA?
      000000BEH   SFRSYM    DATA     BYTE      DEV_OFFSET
      00000090H.2 SFRSYM    DATA     BIT       DIN0
      00000090H   SFRSYM    DATA     BIT       DIO0
      00000090H.1 SFRSYM    DATA     BIT       DIO1
      00000080H   SFRSYM    DATA     BIT       DIO2
      00000080H.1 SFRSYM    DATA     BIT       DIO3
      00000080H.2 SFRSYM    DATA     BIT       DIO4
      00000080H.3 SFRSYM    DATA     BIT       DIO5
      00000080H.4 SFRSYM    DATA     BIT       DIO6
      00000080H.5 SFRSYM    DATA     BIT       DIO7
      00000080H.6 SFRSYM    DATA     BIT       DIO8
      00000080H.7 SFRSYM    DATA     BIT       DIO9
      000000A0H.4 SFRSYM    DATA     BIT       DOUT2
      00000083H   SFRSYM    DATA     BYTE      DPH
      00000083H   SFRSYM    DATA     BYTE      DPH0
      00000085H   SFRSYM    DATA     BYTE      DPH1
      00000082H   SFRSYM    DATA     BYTE      DPL
      00000082H   SFRSYM    DATA     BYTE      DPL0
      00000084H   SFRSYM    DATA     BYTE      DPL1
      00000086H   SFRSYM    DATA     BYTE      DPS
      000000A0H.2 SFRSYM    DATA     BIT       DR1
      000000A0H.6 SFRSYM    DATA     BIT       DR2
      000000A0H.6 SFRSYM    DATA     BIT       DR2_CE
      000000A8H.7 SFRSYM    DATA     BIT       EA
      000000D8H   SFRSYM    DATA     BYTE      EICON
      000000E8H   SFRSYM    DATA     BYTE      EIE
      000000F8H   SFRSYM    DATA     BYTE      EIP
      000000A8H.4 SFRSYM    DATA     BIT       ES
      000000A8H.1 SFRSYM    DATA     BIT       ET0
      000000A8H.3 SFRSYM    DATA     BIT       ET1
      000000A8H.5 SFRSYM    DATA     BIT       ET2
      000000E8H.4 SFRSYM    DATA     BIT       EWDI
      000000A8H   SFRSYM    DATA     BIT       EX0
LX51 LINKER/LOCATER V4.34a                                                            04/29/2009  14:26:02  PAGE 42


      000000A8H.2 SFRSYM    DATA     BIT       EX1
      000000E8H   SFRSYM    DATA     BIT       EX2
      000000E8H.1 SFRSYM    DATA     BIT       EX3
      000000E8H.2 SFRSYM    DATA     BIT       EX4
      000000E8H.3 SFRSYM    DATA     BIT       EX5
      000000C8H.3 SFRSYM    DATA     BIT       EXEN2
      000000C8H.6 SFRSYM    DATA     BIT       EXF2
      00000091H   SFRSYM    DATA     BYTE      EXIF
      000000D0H.5 SFRSYM    DATA     BIT       F0
      000000D0H.1 SFRSYM    DATA     BIT       F1
      000000A8H   SFRSYM    DATA     BYTE      IE
      00000088H.1 SFRSYM    DATA     BIT       IE0
      00000088H.3 SFRSYM    DATA     BIT       IE1
      00000080H.3 SFRSYM    DATA     BIT       INT0_N
      00000080H.4 SFRSYM    DATA     BIT       INT1_N
      000000B8H   SFRSYM    DATA     BYTE      IP
      00000088H   SFRSYM    DATA     BIT       IT0
      00000088H.2 SFRSYM    DATA     BIT       IT1
      00000092H   SFRSYM    DATA     BYTE      MPAGE
      000000D0H.2 SFRSYM    DATA     BIT       OV
      000000D0H   SFRSYM    DATA     BIT       P
      00000080H   SFRSYM    DATA     BYTE      P0
      00000080H   SFRSYM    DATA     BIT       P0_0
      00000080H.1 SFRSYM    DATA     BIT       P0_1
      00000080H.2 SFRSYM    DATA     BIT       P0_2
      00000080H.3 SFRSYM    DATA     BIT       P0_3
      00000080H.4 SFRSYM    DATA     BIT       P0_4
      00000080H.5 SFRSYM    DATA     BIT       P0_5
      00000080H.6 SFRSYM    DATA     BIT       P0_6
      00000080H.7 SFRSYM    DATA     BIT       P0_7
      00000095H   SFRSYM    DATA     BYTE      P0_ALT
      00000094H   SFRSYM    DATA     BYTE      P0_DIR
      00000090H   SFRSYM    DATA     BYTE      P1
      00000090H   SFRSYM    DATA     BIT       P1_0
      00000090H.1 SFRSYM    DATA     BIT       P1_1
      00000090H.2 SFRSYM    DATA     BIT       P1_2
      00000097H   SFRSYM    DATA     BYTE      P1_ALT
      00000096H   SFRSYM    DATA     BYTE      P1_DIR
      00000087H   SFRSYM    DATA     BYTE      PCON
      000000B8H.4 SFRSYM    DATA     BIT       PS
      000000D0H   SFRSYM    DATA     BYTE      PSW
      000000B8H.1 SFRSYM    DATA     BIT       PT0
      000000B8H.3 SFRSYM    DATA     BIT       PT1
      000000B8H.5 SFRSYM    DATA     BIT       PT2
      000000F8H.4 SFRSYM    DATA     BIT       PWDI
      00000080H.7 SFRSYM    DATA     BIT       PWM
      000000A9H   SFRSYM    DATA     BYTE      PWMCON
      000000AAH   SFRSYM    DATA     BYTE      PWMDUTY
      000000A0H.7 SFRSYM    DATA     BIT       PWR_UP
      000000B8H   SFRSYM    DATA     BIT       PX0
      000000B8H.2 SFRSYM    DATA     BIT       PX1
      000000F8H   SFRSYM    DATA     BIT       PX2
      000000F8H.1 SFRSYM    DATA     BIT       PX3
      000000F8H.2 SFRSYM    DATA     BIT       PX4
      000000F8H.3 SFRSYM    DATA     BIT       PX5
      000000A0H   SFRSYM    DATA     BYTE      RADIO
      00000098H.2 SFRSYM    DATA     BIT       RB8
      000000CBH   SFRSYM    DATA     BYTE      RCAP2H
      000000CAH   SFRSYM    DATA     BYTE      RCAP2L
      000000C8H.5 SFRSYM    DATA     BIT       RCLK
      000000ADH   SFRSYM    DATA     BYTE      REGX_CTRL
      000000ACH   SFRSYM    DATA     BYTE      REGX_LSB
      000000ABH   SFRSYM    DATA     BYTE      REGX_MSB
      00000098H.4 SFRSYM    DATA     BIT       REN
      00000098H   SFRSYM    DATA     BIT       RI
LX51 LINKER/LOCATER V4.34a                                                            04/29/2009  14:26:02  PAGE 43


      000000D0H.3 SFRSYM    DATA     BIT       RS0
      000000D0H.4 SFRSYM    DATA     BIT       RS1
      000000B1H   SFRSYM    DATA     BYTE      RSTREAS
      00000080H.1 SFRSYM    DATA     BIT       RXD
      00000099H   SFRSYM    DATA     BYTE      SBUF
      00000098H   SFRSYM    DATA     BYTE      SCON
      00000098H.7 SFRSYM    DATA     BIT       SM0
      00000098H.6 SFRSYM    DATA     BIT       SM1
      00000098H.5 SFRSYM    DATA     BIT       SM2
      00000081H   SFRSYM    DATA     BYTE      SP
      0000008FH   SFRSYM    DATA     BYTE      SPC_FNC
      000000B3H   SFRSYM    DATA     BYTE      SPI_CTRL
      000000B2H   SFRSYM    DATA     BYTE      SPI_DATA
      000000B4H   SFRSYM    DATA     BYTE      SPICLK
      00000080H.5 SFRSYM    DATA     BIT       T0
      00000080H.6 SFRSYM    DATA     BIT       T1
      000000BCH   SFRSYM    DATA     BYTE      T1_1V2
      00000090H   SFRSYM    DATA     BIT       T2
      000000BDH   SFRSYM    DATA     BYTE      T2_1V2
      000000C8H   SFRSYM    DATA     BYTE      T2CON
      00000098H.3 SFRSYM    DATA     BIT       TB8
      000000C8H.4 SFRSYM    DATA     BIT       TCLK
      00000088H   SFRSYM    DATA     BYTE      TCON
      000000B7H   SFRSYM    DATA     BYTE      TEST_MODE
      00000088H.5 SFRSYM    DATA     BIT       TF0
      00000088H.7 SFRSYM    DATA     BIT       TF1
      000000C8H.7 SFRSYM    DATA     BIT       TF2
      0000008CH   SFRSYM    DATA     BYTE      TH0
      0000008DH   SFRSYM    DATA     BYTE      TH1
      000000CDH   SFRSYM    DATA     BYTE      TH2
      00000098H.1 SFRSYM    DATA     BIT       TI
      000000B5H   SFRSYM    DATA     BYTE      TICK_DV
      0000008AH   SFRSYM    DATA     BYTE      TL0
      0000008BH   SFRSYM    DATA     BYTE      TL1
      000000CCH   SFRSYM    DATA     BYTE      TL2
      00000089H   SFRSYM    DATA     BYTE      TMOD
      00000088H.4 SFRSYM    DATA     BIT       TR0
      00000088H.6 SFRSYM    DATA     BIT       TR1
      000000C8H.2 SFRSYM    DATA     BIT       TR2
      00000080H.2 SFRSYM    DATA     BIT       TXD
      000000D8H.3 SFRSYM    DATA     BIT       WDTI
      0000006EH   SYMBOL    DATA     BYTE      ?_EEPROM_READ?BYTE
      0000006BH   SYMBOL    DATA     BYTE      ?_EEPROM_WRITE?BYTE
      010008B0H   SYMBOL    CODE     NEAR LAB  ?C0002
      01000731H   SYMBOL    CODE     NEAR LAB  ?C0003
      01000738H   SYMBOL    CODE     NEAR LAB  ?C0004
      01000813H   SYMBOL    CODE     NEAR LAB  ?C0006
      0100081AH   SYMBOL    CODE     NEAR LAB  ?C0007
      01000837H   SYMBOL    CODE     NEAR LAB  ?C0008
      0100085DH   SYMBOL    CODE     NEAR LAB  ?C0009
      01000864H   SYMBOL    CODE     NEAR LAB  ?C0010
      01000876H   SYMBOL    CODE     NEAR LAB  ?C0012
      0000006BH   SYMBOL    DATA     BYTE      ADDR?241
      0000006EH   SYMBOL    DATA     BYTE      ADDR?343
      0000006DH   SYMBOL    DATA     BYTE      BYTE?242
      00000070H   SYMBOL    DATA     BYTE      BYTE?344

      010008D9H   BLOCK     CODE     NEAR LAB  LVL=0
      010008D9H   LINE      CODE     ---       #244
      010008DAH   LINE      CODE     ---       #245
      010008DBH   LINE      CODE     ---       #246
      010008DDH   LINE      CODE     ---       #247
      010008E0H   LINE      CODE     ---       #251
      010008E3H   LINE      CODE     ---       #254
      ---         BLOCKEND  ---      ---       LVL=0
LX51 LINKER/LOCATER V4.34a                                                            04/29/2009  14:26:02  PAGE 44



      010008A2H   BLOCK     CODE     NEAR LAB  LVL=0
      010008A2H   LINE      CODE     ---       #270
      010008A4H   LINE      CODE     ---       #273
      010008A6H   LINE      CODE     ---       #274
      010008A9H   LINE      CODE     ---       #278
      010008AAH   LINE      CODE     ---       #279
      010008ABH   LINE      CODE     ---       #280
      010008AEH   LINE      CODE     ---       #284
      010008B0H   LINE      CODE     ---       #291
      ---         BLOCKEND  ---      ---       LVL=0

      0100072BH   BLOCK     CODE     NEAR LAB  LVL=0
      0100072BH   LINE      CODE     ---       #305
      0100072DH   LINE      CODE     ---       #306
      0100072FH   LINE      CODE     ---       #307
      01000731H   LINE      CODE     ---       #313
      01000734H   LINE      CODE     ---       #314
      01000735H   LINE      CODE     ---       #315
      01000738H   LINE      CODE     ---       #320
      0100073AH   LINE      CODE     ---       #323
      0100073CH   LINE      CODE     ---       #324
      0100073FH   LINE      CODE     ---       #327
      01000741H   LINE      CODE     ---       #330
      01000743H   LINE      CODE     ---       #333
      01000745H   LINE      CODE     ---       #334
      01000748H   LINE      CODE     ---       #337
      0100074AH   LINE      CODE     ---       #338
      0100074BH   LINE      CODE     ---       #339
      0100074EH   LINE      CODE     ---       #342
      01000750H   LINE      CODE     ---       #343
      01000752H   LINE      CODE     ---       #344
      01000755H   LINE      CODE     ---       #347
      01000757H   LINE      CODE     ---       #348
      0100075AH   LINE      CODE     ---       #351
      0100075CH   LINE      CODE     ---       #354
      0100075EH   LINE      CODE     ---       #357
      01000760H   LINE      CODE     ---       #358
      01000763H   LINE      CODE     ---       #361
      01000765H   LINE      CODE     ---       #364
      ---         BLOCKEND  ---      ---       LVL=0

      0100080CH   BLOCK     CODE     NEAR LAB  LVL=0
      0100080CH   LINE      CODE     ---       #377
      0100080EH   LINE      CODE     ---       #378
      01000810H   LINE      CODE     ---       #383
      01000811H   LINE      CODE     ---       #384
      01000813H   LINE      CODE     ---       #388
      01000816H   LINE      CODE     ---       #389
      01000817H   LINE      CODE     ---       #390
      0100081AH   LINE      CODE     ---       #395
      0100081CH   LINE      CODE     ---       #398
      0100081EH   LINE      CODE     ---       #399
      01000821H   LINE      CODE     ---       #402
      01000823H   LINE      CODE     ---       #403
      01000824H   LINE      CODE     ---       #404
      01000827H   LINE      CODE     ---       #407
      01000829H   LINE      CODE     ---       #408
      0100082BH   LINE      CODE     ---       #409
      0100082EH   LINE      CODE     ---       #412
      0100082FH   LINE      CODE     ---       #413
      01000830H   LINE      CODE     ---       #414
      01000833H   LINE      CODE     ---       #415
      01000835H   LINE      CODE     ---       #418
      01000837H   LINE      CODE     ---       #424
LX51 LINKER/LOCATER V4.34a                                                            04/29/2009  14:26:02  PAGE 45


      ---         BLOCKEND  ---      ---       LVL=0

      0100085DH   BLOCK     CODE     NEAR LAB  LVL=0
      0100085DH   LINE      CODE     ---       #440
      01000860H   LINE      CODE     ---       #441
      01000861H   LINE      CODE     ---       #442
      01000864H   LINE      CODE     ---       #447
      01000866H   LINE      CODE     ---       #450
      01000868H   LINE      CODE     ---       #451
      0100086BH   LINE      CODE     ---       #454
      0100086DH   LINE      CODE     ---       #457
      0100086FH   LINE      CODE     ---       #460
      01000871H   LINE      CODE     ---       #461
      01000874H   LINE      CODE     ---       #464
      01000876H   LINE      CODE     ---       #472
      01000878H   LINE      CODE     ---       #475
      0100087AH   LINE      CODE     ---       #476
      0100087DH   LINE      CODE     ---       #479
      0100087FH   LINE      CODE     ---       #482
      ---         BLOCKEND  ---      ---       LVL=0

      ---         MODULE    ---      ---       ?C_STARTUP
      01000000H   PUBLIC    CODE     ---       ?C_STARTUP

      ---         MODULE    ---      ---       ?C?CLDPTR
      01000280H   PUBLIC    CODE     ---       ?C?CLDPTR

      ---         MODULE    ---      ---       ?C?CLDOPTR
      01000299H   PUBLIC    CODE     ---       ?C?CLDOPTR

      ---         MODULE    ---      ---       ?C?CSTPTR
      010002C6H   PUBLIC    CODE     ---       ?C?CSTPTR

      ---         MODULE    ---      ---       ?C?UIDIV
      010002D8H   PUBLIC    CODE     ---       ?C?UIDIV

      ---         MODULE    ---      ---       ?C?LMUL
      0100032DH   PUBLIC    CODE     ---       ?C?LMUL

      ---         MODULE    ---      ---       ?C?ULDIV
      010003B8H   PUBLIC    CODE     ---       ?C?ULDIV

      ---         MODULE    ---      ---       ?C?ICASE
      0100044AH   PUBLIC    CODE     ---       ?C?ICASE

      ---         MODULE    ---      ---       ?C?ICALL
      01000477H   PUBLIC    CODE     ---       ?C?ICALL
      0100047BH   PUBLIC    CODE     ---       ?C?ICALL2

      ---         MODULE    ---      ---       ?C_IBP
      00000075H   PUBLIC    DATA     ---       ?C_IBP

      ---         MODULE    ---      ---       ?C_INIT
      010005BCH   PUBLIC    CODE     ---       ?C_START

Program Size: data=178.0 xdata=0 const=0 code=2473
LX51 RUN COMPLETE.  0 WARNING(S),  0 ERROR(S)
