LX51 LINKER/LOCATER V4.34a                                                              05/05/2009  14:28:33  PAGE 1


LX51 LINKER/LOCATER V4.34a, INVOKED BY:
C:\KEIL\C51\BIN\LX51.EXE MAIN.OBJ, ISR_RF.OBJ, ECO_PAGE.OBJ, ADC.OBJ, UTILS.OBJ, SERIAL.OBJ, SPI.OBJ, EEPROM.OBJ, C51S.L
>> IB, C51FPL.LIB TO MAIN SEGMENTS (?PR?_BITREV?MAIN (C:0X1000)) SEGMENTS (?PR?_LOG_2?MAIN (C:0X1055)) SEGMENTS (?PR?_CO
>> MPUTE_W?MAIN (C:0X1100)) SEGMENTS (?PR?_EEPROM_WRITE?EEPROM (C:0X3000)) SEGMENTS (?PR?ECO_PAGE_INIT?ECO_PAGE (C:0X303
>> B)) SEGMENTS (?PR?_SERIAL_WRITE?SERIAL (C:0X3047)) SEGMENTS (?PR?RF_WAIT_MSG?ISR_RF (C:0X304F)) SEGMENTS (?PR?RF_CH1_
>> RECV?ISR_RF (C:0X3058)) SEGMENTS (?PR?FLASH_ERASE_ALL?EEPROM (C:0X30B8))


CPU MODE:     8051 MODE


INPUT MODULES INCLUDED:
  MAIN.OBJ (MAIN)
         COMMENT TYPE 0: AX51 V3.06a
  ISR_RF.OBJ (ISR_RF)
         COMMENT TYPE 0: AX51 V3.06a
  ECO_PAGE.OBJ (ECO_PAGE)
         COMMENT TYPE 0: AX51 V3.06a
  ADC.OBJ (ADC)
         COMMENT TYPE 0: AX51 V3.06a
  UTILS.OBJ (UTILS)
         COMMENT TYPE 0: AX51 V3.06a
  SERIAL.OBJ (SERIAL)
         COMMENT TYPE 0: AX51 V3.06a
  SPI.OBJ (SPI)
         COMMENT TYPE 0: AX51 V3.06a
  EEPROM.OBJ (EEPROM)
         COMMENT TYPE 0: AX51 V3.06a
  C51S.LIB (?C_STARTUP)
         COMMENT TYPE 1: A51 / ASM51 Assembler
  C51S.LIB (?C?CLDPTR)
         COMMENT TYPE 1: A51 / ASM51 Assembler
  C51S.LIB (?C?CLDOPTR)
         COMMENT TYPE 1: A51 / ASM51 Assembler
  C51S.LIB (?C?CSTPTR)
         COMMENT TYPE 1: A51 / ASM51 Assembler
  C51S.LIB (?C?IMUL)
         COMMENT TYPE 1: A51 / ASM51 Assembler
  C51S.LIB (?C?UIDIV)
         COMMENT TYPE 1: A51 / ASM51 Assembler
  C51S.LIB (?C?SIDIV)
         COMMENT TYPE 1: A51 / ASM51 Assembler
  C51S.LIB (?C?ILDOPTR)
         COMMENT TYPE 1: A51 / ASM51 Assembler
  C51S.LIB (?C?ISTOPTR)
         COMMENT TYPE 1: A51 / ASM51 Assembler
  C51S.LIB (?C?LMUL)
         COMMENT TYPE 1: A51 / ASM51 Assembler
  C51S.LIB (?C?ULDIV)
         COMMENT TYPE 1: A51 / ASM51 Assembler
  C51S.LIB (?C?ICASE)
         COMMENT TYPE 1: A51 / ASM51 Assembler
  C51S.LIB (?C_IBP)
         COMMENT TYPE 1: A51 / ASM51 Assembler
  C51S.LIB (?C_INIT)
         COMMENT TYPE 1: A51 / ASM51 Assembler
  C51FPL.LIB (?C?FCAST)
         COMMENT TYPE 1: A51 / ASM51 Assembler
  C51FPL.LIB (?C?CASTF)
         COMMENT TYPE 1: A51 / ASM51 Assembler
  C51FPL.LIB (SIN)
         COMMENT TYPE 1: A51 / ASM51 Assembler
  C51FPL.LIB (?C?FPGETOPN)
         COMMENT TYPE 1: A51 / ASM51 Assembler
  C51FPL.LIB (?C?FPADD)
         COMMENT TYPE 1: A51 / ASM51 Assembler
LX51 LINKER/LOCATER V4.34a                                                            05/05/2009  14:28:33  PAGE 2


  C51FPL.LIB (?C?FPMUL)
         COMMENT TYPE 1: A51 / ASM51 Assembler
  C51FPL.LIB (?C?FPDIV)
         COMMENT TYPE 1: A51 / ASM51 Assembler
  C51FPL.LIB (?C?FPSERIES)
         COMMENT TYPE 1: A51 / ASM51 Assembler
  C51S.LIB (?C?LNEG)
         COMMENT TYPE 1: A51 / ASM51 Assembler
  C51S.LIB (?C?LLDCODE)
         COMMENT TYPE 1: A51 / ASM51 Assembler
  C51S.LIB (?C?LLDXDATA0)
         COMMENT TYPE 1: A51 / ASM51 Assembler
  C51S.LIB (?C?LLDCODE0)
         COMMENT TYPE 1: A51 / ASM51 Assembler
  C51S.LIB (?C?LSTXDATA)
         COMMENT TYPE 1: A51 / ASM51 Assembler


ACTIVE MEMORY CLASSES OF MODULE:  MAIN (MAIN)

BASE        START       END         USED      MEMORY CLASS
==========================================================
C:000000H   C:000000H   C:00FFFFH   00131FH   CODE
I:000000H   I:000000H   I:00007FH   00007BH   DATA
I:000000H   I:000000H   I:0000FFH   000064H   IDATA
I:000020H.0 I:000020H.0 I:00002FH.7 000000H.1 BIT
X:000000H   X:000000H   X:00FFFFH   000004H   XDATA


MEMORY MAP OF MODULE:  MAIN (MAIN)


START     STOP      LENGTH    ALIGN  RELOC    MEMORY CLASS   SEGMENT NAME
=========================================================================

* * * * * * * * * * *   D A T A   M E M O R Y   * * * * * * * * * * * * *
000000H   000007H   000008H   ---    AT..     DATA           "REG BANK 0"
000008H   00001FH   000018H   BYTE   UNIT     DATA           ?DT?ISR_RF
000020H.0 000020H.0 000000H.1 BIT    UNIT     BIT            ?BI?SIN?SIN
000020H.1 000020H   000000H.7 ---    ---      **GAP**
000021H   00002EH   00000EH   BYTE   UNIT     DATA           ?DT?_FFT?MAIN
00002FH   000038H   00000AH   BYTE   UNIT     DATA           ?DT?_COMPUTE_W?MAIN
000039H   000042H   00000AH   BYTE   UNIT     DATA           ?DT?_RF_SEND?ISR_RF
000043H   00004CH   00000AH   BYTE   UNIT     DATA           ?DT?ECO_PAGE
00004DH   000054H   000008H   BYTE   UNIT     DATA           ?DT?_PERMUTE_BITREV?MAIN
000055H   00005CH   000008H   BYTE   UNIT     DATA           ?DT?_STRNCPY?UTILS
00005DH   000062H   000006H   BYTE   UNIT     DATA           ?DT?ECO_PAGE_MANAGER?ECO_PAGE
000063H   000067H   000005H   BYTE   UNIT     DATA           ?DT?_RF_CONFIGURE?ISR_RF
000068H   00006BH   000004H   BYTE   UNIT     DATA           ?DT?UTILS
00006CH   00006EH   000003H   BYTE   UNIT     DATA           ?DT?_PUTS?SERIAL
00006FH   000071H   000003H   BYTE   UNIT     DATA           ?DT?_EEPROM_WRITE?EEPROM
000072H   000074H   000003H   BYTE   UNIT     DATA           ?DT?_EEPROM_READ?EEPROM
000075H   000076H   000002H   BYTE   UNIT     DATA           ?DT?_BITREV?MAIN
000077H   000078H   000002H   BYTE   UNIT     DATA           ?DT?RF_CH1_RECV?ISR_RF
000079H   00007AH   000002H   BYTE   UNIT     DATA           ?DT?_MDELAY?UTILS
00007BH   00007BH   000001H   BYTE   UNIT     DATA           ?C?LIB_DATA
00007CH   0000ADH   000032H   BYTE   UNIT     IDATA          ?ID?MAIN?MAIN
0000AEH   0000C3H   000016H   BYTE   UNIT     IDATA          ?ID?_FFT?MAIN
0000C4H   0000CDH   00000AH   BYTE   UNIT     IDATA          ?ID?_PERMUTE_BITREV?MAIN
0000CEH   0000D4H   000007H   BYTE   UNIT     IDATA          ?ID?ECO_PAGE
0000D5H   0000D8H   000004H   BYTE   UNIT     IDATA          ?ID?_BITREV?MAIN
0000D9H   0000DCH   000004H   BYTE   UNIT     IDATA          ?ID?_COMPUTE_W?MAIN
0000DDH   0000DEH   000002H   BYTE   UNIT     IDATA          ?ID?_LOG_2?MAIN
0000DFH   0000DFH   000001H   BYTE   UNIT     IDATA          ?STACK

LX51 LINKER/LOCATER V4.34a                                                            05/05/2009  14:28:33  PAGE 3


* * * * * * * * * * *   C O D E   M E M O R Y   * * * * * * * * * * * * *
000000H   000002H   000003H   ---    OFFS..   CODE           ?CO??C_STARTUP?0
000003H   00004FH   00004DH   BYTE   UNIT     CODE           ?PR?P_ADC_READ?ADC
000050H   000052H   000003H   BYTE   UNIT     CODE           ?PR?_PUTC?SERIAL
000053H   000055H   000003H   ---    OFFS..   CODE           ?CO?ISR_RF?11
000056H   0006E9H   000694H   BYTE   UNIT     CODE           ?C?LIB_CODE
0006EAH   000963H   00027AH   BYTE   UNIT     CODE           ?PR?_FFT?MAIN
000964H   000AEBH   000188H   BYTE   UNIT     CODE           ?PR?SIN?SIN
000AECH   000C1AH   00012FH   BYTE   UNIT     CODE           ?PR?_PERMUTE_BITREV?MAIN
000C1BH   000CF9H   0000DFH   BYTE   UNIT     CODE           ?PR?ECO_PAGE_MANAGER?ECO_PAGE
000CFAH   000DA5H   0000ACH   BYTE   UNIT     CODE           ?PR?MAIN?MAIN
000DA6H   000E31H   00008CH   BYTE   UNIT     CODE           ?C_C51STARTUP
000E32H   000E9CH   00006BH   BYTE   UNIT     CODE           ?PR?_RF_SEND?ISR_RF
000E9DH   000EE5H   000049H   BYTE   UNIT     CODE           ?PR?_MDELAY?UTILS
000EE6H   000F29H   000044H   BYTE   UNIT     CODE           ?PR?_STRNCPY?UTILS
000F2AH   000F66H   00003DH   BYTE   UNIT     CODE           ?PR?_SETUP_BAUDRATE?SERIAL
000F67H   000FA0H   00003AH   BYTE   UNIT     CODE           ?PR?_?INT_PRINT?SERIAL
000FA1H   000FD6H   000036H   BYTE   UNIT     CODE           ?PR?_RF_CONFIGURE?ISR_RF
000FD7H   000FFBH   000025H   BYTE   UNIT     CODE           ?PR?_PUTS?SERIAL
000FFCH   000FFFH   000004H   BYTE   UNIT     CODE           ?PR?GETC?SERIAL
001000H   001054H   000055H   BYTE   UNIT     CODE           ?PR?_BITREV?MAIN
001055H   00107FH   00002BH   BYTE   UNIT     CODE           ?PR?_LOG_2?MAIN
001080H   0010ABH   00002CH   BYTE   UNIT     CODE           ?PR?_EEPROM_READ?EEPROM
0010ACH   0010C6H   00001BH   BYTE   UNIT     CODE           ?C_INITSEG
0010C7H   0010E1H   00001BH   BYTE   UNIT     CODE           ?PR?_ADC_READ?ADC
0010E2H   0010F4H   000013H   BYTE   UNIT     CODE           ?PR?_ADC_INIT?ADC
0010F5H   0010FFH   00000BH   BYTE   UNIT     CODE           ?PR?EEPROM_INIT?EEPROM
001100H   0011E3H   0000E4H   BYTE   UNIT     CODE           ?PR?_COMPUTE_W?MAIN
0011E4H   0011F5H   000012H   BYTE   UNIT     CODE           ?PR?_WDT_LOAD?UTILS
0011F6H   001204H   00000FH   BYTE   UNIT     CODE           ?PR?EEPROM_STATUS?EEPROM
001205H   001212H   00000EH   BYTE   UNIT     CODE           ?PR?RF_INIT?ISR_RF
001213H   00121FH   00000DH   BYTE   UNIT     CODE           ?PR?_STORE_CPU_RATE?UTILS
001220H   00122CH   00000DH   BYTE   UNIT     CODE           ?PR?_SPI_WRITE_THEN_READ?SPI
00122DH   001236H   00000AH   BYTE   UNIT     CODE           ?PR?_SERIAL_INIT?SERIAL
001237H   00123EH   000008H   BYTE   UNIT     CODE           ?PR?SERIAL_READ?SERIAL
00123FH   001243H   000005H   BYTE   UNIT     CODE           ?PR?_SPI_INIT?SPI
001244H   002FFFH   001DBCH   ---    ---      **GAP**
003000H   00303AH   00003BH   BYTE   UNIT     CODE           ?PR?_EEPROM_WRITE?EEPROM
00303BH   003046H   00000CH   BYTE   UNIT     CODE           ?PR?ECO_PAGE_INIT?ECO_PAGE
003047H   00304EH   000008H   BYTE   UNIT     CODE           ?PR?_SERIAL_WRITE?SERIAL
00304FH   003057H   000009H   BYTE   UNIT     CODE           ?PR?RF_WAIT_MSG?ISR_RF
003058H   0030B7H   000060H   BYTE   UNIT     CODE           ?PR?RF_CH1_RECV?ISR_RF
0030B8H   0030DAH   000023H   BYTE   UNIT     CODE           ?PR?FLASH_ERASE_ALL?EEPROM

* * * * * * * * * * *  X D A T A   M E M O R Y  * * * * * * * * * * * * *
000000H   000003H   000004H   BYTE   UNIT     XDATA          ?XD?SIN?SIN



PUBLIC SYMBOLS OF MODULE:  MAIN (MAIN)


      VALUE       CLASS    TYPE      PUBLIC SYMBOL NAME
      =================================================
      0000002FH   DATA     BYTE      ?_COMPUTE_W?BYTE
      00000021H   DATA     BYTE      ?_FFT?BYTE
      0000004DH   DATA     BYTE      ?_PERMUTE_BITREV?BYTE
      00000039H   DATA     BYTE      ?_RF_SEND?BYTE
      00000055H   DATA     BYTE      ?_STRNCPY?BYTE
      01000338H   CODE     ---       ?C?CASTF
      0100006FH   CODE     ---       ?C?CLDOPTR
      01000056H   CODE     ---       ?C?CLDPTR
      00000000H   NUMBER   ---       ?C?CODESEG
      0100009CH   CODE     ---       ?C?CSTPTR
      01000304H   CODE     ---       ?C?FCASTC
LX51 LINKER/LOCATER V4.34a                                                            05/05/2009  14:28:33  PAGE 4


      010002FFH   CODE     ---       ?C?FCASTI
      010002FAH   CODE     ---       ?C?FCASTL
      01000657H   CODE     ---       ?C?FP2SERIES
      010003C0H   CODE     ---       ?C?FPADD
      010005BAH   CODE     ---       ?C?FPDIV
      0100036FH   CODE     ---       ?C?FPGETOPN2
      010004B1H   CODE     ---       ?C?FPMUL
      010003A4H   CODE     ---       ?C?FPNANRESULT
      010003AEH   CODE     ---       ?C?FPOVERFLOW
      01000386H   CODE     ---       ?C?FPRESULT
      0100039AH   CODE     ---       ?C?FPRESULT2
      01000666H   CODE     ---       ?C?FPSERIES
      010003BCH   CODE     ---       ?C?FPSUB
      010003ABH   CODE     ---       ?C?FPUNDERFLOW
      010002CDH   CODE     ---       ?C?ICASE
      0100014BH   CODE     ---       ?C?ILDOPTR
      010000AEH   CODE     ---       ?C?IMUL
      01000183H   CODE     ---       ?C?ISTOPTR
      010006B2H   CODE     ---       ?C?LLDCODE
      010006CEH   CODE     ---       ?C?LLDCODE0
      010006C2H   CODE     ---       ?C?LLDXDATA0
      010001B0H   CODE     ---       ?C?LMUL
      010006A4H   CODE     ---       ?C?LNEG
      010006DEH   CODE     ---       ?C?LSTXDATA
      01000115H   CODE     ---       ?C?SIDIV
      010000C0H   CODE     ---       ?C?UIDIV
      0100023BH   CODE     ---       ?C?ULDIV
      00000000H   NUMBER   ---       ?C?XDATASEG
      0000007BH   DATA     ---       ?C_IBP
      01000DEDH   CODE     ---       ?C_START
      01000000H   CODE     ---       ?C_STARTUP
      01000F67H   CODE     NEAR LAB  _?INT_PRINT
      010010E2H   CODE     NEAR LAB  _ADC_INIT
      010010C7H   CODE     NEAR LAB  _ADC_READ
      01001000H   CODE     NEAR LAB  _BITREV
      01001100H   CODE     NEAR LAB  _COMPUTE_W
      010009ACH   CODE     ---       _COS
      01001080H   CODE     NEAR LAB  _EEPROM_READ
      01003000H   CODE     NEAR LAB  _EEPROM_WRITE
      010006EAH   CODE     NEAR LAB  _FFT
      01001055H   CODE     NEAR LAB  _LOG_2
      01000E9DH   CODE     NEAR LAB  _MDELAY
      01000AECH   CODE     NEAR LAB  _PERMUTE_BITREV
      01000050H   CODE     NEAR LAB  _PUTC
      01000FD7H   CODE     NEAR LAB  _PUTS
      01000FA1H   CODE     NEAR LAB  _RF_CONFIGURE
      01000E32H   CODE     NEAR LAB  _RF_SEND
      0100122DH   CODE     NEAR LAB  _SERIAL_INIT
      010009C2H   CODE     ---       _SIN
      0100123FH   CODE     NEAR LAB  _SPI_INIT
      01001220H   CODE     NEAR LAB  _SPI_WRITE_THEN_READ
      01001213H   CODE     NEAR LAB  _STORE_CPU_RATE
      01000EE6H   CODE     NEAR LAB  _STRNCPY
      010009FEH   CODE     ---       _TAN
      010011E4H   CODE     NEAR LAB  _WDT_LOAD
*SFR* 000000D0H.6 DATA     BIT       AC
*SFR* 000000E0H   DATA     BYTE      ACC
*SFR* 000000A1H   DATA     BYTE      ADCCON
*SFR* 000000A2H   DATA     BYTE      ADCDATAH
*SFR* 000000A3H   DATA     BYTE      ADCDATAL
*SFR* 000000A4H   DATA     BYTE      ADCSTATIC
*SFR* 000000F0H   DATA     BYTE      B
*SFR* 000000C8H.1 DATA     BIT       C_T2
*SFR* 000000A0H.6 DATA     BIT       CE
*SFR* 000000B6H   DATA     BYTE      CK_CTRL
LX51 LINKER/LOCATER V4.34a                                                            05/05/2009  14:28:33  PAGE 5


*SFR* 0000008EH   DATA     BYTE      CKCON
*SFR* 000000A0H.1 DATA     BIT       CLK1
*SFR* 000000A0H.5 DATA     BIT       CLK2
*SFR* 000000C8H   DATA     BIT       CP_RL2
*SFR* 000000C8H   DATA     BIT       CPRL2
*SFR* 000000A0H.3 DATA     BIT       CS
*SFR* 000000C8H.1 DATA     BIT       CT2
*SFR* 000000D0H.7 DATA     BIT       CY
*SFR* 000000A0H   DATA     BIT       DATA?
*SFR* 000000BEH   DATA     BYTE      DEV_OFFSET
*SFR* 00000090H.2 DATA     BIT       DIN0
*SFR* 00000090H   DATA     BIT       DIO0
*SFR* 00000090H.1 DATA     BIT       DIO1
*SFR* 00000080H   DATA     BIT       DIO2
*SFR* 00000080H.1 DATA     BIT       DIO3
*SFR* 00000080H.2 DATA     BIT       DIO4
*SFR* 00000080H.3 DATA     BIT       DIO5
*SFR* 00000080H.4 DATA     BIT       DIO6
*SFR* 00000080H.5 DATA     BIT       DIO7
*SFR* 00000080H.6 DATA     BIT       DIO8
*SFR* 00000080H.7 DATA     BIT       DIO9
*SFR* 000000A0H.4 DATA     BIT       DOUT2
*SFR* 00000083H   DATA     BYTE      DPH
*SFR* 00000083H   DATA     BYTE      DPH0
*SFR* 00000085H   DATA     BYTE      DPH1
*SFR* 00000082H   DATA     BYTE      DPL
*SFR* 00000082H   DATA     BYTE      DPL0
*SFR* 00000084H   DATA     BYTE      DPL1
*SFR* 00000086H   DATA     BYTE      DPS
*SFR* 000000A0H.2 DATA     BIT       DR1
*SFR* 000000A0H.6 DATA     BIT       DR2
*SFR* 000000A0H.6 DATA     BIT       DR2_CE
*SFR* 000000A8H.7 DATA     BIT       EA
      0000004AH   DATA     BYTE      ECO_PAGE_ADDR
      0100303BH   CODE     NEAR LAB  ECO_PAGE_INIT
      01000C1BH   CODE     NEAR LAB  ECO_PAGE_MANAGER
      00000048H   DATA     BYTE      ECO_PAGE_PREV_PID
      00000049H   DATA     BYTE      ECO_PAGE_PREV_VID
      000000CEH   IDATA    BYTE      ECO_PAGE_REGISTER1
      000000CFH   IDATA    BYTE      ECO_PAGE_REGISTER2
      000000D0H   IDATA    BYTE      ECO_PAGE_REGISTER3
      000000D1H   IDATA    BYTE      ECO_PAGE_REGISTER4
      000000D2H   IDATA    BYTE      ECO_PAGE_REGISTER5
      000000D3H   IDATA    BYTE      ECO_PAGE_REGISTER6
      000000D4H   IDATA    BYTE      ECO_PAGE_REGISTER7
      00000047H   DATA     BYTE      ECO_PAGE_SPI_CONN
      00000043H   DATA     BYTE      ECO_PAGE_TABLE
      0000004CH   DATA     BYTE      ECO_PAGE_TABLE_INDEX
      010010F5H   CODE     NEAR LAB  EEPROM_INIT
      010011F6H   CODE     NEAR LAB  EEPROM_STATUS
*SFR* 000000D8H   DATA     BYTE      EICON
*SFR* 000000E8H   DATA     BYTE      EIE
*SFR* 000000F8H   DATA     BYTE      EIP
*SFR* 000000A8H.4 DATA     BIT       ES
*SFR* 000000A8H.1 DATA     BIT       ET0
*SFR* 000000A8H.3 DATA     BIT       ET1
*SFR* 000000A8H.5 DATA     BIT       ET2
*SFR* 000000E8H.4 DATA     BIT       EWDI
*SFR* 000000A8H   DATA     BIT       EX0
*SFR* 000000A8H.2 DATA     BIT       EX1
*SFR* 000000E8H   DATA     BIT       EX2
*SFR* 000000E8H.1 DATA     BIT       EX3
*SFR* 000000E8H.2 DATA     BIT       EX4
*SFR* 000000E8H.3 DATA     BIT       EX5
*SFR* 000000C8H.3 DATA     BIT       EXEN2
LX51 LINKER/LOCATER V4.34a                                                            05/05/2009  14:28:33  PAGE 6


*SFR* 000000C8H.6 DATA     BIT       EXF2
*SFR* 00000091H   DATA     BYTE      EXIF
*SFR* 000000D0H.5 DATA     BIT       F0
*SFR* 000000D0H.1 DATA     BIT       F1
      010030B8H   CODE     NEAR LAB  FLASH_ERASE_ALL
      01000FFCH   CODE     NEAR LAB  GETC
*SFR* 000000A8H   DATA     BYTE      IE
*SFR* 00000088H.1 DATA     BIT       IE0
*SFR* 00000088H.3 DATA     BIT       IE1
*SFR* 00000080H.3 DATA     BIT       INT0_N
*SFR* 00000080H.4 DATA     BIT       INT1_N
*SFR* 000000B8H   DATA     BYTE      IP
*SFR* 00000088H   DATA     BIT       IT0
*SFR* 00000088H.2 DATA     BIT       IT1
      01000CFAH   CODE     NEAR LAB  MAIN
      00000068H   DATA     BYTE      MHZ
*SFR* 00000092H   DATA     BYTE      MPAGE
*SFR* 000000D0H.2 DATA     BIT       OV
*SFR* 000000D0H   DATA     BIT       P
*SFR* 00000080H   DATA     BYTE      P0
*SFR* 00000080H   DATA     BIT       P0_0
*SFR* 00000080H.1 DATA     BIT       P0_1
*SFR* 00000080H.2 DATA     BIT       P0_2
*SFR* 00000080H.3 DATA     BIT       P0_3
*SFR* 00000080H.4 DATA     BIT       P0_4
*SFR* 00000080H.5 DATA     BIT       P0_5
*SFR* 00000080H.6 DATA     BIT       P0_6
*SFR* 00000080H.7 DATA     BIT       P0_7
*SFR* 00000095H   DATA     BYTE      P0_ALT
*SFR* 00000094H   DATA     BYTE      P0_DIR
*SFR* 00000090H   DATA     BYTE      P1
*SFR* 00000090H   DATA     BIT       P1_0
*SFR* 00000090H.1 DATA     BIT       P1_1
*SFR* 00000090H.2 DATA     BIT       P1_2
*SFR* 00000097H   DATA     BYTE      P1_ALT
*SFR* 00000096H   DATA     BYTE      P1_DIR
*SFR* 00000087H   DATA     BYTE      PCON
*SFR* 000000B8H.4 DATA     BIT       PS
*SFR* 000000D0H   DATA     BYTE      PSW
*SFR* 000000B8H.1 DATA     BIT       PT0
*SFR* 000000B8H.3 DATA     BIT       PT1
*SFR* 000000B8H.5 DATA     BIT       PT2
*SFR* 000000F8H.4 DATA     BIT       PWDI
*SFR* 00000080H.7 DATA     BIT       PWM
*SFR* 000000A9H   DATA     BYTE      PWMCON
*SFR* 000000AAH   DATA     BYTE      PWMDUTY
*SFR* 000000A0H.7 DATA     BIT       PWR_UP
*SFR* 000000B8H   DATA     BIT       PX0
*SFR* 000000B8H.2 DATA     BIT       PX1
*SFR* 000000F8H   DATA     BIT       PX2
*SFR* 000000F8H.1 DATA     BIT       PX3
*SFR* 000000F8H.2 DATA     BIT       PX4
*SFR* 000000F8H.3 DATA     BIT       PX5
*SFR* 000000A0H   DATA     BYTE      RADIO
*SFR* 00000098H.2 DATA     BIT       RB8
*SFR* 000000CBH   DATA     BYTE      RCAP2H
*SFR* 000000CAH   DATA     BYTE      RCAP2L
*SFR* 000000C8H.5 DATA     BIT       RCLK
*SFR* 000000ADH   DATA     BYTE      REGX_CTRL
*SFR* 000000ACH   DATA     BYTE      REGX_LSB
*SFR* 000000ABH   DATA     BYTE      REGX_MSB
*SFR* 00000098H.4 DATA     BIT       REN
      00000008H   DATA     BYTE      RF_BUF
      01003058H   CODE     NEAR LAB  RF_CH1_RECV
      01001205H   CODE     NEAR LAB  RF_INIT
LX51 LINKER/LOCATER V4.34a                                                            05/05/2009  14:28:33  PAGE 7


      0100304FH   CODE     NEAR LAB  RF_WAIT_MSG
*SFR* 00000098H   DATA     BIT       RI
*SFR* 000000D0H.3 DATA     BIT       RS0
*SFR* 000000D0H.4 DATA     BIT       RS1
*SFR* 000000B1H   DATA     BYTE      RSTREAS
*SFR* 00000080H.1 DATA     BIT       RXD
*SFR* 00000099H   DATA     BYTE      SBUF
*SFR* 00000098H   DATA     BYTE      SCON
*SFR* 00000098H.7 DATA     BIT       SM0
*SFR* 00000098H.6 DATA     BIT       SM1
*SFR* 00000098H.5 DATA     BIT       SM2
*SFR* 00000081H   DATA     BYTE      SP
*SFR* 0000008FH   DATA     BYTE      SPC_FNC
*SFR* 000000B3H   DATA     BYTE      SPI_CTRL
*SFR* 000000B2H   DATA     BYTE      SPI_DATA
*SFR* 000000B4H   DATA     BYTE      SPICLK
*SFR* 00000080H.5 DATA     BIT       T0
*SFR* 00000080H.6 DATA     BIT       T1
*SFR* 000000BCH   DATA     BYTE      T1_1V2
*SFR* 00000090H   DATA     BIT       T2
*SFR* 000000BDH   DATA     BYTE      T2_1V2
*SFR* 000000C8H   DATA     BYTE      T2CON
*SFR* 00000098H.3 DATA     BIT       TB8
*SFR* 000000C8H.4 DATA     BIT       TCLK
*SFR* 00000088H   DATA     BYTE      TCON
*SFR* 000000B7H   DATA     BYTE      TEST_MODE
*SFR* 00000088H.5 DATA     BIT       TF0
*SFR* 00000088H.7 DATA     BIT       TF1
*SFR* 000000C8H.7 DATA     BIT       TF2
*SFR* 0000008CH   DATA     BYTE      TH0
*SFR* 0000008DH   DATA     BYTE      TH1
*SFR* 000000CDH   DATA     BYTE      TH2
*SFR* 00000098H.1 DATA     BIT       TI
*SFR* 000000B5H   DATA     BYTE      TICK_DV
*SFR* 0000008AH   DATA     BYTE      TL0
*SFR* 0000008BH   DATA     BYTE      TL1
*SFR* 000000CCH   DATA     BYTE      TL2
*SFR* 00000089H   DATA     BYTE      TMOD
*SFR* 00000088H.4 DATA     BIT       TR0
*SFR* 00000088H.6 DATA     BIT       TR1
*SFR* 000000C8H.2 DATA     BIT       TR2
*SFR* 00000080H.2 DATA     BIT       TXD
*SFR* 000000D8H.3 DATA     BIT       WDTI



SYMBOL TABLE OF MODULE:  MAIN (MAIN)

      VALUE       REP       CLASS    TYPE      SYMBOL NAME
      ====================================================
      ---         MODULE    ---      ---       MAIN
      0000002FH   PUBLIC    DATA     BYTE      ?_COMPUTE_W?BYTE
      00000021H   PUBLIC    DATA     BYTE      ?_FFT?BYTE
      0000004DH   PUBLIC    DATA     BYTE      ?_PERMUTE_BITREV?BYTE
      01001000H   PUBLIC    CODE     NEAR LAB  _BITREV
      01001100H   PUBLIC    CODE     NEAR LAB  _COMPUTE_W
      010006EAH   PUBLIC    CODE     NEAR LAB  _FFT
      01001055H   PUBLIC    CODE     NEAR LAB  _LOG_2
      01000AECH   PUBLIC    CODE     NEAR LAB  _PERMUTE_BITREV
      01000CFAH   PUBLIC    CODE     NEAR LAB  MAIN
      000000D0H.6 SFRSYM    DATA     BIT       AC
      000000E0H   SFRSYM    DATA     BYTE      ACC
      000000A1H   SFRSYM    DATA     BYTE      ADCCON
      000000A2H   SFRSYM    DATA     BYTE      ADCDATAH
      000000A3H   SFRSYM    DATA     BYTE      ADCDATAL
LX51 LINKER/LOCATER V4.34a                                                            05/05/2009  14:28:33  PAGE 8


      000000A4H   SFRSYM    DATA     BYTE      ADCSTATIC
      000000F0H   SFRSYM    DATA     BYTE      B
      000000C8H.1 SFRSYM    DATA     BIT       C_T2
      000000A0H.6 SFRSYM    DATA     BIT       CE
      000000B6H   SFRSYM    DATA     BYTE      CK_CTRL
      0000008EH   SFRSYM    DATA     BYTE      CKCON
      000000A0H.1 SFRSYM    DATA     BIT       CLK1
      000000A0H.5 SFRSYM    DATA     BIT       CLK2
      000000C8H   SFRSYM    DATA     BIT       CP_RL2
      000000C8H   SFRSYM    DATA     BIT       CPRL2
      000000A0H.3 SFRSYM    DATA     BIT       CS
      000000C8H.1 SFRSYM    DATA     BIT       CT2
      000000D0H.7 SFRSYM    DATA     BIT       CY
      000000A0H   SFRSYM    DATA     BIT       DATA?
      000000BEH   SFRSYM    DATA     BYTE      DEV_OFFSET
      00000090H.2 SFRSYM    DATA     BIT       DIN0
      00000090H   SFRSYM    DATA     BIT       DIO0
      00000090H.1 SFRSYM    DATA     BIT       DIO1
      00000080H   SFRSYM    DATA     BIT       DIO2
      00000080H.1 SFRSYM    DATA     BIT       DIO3
      00000080H.2 SFRSYM    DATA     BIT       DIO4
      00000080H.3 SFRSYM    DATA     BIT       DIO5
      00000080H.4 SFRSYM    DATA     BIT       DIO6
      00000080H.5 SFRSYM    DATA     BIT       DIO7
      00000080H.6 SFRSYM    DATA     BIT       DIO8
      00000080H.7 SFRSYM    DATA     BIT       DIO9
      000000A0H.4 SFRSYM    DATA     BIT       DOUT2
      00000083H   SFRSYM    DATA     BYTE      DPH
      00000083H   SFRSYM    DATA     BYTE      DPH0
      00000085H   SFRSYM    DATA     BYTE      DPH1
      00000082H   SFRSYM    DATA     BYTE      DPL
      00000082H   SFRSYM    DATA     BYTE      DPL0
      00000084H   SFRSYM    DATA     BYTE      DPL1
      00000086H   SFRSYM    DATA     BYTE      DPS
      000000A0H.2 SFRSYM    DATA     BIT       DR1
      000000A0H.6 SFRSYM    DATA     BIT       DR2
      000000A0H.6 SFRSYM    DATA     BIT       DR2_CE
      000000A8H.7 SFRSYM    DATA     BIT       EA
      000000D8H   SFRSYM    DATA     BYTE      EICON
      000000E8H   SFRSYM    DATA     BYTE      EIE
      000000F8H   SFRSYM    DATA     BYTE      EIP
      000000A8H.4 SFRSYM    DATA     BIT       ES
      000000A8H.1 SFRSYM    DATA     BIT       ET0
      000000A8H.3 SFRSYM    DATA     BIT       ET1
      000000A8H.5 SFRSYM    DATA     BIT       ET2
      000000E8H.4 SFRSYM    DATA     BIT       EWDI
      000000A8H   SFRSYM    DATA     BIT       EX0
      000000A8H.2 SFRSYM    DATA     BIT       EX1
      000000E8H   SFRSYM    DATA     BIT       EX2
      000000E8H.1 SFRSYM    DATA     BIT       EX3
      000000E8H.2 SFRSYM    DATA     BIT       EX4
      000000E8H.3 SFRSYM    DATA     BIT       EX5
      000000C8H.3 SFRSYM    DATA     BIT       EXEN2
      000000C8H.6 SFRSYM    DATA     BIT       EXF2
      00000091H   SFRSYM    DATA     BYTE      EXIF
      000000D0H.5 SFRSYM    DATA     BIT       F0
      000000D0H.1 SFRSYM    DATA     BIT       F1
      000000A8H   SFRSYM    DATA     BYTE      IE
      00000088H.1 SFRSYM    DATA     BIT       IE0
      00000088H.3 SFRSYM    DATA     BIT       IE1
      00000080H.3 SFRSYM    DATA     BIT       INT0_N
      00000080H.4 SFRSYM    DATA     BIT       INT1_N
      000000B8H   SFRSYM    DATA     BYTE      IP
      00000088H   SFRSYM    DATA     BIT       IT0
      00000088H.2 SFRSYM    DATA     BIT       IT1
LX51 LINKER/LOCATER V4.34a                                                            05/05/2009  14:28:33  PAGE 9


      00000092H   SFRSYM    DATA     BYTE      MPAGE
      000000D0H.2 SFRSYM    DATA     BIT       OV
      000000D0H   SFRSYM    DATA     BIT       P
      00000080H   SFRSYM    DATA     BYTE      P0
      00000080H   SFRSYM    DATA     BIT       P0_0
      00000080H.1 SFRSYM    DATA     BIT       P0_1
      00000080H.2 SFRSYM    DATA     BIT       P0_2
      00000080H.3 SFRSYM    DATA     BIT       P0_3
      00000080H.4 SFRSYM    DATA     BIT       P0_4
      00000080H.5 SFRSYM    DATA     BIT       P0_5
      00000080H.6 SFRSYM    DATA     BIT       P0_6
      00000080H.7 SFRSYM    DATA     BIT       P0_7
      00000095H   SFRSYM    DATA     BYTE      P0_ALT
      00000094H   SFRSYM    DATA     BYTE      P0_DIR
      00000090H   SFRSYM    DATA     BYTE      P1
      00000090H   SFRSYM    DATA     BIT       P1_0
      00000090H.1 SFRSYM    DATA     BIT       P1_1
      00000090H.2 SFRSYM    DATA     BIT       P1_2
      00000097H   SFRSYM    DATA     BYTE      P1_ALT
      00000096H   SFRSYM    DATA     BYTE      P1_DIR
      00000087H   SFRSYM    DATA     BYTE      PCON
      000000B8H.4 SFRSYM    DATA     BIT       PS
      000000D0H   SFRSYM    DATA     BYTE      PSW
      000000B8H.1 SFRSYM    DATA     BIT       PT0
      000000B8H.3 SFRSYM    DATA     BIT       PT1
      000000B8H.5 SFRSYM    DATA     BIT       PT2
      000000F8H.4 SFRSYM    DATA     BIT       PWDI
      00000080H.7 SFRSYM    DATA     BIT       PWM
      000000A9H   SFRSYM    DATA     BYTE      PWMCON
      000000AAH   SFRSYM    DATA     BYTE      PWMDUTY
      000000A0H.7 SFRSYM    DATA     BIT       PWR_UP
      000000B8H   SFRSYM    DATA     BIT       PX0
      000000B8H.2 SFRSYM    DATA     BIT       PX1
      000000F8H   SFRSYM    DATA     BIT       PX2
      000000F8H.1 SFRSYM    DATA     BIT       PX3
      000000F8H.2 SFRSYM    DATA     BIT       PX4
      000000F8H.3 SFRSYM    DATA     BIT       PX5
      000000A0H   SFRSYM    DATA     BYTE      RADIO
      00000098H.2 SFRSYM    DATA     BIT       RB8
      000000CBH   SFRSYM    DATA     BYTE      RCAP2H
      000000CAH   SFRSYM    DATA     BYTE      RCAP2L
      000000C8H.5 SFRSYM    DATA     BIT       RCLK
      000000ADH   SFRSYM    DATA     BYTE      REGX_CTRL
      000000ACH   SFRSYM    DATA     BYTE      REGX_LSB
      000000ABH   SFRSYM    DATA     BYTE      REGX_MSB
      00000098H.4 SFRSYM    DATA     BIT       REN
      00000098H   SFRSYM    DATA     BIT       RI
      000000D0H.3 SFRSYM    DATA     BIT       RS0
      000000D0H.4 SFRSYM    DATA     BIT       RS1
      000000B1H   SFRSYM    DATA     BYTE      RSTREAS
      00000080H.1 SFRSYM    DATA     BIT       RXD
      00000099H   SFRSYM    DATA     BYTE      SBUF
      00000098H   SFRSYM    DATA     BYTE      SCON
      00000098H.7 SFRSYM    DATA     BIT       SM0
      00000098H.6 SFRSYM    DATA     BIT       SM1
      00000098H.5 SFRSYM    DATA     BIT       SM2
      00000081H   SFRSYM    DATA     BYTE      SP
      0000008FH   SFRSYM    DATA     BYTE      SPC_FNC
      000000B3H   SFRSYM    DATA     BYTE      SPI_CTRL
      000000B2H   SFRSYM    DATA     BYTE      SPI_DATA
      000000B4H   SFRSYM    DATA     BYTE      SPICLK
      00000080H.5 SFRSYM    DATA     BIT       T0
      00000080H.6 SFRSYM    DATA     BIT       T1
      000000BCH   SFRSYM    DATA     BYTE      T1_1V2
      00000090H   SFRSYM    DATA     BIT       T2
LX51 LINKER/LOCATER V4.34a                                                            05/05/2009  14:28:33  PAGE 10


      000000BDH   SFRSYM    DATA     BYTE      T2_1V2
      000000C8H   SFRSYM    DATA     BYTE      T2CON
      00000098H.3 SFRSYM    DATA     BIT       TB8
      000000C8H.4 SFRSYM    DATA     BIT       TCLK
      00000088H   SFRSYM    DATA     BYTE      TCON
      000000B7H   SFRSYM    DATA     BYTE      TEST_MODE
      00000088H.5 SFRSYM    DATA     BIT       TF0
      00000088H.7 SFRSYM    DATA     BIT       TF1
      000000C8H.7 SFRSYM    DATA     BIT       TF2
      0000008CH   SFRSYM    DATA     BYTE      TH0
      0000008DH   SFRSYM    DATA     BYTE      TH1
      000000CDH   SFRSYM    DATA     BYTE      TH2
      00000098H.1 SFRSYM    DATA     BIT       TI
      000000B5H   SFRSYM    DATA     BYTE      TICK_DV
      0000008AH   SFRSYM    DATA     BYTE      TL0
      0000008BH   SFRSYM    DATA     BYTE      TL1
      000000CCH   SFRSYM    DATA     BYTE      TL2
      00000089H   SFRSYM    DATA     BYTE      TMOD
      00000088H.4 SFRSYM    DATA     BIT       TR0
      00000088H.6 SFRSYM    DATA     BIT       TR1
      000000C8H.2 SFRSYM    DATA     BIT       TR2
      00000080H.2 SFRSYM    DATA     BIT       TXD
      000000D8H.3 SFRSYM    DATA     BIT       WDTI
      00000075H   SYMBOL    DATA     BYTE      ?_BITREV?BYTE
      01001013H   SYMBOL    CODE     NEAR LAB  ?C0001
      0100104DH   SYMBOL    CODE     NEAR LAB  ?C0002
      01001054H   SYMBOL    CODE     NEAR LAB  ?C0004
      0100105BH   SYMBOL    CODE     NEAR LAB  ?C0005
      01001078H   SYMBOL    CODE     NEAR LAB  ?C0006
      0100107FH   SYMBOL    CODE     NEAR LAB  ?C0008
      01001117H   SYMBOL    CODE     NEAR LAB  ?C0009
      010011E3H   SYMBOL    CODE     NEAR LAB  ?C0012
      01000B06H   SYMBOL    CODE     NEAR LAB  ?C0013
      01000C0CH   SYMBOL    CODE     NEAR LAB  ?C0015
      01000B4FH   SYMBOL    CODE     NEAR LAB  ?C0016
      01000C1AH   SYMBOL    CODE     NEAR LAB  ?C0017
      010006FBH   SYMBOL    CODE     NEAR LAB  ?C0018
      01000952H   SYMBOL    CODE     NEAR LAB  ?C0020
      01000724H   SYMBOL    CODE     NEAR LAB  ?C0021
      01000936H   SYMBOL    CODE     NEAR LAB  ?C0023
      01000778H   SYMBOL    CODE     NEAR LAB  ?C0024
      01000963H   SYMBOL    CODE     NEAR LAB  ?C0027
      01000D0DH   SYMBOL    CODE     NEAR LAB  ?C0028
      01000D2DH   SYMBOL    CODE     NEAR LAB  ?C0031
      0100104BH   SYMBOL    CODE     NEAR LAB  ?C0034
      01001076H   SYMBOL    CODE     NEAR LAB  ?C0035
      010011E0H   SYMBOL    CODE     NEAR LAB  ?C0036
      01000C17H   SYMBOL    CODE     NEAR LAB  ?C0037
      01000933H   SYMBOL    CODE     NEAR LAB  ?C0038
      0100094FH   SYMBOL    CODE     NEAR LAB  ?C0039
      01000D1FH   SYMBOL    CODE     NEAR LAB  ?C0040
      00000052H   SYMBOL    DATA     BYTE      A_IM?354
      00000026H   SYMBOL    DATA     BYTE      A_IM?462
      0000008EH   SYMBOL    IDATA    BYTE      A_IM?578
      0000004FH   SYMBOL    DATA     BYTE      A_RE?353
      00000023H   SYMBOL    DATA     BYTE      A_RE?461
      0000007EH   SYMBOL    IDATA    BYTE      A_RE?577
      000000BEH   SYMBOL    IDATA    BYTE      B?473
      000000DBH   SYMBOL    IDATA    BYTE      BR?250
      000000C6H   SYMBOL    IDATA    BYTE      BRI?356
      000000BCH   SYMBOL    IDATA    BYTE      G?472
      000000D5H   SYMBOL    IDATA    BYTE      I?042
      000000D9H   SYMBOL    IDATA    BYTE      I?249
      000000C4H   SYMBOL    IDATA    BYTE      I?355
      000000C2H   SYMBOL    IDATA    BYTE      K?475
LX51 LINKER/LOCATER V4.34a                                                            05/05/2009  14:28:33  PAGE 11


      00000037H   SYMBOL    DATA     BYTE      LOG2N?251
      000000C8H   SYMBOL    IDATA    BYTE      LOG2N?357
      000000BAH   SYMBOL    IDATA    BYTE      M?471
      000000C0H   SYMBOL    IDATA    BYTE      MT?474
      0000002FH   SYMBOL    DATA     BYTE      N?246
      0000004DH   SYMBOL    DATA     BYTE      N?352
      00000021H   SYMBOL    DATA     BYTE      N?460
      0000007CH   SYMBOL    IDATA    BYTE      N?576
      00000075H   SYMBOL    DATA     BYTE      NUMBITS?041
      000000DDH   SYMBOL    IDATA    BYTE      RES?145
      000000D7H   SYMBOL    IDATA    BYTE      REV?043
      000000CCH   SYMBOL    IDATA    BYTE      T_IM?359
      000000B8H   SYMBOL    IDATA    BYTE      T_IM?470
      000000CAH   SYMBOL    IDATA    BYTE      T_RE?358
      000000B6H   SYMBOL    IDATA    BYTE      T_RE?469
      000000B4H   SYMBOL    IDATA    BYTE      U_IM?468
      000000B2H   SYMBOL    IDATA    BYTE      U_RE?467
      00000034H   SYMBOL    DATA     BYTE      W_IM?248
      0000002CH   SYMBOL    DATA     BYTE      W_IM?464
      000000B0H   SYMBOL    IDATA    BYTE      W_IM?466
      000000A6H   SYMBOL    IDATA    BYTE      W_IM?580
      00000031H   SYMBOL    DATA     BYTE      W_RE?247
      00000029H   SYMBOL    DATA     BYTE      W_RE?463
      000000AEH   SYMBOL    IDATA    BYTE      W_RE?465
      0000009EH   SYMBOL    IDATA    BYTE      W_RE?579

      01001000H   BLOCK     CODE     NEAR LAB  LVL=0
      01001000H   LINE      CODE     ---       #351
      01001002H   LINE      CODE     ---       #352
      01001004H   LINE      CODE     ---       #354
      01001006H   LINE      CODE     ---       #355
      01001008H   LINE      CODE     ---       #361
      01001009H   LINE      CODE     ---       #362
      0100100BH   LINE      CODE     ---       #363
      0100100CH   LINE      CODE     ---       #364
      0100100DH   LINE      CODE     ---       #365
      0100100EH   LINE      CODE     ---       #368
      01001010H   LINE      CODE     ---       #369
      01001011H   LINE      CODE     ---       #370
      01001012H   LINE      CODE     ---       #371
      01001013H   LINE      CODE     ---       #373
      01001014H   LINE      CODE     ---       #374
      01001016H   LINE      CODE     ---       #375
      01001017H   LINE      CODE     ---       #376
      01001019H   LINE      CODE     ---       #377
      0100101BH   LINE      CODE     ---       #378
      0100101DH   LINE      CODE     ---       #379
      0100101FH   LINE      CODE     ---       #380
      01001020H   LINE      CODE     ---       #381
      01001021H   LINE      CODE     ---       #382
      01001023H   LINE      CODE     ---       #383
      01001025H   LINE      CODE     ---       #384
      01001027H   LINE      CODE     ---       #389
      01001029H   LINE      CODE     ---       #390
      0100102AH   LINE      CODE     ---       #391
      0100102CH   LINE      CODE     ---       #392
      0100102DH   LINE      CODE     ---       #393
      0100102EH   LINE      CODE     ---       #394
      0100102FH   LINE      CODE     ---       #395
      01001030H   LINE      CODE     ---       #396
      01001031H   LINE      CODE     ---       #397
      01001032H   LINE      CODE     ---       #398
      01001034H   LINE      CODE     ---       #399
      01001035H   LINE      CODE     ---       #400
      01001036H   LINE      CODE     ---       #401
LX51 LINKER/LOCATER V4.34a                                                            05/05/2009  14:28:33  PAGE 12


      01001037H   LINE      CODE     ---       #402
      01001038H   LINE      CODE     ---       #403
      01001039H   LINE      CODE     ---       #404
      0100103AH   LINE      CODE     ---       #405
      0100103BH   LINE      CODE     ---       #408
      0100103CH   LINE      CODE     ---       #409
      0100103EH   LINE      CODE     ---       #410
      0100103FH   LINE      CODE     ---       #411
      01001040H   LINE      CODE     ---       #412
      01001041H   LINE      CODE     ---       #413
      01001042H   LINE      CODE     ---       #414
      01001043H   LINE      CODE     ---       #417
      01001045H   LINE      CODE     ---       #418
      01001046H   LINE      CODE     ---       #419
      01001047H   LINE      CODE     ---       #420
      01001048H   LINE      CODE     ---       #421
      0100104AH   LINE      CODE     ---       #422
      0100104BH   LINE      CODE     ---       #424
      0100104DH   LINE      CODE     ---       #428
      0100104FH   LINE      CODE     ---       #429
      01001050H   LINE      CODE     ---       #430
      01001051H   LINE      CODE     ---       #431
      01001052H   LINE      CODE     ---       #432
      01001053H   LINE      CODE     ---       #433
      01001054H   LINE      CODE     ---       #437
      ---         BLOCKEND  ---      ---       LVL=0

      01001055H   BLOCK     CODE     NEAR LAB  LVL=0
      01001055H   LINE      CODE     ---       #455
      01001056H   LINE      CODE     ---       #456
      01001058H   LINE      CODE     ---       #457
      01001059H   LINE      CODE     ---       #458
      0100105AH   LINE      CODE     ---       #459
      0100105BH   LINE      CODE     ---       #461
      0100105CH   LINE      CODE     ---       #462
      0100105DH   LINE      CODE     ---       #463
      0100105FH   LINE      CODE     ---       #464
      01001060H   LINE      CODE     ---       #465
      01001062H   LINE      CODE     ---       #466
      01001064H   LINE      CODE     ---       #467
      01001066H   LINE      CODE     ---       #470
      01001067H   LINE      CODE     ---       #471
      01001069H   LINE      CODE     ---       #472
      0100106AH   LINE      CODE     ---       #473
      0100106BH   LINE      CODE     ---       #474
      0100106CH   LINE      CODE     ---       #475
      0100106DH   LINE      CODE     ---       #476
      0100106EH   LINE      CODE     ---       #477
      01001070H   LINE      CODE     ---       #478
      01001071H   LINE      CODE     ---       #479
      01001072H   LINE      CODE     ---       #480
      01001073H   LINE      CODE     ---       #481
      01001075H   LINE      CODE     ---       #482
      01001076H   LINE      CODE     ---       #484
      01001078H   LINE      CODE     ---       #488
      0100107AH   LINE      CODE     ---       #489
      0100107BH   LINE      CODE     ---       #490
      0100107CH   LINE      CODE     ---       #491
      0100107DH   LINE      CODE     ---       #492
      0100107EH   LINE      CODE     ---       #493
      0100107FH   LINE      CODE     ---       #497
      ---         BLOCKEND  ---      ---       LVL=0

      01001100H   BLOCK     CODE     NEAR LAB  LVL=0
      01001100H   LINE      CODE     ---       #514
LX51 LINKER/LOCATER V4.34a                                                            05/05/2009  14:28:33  PAGE 13


      01001102H   LINE      CODE     ---       #515
      01001104H   LINE      CODE     ---       #516
      01001106H   LINE      CODE     ---       #517
      01001108H   LINE      CODE     ---       #518
      0100110AH   LINE      CODE     ---       #525
      0100110DH   LINE      CODE     ---       #526
      0100110FH   LINE      CODE     ---       #527
      01001111H   LINE      CODE     ---       #531
      01001112H   LINE      CODE     ---       #532
      01001114H   LINE      CODE     ---       #533
      01001115H   LINE      CODE     ---       #534
      01001116H   LINE      CODE     ---       #535
      01001117H   LINE      CODE     ---       #537
      01001119H   LINE      CODE     ---       #538
      0100111BH   LINE      CODE     ---       #539
      0100111DH   LINE      CODE     ---       #540
      0100111FH   LINE      CODE     ---       #541
      01001122H   LINE      CODE     ---       #542
      01001124H   LINE      CODE     ---       #543
      01001126H   LINE      CODE     ---       #544
      01001128H   LINE      CODE     ---       #545
      01001129H   LINE      CODE     ---       #546
      0100112AH   LINE      CODE     ---       #547
      0100112BH   LINE      CODE     ---       #548
      0100112CH   LINE      CODE     ---       #549
      0100112DH   LINE      CODE     ---       #550
      0100112EH   LINE      CODE     ---       #551
      0100112FH   LINE      CODE     ---       #552
      01001130H   LINE      CODE     ---       #553
      01001132H   LINE      CODE     ---       #554
      01001133H   LINE      CODE     ---       #555
      01001134H   LINE      CODE     ---       #556
      01001136H   LINE      CODE     ---       #557
      01001137H   LINE      CODE     ---       #558
      01001139H   LINE      CODE     ---       #559
      0100113CH   LINE      CODE     ---       #564
      0100113EH   LINE      CODE     ---       #565
      01001140H   LINE      CODE     ---       #566
      01001141H   LINE      CODE     ---       #567
      01001143H   LINE      CODE     ---       #568
      01001145H   LINE      CODE     ---       #569
      01001146H   LINE      CODE     ---       #572
      01001149H   LINE      CODE     ---       #573
      0100114CH   LINE      CODE     ---       #574
      0100114FH   LINE      CODE     ---       #575
      01001152H   LINE      CODE     ---       #577
      01001154H   LINE      CODE     ---       #578
      01001156H   LINE      CODE     ---       #579
      01001157H   LINE      CODE     ---       #580
      01001159H   LINE      CODE     ---       #583
      0100115BH   LINE      CODE     ---       #584
      0100115CH   LINE      CODE     ---       #585
      0100115DH   LINE      CODE     ---       #586
      0100115EH   LINE      CODE     ---       #587
      0100115FH   LINE      CODE     ---       #588
      01001160H   LINE      CODE     ---       #589
      01001162H   LINE      CODE     ---       #590
      01001164H   LINE      CODE     ---       #591
      01001167H   LINE      CODE     ---       #592
      01001169H   LINE      CODE     ---       #593
      0100116BH   LINE      CODE     ---       #594
      0100116EH   LINE      CODE     ---       #595
      01001170H   LINE      CODE     ---       #596
      01001172H   LINE      CODE     ---       #597
      01001173H   LINE      CODE     ---       #598
LX51 LINKER/LOCATER V4.34a                                                            05/05/2009  14:28:33  PAGE 14


      01001176H   LINE      CODE     ---       #599
      01001179H   LINE      CODE     ---       #600
      0100117CH   LINE      CODE     ---       #601
      0100117EH   LINE      CODE     ---       #602
      01001180H   LINE      CODE     ---       #603
      01001181H   LINE      CODE     ---       #604
      01001183H   LINE      CODE     ---       #605
      01001184H   LINE      CODE     ---       #606
      01001185H   LINE      CODE     ---       #607
      01001186H   LINE      CODE     ---       #608
      01001187H   LINE      CODE     ---       #609
      01001189H   LINE      CODE     ---       #610
      0100118BH   LINE      CODE     ---       #611
      0100118DH   LINE      CODE     ---       #612
      0100118FH   LINE      CODE     ---       #613
      01001191H   LINE      CODE     ---       #614
      01001192H   LINE      CODE     ---       #615
      01001194H   LINE      CODE     ---       #616
      01001197H   LINE      CODE     ---       #619
      01001199H   LINE      CODE     ---       #620
      0100119AH   LINE      CODE     ---       #621
      0100119BH   LINE      CODE     ---       #622
      0100119CH   LINE      CODE     ---       #623
      0100119DH   LINE      CODE     ---       #624
      0100119EH   LINE      CODE     ---       #625
      010011A0H   LINE      CODE     ---       #626
      010011A2H   LINE      CODE     ---       #627
      010011A5H   LINE      CODE     ---       #628
      010011A7H   LINE      CODE     ---       #629
      010011A9H   LINE      CODE     ---       #630
      010011ACH   LINE      CODE     ---       #631
      010011AEH   LINE      CODE     ---       #632
      010011B0H   LINE      CODE     ---       #633
      010011B1H   LINE      CODE     ---       #634
      010011B4H   LINE      CODE     ---       #635
      010011B7H   LINE      CODE     ---       #636
      010011BAH   LINE      CODE     ---       #637
      010011BCH   LINE      CODE     ---       #638
      010011BEH   LINE      CODE     ---       #639
      010011BFH   LINE      CODE     ---       #640
      010011C1H   LINE      CODE     ---       #641
      010011C2H   LINE      CODE     ---       #642
      010011C3H   LINE      CODE     ---       #643
      010011C4H   LINE      CODE     ---       #644
      010011C5H   LINE      CODE     ---       #645
      010011C7H   LINE      CODE     ---       #646
      010011C9H   LINE      CODE     ---       #647
      010011CBH   LINE      CODE     ---       #648
      010011CDH   LINE      CODE     ---       #649
      010011CFH   LINE      CODE     ---       #650
      010011D0H   LINE      CODE     ---       #651
      010011D2H   LINE      CODE     ---       #652
      010011D5H   LINE      CODE     ---       #655
      010011D7H   LINE      CODE     ---       #656
      010011D8H   LINE      CODE     ---       #657
      010011D9H   LINE      CODE     ---       #658
      010011DAH   LINE      CODE     ---       #659
      010011DCH   LINE      CODE     ---       #660
      010011DFH   LINE      CODE     ---       #661
      010011E0H   LINE      CODE     ---       #663
      010011E3H   LINE      CODE     ---       #674
      ---         BLOCKEND  ---      ---       LVL=0

      01000AECH   BLOCK     CODE     NEAR LAB  LVL=0
      01000AECH   LINE      CODE     ---       #686
LX51 LINKER/LOCATER V4.34a                                                            05/05/2009  14:28:33  PAGE 15


      01000AEEH   LINE      CODE     ---       #687
      01000AF0H   LINE      CODE     ---       #688
      01000AF2H   LINE      CODE     ---       #689
      01000AF4H   LINE      CODE     ---       #690
      01000AF6H   LINE      CODE     ---       #701
      01000AF9H   LINE      CODE     ---       #702
      01000AFBH   LINE      CODE     ---       #703
      01000AFDH   LINE      CODE     ---       #704
      01000AFEH   LINE      CODE     ---       #705
      01000B00H   LINE      CODE     ---       #709
      01000B01H   LINE      CODE     ---       #710
      01000B03H   LINE      CODE     ---       #711
      01000B04H   LINE      CODE     ---       #712
      01000B05H   LINE      CODE     ---       #713
      01000B06H   LINE      CODE     ---       #715
      01000B08H   LINE      CODE     ---       #716
      01000B09H   LINE      CODE     ---       #717
      01000B0AH   LINE      CODE     ---       #718
      01000B0BH   LINE      CODE     ---       #719
      01000B0CH   LINE      CODE     ---       #720
      01000B0DH   LINE      CODE     ---       #721
      01000B0EH   LINE      CODE     ---       #722
      01000B10H   LINE      CODE     ---       #723
      01000B12H   LINE      CODE     ---       #724
      01000B14H   LINE      CODE     ---       #725
      01000B15H   LINE      CODE     ---       #726
      01000B16H   LINE      CODE     ---       #727
      01000B18H   LINE      CODE     ---       #728
      01000B19H   LINE      CODE     ---       #729
      01000B1BH   LINE      CODE     ---       #730
      01000B1EH   LINE      CODE     ---       #735
      01000B20H   LINE      CODE     ---       #736
      01000B21H   LINE      CODE     ---       #737
      01000B22H   LINE      CODE     ---       #738
      01000B23H   LINE      CODE     ---       #739
      01000B24H   LINE      CODE     ---       #740
      01000B25H   LINE      CODE     ---       #742
      01000B28H   LINE      CODE     ---       #743
      01000B2BH   LINE      CODE     ---       #744
      01000B2EH   LINE      CODE     ---       #745
      01000B31H   LINE      CODE     ---       #746
      01000B33H   LINE      CODE     ---       #747
      01000B34H   LINE      CODE     ---       #748
      01000B35H   LINE      CODE     ---       #749
      01000B36H   LINE      CODE     ---       #750
      01000B37H   LINE      CODE     ---       #751
      01000B38H   LINE      CODE     ---       #756
      01000B3AH   LINE      CODE     ---       #757
      01000B3BH   LINE      CODE     ---       #758
      01000B3CH   LINE      CODE     ---       #759
      01000B3DH   LINE      CODE     ---       #760
      01000B3EH   LINE      CODE     ---       #761
      01000B3FH   LINE      CODE     ---       #762
      01000B40H   LINE      CODE     ---       #763
      01000B41H   LINE      CODE     ---       #764
      01000B42H   LINE      CODE     ---       #765
      01000B43H   LINE      CODE     ---       #766
      01000B45H   LINE      CODE     ---       #767
      01000B46H   LINE      CODE     ---       #768
      01000B47H   LINE      CODE     ---       #769
      01000B49H   LINE      CODE     ---       #770
      01000B4AH   LINE      CODE     ---       #771
      01000B4CH   LINE      CODE     ---       #772
      01000B4FH   LINE      CODE     ---       #777
      01000B51H   LINE      CODE     ---       #778
LX51 LINKER/LOCATER V4.34a                                                            05/05/2009  14:28:33  PAGE 16


      01000B52H   LINE      CODE     ---       #779
      01000B54H   LINE      CODE     ---       #780
      01000B55H   LINE      CODE     ---       #781
      01000B56H   LINE      CODE     ---       #782
      01000B57H   LINE      CODE     ---       #783
      01000B58H   LINE      CODE     ---       #784
      01000B59H   LINE      CODE     ---       #785
      01000B5BH   LINE      CODE     ---       #786
      01000B5DH   LINE      CODE     ---       #787
      01000B5FH   LINE      CODE     ---       #788
      01000B61H   LINE      CODE     ---       #789
      01000B63H   LINE      CODE     ---       #790
      01000B66H   LINE      CODE     ---       #791
      01000B68H   LINE      CODE     ---       #792
      01000B6AH   LINE      CODE     ---       #793
      01000B6BH   LINE      CODE     ---       #794
      01000B6CH   LINE      CODE     ---       #797
      01000B6EH   LINE      CODE     ---       #798
      01000B70H   LINE      CODE     ---       #799
      01000B72H   LINE      CODE     ---       #800
      01000B74H   LINE      CODE     ---       #801
      01000B76H   LINE      CODE     ---       #802
      01000B79H   LINE      CODE     ---       #803
      01000B7BH   LINE      CODE     ---       #804
      01000B7DH   LINE      CODE     ---       #805
      01000B7EH   LINE      CODE     ---       #806
      01000B7FH   LINE      CODE     ---       #809
      01000B81H   LINE      CODE     ---       #810
      01000B82H   LINE      CODE     ---       #811
      01000B84H   LINE      CODE     ---       #812
      01000B85H   LINE      CODE     ---       #813
      01000B86H   LINE      CODE     ---       #814
      01000B87H   LINE      CODE     ---       #815
      01000B88H   LINE      CODE     ---       #816
      01000B8AH   LINE      CODE     ---       #817
      01000B8CH   LINE      CODE     ---       #818
      01000B8EH   LINE      CODE     ---       #819
      01000B90H   LINE      CODE     ---       #820
      01000B92H   LINE      CODE     ---       #821
      01000B95H   LINE      CODE     ---       #822
      01000B96H   LINE      CODE     ---       #823
      01000B98H   LINE      CODE     ---       #824
      01000B99H   LINE      CODE     ---       #825
      01000B9BH   LINE      CODE     ---       #826
      01000B9CH   LINE      CODE     ---       #827
      01000B9DH   LINE      CODE     ---       #828
      01000B9EH   LINE      CODE     ---       #829
      01000B9FH   LINE      CODE     ---       #830
      01000BA1H   LINE      CODE     ---       #831
      01000BA3H   LINE      CODE     ---       #832
      01000BA5H   LINE      CODE     ---       #833
      01000BA7H   LINE      CODE     ---       #834
      01000BAAH   LINE      CODE     ---       #837
      01000BACH   LINE      CODE     ---       #838
      01000BADH   LINE      CODE     ---       #839
      01000BAFH   LINE      CODE     ---       #840
      01000BB0H   LINE      CODE     ---       #841
      01000BB1H   LINE      CODE     ---       #842
      01000BB2H   LINE      CODE     ---       #843
      01000BB3H   LINE      CODE     ---       #844
      01000BB5H   LINE      CODE     ---       #845
      01000BB7H   LINE      CODE     ---       #846
      01000BB9H   LINE      CODE     ---       #847
      01000BBBH   LINE      CODE     ---       #848
      01000BBDH   LINE      CODE     ---       #849
LX51 LINKER/LOCATER V4.34a                                                            05/05/2009  14:28:33  PAGE 17


      01000BC0H   LINE      CODE     ---       #850
      01000BC1H   LINE      CODE     ---       #851
      01000BC3H   LINE      CODE     ---       #852
      01000BC4H   LINE      CODE     ---       #853
      01000BC6H   LINE      CODE     ---       #854
      01000BC7H   LINE      CODE     ---       #855
      01000BC8H   LINE      CODE     ---       #856
      01000BC9H   LINE      CODE     ---       #857
      01000BCAH   LINE      CODE     ---       #858
      01000BCCH   LINE      CODE     ---       #859
      01000BCEH   LINE      CODE     ---       #860
      01000BD0H   LINE      CODE     ---       #861
      01000BD2H   LINE      CODE     ---       #862
      01000BD5H   LINE      CODE     ---       #865
      01000BD7H   LINE      CODE     ---       #866
      01000BD8H   LINE      CODE     ---       #867
      01000BD9H   LINE      CODE     ---       #868
      01000BDAH   LINE      CODE     ---       #869
      01000BDBH   LINE      CODE     ---       #870
      01000BDCH   LINE      CODE     ---       #871
      01000BDEH   LINE      CODE     ---       #872
      01000BDFH   LINE      CODE     ---       #873
      01000BE1H   LINE      CODE     ---       #874
      01000BE2H   LINE      CODE     ---       #875
      01000BE3H   LINE      CODE     ---       #876
      01000BE4H   LINE      CODE     ---       #877
      01000BE5H   LINE      CODE     ---       #878
      01000BE6H   LINE      CODE     ---       #879
      01000BE8H   LINE      CODE     ---       #880
      01000BEAH   LINE      CODE     ---       #881
      01000BECH   LINE      CODE     ---       #882
      01000BEEH   LINE      CODE     ---       #883
      01000BF0H   LINE      CODE     ---       #884
      01000BF1H   LINE      CODE     ---       #885
      01000BF3H   LINE      CODE     ---       #886
      01000BF6H   LINE      CODE     ---       #889
      01000BF8H   LINE      CODE     ---       #890
      01000BF9H   LINE      CODE     ---       #891
      01000BFAH   LINE      CODE     ---       #892
      01000BFBH   LINE      CODE     ---       #893
      01000BFCH   LINE      CODE     ---       #894
      01000BFEH   LINE      CODE     ---       #895
      01000C00H   LINE      CODE     ---       #896
      01000C02H   LINE      CODE     ---       #897
      01000C04H   LINE      CODE     ---       #898
      01000C06H   LINE      CODE     ---       #899
      01000C07H   LINE      CODE     ---       #900
      01000C09H   LINE      CODE     ---       #901
      01000C0CH   LINE      CODE     ---       #905
      01000C0EH   LINE      CODE     ---       #906
      01000C0FH   LINE      CODE     ---       #907
      01000C10H   LINE      CODE     ---       #908
      01000C11H   LINE      CODE     ---       #909
      01000C13H   LINE      CODE     ---       #910
      01000C16H   LINE      CODE     ---       #911
      01000C17H   LINE      CODE     ---       #913
      01000C1AH   LINE      CODE     ---       #917
      ---         BLOCKEND  ---      ---       LVL=0

      010006EAH   BLOCK     CODE     NEAR LAB  LVL=0
      010006EAH   LINE      CODE     ---       #944
      010006ECH   LINE      CODE     ---       #945
      010006EEH   LINE      CODE     ---       #946
      010006F0H   LINE      CODE     ---       #947
      010006F2H   LINE      CODE     ---       #948
LX51 LINKER/LOCATER V4.34a                                                            05/05/2009  14:28:33  PAGE 18


      010006F4H   LINE      CODE     ---       #959
      010006F6H   LINE      CODE     ---       #960
      010006F8H   LINE      CODE     ---       #961
      010006F9H   LINE      CODE     ---       #962
      010006FBH   LINE      CODE     ---       #964
      010006FDH   LINE      CODE     ---       #965
      010006FEH   LINE      CODE     ---       #966
      010006FFH   LINE      CODE     ---       #967
      01000700H   LINE      CODE     ---       #968
      01000701H   LINE      CODE     ---       #969
      01000702H   LINE      CODE     ---       #970
      01000703H   LINE      CODE     ---       #971
      01000705H   LINE      CODE     ---       #972
      01000706H   LINE      CODE     ---       #973
      01000708H   LINE      CODE     ---       #974
      0100070AH   LINE      CODE     ---       #975
      0100070CH   LINE      CODE     ---       #976
      0100070FH   LINE      CODE     ---       #982
      01000710H   LINE      CODE     ---       #983
      01000712H   LINE      CODE     ---       #984
      01000713H   LINE      CODE     ---       #985
      01000715H   LINE      CODE     ---       #986
      01000716H   LINE      CODE     ---       #987
      01000717H   LINE      CODE     ---       #988
      01000718H   LINE      CODE     ---       #989
      01000719H   LINE      CODE     ---       #990
      0100071AH   LINE      CODE     ---       #995
      0100071BH   LINE      CODE     ---       #996
      0100071CH   LINE      CODE     ---       #997
      0100071DH   LINE      CODE     ---       #998
      0100071EH   LINE      CODE     ---       #999
      0100071FH   LINE      CODE     ---       #1000
      01000721H   LINE      CODE     ---       #1001
      01000722H   LINE      CODE     ---       #1002
      01000723H   LINE      CODE     ---       #1003
      01000724H   LINE      CODE     ---       #1005
      01000725H   LINE      CODE     ---       #1006
      01000727H   LINE      CODE     ---       #1007
      01000728H   LINE      CODE     ---       #1008
      0100072AH   LINE      CODE     ---       #1009
      0100072CH   LINE      CODE     ---       #1010
      0100072EH   LINE      CODE     ---       #1011
      01000730H   LINE      CODE     ---       #1012
      01000731H   LINE      CODE     ---       #1013
      01000732H   LINE      CODE     ---       #1014
      01000734H   LINE      CODE     ---       #1015
      01000736H   LINE      CODE     ---       #1016
      01000738H   LINE      CODE     ---       #1017
      0100073BH   LINE      CODE     ---       #1031
      0100073DH   LINE      CODE     ---       #1032
      0100073EH   LINE      CODE     ---       #1033
      01000740H   LINE      CODE     ---       #1034
      01000741H   LINE      CODE     ---       #1035
      01000742H   LINE      CODE     ---       #1036
      01000743H   LINE      CODE     ---       #1037
      01000744H   LINE      CODE     ---       #1038
      01000745H   LINE      CODE     ---       #1039
      01000747H   LINE      CODE     ---       #1040
      01000749H   LINE      CODE     ---       #1041
      0100074BH   LINE      CODE     ---       #1042
      0100074DH   LINE      CODE     ---       #1043
      0100074FH   LINE      CODE     ---       #1044
      01000752H   LINE      CODE     ---       #1045
      01000754H   LINE      CODE     ---       #1046
      01000756H   LINE      CODE     ---       #1047
LX51 LINKER/LOCATER V4.34a                                                            05/05/2009  14:28:33  PAGE 19


      01000757H   LINE      CODE     ---       #1048
      01000758H   LINE      CODE     ---       #1051
      0100075AH   LINE      CODE     ---       #1052
      0100075CH   LINE      CODE     ---       #1053
      0100075EH   LINE      CODE     ---       #1054
      01000760H   LINE      CODE     ---       #1055
      01000762H   LINE      CODE     ---       #1056
      01000765H   LINE      CODE     ---       #1057
      01000767H   LINE      CODE     ---       #1058
      01000769H   LINE      CODE     ---       #1059
      0100076AH   LINE      CODE     ---       #1060
      0100076BH   LINE      CODE     ---       #1065
      0100076DH   LINE      CODE     ---       #1066
      0100076EH   LINE      CODE     ---       #1067
      0100076FH   LINE      CODE     ---       #1068
      01000770H   LINE      CODE     ---       #1069
      01000771H   LINE      CODE     ---       #1070
      01000772H   LINE      CODE     ---       #1071
      01000773H   LINE      CODE     ---       #1072
      01000775H   LINE      CODE     ---       #1073
      01000776H   LINE      CODE     ---       #1074
      01000778H   LINE      CODE     ---       #1076
      0100077AH   LINE      CODE     ---       #1077
      0100077BH   LINE      CODE     ---       #1078
      0100077DH   LINE      CODE     ---       #1079
      0100077EH   LINE      CODE     ---       #1080
      0100077FH   LINE      CODE     ---       #1081
      01000780H   LINE      CODE     ---       #1082
      01000781H   LINE      CODE     ---       #1083
      01000782H   LINE      CODE     ---       #1084
      01000783H   LINE      CODE     ---       #1085
      01000784H   LINE      CODE     ---       #1086
      01000785H   LINE      CODE     ---       #1087
      01000786H   LINE      CODE     ---       #1088
      01000787H   LINE      CODE     ---       #1089
      01000788H   LINE      CODE     ---       #1090
      01000789H   LINE      CODE     ---       #1091
      0100078BH   LINE      CODE     ---       #1092
      0100078DH   LINE      CODE     ---       #1093
      0100078EH   LINE      CODE     ---       #1094
      0100078FH   LINE      CODE     ---       #1095
      01000791H   LINE      CODE     ---       #1096
      01000793H   LINE      CODE     ---       #1097
      01000795H   LINE      CODE     ---       #1098
      01000798H   LINE      CODE     ---       #1108
      0100079AH   LINE      CODE     ---       #1109
      0100079BH   LINE      CODE     ---       #1110
      0100079DH   LINE      CODE     ---       #1111
      0100079EH   LINE      CODE     ---       #1112
      0100079FH   LINE      CODE     ---       #1113
      010007A0H   LINE      CODE     ---       #1114
      010007A1H   LINE      CODE     ---       #1115
      010007A2H   LINE      CODE     ---       #1116
      010007A3H   LINE      CODE     ---       #1117
      010007A4H   LINE      CODE     ---       #1118
      010007A5H   LINE      CODE     ---       #1119
      010007A7H   LINE      CODE     ---       #1120
      010007A8H   LINE      CODE     ---       #1121
      010007A9H   LINE      CODE     ---       #1122
      010007AAH   LINE      CODE     ---       #1123
      010007ACH   LINE      CODE     ---       #1124
      010007AEH   LINE      CODE     ---       #1125
      010007B0H   LINE      CODE     ---       #1126
      010007B2H   LINE      CODE     ---       #1127
      010007B4H   LINE      CODE     ---       #1128
LX51 LINKER/LOCATER V4.34a                                                            05/05/2009  14:28:33  PAGE 20


      010007B7H   LINE      CODE     ---       #1129
      010007B8H   LINE      CODE     ---       #1130
      010007BAH   LINE      CODE     ---       #1131
      010007BCH   LINE      CODE     ---       #1132
      010007BDH   LINE      CODE     ---       #1133
      010007BEH   LINE      CODE     ---       #1134
      010007BFH   LINE      CODE     ---       #1135
      010007C0H   LINE      CODE     ---       #1136
      010007C1H   LINE      CODE     ---       #1137
      010007C4H   LINE      CODE     ---       #1138
      010007C6H   LINE      CODE     ---       #1139
      010007C8H   LINE      CODE     ---       #1140
      010007CAH   LINE      CODE     ---       #1141
      010007CBH   LINE      CODE     ---       #1142
      010007CDH   LINE      CODE     ---       #1143
      010007CEH   LINE      CODE     ---       #1144
      010007CFH   LINE      CODE     ---       #1145
      010007D0H   LINE      CODE     ---       #1146
      010007D1H   LINE      CODE     ---       #1147
      010007D2H   LINE      CODE     ---       #1148
      010007D3H   LINE      CODE     ---       #1149
      010007D4H   LINE      CODE     ---       #1150
      010007D5H   LINE      CODE     ---       #1151
      010007D7H   LINE      CODE     ---       #1152
      010007D8H   LINE      CODE     ---       #1153
      010007D9H   LINE      CODE     ---       #1154
      010007DAH   LINE      CODE     ---       #1155
      010007DCH   LINE      CODE     ---       #1156
      010007DEH   LINE      CODE     ---       #1157
      010007E0H   LINE      CODE     ---       #1158
      010007E2H   LINE      CODE     ---       #1159
      010007E4H   LINE      CODE     ---       #1160
      010007E7H   LINE      CODE     ---       #1161
      010007E8H   LINE      CODE     ---       #1162
      010007EAH   LINE      CODE     ---       #1163
      010007ECH   LINE      CODE     ---       #1164
      010007EDH   LINE      CODE     ---       #1165
      010007EEH   LINE      CODE     ---       #1166
      010007EFH   LINE      CODE     ---       #1167
      010007F0H   LINE      CODE     ---       #1168
      010007F1H   LINE      CODE     ---       #1169
      010007F3H   LINE      CODE     ---       #1170
      010007F5H   LINE      CODE     ---       #1171
      010007F8H   LINE      CODE     ---       #1172
      010007FAH   LINE      CODE     ---       #1173
      010007FCH   LINE      CODE     ---       #1174
      010007FEH   LINE      CODE     ---       #1175
      01000800H   LINE      CODE     ---       #1176
      01000801H   LINE      CODE     ---       #1177
      01000802H   LINE      CODE     ---       #1178
      01000803H   LINE      CODE     ---       #1179
      01000805H   LINE      CODE     ---       #1180
      01000806H   LINE      CODE     ---       #1181
      01000807H   LINE      CODE     ---       #1182
      01000808H   LINE      CODE     ---       #1183
      01000809H   LINE      CODE     ---       #1184
      0100080AH   LINE      CODE     ---       #1187
      0100080CH   LINE      CODE     ---       #1188
      0100080DH   LINE      CODE     ---       #1189
      0100080EH   LINE      CODE     ---       #1190
      0100080FH   LINE      CODE     ---       #1191
      01000810H   LINE      CODE     ---       #1192
      01000811H   LINE      CODE     ---       #1193
      01000813H   LINE      CODE     ---       #1194
      01000815H   LINE      CODE     ---       #1195
LX51 LINKER/LOCATER V4.34a                                                            05/05/2009  14:28:33  PAGE 21


      01000818H   LINE      CODE     ---       #1196
      0100081AH   LINE      CODE     ---       #1197
      0100081CH   LINE      CODE     ---       #1198
      0100081EH   LINE      CODE     ---       #1199
      0100081FH   LINE      CODE     ---       #1200
      01000821H   LINE      CODE     ---       #1201
      01000822H   LINE      CODE     ---       #1202
      01000823H   LINE      CODE     ---       #1203
      01000824H   LINE      CODE     ---       #1204
      01000825H   LINE      CODE     ---       #1205
      01000826H   LINE      CODE     ---       #1206
      01000827H   LINE      CODE     ---       #1207
      01000828H   LINE      CODE     ---       #1208
      01000829H   LINE      CODE     ---       #1209
      0100082BH   LINE      CODE     ---       #1210
      0100082CH   LINE      CODE     ---       #1211
      0100082DH   LINE      CODE     ---       #1212
      0100082EH   LINE      CODE     ---       #1213
      01000830H   LINE      CODE     ---       #1214
      01000832H   LINE      CODE     ---       #1215
      01000834H   LINE      CODE     ---       #1216
      01000836H   LINE      CODE     ---       #1217
      01000838H   LINE      CODE     ---       #1218
      0100083BH   LINE      CODE     ---       #1219
      0100083CH   LINE      CODE     ---       #1220
      0100083EH   LINE      CODE     ---       #1221
      01000840H   LINE      CODE     ---       #1222
      01000841H   LINE      CODE     ---       #1223
      01000842H   LINE      CODE     ---       #1224
      01000843H   LINE      CODE     ---       #1225
      01000844H   LINE      CODE     ---       #1226
      01000845H   LINE      CODE     ---       #1227
      01000848H   LINE      CODE     ---       #1228
      0100084AH   LINE      CODE     ---       #1229
      0100084BH   LINE      CODE     ---       #1230
      0100084DH   LINE      CODE     ---       #1231
      0100084EH   LINE      CODE     ---       #1232
      01000850H   LINE      CODE     ---       #1233
      01000851H   LINE      CODE     ---       #1234
      01000852H   LINE      CODE     ---       #1235
      01000853H   LINE      CODE     ---       #1240
      01000855H   LINE      CODE     ---       #1241
      01000856H   LINE      CODE     ---       #1242
      01000858H   LINE      CODE     ---       #1243
      01000859H   LINE      CODE     ---       #1244
      0100085AH   LINE      CODE     ---       #1245
      0100085BH   LINE      CODE     ---       #1246
      0100085CH   LINE      CODE     ---       #1247
      0100085DH   LINE      CODE     ---       #1248
      0100085FH   LINE      CODE     ---       #1249
      01000861H   LINE      CODE     ---       #1250
      01000863H   LINE      CODE     ---       #1251
      01000865H   LINE      CODE     ---       #1252
      01000867H   LINE      CODE     ---       #1253
      0100086AH   LINE      CODE     ---       #1254
      0100086CH   LINE      CODE     ---       #1255
      0100086EH   LINE      CODE     ---       #1256
      0100086FH   LINE      CODE     ---       #1257
      01000870H   LINE      CODE     ---       #1260
      01000872H   LINE      CODE     ---       #1261
      01000874H   LINE      CODE     ---       #1262
      01000876H   LINE      CODE     ---       #1263
      01000878H   LINE      CODE     ---       #1264
      0100087AH   LINE      CODE     ---       #1265
      0100087DH   LINE      CODE     ---       #1266
LX51 LINKER/LOCATER V4.34a                                                            05/05/2009  14:28:33  PAGE 22


      0100087FH   LINE      CODE     ---       #1267
      01000881H   LINE      CODE     ---       #1268
      01000882H   LINE      CODE     ---       #1269
      01000883H   LINE      CODE     ---       #1272
      01000885H   LINE      CODE     ---       #1273
      01000886H   LINE      CODE     ---       #1274
      01000888H   LINE      CODE     ---       #1275
      01000889H   LINE      CODE     ---       #1276
      0100088AH   LINE      CODE     ---       #1277
      0100088BH   LINE      CODE     ---       #1278
      0100088CH   LINE      CODE     ---       #1279
      0100088DH   LINE      CODE     ---       #1280
      0100088EH   LINE      CODE     ---       #1281
      0100088FH   LINE      CODE     ---       #1282
      01000891H   LINE      CODE     ---       #1283
      01000892H   LINE      CODE     ---       #1284
      01000894H   LINE      CODE     ---       #1285
      01000895H   LINE      CODE     ---       #1286
      01000896H   LINE      CODE     ---       #1287
      01000897H   LINE      CODE     ---       #1288
      01000898H   LINE      CODE     ---       #1289
      0100089AH   LINE      CODE     ---       #1290
      0100089CH   LINE      CODE     ---       #1291
      0100089EH   LINE      CODE     ---       #1292
      010008A0H   LINE      CODE     ---       #1293
      010008A2H   LINE      CODE     ---       #1294
      010008A3H   LINE      CODE     ---       #1295
      010008A5H   LINE      CODE     ---       #1296
      010008A8H   LINE      CODE     ---       #1299
      010008AAH   LINE      CODE     ---       #1300
      010008ABH   LINE      CODE     ---       #1301
      010008ADH   LINE      CODE     ---       #1302
      010008AEH   LINE      CODE     ---       #1303
      010008AFH   LINE      CODE     ---       #1304
      010008B0H   LINE      CODE     ---       #1305
      010008B1H   LINE      CODE     ---       #1306
      010008B2H   LINE      CODE     ---       #1307
      010008B3H   LINE      CODE     ---       #1308
      010008B4H   LINE      CODE     ---       #1309
      010008B6H   LINE      CODE     ---       #1310
      010008B7H   LINE      CODE     ---       #1311
      010008B9H   LINE      CODE     ---       #1312
      010008BAH   LINE      CODE     ---       #1313
      010008BBH   LINE      CODE     ---       #1314
      010008BCH   LINE      CODE     ---       #1315
      010008BDH   LINE      CODE     ---       #1316
      010008BFH   LINE      CODE     ---       #1317
      010008C1H   LINE      CODE     ---       #1318
      010008C3H   LINE      CODE     ---       #1319
      010008C5H   LINE      CODE     ---       #1320
      010008C7H   LINE      CODE     ---       #1321
      010008C8H   LINE      CODE     ---       #1322
      010008CAH   LINE      CODE     ---       #1323
      010008CDH   LINE      CODE     ---       #1326
      010008CEH   LINE      CODE     ---       #1327
      010008D0H   LINE      CODE     ---       #1328
      010008D1H   LINE      CODE     ---       #1329
      010008D3H   LINE      CODE     ---       #1330
      010008D4H   LINE      CODE     ---       #1331
      010008D5H   LINE      CODE     ---       #1332
      010008D6H   LINE      CODE     ---       #1333
      010008D7H   LINE      CODE     ---       #1334
      010008D8H   LINE      CODE     ---       #1335
      010008D9H   LINE      CODE     ---       #1336
      010008DAH   LINE      CODE     ---       #1337
LX51 LINKER/LOCATER V4.34a                                                            05/05/2009  14:28:33  PAGE 23


      010008DCH   LINE      CODE     ---       #1338
      010008DDH   LINE      CODE     ---       #1339
      010008DFH   LINE      CODE     ---       #1340
      010008E0H   LINE      CODE     ---       #1341
      010008E1H   LINE      CODE     ---       #1342
      010008E2H   LINE      CODE     ---       #1343
      010008E3H   LINE      CODE     ---       #1344
      010008E4H   LINE      CODE     ---       #1345
      010008E5H   LINE      CODE     ---       #1346
      010008E6H   LINE      CODE     ---       #1347
      010008E7H   LINE      CODE     ---       #1348
      010008E9H   LINE      CODE     ---       #1349
      010008EAH   LINE      CODE     ---       #1350
      010008EBH   LINE      CODE     ---       #1351
      010008ECH   LINE      CODE     ---       #1352
      010008EEH   LINE      CODE     ---       #1353
      010008F0H   LINE      CODE     ---       #1354
      010008F2H   LINE      CODE     ---       #1355
      010008F4H   LINE      CODE     ---       #1356
      010008F6H   LINE      CODE     ---       #1357
      010008F7H   LINE      CODE     ---       #1358
      010008F9H   LINE      CODE     ---       #1359
      010008FCH   LINE      CODE     ---       #1362
      010008FDH   LINE      CODE     ---       #1363
      010008FFH   LINE      CODE     ---       #1364
      01000900H   LINE      CODE     ---       #1365
      01000902H   LINE      CODE     ---       #1366
      01000903H   LINE      CODE     ---       #1367
      01000904H   LINE      CODE     ---       #1368
      01000905H   LINE      CODE     ---       #1369
      01000906H   LINE      CODE     ---       #1370
      01000907H   LINE      CODE     ---       #1371
      01000908H   LINE      CODE     ---       #1372
      01000909H   LINE      CODE     ---       #1373
      0100090BH   LINE      CODE     ---       #1374
      0100090CH   LINE      CODE     ---       #1375
      0100090EH   LINE      CODE     ---       #1376
      0100090FH   LINE      CODE     ---       #1377
      01000910H   LINE      CODE     ---       #1378
      01000911H   LINE      CODE     ---       #1379
      01000912H   LINE      CODE     ---       #1380
      01000913H   LINE      CODE     ---       #1381
      01000914H   LINE      CODE     ---       #1382
      01000915H   LINE      CODE     ---       #1383
      01000916H   LINE      CODE     ---       #1384
      01000918H   LINE      CODE     ---       #1385
      01000919H   LINE      CODE     ---       #1386
      0100091AH   LINE      CODE     ---       #1387
      0100091BH   LINE      CODE     ---       #1388
      0100091DH   LINE      CODE     ---       #1389
      0100091FH   LINE      CODE     ---       #1390
      01000921H   LINE      CODE     ---       #1391
      01000923H   LINE      CODE     ---       #1392
      01000925H   LINE      CODE     ---       #1393
      01000926H   LINE      CODE     ---       #1394
      01000928H   LINE      CODE     ---       #1395
      0100092BH   LINE      CODE     ---       #1402
      0100092DH   LINE      CODE     ---       #1403
      0100092EH   LINE      CODE     ---       #1404
      0100092FH   LINE      CODE     ---       #1405
      01000930H   LINE      CODE     ---       #1406
      01000932H   LINE      CODE     ---       #1407
      01000933H   LINE      CODE     ---       #1409
      01000936H   LINE      CODE     ---       #1413
      01000938H   LINE      CODE     ---       #1414
LX51 LINKER/LOCATER V4.34a                                                            05/05/2009  14:28:33  PAGE 24


      01000939H   LINE      CODE     ---       #1415
      0100093AH   LINE      CODE     ---       #1416
      0100093BH   LINE      CODE     ---       #1417
      0100093CH   LINE      CODE     ---       #1418
      0100093EH   LINE      CODE     ---       #1419
      0100093FH   LINE      CODE     ---       #1420
      01000940H   LINE      CODE     ---       #1421
      01000941H   LINE      CODE     ---       #1422
      01000942H   LINE      CODE     ---       #1423
      01000943H   LINE      CODE     ---       #1424
      01000944H   LINE      CODE     ---       #1425
      01000946H   LINE      CODE     ---       #1426
      01000947H   LINE      CODE     ---       #1427
      01000948H   LINE      CODE     ---       #1428
      01000949H   LINE      CODE     ---       #1429
      0100094BH   LINE      CODE     ---       #1430
      0100094EH   LINE      CODE     ---       #1431
      0100094FH   LINE      CODE     ---       #1433
      01000952H   LINE      CODE     ---       #1437
      01000954H   LINE      CODE     ---       #1438
      01000955H   LINE      CODE     ---       #1439
      01000957H   LINE      CODE     ---       #1440
      01000958H   LINE      CODE     ---       #1441
      0100095AH   LINE      CODE     ---       #1442
      0100095BH   LINE      CODE     ---       #1443
      0100095CH   LINE      CODE     ---       #1444
      0100095DH   LINE      CODE     ---       #1445
      0100095EH   LINE      CODE     ---       #1446
      0100095FH   LINE      CODE     ---       #1447
      01000960H   LINE      CODE     ---       #1448
      01000963H   LINE      CODE     ---       #1452
      ---         BLOCKEND  ---      ---       LVL=0

      01000CFAH   BLOCK     CODE     NEAR LAB  LVL=0
      01000CFAH   LINE      CODE     ---       #1481
      01000CFCH   LINE      CODE     ---       #1482
      01000CFEH   LINE      CODE     ---       #1483
      01000D01H   LINE      CODE     ---       #1487
      01000D04H   LINE      CODE     ---       #1490
      01000D07H   LINE      CODE     ---       #1494
      01000D08H   LINE      CODE     ---       #1495
      01000D0AH   LINE      CODE     ---       #1496
      01000D0BH   LINE      CODE     ---       #1497
      01000D0CH   LINE      CODE     ---       #1498
      01000D0DH   LINE      CODE     ---       #1504
      01000D10H   LINE      CODE     ---       #1507
      01000D12H   LINE      CODE     ---       #1508
      01000D14H   LINE      CODE     ---       #1509
      01000D17H   LINE      CODE     ---       #1512
      01000D19H   LINE      CODE     ---       #1513
      01000D1AH   LINE      CODE     ---       #1514
      01000D1BH   LINE      CODE     ---       #1515
      01000D1CH   LINE      CODE     ---       #1516
      01000D1EH   LINE      CODE     ---       #1517
      01000D1FH   LINE      CODE     ---       #1519
      01000D20H   LINE      CODE     ---       #1520
      01000D22H   LINE      CODE     ---       #1521
      01000D23H   LINE      CODE     ---       #1522
      01000D25H   LINE      CODE     ---       #1523
      01000D26H   LINE      CODE     ---       #1524
      01000D27H   LINE      CODE     ---       #1525
      01000D29H   LINE      CODE     ---       #1526
      01000D2BH   LINE      CODE     ---       #1527
      01000D2DH   LINE      CODE     ---       #1541
      01000D30H   LINE      CODE     ---       #1547
LX51 LINKER/LOCATER V4.34a                                                            05/05/2009  14:28:33  PAGE 25


      01000D32H   LINE      CODE     ---       #1548
      01000D34H   LINE      CODE     ---       #1549
      01000D35H   LINE      CODE     ---       #1550
      01000D37H   LINE      CODE     ---       #1553
      01000D3AH   LINE      CODE     ---       #1554
      01000D3DH   LINE      CODE     ---       #1555
      01000D40H   LINE      CODE     ---       #1557
      01000D42H   LINE      CODE     ---       #1558
      01000D44H   LINE      CODE     ---       #1560
      01000D46H   LINE      CODE     ---       #1561
      01000D48H   LINE      CODE     ---       #1564
      01000D4AH   LINE      CODE     ---       #1565
      01000D4CH   LINE      CODE     ---       #1568
      01000D4EH   LINE      CODE     ---       #1569
      01000D50H   LINE      CODE     ---       #1572
      01000D52H   LINE      CODE     ---       #1573
      01000D54H   LINE      CODE     ---       #1576
      01000D57H   LINE      CODE     ---       #1577
      01000D5AH   LINE      CODE     ---       #1578
      01000D5DH   LINE      CODE     ---       #1579
      01000D60H   LINE      CODE     ---       #1582
      01000D62H   LINE      CODE     ---       #1583
      01000D63H   LINE      CODE     ---       #1584
      01000D64H   LINE      CODE     ---       #1585
      01000D65H   LINE      CODE     ---       #1586
      01000D66H   LINE      CODE     ---       #1587
      01000D67H   LINE      CODE     ---       #1588
      01000D6AH   LINE      CODE     ---       #1589
      01000D6DH   LINE      CODE     ---       #1590
      01000D70H   LINE      CODE     ---       #1591
      01000D73H   LINE      CODE     ---       #1592
      01000D76H   LINE      CODE     ---       #1593
      01000D79H   LINE      CODE     ---       #1594
      01000D7CH   LINE      CODE     ---       #1595
      01000D7FH   LINE      CODE     ---       #1596
      01000D82H   LINE      CODE     ---       #1597
      01000D84H   LINE      CODE     ---       #1598
      01000D86H   LINE      CODE     ---       #1599
      01000D88H   LINE      CODE     ---       #1600
      01000D8BH   LINE      CODE     ---       #1603
      01000D8DH   LINE      CODE     ---       #1604
      01000D8EH   LINE      CODE     ---       #1605
      01000D8FH   LINE      CODE     ---       #1606
      01000D90H   LINE      CODE     ---       #1607
      01000D91H   LINE      CODE     ---       #1608
      01000D92H   LINE      CODE     ---       #1609
      01000D95H   LINE      CODE     ---       #1610
      01000D98H   LINE      CODE     ---       #1611
      01000D9BH   LINE      CODE     ---       #1612
      01000D9DH   LINE      CODE     ---       #1613
      01000D9FH   LINE      CODE     ---       #1614
      01000DA1H   LINE      CODE     ---       #1615
      01000DA4H   LINE      CODE     ---       #1622
      ---         BLOCKEND  ---      ---       LVL=0

      ---         MODULE    ---      ---       ISR_RF
      00000039H   PUBLIC    DATA     BYTE      ?_RF_SEND?BYTE
      01000FA1H   PUBLIC    CODE     NEAR LAB  _RF_CONFIGURE
      01000E32H   PUBLIC    CODE     NEAR LAB  _RF_SEND
      00000008H   PUBLIC    DATA     BYTE      RF_BUF
      01003058H   PUBLIC    CODE     NEAR LAB  RF_CH1_RECV
      01001205H   PUBLIC    CODE     NEAR LAB  RF_INIT
      0100304FH   PUBLIC    CODE     NEAR LAB  RF_WAIT_MSG
      000000D0H.6 SFRSYM    DATA     BIT       AC
      000000E0H   SFRSYM    DATA     BYTE      ACC
LX51 LINKER/LOCATER V4.34a                                                            05/05/2009  14:28:33  PAGE 26


      000000A1H   SFRSYM    DATA     BYTE      ADCCON
      000000A2H   SFRSYM    DATA     BYTE      ADCDATAH
      000000A3H   SFRSYM    DATA     BYTE      ADCDATAL
      000000A4H   SFRSYM    DATA     BYTE      ADCSTATIC
      000000F0H   SFRSYM    DATA     BYTE      B
      000000C8H.1 SFRSYM    DATA     BIT       C_T2
      000000A0H.6 SFRSYM    DATA     BIT       CE
      000000B6H   SFRSYM    DATA     BYTE      CK_CTRL
      0000008EH   SFRSYM    DATA     BYTE      CKCON
      000000A0H.1 SFRSYM    DATA     BIT       CLK1
      000000A0H.5 SFRSYM    DATA     BIT       CLK2
      000000C8H   SFRSYM    DATA     BIT       CP_RL2
      000000C8H   SFRSYM    DATA     BIT       CPRL2
      000000A0H.3 SFRSYM    DATA     BIT       CS
      000000C8H.1 SFRSYM    DATA     BIT       CT2
      000000D0H.7 SFRSYM    DATA     BIT       CY
      000000A0H   SFRSYM    DATA     BIT       DATA?
      000000BEH   SFRSYM    DATA     BYTE      DEV_OFFSET
      00000090H.2 SFRSYM    DATA     BIT       DIN0
      00000090H   SFRSYM    DATA     BIT       DIO0
      00000090H.1 SFRSYM    DATA     BIT       DIO1
      00000080H   SFRSYM    DATA     BIT       DIO2
      00000080H.1 SFRSYM    DATA     BIT       DIO3
      00000080H.2 SFRSYM    DATA     BIT       DIO4
      00000080H.3 SFRSYM    DATA     BIT       DIO5
      00000080H.4 SFRSYM    DATA     BIT       DIO6
      00000080H.5 SFRSYM    DATA     BIT       DIO7
      00000080H.6 SFRSYM    DATA     BIT       DIO8
      00000080H.7 SFRSYM    DATA     BIT       DIO9
      000000A0H.4 SFRSYM    DATA     BIT       DOUT2
      00000083H   SFRSYM    DATA     BYTE      DPH
      00000083H   SFRSYM    DATA     BYTE      DPH0
      00000085H   SFRSYM    DATA     BYTE      DPH1
      00000082H   SFRSYM    DATA     BYTE      DPL
      00000082H   SFRSYM    DATA     BYTE      DPL0
      00000084H   SFRSYM    DATA     BYTE      DPL1
      00000086H   SFRSYM    DATA     BYTE      DPS
      000000A0H.2 SFRSYM    DATA     BIT       DR1
      000000A0H.6 SFRSYM    DATA     BIT       DR2
      000000A0H.6 SFRSYM    DATA     BIT       DR2_CE
      000000A8H.7 SFRSYM    DATA     BIT       EA
      000000D8H   SFRSYM    DATA     BYTE      EICON
      000000E8H   SFRSYM    DATA     BYTE      EIE
      000000F8H   SFRSYM    DATA     BYTE      EIP
      000000A8H.4 SFRSYM    DATA     BIT       ES
      000000A8H.1 SFRSYM    DATA     BIT       ET0
      000000A8H.3 SFRSYM    DATA     BIT       ET1
      000000A8H.5 SFRSYM    DATA     BIT       ET2
      000000E8H.4 SFRSYM    DATA     BIT       EWDI
      000000A8H   SFRSYM    DATA     BIT       EX0
      000000A8H.2 SFRSYM    DATA     BIT       EX1
      000000E8H   SFRSYM    DATA     BIT       EX2
      000000E8H.1 SFRSYM    DATA     BIT       EX3
      000000E8H.2 SFRSYM    DATA     BIT       EX4
      000000E8H.3 SFRSYM    DATA     BIT       EX5
      000000C8H.3 SFRSYM    DATA     BIT       EXEN2
      000000C8H.6 SFRSYM    DATA     BIT       EXF2
      00000091H   SFRSYM    DATA     BYTE      EXIF
      000000D0H.5 SFRSYM    DATA     BIT       F0
      000000D0H.1 SFRSYM    DATA     BIT       F1
      000000A8H   SFRSYM    DATA     BYTE      IE
      00000088H.1 SFRSYM    DATA     BIT       IE0
      00000088H.3 SFRSYM    DATA     BIT       IE1
      00000080H.3 SFRSYM    DATA     BIT       INT0_N
      00000080H.4 SFRSYM    DATA     BIT       INT1_N
LX51 LINKER/LOCATER V4.34a                                                            05/05/2009  14:28:33  PAGE 27


      000000B8H   SFRSYM    DATA     BYTE      IP
      00000088H   SFRSYM    DATA     BIT       IT0
      00000088H.2 SFRSYM    DATA     BIT       IT1
      00000092H   SFRSYM    DATA     BYTE      MPAGE
      000000D0H.2 SFRSYM    DATA     BIT       OV
      000000D0H   SFRSYM    DATA     BIT       P
      00000080H   SFRSYM    DATA     BYTE      P0
      00000080H   SFRSYM    DATA     BIT       P0_0
      00000080H.1 SFRSYM    DATA     BIT       P0_1
      00000080H.2 SFRSYM    DATA     BIT       P0_2
      00000080H.3 SFRSYM    DATA     BIT       P0_3
      00000080H.4 SFRSYM    DATA     BIT       P0_4
      00000080H.5 SFRSYM    DATA     BIT       P0_5
      00000080H.6 SFRSYM    DATA     BIT       P0_6
      00000080H.7 SFRSYM    DATA     BIT       P0_7
      00000095H   SFRSYM    DATA     BYTE      P0_ALT
      00000094H   SFRSYM    DATA     BYTE      P0_DIR
      00000090H   SFRSYM    DATA     BYTE      P1
      00000090H   SFRSYM    DATA     BIT       P1_0
      00000090H.1 SFRSYM    DATA     BIT       P1_1
      00000090H.2 SFRSYM    DATA     BIT       P1_2
      00000097H   SFRSYM    DATA     BYTE      P1_ALT
      00000096H   SFRSYM    DATA     BYTE      P1_DIR
      00000087H   SFRSYM    DATA     BYTE      PCON
      000000B8H.4 SFRSYM    DATA     BIT       PS
      000000D0H   SFRSYM    DATA     BYTE      PSW
      000000B8H.1 SFRSYM    DATA     BIT       PT0
      000000B8H.3 SFRSYM    DATA     BIT       PT1
      000000B8H.5 SFRSYM    DATA     BIT       PT2
      000000F8H.4 SFRSYM    DATA     BIT       PWDI
      00000080H.7 SFRSYM    DATA     BIT       PWM
      000000A9H   SFRSYM    DATA     BYTE      PWMCON
      000000AAH   SFRSYM    DATA     BYTE      PWMDUTY
      000000A0H.7 SFRSYM    DATA     BIT       PWR_UP
      000000B8H   SFRSYM    DATA     BIT       PX0
      000000B8H.2 SFRSYM    DATA     BIT       PX1
      000000F8H   SFRSYM    DATA     BIT       PX2
      000000F8H.1 SFRSYM    DATA     BIT       PX3
      000000F8H.2 SFRSYM    DATA     BIT       PX4
      000000F8H.3 SFRSYM    DATA     BIT       PX5
      000000A0H   SFRSYM    DATA     BYTE      RADIO
      00000098H.2 SFRSYM    DATA     BIT       RB8
      000000CBH   SFRSYM    DATA     BYTE      RCAP2H
      000000CAH   SFRSYM    DATA     BYTE      RCAP2L
      000000C8H.5 SFRSYM    DATA     BIT       RCLK
      000000ADH   SFRSYM    DATA     BYTE      REGX_CTRL
      000000ACH   SFRSYM    DATA     BYTE      REGX_LSB
      000000ABH   SFRSYM    DATA     BYTE      REGX_MSB
      00000098H.4 SFRSYM    DATA     BIT       REN
      00000098H   SFRSYM    DATA     BIT       RI
      000000D0H.3 SFRSYM    DATA     BIT       RS0
      000000D0H.4 SFRSYM    DATA     BIT       RS1
      000000B1H   SFRSYM    DATA     BYTE      RSTREAS
      00000080H.1 SFRSYM    DATA     BIT       RXD
      00000099H   SFRSYM    DATA     BYTE      SBUF
      00000098H   SFRSYM    DATA     BYTE      SCON
      00000098H.7 SFRSYM    DATA     BIT       SM0
      00000098H.6 SFRSYM    DATA     BIT       SM1
      00000098H.5 SFRSYM    DATA     BIT       SM2
      00000081H   SFRSYM    DATA     BYTE      SP
      0000008FH   SFRSYM    DATA     BYTE      SPC_FNC
      000000B3H   SFRSYM    DATA     BYTE      SPI_CTRL
      000000B2H   SFRSYM    DATA     BYTE      SPI_DATA
      000000B4H   SFRSYM    DATA     BYTE      SPICLK
      00000080H.5 SFRSYM    DATA     BIT       T0
LX51 LINKER/LOCATER V4.34a                                                            05/05/2009  14:28:33  PAGE 28


      00000080H.6 SFRSYM    DATA     BIT       T1
      000000BCH   SFRSYM    DATA     BYTE      T1_1V2
      00000090H   SFRSYM    DATA     BIT       T2
      000000BDH   SFRSYM    DATA     BYTE      T2_1V2
      000000C8H   SFRSYM    DATA     BYTE      T2CON
      00000098H.3 SFRSYM    DATA     BIT       TB8
      000000C8H.4 SFRSYM    DATA     BIT       TCLK
      00000088H   SFRSYM    DATA     BYTE      TCON
      000000B7H   SFRSYM    DATA     BYTE      TEST_MODE
      00000088H.5 SFRSYM    DATA     BIT       TF0
      00000088H.7 SFRSYM    DATA     BIT       TF1
      000000C8H.7 SFRSYM    DATA     BIT       TF2
      0000008CH   SFRSYM    DATA     BYTE      TH0
      0000008DH   SFRSYM    DATA     BYTE      TH1
      000000CDH   SFRSYM    DATA     BYTE      TH2
      00000098H.1 SFRSYM    DATA     BIT       TI
      000000B5H   SFRSYM    DATA     BYTE      TICK_DV
      0000008AH   SFRSYM    DATA     BYTE      TL0
      0000008BH   SFRSYM    DATA     BYTE      TL1
      000000CCH   SFRSYM    DATA     BYTE      TL2
      00000089H   SFRSYM    DATA     BYTE      TMOD
      00000088H.4 SFRSYM    DATA     BIT       TR0
      00000088H.6 SFRSYM    DATA     BIT       TR1
      000000C8H.2 SFRSYM    DATA     BIT       TR2
      00000080H.2 SFRSYM    DATA     BIT       TXD
      000000D8H.3 SFRSYM    DATA     BIT       WDTI
      00000063H   SYMBOL    DATA     BYTE      ?_RF_CONFIGURE?BYTE
      01000FAEH   SYMBOL    CODE     NEAR LAB  ?C0002
      01000FD4H   SYMBOL    CODE     NEAR LAB  ?C0003
      01000E41H   SYMBOL    CODE     NEAR LAB  ?C0006
      01000E6BH   SYMBOL    CODE     NEAR LAB  ?C0007
      01000E70H   SYMBOL    CODE     NEAR LAB  ?C0009
      01000E9AH   SYMBOL    CODE     NEAR LAB  ?C0010
      0100307FH   SYMBOL    CODE     NEAR LAB  ?C0015
      01003097H   SYMBOL    CODE     NEAR LAB  ?C0016
      01003051H   SYMBOL    CODE     NEAR LAB  ?C0018
      01003055H   SYMBOL    CODE     NEAR LAB  ?C0019
      01000FC9H   SYMBOL    CODE     NEAR LAB  ?C0021
      01000E69H   SYMBOL    CODE     NEAR LAB  ?C0022
      01000E98H   SYMBOL    CODE     NEAR LAB  ?C0023
      0100308FH   SYMBOL    CODE     NEAR LAB  ?C0024
      00000077H   SYMBOL    DATA     BYTE      ?RF_CH1_RECV?BYTE
      0100309AH   SYMBOL    CODE     NEAR LAB  ?RF_CH1_RECV?OUT
      00000039H   SYMBOL    DATA     BYTE      ADDR?243
      0000003CH   SYMBOL    DATA     BYTE      ADDR_LEN?244
      00000066H   SYMBOL    DATA     BYTE      I?142
      00000041H   SYMBOL    DATA     BYTE      I?247
      00000077H   SYMBOL    DATA     BYTE      I?348
      00000063H   SYMBOL    DATA     BYTE      P?141
      0000003DH   SYMBOL    DATA     BYTE      PAYLOAD?245
      00000040H   SYMBOL    DATA     BYTE      PL_LEN?246

      01001205H   BLOCK     CODE     NEAR LAB  LVL=0
      01001205H   LINE      CODE     ---       #265
      01001207H   LINE      CODE     ---       #269
      01001208H   LINE      CODE     ---       #270
      01001209H   LINE      CODE     ---       #271
      0100120BH   LINE      CODE     ---       #272
      0100120EH   LINE      CODE     ---       #275
      01001210H   LINE      CODE     ---       #278
      01001212H   LINE      CODE     ---       #281
      ---         BLOCKEND  ---      ---       LVL=0

      01000FA1H   BLOCK     CODE     NEAR LAB  LVL=0
      01000FA1H   LINE      CODE     ---       #304
LX51 LINKER/LOCATER V4.34a                                                            05/05/2009  14:28:33  PAGE 29


      01000FA3H   LINE      CODE     ---       #308
      01000FA5H   LINE      CODE     ---       #309
      01000FA7H   LINE      CODE     ---       #310
      01000FA9H   LINE      CODE     ---       #314
      01000FAAH   LINE      CODE     ---       #315
      01000FACH   LINE      CODE     ---       #316
      01000FAEH   LINE      CODE     ---       #320
      01000FB0H   LINE      CODE     ---       #321
      01000FB2H   LINE      CODE     ---       #322
      01000FB4H   LINE      CODE     ---       #323
      01000FB7H   LINE      CODE     ---       #324
      01000FBAH   LINE      CODE     ---       #325
      01000FBDH   LINE      CODE     ---       #326
      01000FBEH   LINE      CODE     ---       #327
      01000FC1H   LINE      CODE     ---       #330
      01000FC3H   LINE      CODE     ---       #331
      01000FC5H   LINE      CODE     ---       #332
      01000FC7H   LINE      CODE     ---       #333
      01000FC9H   LINE      CODE     ---       #335
      01000FCAH   LINE      CODE     ---       #336
      01000FCCH   LINE      CODE     ---       #337
      01000FCEH   LINE      CODE     ---       #338
      01000FD0H   LINE      CODE     ---       #339
      01000FD2H   LINE      CODE     ---       #340
      01000FD4H   LINE      CODE     ---       #345
      01000FD6H   LINE      CODE     ---       #348
      ---         BLOCKEND  ---      ---       LVL=0

      01000E32H   BLOCK     CODE     NEAR LAB  LVL=0
      01000E32H   LINE      CODE     ---       #365
      01000E34H   LINE      CODE     ---       #366
      01000E36H   LINE      CODE     ---       #367
      01000E38H   LINE      CODE     ---       #368
      01000E3AH   LINE      CODE     ---       #376
      01000E3CH   LINE      CODE     ---       #381
      01000E3DH   LINE      CODE     ---       #382
      01000E3FH   LINE      CODE     ---       #383
      01000E41H   LINE      CODE     ---       #385
      01000E42H   LINE      CODE     ---       #386
      01000E44H   LINE      CODE     ---       #387
      01000E46H   LINE      CODE     ---       #388
      01000E48H   LINE      CODE     ---       #389
      01000E49H   LINE      CODE     ---       #390
      01000E4BH   LINE      CODE     ---       #391
      01000E4CH   LINE      CODE     ---       #392
      01000E4EH   LINE      CODE     ---       #395
      01000E50H   LINE      CODE     ---       #396
      01000E52H   LINE      CODE     ---       #397
      01000E54H   LINE      CODE     ---       #398
      01000E57H   LINE      CODE     ---       #399
      01000E5AH   LINE      CODE     ---       #400
      01000E5DH   LINE      CODE     ---       #401
      01000E5EH   LINE      CODE     ---       #402
      01000E61H   LINE      CODE     ---       #403
      01000E63H   LINE      CODE     ---       #404
      01000E65H   LINE      CODE     ---       #405
      01000E67H   LINE      CODE     ---       #406
      01000E69H   LINE      CODE     ---       #408
      01000E6BH   LINE      CODE     ---       #413
      01000E6CH   LINE      CODE     ---       #414
      01000E6EH   LINE      CODE     ---       #415
      01000E70H   LINE      CODE     ---       #417
      01000E71H   LINE      CODE     ---       #418
      01000E73H   LINE      CODE     ---       #419
      01000E75H   LINE      CODE     ---       #420
LX51 LINKER/LOCATER V4.34a                                                            05/05/2009  14:28:33  PAGE 30


      01000E77H   LINE      CODE     ---       #421
      01000E78H   LINE      CODE     ---       #422
      01000E7AH   LINE      CODE     ---       #423
      01000E7BH   LINE      CODE     ---       #424
      01000E7DH   LINE      CODE     ---       #427
      01000E7FH   LINE      CODE     ---       #428
      01000E81H   LINE      CODE     ---       #429
      01000E83H   LINE      CODE     ---       #430
      01000E86H   LINE      CODE     ---       #431
      01000E89H   LINE      CODE     ---       #432
      01000E8CH   LINE      CODE     ---       #433
      01000E8DH   LINE      CODE     ---       #434
      01000E90H   LINE      CODE     ---       #435
      01000E92H   LINE      CODE     ---       #436
      01000E94H   LINE      CODE     ---       #437
      01000E96H   LINE      CODE     ---       #438
      01000E98H   LINE      CODE     ---       #440
      01000E9AH   LINE      CODE     ---       #445
      01000E9CH   LINE      CODE     ---       #448
      ---         BLOCKEND  ---      ---       LVL=0

      01000053H   BLOCK     CODE     NEAR LAB  LVL=0
      01000053H   LINE      CODE     ---       #452
      ---         BLOCKEND  ---      ---       LVL=0

      01003058H   BLOCK     CODE     NEAR LAB  LVL=0
      01003058H   LINE      CODE     ---       #461
      0100305AH   LINE      CODE     ---       #462
      0100305CH   LINE      CODE     ---       #463
      0100305EH   LINE      CODE     ---       #464
      01003060H   LINE      CODE     ---       #465
      01003062H   LINE      CODE     ---       #466
      01003065H   LINE      CODE     ---       #467
      01003067H   LINE      CODE     ---       #468
      01003069H   LINE      CODE     ---       #469
      0100306BH   LINE      CODE     ---       #470
      0100306DH   LINE      CODE     ---       #471
      0100306FH   LINE      CODE     ---       #472
      01003071H   LINE      CODE     ---       #473
      01003073H   LINE      CODE     ---       #474
      01003075H   LINE      CODE     ---       #480
      01003078H   LINE      CODE     ---       #481
      0100307BH   LINE      CODE     ---       #488
      0100307DH   LINE      CODE     ---       #489
      0100307FH   LINE      CODE     ---       #495
      01003082H   LINE      CODE     ---       #498
      01003083H   LINE      CODE     ---       #499
      01003084H   LINE      CODE     ---       #500
      01003087H   LINE      CODE     ---       #501
      01003089H   LINE      CODE     ---       #502
      0100308BH   LINE      CODE     ---       #503
      0100308DH   LINE      CODE     ---       #504
      0100308FH   LINE      CODE     ---       #506
      01003090H   LINE      CODE     ---       #507
      01003092H   LINE      CODE     ---       #508
      01003093H   LINE      CODE     ---       #509
      01003095H   LINE      CODE     ---       #512
      01003097H   LINE      CODE     ---       #516
      0100309AH   LINE      CODE     ---       #523
      0100309DH   LINE      CODE     ---       #526
      0100309FH   LINE      CODE     ---       #527
      010030A1H   LINE      CODE     ---       #528
      010030A3H   LINE      CODE     ---       #529
      010030A5H   LINE      CODE     ---       #530
      010030A7H   LINE      CODE     ---       #531
LX51 LINKER/LOCATER V4.34a                                                            05/05/2009  14:28:33  PAGE 31


      010030A9H   LINE      CODE     ---       #532
      010030ABH   LINE      CODE     ---       #533
      010030ADH   LINE      CODE     ---       #534
      010030AFH   LINE      CODE     ---       #535
      010030B1H   LINE      CODE     ---       #536
      010030B3H   LINE      CODE     ---       #537
      010030B5H   LINE      CODE     ---       #538
      010030B7H   LINE      CODE     ---       #539
      ---         BLOCKEND  ---      ---       LVL=0

      0100304FH   BLOCK     CODE     NEAR LAB  LVL=0
      0100304FH   LINE      CODE     ---       #555
      01003051H   LINE      CODE     ---       #559
      01003053H   LINE      CODE     ---       #560
      01003055H   LINE      CODE     ---       #565
      01003057H   LINE      CODE     ---       #568
      ---         BLOCKEND  ---      ---       LVL=0

      ---         MODULE    ---      ---       ECO_PAGE
      0000004AH   PUBLIC    DATA     BYTE      ECO_PAGE_ADDR
      0100303BH   PUBLIC    CODE     NEAR LAB  ECO_PAGE_INIT
      01000C1BH   PUBLIC    CODE     NEAR LAB  ECO_PAGE_MANAGER
      00000048H   PUBLIC    DATA     BYTE      ECO_PAGE_PREV_PID
      00000049H   PUBLIC    DATA     BYTE      ECO_PAGE_PREV_VID
      000000CEH   PUBLIC    IDATA    BYTE      ECO_PAGE_REGISTER1
      000000CFH   PUBLIC    IDATA    BYTE      ECO_PAGE_REGISTER2
      000000D0H   PUBLIC    IDATA    BYTE      ECO_PAGE_REGISTER3
      000000D1H   PUBLIC    IDATA    BYTE      ECO_PAGE_REGISTER4
      000000D2H   PUBLIC    IDATA    BYTE      ECO_PAGE_REGISTER5
      000000D3H   PUBLIC    IDATA    BYTE      ECO_PAGE_REGISTER6
      000000D4H   PUBLIC    IDATA    BYTE      ECO_PAGE_REGISTER7
      00000047H   PUBLIC    DATA     BYTE      ECO_PAGE_SPI_CONN
      00000043H   PUBLIC    DATA     BYTE      ECO_PAGE_TABLE
      0000004CH   PUBLIC    DATA     BYTE      ECO_PAGE_TABLE_INDEX
      000000D0H.6 SFRSYM    DATA     BIT       AC
      000000E0H   SFRSYM    DATA     BYTE      ACC
      000000A1H   SFRSYM    DATA     BYTE      ADCCON
      000000A2H   SFRSYM    DATA     BYTE      ADCDATAH
      000000A3H   SFRSYM    DATA     BYTE      ADCDATAL
      000000A4H   SFRSYM    DATA     BYTE      ADCSTATIC
      000000F0H   SFRSYM    DATA     BYTE      B
      000000C8H.1 SFRSYM    DATA     BIT       C_T2
      000000A0H.6 SFRSYM    DATA     BIT       CE
      000000B6H   SFRSYM    DATA     BYTE      CK_CTRL
      0000008EH   SFRSYM    DATA     BYTE      CKCON
      000000A0H.1 SFRSYM    DATA     BIT       CLK1
      000000A0H.5 SFRSYM    DATA     BIT       CLK2
      000000C8H   SFRSYM    DATA     BIT       CP_RL2
      000000C8H   SFRSYM    DATA     BIT       CPRL2
      000000A0H.3 SFRSYM    DATA     BIT       CS
      000000C8H.1 SFRSYM    DATA     BIT       CT2
      000000D0H.7 SFRSYM    DATA     BIT       CY
      000000A0H   SFRSYM    DATA     BIT       DATA?
      000000BEH   SFRSYM    DATA     BYTE      DEV_OFFSET
      00000090H.2 SFRSYM    DATA     BIT       DIN0
      00000090H   SFRSYM    DATA     BIT       DIO0
      00000090H.1 SFRSYM    DATA     BIT       DIO1
      00000080H   SFRSYM    DATA     BIT       DIO2
      00000080H.1 SFRSYM    DATA     BIT       DIO3
      00000080H.2 SFRSYM    DATA     BIT       DIO4
      00000080H.3 SFRSYM    DATA     BIT       DIO5
      00000080H.4 SFRSYM    DATA     BIT       DIO6
      00000080H.5 SFRSYM    DATA     BIT       DIO7
      00000080H.6 SFRSYM    DATA     BIT       DIO8
      00000080H.7 SFRSYM    DATA     BIT       DIO9
LX51 LINKER/LOCATER V4.34a                                                            05/05/2009  14:28:33  PAGE 32


      000000A0H.4 SFRSYM    DATA     BIT       DOUT2
      00000083H   SFRSYM    DATA     BYTE      DPH
      00000083H   SFRSYM    DATA     BYTE      DPH0
      00000085H   SFRSYM    DATA     BYTE      DPH1
      00000082H   SFRSYM    DATA     BYTE      DPL
      00000082H   SFRSYM    DATA     BYTE      DPL0
      00000084H   SFRSYM    DATA     BYTE      DPL1
      00000086H   SFRSYM    DATA     BYTE      DPS
      000000A0H.2 SFRSYM    DATA     BIT       DR1
      000000A0H.6 SFRSYM    DATA     BIT       DR2
      000000A0H.6 SFRSYM    DATA     BIT       DR2_CE
      000000A8H.7 SFRSYM    DATA     BIT       EA
      000000D8H   SFRSYM    DATA     BYTE      EICON
      000000E8H   SFRSYM    DATA     BYTE      EIE
      000000F8H   SFRSYM    DATA     BYTE      EIP
      000000A8H.4 SFRSYM    DATA     BIT       ES
      000000A8H.1 SFRSYM    DATA     BIT       ET0
      000000A8H.3 SFRSYM    DATA     BIT       ET1
      000000A8H.5 SFRSYM    DATA     BIT       ET2
      000000E8H.4 SFRSYM    DATA     BIT       EWDI
      000000A8H   SFRSYM    DATA     BIT       EX0
      000000A8H.2 SFRSYM    DATA     BIT       EX1
      000000E8H   SFRSYM    DATA     BIT       EX2
      000000E8H.1 SFRSYM    DATA     BIT       EX3
      000000E8H.2 SFRSYM    DATA     BIT       EX4
      000000E8H.3 SFRSYM    DATA     BIT       EX5
      000000C8H.3 SFRSYM    DATA     BIT       EXEN2
      000000C8H.6 SFRSYM    DATA     BIT       EXF2
      00000091H   SFRSYM    DATA     BYTE      EXIF
      000000D0H.5 SFRSYM    DATA     BIT       F0
      000000D0H.1 SFRSYM    DATA     BIT       F1
      000000A8H   SFRSYM    DATA     BYTE      IE
      00000088H.1 SFRSYM    DATA     BIT       IE0
      00000088H.3 SFRSYM    DATA     BIT       IE1
      00000080H.3 SFRSYM    DATA     BIT       INT0_N
      00000080H.4 SFRSYM    DATA     BIT       INT1_N
      000000B8H   SFRSYM    DATA     BYTE      IP
      00000088H   SFRSYM    DATA     BIT       IT0
      00000088H.2 SFRSYM    DATA     BIT       IT1
      00000092H   SFRSYM    DATA     BYTE      MPAGE
      000000D0H.2 SFRSYM    DATA     BIT       OV
      000000D0H   SFRSYM    DATA     BIT       P
      00000080H   SFRSYM    DATA     BYTE      P0
      00000080H   SFRSYM    DATA     BIT       P0_0
      00000080H.1 SFRSYM    DATA     BIT       P0_1
      00000080H.2 SFRSYM    DATA     BIT       P0_2
      00000080H.3 SFRSYM    DATA     BIT       P0_3
      00000080H.4 SFRSYM    DATA     BIT       P0_4
      00000080H.5 SFRSYM    DATA     BIT       P0_5
      00000080H.6 SFRSYM    DATA     BIT       P0_6
      00000080H.7 SFRSYM    DATA     BIT       P0_7
      00000095H   SFRSYM    DATA     BYTE      P0_ALT
      00000094H   SFRSYM    DATA     BYTE      P0_DIR
      00000090H   SFRSYM    DATA     BYTE      P1
      00000090H   SFRSYM    DATA     BIT       P1_0
      00000090H.1 SFRSYM    DATA     BIT       P1_1
      00000090H.2 SFRSYM    DATA     BIT       P1_2
      00000097H   SFRSYM    DATA     BYTE      P1_ALT
      00000096H   SFRSYM    DATA     BYTE      P1_DIR
      00000087H   SFRSYM    DATA     BYTE      PCON
      000000B8H.4 SFRSYM    DATA     BIT       PS
      000000D0H   SFRSYM    DATA     BYTE      PSW
      000000B8H.1 SFRSYM    DATA     BIT       PT0
      000000B8H.3 SFRSYM    DATA     BIT       PT1
      000000B8H.5 SFRSYM    DATA     BIT       PT2
LX51 LINKER/LOCATER V4.34a                                                            05/05/2009  14:28:33  PAGE 33


      000000F8H.4 SFRSYM    DATA     BIT       PWDI
      00000080H.7 SFRSYM    DATA     BIT       PWM
      000000A9H   SFRSYM    DATA     BYTE      PWMCON
      000000AAH   SFRSYM    DATA     BYTE      PWMDUTY
      000000A0H.7 SFRSYM    DATA     BIT       PWR_UP
      000000B8H   SFRSYM    DATA     BIT       PX0
      000000B8H.2 SFRSYM    DATA     BIT       PX1
      000000F8H   SFRSYM    DATA     BIT       PX2
      000000F8H.1 SFRSYM    DATA     BIT       PX3
      000000F8H.2 SFRSYM    DATA     BIT       PX4
      000000F8H.3 SFRSYM    DATA     BIT       PX5
      000000A0H   SFRSYM    DATA     BYTE      RADIO
      00000098H.2 SFRSYM    DATA     BIT       RB8
      000000CBH   SFRSYM    DATA     BYTE      RCAP2H
      000000CAH   SFRSYM    DATA     BYTE      RCAP2L
      000000C8H.5 SFRSYM    DATA     BIT       RCLK
      000000ADH   SFRSYM    DATA     BYTE      REGX_CTRL
      000000ACH   SFRSYM    DATA     BYTE      REGX_LSB
      000000ABH   SFRSYM    DATA     BYTE      REGX_MSB
      00000098H.4 SFRSYM    DATA     BIT       REN
      00000098H   SFRSYM    DATA     BIT       RI
      000000D0H.3 SFRSYM    DATA     BIT       RS0
      000000D0H.4 SFRSYM    DATA     BIT       RS1
      000000B1H   SFRSYM    DATA     BYTE      RSTREAS
      00000080H.1 SFRSYM    DATA     BIT       RXD
      00000099H   SFRSYM    DATA     BYTE      SBUF
      00000098H   SFRSYM    DATA     BYTE      SCON
      00000098H.7 SFRSYM    DATA     BIT       SM0
      00000098H.6 SFRSYM    DATA     BIT       SM1
      00000098H.5 SFRSYM    DATA     BIT       SM2
      00000081H   SFRSYM    DATA     BYTE      SP
      0000008FH   SFRSYM    DATA     BYTE      SPC_FNC
      000000B3H   SFRSYM    DATA     BYTE      SPI_CTRL
      000000B2H   SFRSYM    DATA     BYTE      SPI_DATA
      000000B4H   SFRSYM    DATA     BYTE      SPICLK
      00000080H.5 SFRSYM    DATA     BIT       T0
      00000080H.6 SFRSYM    DATA     BIT       T1
      000000BCH   SFRSYM    DATA     BYTE      T1_1V2
      00000090H   SFRSYM    DATA     BIT       T2
      000000BDH   SFRSYM    DATA     BYTE      T2_1V2
      000000C8H   SFRSYM    DATA     BYTE      T2CON
      00000098H.3 SFRSYM    DATA     BIT       TB8
      000000C8H.4 SFRSYM    DATA     BIT       TCLK
      00000088H   SFRSYM    DATA     BYTE      TCON
      000000B7H   SFRSYM    DATA     BYTE      TEST_MODE
      00000088H.5 SFRSYM    DATA     BIT       TF0
      00000088H.7 SFRSYM    DATA     BIT       TF1
      000000C8H.7 SFRSYM    DATA     BIT       TF2
      0000008CH   SFRSYM    DATA     BYTE      TH0
      0000008DH   SFRSYM    DATA     BYTE      TH1
      000000CDH   SFRSYM    DATA     BYTE      TH2
      00000098H.1 SFRSYM    DATA     BIT       TI
      000000B5H   SFRSYM    DATA     BYTE      TICK_DV
      0000008AH   SFRSYM    DATA     BYTE      TL0
      0000008BH   SFRSYM    DATA     BYTE      TL1
      000000CCH   SFRSYM    DATA     BYTE      TL2
      00000089H   SFRSYM    DATA     BYTE      TMOD
      00000088H.4 SFRSYM    DATA     BIT       TR0
      00000088H.6 SFRSYM    DATA     BIT       TR1
      000000C8H.2 SFRSYM    DATA     BIT       TR2
      00000080H.2 SFRSYM    DATA     BIT       TXD
      000000D8H.3 SFRSYM    DATA     BIT       WDTI
      01000C35H   SYMBOL    CODE     NEAR LAB  ?C0002
      01000CF9H   SYMBOL    CODE     NEAR LAB  ?C0003
      01000C3AH   SYMBOL    CODE     NEAR LAB  ?C0004
LX51 LINKER/LOCATER V4.34a                                                            05/05/2009  14:28:33  PAGE 34


      01000C65H   SYMBOL    CODE     NEAR LAB  ?C0005
      01000C57H   SYMBOL    CODE     NEAR LAB  ?C0006
      01000C88H   SYMBOL    CODE     NEAR LAB  ?C0008
      01000C9DH   SYMBOL    CODE     NEAR LAB  ?C0010
      01000CCBH   SYMBOL    CODE     NEAR LAB  ?C0011
      01000C5FH   SYMBOL    CODE     NEAR LAB  ?C0015
      01000C6DH   SYMBOL    CODE     NEAR LAB  ?C0016
      01000CC4H   SYMBOL    CODE     NEAR LAB  ?C0017
      0000005DH   SYMBOL    DATA     BYTE      ?ECO_PAGE_MANAGER?BYTE
      0000005DH   SYMBOL    DATA     BYTE      I?141
      0000005FH   SYMBOL    DATA     BYTE      PAGE_INDEX?142
      00000061H   SYMBOL    DATA     BYTE      SEG?140

      0100303BH   BLOCK     CODE     NEAR LAB  LVL=0
      0100303BH   LINE      CODE     ---       #316
      0100303CH   LINE      CODE     ---       #317
      0100303EH   LINE      CODE     ---       #320
      01003040H   LINE      CODE     ---       #321
      01003042H   LINE      CODE     ---       #324
      01003044H   LINE      CODE     ---       #327
      01003046H   LINE      CODE     ---       #330
      ---         BLOCKEND  ---      ---       LVL=0

      01000C1BH   BLOCK     CODE     NEAR LAB  LVL=0
      01000C1BH   LINE      CODE     ---       #457
      01000C1DH   LINE      CODE     ---       #458
      01000C1FH   LINE      CODE     ---       #459
      01000C21H   LINE      CODE     ---       #472
      01000C23H   LINE      CODE     ---       #473
      01000C26H   LINE      CODE     ---       #479
      01000C28H   LINE      CODE     ---       #480
      01000C29H   LINE      CODE     ---       #481
      01000C2BH   LINE      CODE     ---       #482
      01000C2CH   LINE      CODE     ---       #483
      01000C2EH   LINE      CODE     ---       #484
      01000C30H   LINE      CODE     ---       #485
      01000C31H   LINE      CODE     ---       #486
      01000C32H   LINE      CODE     ---       #487
      01000C34H   LINE      CODE     ---       #491
      01000C35H   LINE      CODE     ---       #501
      01000C36H   LINE      CODE     ---       #502
      01000C38H   LINE      CODE     ---       #503
      01000C3AH   LINE      CODE     ---       #509
      01000C3CH   LINE      CODE     ---       #510
      01000C3EH   LINE      CODE     ---       #511
      01000C40H   LINE      CODE     ---       #512
      01000C41H   LINE      CODE     ---       #513
      01000C42H   LINE      CODE     ---       #514
      01000C43H   LINE      CODE     ---       #515
      01000C44H   LINE      CODE     ---       #516
      01000C45H   LINE      CODE     ---       #517
      01000C46H   LINE      CODE     ---       #518
      01000C48H   LINE      CODE     ---       #519
      01000C4BH   LINE      CODE     ---       #520
      01000C4CH   LINE      CODE     ---       #521
      01000C4FH   LINE      CODE     ---       #526
      01000C52H   LINE      CODE     ---       #527
      01000C55H   LINE      CODE     ---       #530
      01000C57H   LINE      CODE     ---       #536
      01000C59H   LINE      CODE     ---       #537
      01000C5BH   LINE      CODE     ---       #538
      01000C5DH   LINE      CODE     ---       #539
      01000C5FH   LINE      CODE     ---       #541
      01000C61H   LINE      CODE     ---       #542
      01000C63H   LINE      CODE     ---       #543
LX51 LINKER/LOCATER V4.34a                                                            05/05/2009  14:28:33  PAGE 35


      01000C65H   LINE      CODE     ---       #548
      01000C67H   LINE      CODE     ---       #549
      01000C68H   LINE      CODE     ---       #550
      01000C6AH   LINE      CODE     ---       #551
      01000C6CH   LINE      CODE     ---       #552
      01000C6DH   LINE      CODE     ---       #554
      01000C6FH   LINE      CODE     ---       #560
      01000C71H   LINE      CODE     ---       #561
      01000C73H   LINE      CODE     ---       #566
      01000C75H   LINE      CODE     ---       #567
      01000C77H   LINE      CODE     ---       #568
      01000C78H   LINE      CODE     ---       #569
      01000C79H   LINE      CODE     ---       #570
      01000C7AH   LINE      CODE     ---       #571
      01000C7CH   LINE      CODE     ---       #572
      01000C7DH   LINE      CODE     ---       #573
      01000C7FH   LINE      CODE     ---       #574
      01000C81H   LINE      CODE     ---       #575
      01000C82H   LINE      CODE     ---       #576
      01000C83H   LINE      CODE     ---       #577
      01000C85H   LINE      CODE     ---       #582
      01000C87H   LINE      CODE     ---       #596
      01000C88H   LINE      CODE     ---       #605
      01000C8AH   LINE      CODE     ---       #606
      01000C8CH   LINE      CODE     ---       #607
      01000C8DH   LINE      CODE     ---       #608
      01000C8EH   LINE      CODE     ---       #609
      01000C8FH   LINE      CODE     ---       #610
      01000C90H   LINE      CODE     ---       #611
      01000C92H   LINE      CODE     ---       #612
      01000C95H   LINE      CODE     ---       #617
      01000C98H   LINE      CODE     ---       #622
      01000C99H   LINE      CODE     ---       #623
      01000C9BH   LINE      CODE     ---       #624
      01000C9DH   LINE      CODE     ---       #630
      01000C9EH   LINE      CODE     ---       #631
      01000CA0H   LINE      CODE     ---       #632
      01000CA1H   LINE      CODE     ---       #633
      01000CA2H   LINE      CODE     ---       #634
      01000CA4H   LINE      CODE     ---       #635
      01000CA5H   LINE      CODE     ---       #636
      01000CA7H   LINE      CODE     ---       #637
      01000CA8H   LINE      CODE     ---       #638
      01000CAAH   LINE      CODE     ---       #639
      01000CABH   LINE      CODE     ---       #640
      01000CAEH   LINE      CODE     ---       #641
      01000CB0H   LINE      CODE     ---       #642
      01000CB2H   LINE      CODE     ---       #643
      01000CB4H   LINE      CODE     ---       #644
      01000CB6H   LINE      CODE     ---       #645
      01000CB8H   LINE      CODE     ---       #646
      01000CBAH   LINE      CODE     ---       #647
      01000CBBH   LINE      CODE     ---       #648
      01000CBCH   LINE      CODE     ---       #651
      01000CBEH   LINE      CODE     ---       #652
      01000CC0H   LINE      CODE     ---       #653
      01000CC2H   LINE      CODE     ---       #654
      01000CC4H   LINE      CODE     ---       #656
      01000CC5H   LINE      CODE     ---       #657
      01000CC7H   LINE      CODE     ---       #658
      01000CC9H   LINE      CODE     ---       #659
      01000CCBH   LINE      CODE     ---       #665
      01000CCDH   LINE      CODE     ---       #666
      01000CCEH   LINE      CODE     ---       #667
      01000CD0H   LINE      CODE     ---       #668
LX51 LINKER/LOCATER V4.34a                                                            05/05/2009  14:28:33  PAGE 36


      01000CD2H   LINE      CODE     ---       #669
      01000CD4H   LINE      CODE     ---       #670
      01000CD6H   LINE      CODE     ---       #671
      01000CD7H   LINE      CODE     ---       #672
      01000CD9H   LINE      CODE     ---       #673
      01000CDAH   LINE      CODE     ---       #674
      01000CDCH   LINE      CODE     ---       #680
      01000CDEH   LINE      CODE     ---       #685
      01000CE0H   LINE      CODE     ---       #686
      01000CE2H   LINE      CODE     ---       #687
      01000CE3H   LINE      CODE     ---       #688
      01000CE4H   LINE      CODE     ---       #689
      01000CE5H   LINE      CODE     ---       #690
      01000CE7H   LINE      CODE     ---       #691
      01000CE8H   LINE      CODE     ---       #692
      01000CEAH   LINE      CODE     ---       #693
      01000CECH   LINE      CODE     ---       #694
      01000CEDH   LINE      CODE     ---       #695
      01000CEEH   LINE      CODE     ---       #696
      01000CF0H   LINE      CODE     ---       #701
      01000CF2H   LINE      CODE     ---       #706
      01000CF4H   LINE      CODE     ---       #707
      01000CF5H   LINE      CODE     ---       #708
      01000CF7H   LINE      CODE     ---       #709
      01000CF9H   LINE      CODE     ---       #729
      ---         BLOCKEND  ---      ---       LVL=0

      ---         MODULE    ---      ---       ADC
      010010E2H   PUBLIC    CODE     NEAR LAB  _ADC_INIT
      010010C7H   PUBLIC    CODE     NEAR LAB  _ADC_READ
      000000D0H.6 SFRSYM    DATA     BIT       AC
      000000E0H   SFRSYM    DATA     BYTE      ACC
      000000A1H   SFRSYM    DATA     BYTE      ADCCON
      000000A2H   SFRSYM    DATA     BYTE      ADCDATAH
      000000A3H   SFRSYM    DATA     BYTE      ADCDATAL
      000000A4H   SFRSYM    DATA     BYTE      ADCSTATIC
      000000F0H   SFRSYM    DATA     BYTE      B
      000000C8H.1 SFRSYM    DATA     BIT       C_T2
      000000A0H.6 SFRSYM    DATA     BIT       CE
      000000B6H   SFRSYM    DATA     BYTE      CK_CTRL
      0000008EH   SFRSYM    DATA     BYTE      CKCON
      000000A0H.1 SFRSYM    DATA     BIT       CLK1
      000000A0H.5 SFRSYM    DATA     BIT       CLK2
      000000C8H   SFRSYM    DATA     BIT       CP_RL2
      000000C8H   SFRSYM    DATA     BIT       CPRL2
      000000A0H.3 SFRSYM    DATA     BIT       CS
      000000C8H.1 SFRSYM    DATA     BIT       CT2
      000000D0H.7 SFRSYM    DATA     BIT       CY
      000000A0H   SFRSYM    DATA     BIT       DATA?
      000000BEH   SFRSYM    DATA     BYTE      DEV_OFFSET
      00000090H.2 SFRSYM    DATA     BIT       DIN0
      00000090H   SFRSYM    DATA     BIT       DIO0
      00000090H.1 SFRSYM    DATA     BIT       DIO1
      00000080H   SFRSYM    DATA     BIT       DIO2
      00000080H.1 SFRSYM    DATA     BIT       DIO3
      00000080H.2 SFRSYM    DATA     BIT       DIO4
      00000080H.3 SFRSYM    DATA     BIT       DIO5
      00000080H.4 SFRSYM    DATA     BIT       DIO6
      00000080H.5 SFRSYM    DATA     BIT       DIO7
      00000080H.6 SFRSYM    DATA     BIT       DIO8
      00000080H.7 SFRSYM    DATA     BIT       DIO9
      000000A0H.4 SFRSYM    DATA     BIT       DOUT2
      00000083H   SFRSYM    DATA     BYTE      DPH
      00000083H   SFRSYM    DATA     BYTE      DPH0
      00000085H   SFRSYM    DATA     BYTE      DPH1
LX51 LINKER/LOCATER V4.34a                                                            05/05/2009  14:28:33  PAGE 37


      00000082H   SFRSYM    DATA     BYTE      DPL
      00000082H   SFRSYM    DATA     BYTE      DPL0
      00000084H   SFRSYM    DATA     BYTE      DPL1
      00000086H   SFRSYM    DATA     BYTE      DPS
      000000A0H.2 SFRSYM    DATA     BIT       DR1
      000000A0H.6 SFRSYM    DATA     BIT       DR2
      000000A0H.6 SFRSYM    DATA     BIT       DR2_CE
      000000A8H.7 SFRSYM    DATA     BIT       EA
      000000D8H   SFRSYM    DATA     BYTE      EICON
      000000E8H   SFRSYM    DATA     BYTE      EIE
      000000F8H   SFRSYM    DATA     BYTE      EIP
      000000A8H.4 SFRSYM    DATA     BIT       ES
      000000A8H.1 SFRSYM    DATA     BIT       ET0
      000000A8H.3 SFRSYM    DATA     BIT       ET1
      000000A8H.5 SFRSYM    DATA     BIT       ET2
      000000E8H.4 SFRSYM    DATA     BIT       EWDI
      000000A8H   SFRSYM    DATA     BIT       EX0
      000000A8H.2 SFRSYM    DATA     BIT       EX1
      000000E8H   SFRSYM    DATA     BIT       EX2
      000000E8H.1 SFRSYM    DATA     BIT       EX3
      000000E8H.2 SFRSYM    DATA     BIT       EX4
      000000E8H.3 SFRSYM    DATA     BIT       EX5
      000000C8H.3 SFRSYM    DATA     BIT       EXEN2
      000000C8H.6 SFRSYM    DATA     BIT       EXF2
      00000091H   SFRSYM    DATA     BYTE      EXIF
      000000D0H.5 SFRSYM    DATA     BIT       F0
      000000D0H.1 SFRSYM    DATA     BIT       F1
      000000A8H   SFRSYM    DATA     BYTE      IE
      00000088H.1 SFRSYM    DATA     BIT       IE0
      00000088H.3 SFRSYM    DATA     BIT       IE1
      00000080H.3 SFRSYM    DATA     BIT       INT0_N
      00000080H.4 SFRSYM    DATA     BIT       INT1_N
      000000B8H   SFRSYM    DATA     BYTE      IP
      00000088H   SFRSYM    DATA     BIT       IT0
      00000088H.2 SFRSYM    DATA     BIT       IT1
      00000092H   SFRSYM    DATA     BYTE      MPAGE
      000000D0H.2 SFRSYM    DATA     BIT       OV
      000000D0H   SFRSYM    DATA     BIT       P
      00000080H   SFRSYM    DATA     BYTE      P0
      00000080H   SFRSYM    DATA     BIT       P0_0
      00000080H.1 SFRSYM    DATA     BIT       P0_1
      00000080H.2 SFRSYM    DATA     BIT       P0_2
      00000080H.3 SFRSYM    DATA     BIT       P0_3
      00000080H.4 SFRSYM    DATA     BIT       P0_4
      00000080H.5 SFRSYM    DATA     BIT       P0_5
      00000080H.6 SFRSYM    DATA     BIT       P0_6
      00000080H.7 SFRSYM    DATA     BIT       P0_7
      00000095H   SFRSYM    DATA     BYTE      P0_ALT
      00000094H   SFRSYM    DATA     BYTE      P0_DIR
      00000090H   SFRSYM    DATA     BYTE      P1
      00000090H   SFRSYM    DATA     BIT       P1_0
      00000090H.1 SFRSYM    DATA     BIT       P1_1
      00000090H.2 SFRSYM    DATA     BIT       P1_2
      00000097H   SFRSYM    DATA     BYTE      P1_ALT
      00000096H   SFRSYM    DATA     BYTE      P1_DIR
      00000087H   SFRSYM    DATA     BYTE      PCON
      000000B8H.4 SFRSYM    DATA     BIT       PS
      000000D0H   SFRSYM    DATA     BYTE      PSW
      000000B8H.1 SFRSYM    DATA     BIT       PT0
      000000B8H.3 SFRSYM    DATA     BIT       PT1
      000000B8H.5 SFRSYM    DATA     BIT       PT2
      000000F8H.4 SFRSYM    DATA     BIT       PWDI
      00000080H.7 SFRSYM    DATA     BIT       PWM
      000000A9H   SFRSYM    DATA     BYTE      PWMCON
      000000AAH   SFRSYM    DATA     BYTE      PWMDUTY
LX51 LINKER/LOCATER V4.34a                                                            05/05/2009  14:28:33  PAGE 38


      000000A0H.7 SFRSYM    DATA     BIT       PWR_UP
      000000B8H   SFRSYM    DATA     BIT       PX0
      000000B8H.2 SFRSYM    DATA     BIT       PX1
      000000F8H   SFRSYM    DATA     BIT       PX2
      000000F8H.1 SFRSYM    DATA     BIT       PX3
      000000F8H.2 SFRSYM    DATA     BIT       PX4
      000000F8H.3 SFRSYM    DATA     BIT       PX5
      000000A0H   SFRSYM    DATA     BYTE      RADIO
      00000098H.2 SFRSYM    DATA     BIT       RB8
      000000CBH   SFRSYM    DATA     BYTE      RCAP2H
      000000CAH   SFRSYM    DATA     BYTE      RCAP2L
      000000C8H.5 SFRSYM    DATA     BIT       RCLK
      000000ADH   SFRSYM    DATA     BYTE      REGX_CTRL
      000000ACH   SFRSYM    DATA     BYTE      REGX_LSB
      000000ABH   SFRSYM    DATA     BYTE      REGX_MSB
      00000098H.4 SFRSYM    DATA     BIT       REN
      00000098H   SFRSYM    DATA     BIT       RI
      000000D0H.3 SFRSYM    DATA     BIT       RS0
      000000D0H.4 SFRSYM    DATA     BIT       RS1
      000000B1H   SFRSYM    DATA     BYTE      RSTREAS
      00000080H.1 SFRSYM    DATA     BIT       RXD
      00000099H   SFRSYM    DATA     BYTE      SBUF
      00000098H   SFRSYM    DATA     BYTE      SCON
      00000098H.7 SFRSYM    DATA     BIT       SM0
      00000098H.6 SFRSYM    DATA     BIT       SM1
      00000098H.5 SFRSYM    DATA     BIT       SM2
      00000081H   SFRSYM    DATA     BYTE      SP
      0000008FH   SFRSYM    DATA     BYTE      SPC_FNC
      000000B3H   SFRSYM    DATA     BYTE      SPI_CTRL
      000000B2H   SFRSYM    DATA     BYTE      SPI_DATA
      000000B4H   SFRSYM    DATA     BYTE      SPICLK
      00000080H.5 SFRSYM    DATA     BIT       T0
      00000080H.6 SFRSYM    DATA     BIT       T1
      000000BCH   SFRSYM    DATA     BYTE      T1_1V2
      00000090H   SFRSYM    DATA     BIT       T2
      000000BDH   SFRSYM    DATA     BYTE      T2_1V2
      000000C8H   SFRSYM    DATA     BYTE      T2CON
      00000098H.3 SFRSYM    DATA     BIT       TB8
      000000C8H.4 SFRSYM    DATA     BIT       TCLK
      00000088H   SFRSYM    DATA     BYTE      TCON
      000000B7H   SFRSYM    DATA     BYTE      TEST_MODE
      00000088H.5 SFRSYM    DATA     BIT       TF0
      00000088H.7 SFRSYM    DATA     BIT       TF1
      000000C8H.7 SFRSYM    DATA     BIT       TF2
      0000008CH   SFRSYM    DATA     BYTE      TH0
      0000008DH   SFRSYM    DATA     BYTE      TH1
      000000CDH   SFRSYM    DATA     BYTE      TH2
      00000098H.1 SFRSYM    DATA     BIT       TI
      000000B5H   SFRSYM    DATA     BYTE      TICK_DV
      0000008AH   SFRSYM    DATA     BYTE      TL0
      0000008BH   SFRSYM    DATA     BYTE      TL1
      000000CCH   SFRSYM    DATA     BYTE      TL2
      00000089H   SFRSYM    DATA     BYTE      TMOD
      00000088H.4 SFRSYM    DATA     BIT       TR0
      00000088H.6 SFRSYM    DATA     BIT       TR1
      000000C8H.2 SFRSYM    DATA     BIT       TR2
      00000080H.2 SFRSYM    DATA     BIT       TXD
      000000D8H.3 SFRSYM    DATA     BIT       WDTI
      0100004BH   SYMBOL    CODE     NEAR LAB  ?C0002
      0100001BH   SYMBOL    CODE     NEAR LAB  ?C0004
      01000023H   SYMBOL    CODE     NEAR LAB  ?C0005
      01000037H   SYMBOL    CODE     NEAR LAB  ?C0006
      0100004FH   SYMBOL    CODE     NEAR LAB  ?C0007
      010010D6H   SYMBOL    CODE     NEAR LAB  ?C0011
      010010DBH   SYMBOL    CODE     NEAR LAB  ?C0012
LX51 LINKER/LOCATER V4.34a                                                            05/05/2009  14:28:33  PAGE 39


      010010E1H   SYMBOL    CODE     NEAR LAB  ?C0013
      01000003H   SYMBOL    CODE     NEAR LAB  P_ADC_READ

      010010E2H   BLOCK     CODE     NEAR LAB  LVL=0
      010010E2H   LINE      CODE     ---       #206
      010010E5H   LINE      CODE     ---       #209
      010010E6H   LINE      CODE     ---       #210
      010010E8H   LINE      CODE     ---       #213
      010010EBH   LINE      CODE     ---       #216
      010010ECH   LINE      CODE     ---       #217
      010010EEH   LINE      CODE     ---       #220
      010010F1H   LINE      CODE     ---       #223
      010010F2H   LINE      CODE     ---       #224
      010010F4H   LINE      CODE     ---       #227
      ---         BLOCKEND  ---      ---       LVL=0

      01000003H   BLOCK     CODE     NEAR LAB  LVL=0
      01000003H   LINE      CODE     ---       #241
      01000005H   LINE      CODE     ---       #242
      01000007H   LINE      CODE     ---       #243
      01000008H   LINE      CODE     ---       #248
      01000009H   LINE      CODE     ---       #249
      0100000AH   LINE      CODE     ---       #250
      0100000BH   LINE      CODE     ---       #253
      0100000DH   LINE      CODE     ---       #254
      0100000EH   LINE      CODE     ---       #255
      0100000FH   LINE      CODE     ---       #256
      01000011H   LINE      CODE     ---       #257
      01000012H   LINE      CODE     ---       #258
      01000014H   LINE      CODE     ---       #259
      01000015H   LINE      CODE     ---       #260
      01000017H   LINE      CODE     ---       #261
      01000019H   LINE      CODE     ---       #262
      0100001BH   LINE      CODE     ---       #271
      0100001DH   LINE      CODE     ---       #272
      0100001FH   LINE      CODE     ---       #273
      01000021H   LINE      CODE     ---       #276
      01000023H   LINE      CODE     ---       #283
      01000025H   LINE      CODE     ---       #284
      01000026H   LINE      CODE     ---       #285
      01000029H   LINE      CODE     ---       #286
      0100002AH   LINE      CODE     ---       #287
      0100002BH   LINE      CODE     ---       #288
      0100002DH   LINE      CODE     ---       #291
      0100002FH   LINE      CODE     ---       #292
      01000030H   LINE      CODE     ---       #293
      01000031H   LINE      CODE     ---       #294
      01000032H   LINE      CODE     ---       #295
      01000034H   LINE      CODE     ---       #296
      01000035H   LINE      CODE     ---       #297
      01000036H   LINE      CODE     ---       #298
      01000037H   LINE      CODE     ---       #305
      01000039H   LINE      CODE     ---       #306
      0100003AH   LINE      CODE     ---       #307
      0100003DH   LINE      CODE     ---       #308
      0100003EH   LINE      CODE     ---       #309
      0100003FH   LINE      CODE     ---       #310
      01000041H   LINE      CODE     ---       #313
      01000043H   LINE      CODE     ---       #314
      01000044H   LINE      CODE     ---       #315
      01000046H   LINE      CODE     ---       #316
      01000047H   LINE      CODE     ---       #317
      01000048H   LINE      CODE     ---       #318
      01000049H   LINE      CODE     ---       #319
      0100004AH   LINE      CODE     ---       #320
LX51 LINKER/LOCATER V4.34a                                                            05/05/2009  14:28:33  PAGE 40


      0100004BH   LINE      CODE     ---       #326
      0100004DH   LINE      CODE     ---       #327
      0100004FH   LINE      CODE     ---       #331
      ---         BLOCKEND  ---      ---       LVL=0

      010010C7H   BLOCK     CODE     NEAR LAB  LVL=0
      010010C7H   LINE      CODE     ---       #347
      010010C8H   LINE      CODE     ---       #348
      010010C9H   LINE      CODE     ---       #349
      010010CAH   LINE      CODE     ---       #353
      010010CDH   LINE      CODE     ---       #356
      010010CEH   LINE      CODE     ---       #357
      010010D0H   LINE      CODE     ---       #360
      010010D3H   LINE      CODE     ---       #361
      010010D6H   LINE      CODE     ---       #366
      010010D8H   LINE      CODE     ---       #367
      010010DBH   LINE      CODE     ---       #373
      010010DEH   LINE      CODE     ---       #377
      010010E1H   LINE      CODE     ---       #383
      ---         BLOCKEND  ---      ---       LVL=0

      ---         MODULE    ---      ---       UTILS
      00000055H   PUBLIC    DATA     BYTE      ?_STRNCPY?BYTE
      01000E9DH   PUBLIC    CODE     NEAR LAB  _MDELAY
      01001213H   PUBLIC    CODE     NEAR LAB  _STORE_CPU_RATE
      01000EE6H   PUBLIC    CODE     NEAR LAB  _STRNCPY
      010011E4H   PUBLIC    CODE     NEAR LAB  _WDT_LOAD
      00000068H   PUBLIC    DATA     BYTE      MHZ
      000000D0H.6 SFRSYM    DATA     BIT       AC
      000000E0H   SFRSYM    DATA     BYTE      ACC
      000000A1H   SFRSYM    DATA     BYTE      ADCCON
      000000A2H   SFRSYM    DATA     BYTE      ADCDATAH
      000000A3H   SFRSYM    DATA     BYTE      ADCDATAL
      000000A4H   SFRSYM    DATA     BYTE      ADCSTATIC
      000000F0H   SFRSYM    DATA     BYTE      B
      000000C8H.1 SFRSYM    DATA     BIT       C_T2
      000000A0H.6 SFRSYM    DATA     BIT       CE
      000000B6H   SFRSYM    DATA     BYTE      CK_CTRL
      0000008EH   SFRSYM    DATA     BYTE      CKCON
      000000A0H.1 SFRSYM    DATA     BIT       CLK1
      000000A0H.5 SFRSYM    DATA     BIT       CLK2
      000000C8H   SFRSYM    DATA     BIT       CP_RL2
      000000C8H   SFRSYM    DATA     BIT       CPRL2
      000000A0H.3 SFRSYM    DATA     BIT       CS
      000000C8H.1 SFRSYM    DATA     BIT       CT2
      000000D0H.7 SFRSYM    DATA     BIT       CY
      000000A0H   SFRSYM    DATA     BIT       DATA?
      000000BEH   SFRSYM    DATA     BYTE      DEV_OFFSET
      00000090H.2 SFRSYM    DATA     BIT       DIN0
      00000090H   SFRSYM    DATA     BIT       DIO0
      00000090H.1 SFRSYM    DATA     BIT       DIO1
      00000080H   SFRSYM    DATA     BIT       DIO2
      00000080H.1 SFRSYM    DATA     BIT       DIO3
      00000080H.2 SFRSYM    DATA     BIT       DIO4
      00000080H.3 SFRSYM    DATA     BIT       DIO5
      00000080H.4 SFRSYM    DATA     BIT       DIO6
      00000080H.5 SFRSYM    DATA     BIT       DIO7
      00000080H.6 SFRSYM    DATA     BIT       DIO8
      00000080H.7 SFRSYM    DATA     BIT       DIO9
      000000A0H.4 SFRSYM    DATA     BIT       DOUT2
      00000083H   SFRSYM    DATA     BYTE      DPH
      00000083H   SFRSYM    DATA     BYTE      DPH0
      00000085H   SFRSYM    DATA     BYTE      DPH1
      00000082H   SFRSYM    DATA     BYTE      DPL
      00000082H   SFRSYM    DATA     BYTE      DPL0
LX51 LINKER/LOCATER V4.34a                                                            05/05/2009  14:28:33  PAGE 41


      00000084H   SFRSYM    DATA     BYTE      DPL1
      00000086H   SFRSYM    DATA     BYTE      DPS
      000000A0H.2 SFRSYM    DATA     BIT       DR1
      000000A0H.6 SFRSYM    DATA     BIT       DR2
      000000A0H.6 SFRSYM    DATA     BIT       DR2_CE
      000000A8H.7 SFRSYM    DATA     BIT       EA
      000000D8H   SFRSYM    DATA     BYTE      EICON
      000000E8H   SFRSYM    DATA     BYTE      EIE
      000000F8H   SFRSYM    DATA     BYTE      EIP
      000000A8H.4 SFRSYM    DATA     BIT       ES
      000000A8H.1 SFRSYM    DATA     BIT       ET0
      000000A8H.3 SFRSYM    DATA     BIT       ET1
      000000A8H.5 SFRSYM    DATA     BIT       ET2
      000000E8H.4 SFRSYM    DATA     BIT       EWDI
      000000A8H   SFRSYM    DATA     BIT       EX0
      000000A8H.2 SFRSYM    DATA     BIT       EX1
      000000E8H   SFRSYM    DATA     BIT       EX2
      000000E8H.1 SFRSYM    DATA     BIT       EX3
      000000E8H.2 SFRSYM    DATA     BIT       EX4
      000000E8H.3 SFRSYM    DATA     BIT       EX5
      000000C8H.3 SFRSYM    DATA     BIT       EXEN2
      000000C8H.6 SFRSYM    DATA     BIT       EXF2
      00000091H   SFRSYM    DATA     BYTE      EXIF
      000000D0H.5 SFRSYM    DATA     BIT       F0
      000000D0H.1 SFRSYM    DATA     BIT       F1
      000000A8H   SFRSYM    DATA     BYTE      IE
      00000088H.1 SFRSYM    DATA     BIT       IE0
      00000088H.3 SFRSYM    DATA     BIT       IE1
      00000080H.3 SFRSYM    DATA     BIT       INT0_N
      00000080H.4 SFRSYM    DATA     BIT       INT1_N
      000000B8H   SFRSYM    DATA     BYTE      IP
      00000088H   SFRSYM    DATA     BIT       IT0
      00000088H.2 SFRSYM    DATA     BIT       IT1
      00000092H   SFRSYM    DATA     BYTE      MPAGE
      000000D0H.2 SFRSYM    DATA     BIT       OV
      000000D0H   SFRSYM    DATA     BIT       P
      00000080H   SFRSYM    DATA     BYTE      P0
      00000080H   SFRSYM    DATA     BIT       P0_0
      00000080H.1 SFRSYM    DATA     BIT       P0_1
      00000080H.2 SFRSYM    DATA     BIT       P0_2
      00000080H.3 SFRSYM    DATA     BIT       P0_3
      00000080H.4 SFRSYM    DATA     BIT       P0_4
      00000080H.5 SFRSYM    DATA     BIT       P0_5
      00000080H.6 SFRSYM    DATA     BIT       P0_6
      00000080H.7 SFRSYM    DATA     BIT       P0_7
      00000095H   SFRSYM    DATA     BYTE      P0_ALT
      00000094H   SFRSYM    DATA     BYTE      P0_DIR
      00000090H   SFRSYM    DATA     BYTE      P1
      00000090H   SFRSYM    DATA     BIT       P1_0
      00000090H.1 SFRSYM    DATA     BIT       P1_1
      00000090H.2 SFRSYM    DATA     BIT       P1_2
      00000097H   SFRSYM    DATA     BYTE      P1_ALT
      00000096H   SFRSYM    DATA     BYTE      P1_DIR
      00000087H   SFRSYM    DATA     BYTE      PCON
      000000B8H.4 SFRSYM    DATA     BIT       PS
      000000D0H   SFRSYM    DATA     BYTE      PSW
      000000B8H.1 SFRSYM    DATA     BIT       PT0
      000000B8H.3 SFRSYM    DATA     BIT       PT1
      000000B8H.5 SFRSYM    DATA     BIT       PT2
      000000F8H.4 SFRSYM    DATA     BIT       PWDI
      00000080H.7 SFRSYM    DATA     BIT       PWM
      000000A9H   SFRSYM    DATA     BYTE      PWMCON
      000000AAH   SFRSYM    DATA     BYTE      PWMDUTY
      000000A0H.7 SFRSYM    DATA     BIT       PWR_UP
      000000B8H   SFRSYM    DATA     BIT       PX0
LX51 LINKER/LOCATER V4.34a                                                            05/05/2009  14:28:33  PAGE 42


      000000B8H.2 SFRSYM    DATA     BIT       PX1
      000000F8H   SFRSYM    DATA     BIT       PX2
      000000F8H.1 SFRSYM    DATA     BIT       PX3
      000000F8H.2 SFRSYM    DATA     BIT       PX4
      000000F8H.3 SFRSYM    DATA     BIT       PX5
      000000A0H   SFRSYM    DATA     BYTE      RADIO
      00000098H.2 SFRSYM    DATA     BIT       RB8
      000000CBH   SFRSYM    DATA     BYTE      RCAP2H
      000000CAH   SFRSYM    DATA     BYTE      RCAP2L
      000000C8H.5 SFRSYM    DATA     BIT       RCLK
      000000ADH   SFRSYM    DATA     BYTE      REGX_CTRL
      000000ACH   SFRSYM    DATA     BYTE      REGX_LSB
      000000ABH   SFRSYM    DATA     BYTE      REGX_MSB
      00000098H.4 SFRSYM    DATA     BIT       REN
      00000098H   SFRSYM    DATA     BIT       RI
      000000D0H.3 SFRSYM    DATA     BIT       RS0
      000000D0H.4 SFRSYM    DATA     BIT       RS1
      000000B1H   SFRSYM    DATA     BYTE      RSTREAS
      00000080H.1 SFRSYM    DATA     BIT       RXD
      00000099H   SFRSYM    DATA     BYTE      SBUF
      00000098H   SFRSYM    DATA     BYTE      SCON
      00000098H.7 SFRSYM    DATA     BIT       SM0
      00000098H.6 SFRSYM    DATA     BIT       SM1
      00000098H.5 SFRSYM    DATA     BIT       SM2
      00000081H   SFRSYM    DATA     BYTE      SP
      0000008FH   SFRSYM    DATA     BYTE      SPC_FNC
      000000B3H   SFRSYM    DATA     BYTE      SPI_CTRL
      000000B2H   SFRSYM    DATA     BYTE      SPI_DATA
      000000B4H   SFRSYM    DATA     BYTE      SPICLK
      00000080H.5 SFRSYM    DATA     BIT       T0
      00000080H.6 SFRSYM    DATA     BIT       T1
      000000BCH   SFRSYM    DATA     BYTE      T1_1V2
      00000090H   SFRSYM    DATA     BIT       T2
      000000BDH   SFRSYM    DATA     BYTE      T2_1V2
      000000C8H   SFRSYM    DATA     BYTE      T2CON
      00000098H.3 SFRSYM    DATA     BIT       TB8
      000000C8H.4 SFRSYM    DATA     BIT       TCLK
      00000088H   SFRSYM    DATA     BYTE      TCON
      000000B7H   SFRSYM    DATA     BYTE      TEST_MODE
      00000088H.5 SFRSYM    DATA     BIT       TF0
      00000088H.7 SFRSYM    DATA     BIT       TF1
      000000C8H.7 SFRSYM    DATA     BIT       TF2
      0000008CH   SFRSYM    DATA     BYTE      TH0
      0000008DH   SFRSYM    DATA     BYTE      TH1
      000000CDH   SFRSYM    DATA     BYTE      TH2
      00000098H.1 SFRSYM    DATA     BIT       TI
      000000B5H   SFRSYM    DATA     BYTE      TICK_DV
      0000008AH   SFRSYM    DATA     BYTE      TL0
      0000008BH   SFRSYM    DATA     BYTE      TL1
      000000CCH   SFRSYM    DATA     BYTE      TL2
      00000089H   SFRSYM    DATA     BYTE      TMOD
      00000088H.4 SFRSYM    DATA     BIT       TR0
      00000088H.6 SFRSYM    DATA     BIT       TR1
      000000C8H.2 SFRSYM    DATA     BIT       TR2
      00000080H.2 SFRSYM    DATA     BIT       TXD
      000000D8H.3 SFRSYM    DATA     BIT       WDTI
      00000079H   SYMBOL    DATA     BYTE      ?_MDELAY?BYTE
      01000EBEH   SYMBOL    CODE     NEAR LAB  ?C0002
      01000EDEH   SYMBOL    CODE     NEAR LAB  ?C0004
      01000ECAH   SYMBOL    CODE     NEAR LAB  ?C0005
      01000EE5H   SYMBOL    CODE     NEAR LAB  ?C0008
      010011E8H   SYMBOL    CODE     NEAR LAB  ?C0009
      010011EDH   SYMBOL    CODE     NEAR LAB  ?C0010
      01000EEFH   SYMBOL    CODE     NEAR LAB  ?C0012
      01000F29H   SYMBOL    CODE     NEAR LAB  ?C0015
LX51 LINKER/LOCATER V4.34a                                                            05/05/2009  14:28:33  PAGE 43


      01000EDCH   SYMBOL    CODE     NEAR LAB  ?C0016
      01000EE3H   SYMBOL    CODE     NEAR LAB  ?C0017
      01000F0AH   SYMBOL    CODE     NEAR LAB  ?C0018
      01000F1CH   SYMBOL    CODE     NEAR LAB  ?C0019
      01000F27H   SYMBOL    CODE     NEAR LAB  ?C0020
      00000058H   SYMBOL    DATA     BYTE      DST?347
      00000079H   SYMBOL    DATA     BYTE      MSEC?141
      0000005BH   SYMBOL    DATA     BYTE      N?348
      00000055H   SYMBOL    DATA     BYTE      SRC?346

      01001213H   BLOCK     CODE     NEAR LAB  LVL=0
      01001213H   LINE      CODE     ---       #231
      01001214H   LINE      CODE     ---       #232
      01001215H   LINE      CODE     ---       #233
      01001217H   LINE      CODE     ---       #234
      01001219H   LINE      CODE     ---       #235
      0100121BH   LINE      CODE     ---       #236
      0100121DH   LINE      CODE     ---       #237
      0100121FH   LINE      CODE     ---       #240
      ---         BLOCKEND  ---      ---       LVL=0

      01000E9DH   BLOCK     CODE     NEAR LAB  LVL=0
      01000E9DH   LINE      CODE     ---       #256
      01000E9FH   LINE      CODE     ---       #257
      01000EA1H   LINE      CODE     ---       #263
      01000EA2H   LINE      CODE     ---       #264
      01000EA4H   LINE      CODE     ---       #265
      01000EA5H   LINE      CODE     ---       #266
      01000EA6H   LINE      CODE     ---       #267
      01000EA7H   LINE      CODE     ---       #268
      01000EA9H   LINE      CODE     ---       #269
      01000EABH   LINE      CODE     ---       #270
      01000EADH   LINE      CODE     ---       #271
      01000EAFH   LINE      CODE     ---       #272
      01000EB2H   LINE      CODE     ---       #273
      01000EB3H   LINE      CODE     ---       #274
      01000EB5H   LINE      CODE     ---       #275
      01000EB6H   LINE      CODE     ---       #276
      01000EB7H   LINE      CODE     ---       #277
      01000EB8H   LINE      CODE     ---       #278
      01000EBBH   LINE      CODE     ---       #283
      01000EBCH   LINE      CODE     ---       #284
      01000EBDH   LINE      CODE     ---       #285
      01000EBEH   LINE      CODE     ---       #287
      01000EBFH   LINE      CODE     ---       #288
      01000EC0H   LINE      CODE     ---       #289
      01000EC2H   LINE      CODE     ---       #290
      01000EC3H   LINE      CODE     ---       #291
      01000EC5H   LINE      CODE     ---       #292
      01000EC7H   LINE      CODE     ---       #296
      01000EC8H   LINE      CODE     ---       #297
      01000EC9H   LINE      CODE     ---       #298
      01000ECAH   LINE      CODE     ---       #300
      01000ECBH   LINE      CODE     ---       #301
      01000ECCH   LINE      CODE     ---       #302
      01000ECDH   LINE      CODE     ---       #303
      01000ECEH   LINE      CODE     ---       #304
      01000ED0H   LINE      CODE     ---       #305
      01000ED1H   LINE      CODE     ---       #306
      01000ED2H   LINE      CODE     ---       #307
      01000ED4H   LINE      CODE     ---       #308
      01000ED5H   LINE      CODE     ---       #309
      01000ED7H   LINE      CODE     ---       #310
      01000ED8H   LINE      CODE     ---       #311
      01000EDBH   LINE      CODE     ---       #312
LX51 LINKER/LOCATER V4.34a                                                            05/05/2009  14:28:33  PAGE 44


      01000EDCH   LINE      CODE     ---       #314
      01000EDEH   LINE      CODE     ---       #316
      01000EDFH   LINE      CODE     ---       #317
      01000EE2H   LINE      CODE     ---       #318
      01000EE3H   LINE      CODE     ---       #320
      01000EE5H   LINE      CODE     ---       #325
      ---         BLOCKEND  ---      ---       LVL=0

      010011E4H   BLOCK     CODE     NEAR LAB  LVL=0
      010011E4H   LINE      CODE     ---       #341
      010011E6H   LINE      CODE     ---       #342
      010011E8H   LINE      CODE     ---       #348
      010011EAH   LINE      CODE     ---       #349
      010011EDH   LINE      CODE     ---       #354
      010011EFH   LINE      CODE     ---       #357
      010011F0H   LINE      CODE     ---       #358
      010011F2H   LINE      CODE     ---       #361
      010011F5H   LINE      CODE     ---       #364
      ---         BLOCKEND  ---      ---       LVL=0

      01000EE6H   BLOCK     CODE     NEAR LAB  LVL=0
      01000EE6H   LINE      CODE     ---       #380
      01000EE8H   LINE      CODE     ---       #381
      01000EEAH   LINE      CODE     ---       #382
      01000EECH   LINE      CODE     ---       #389
      01000EEDH   LINE      CODE     ---       #390
      01000EEEH   LINE      CODE     ---       #391
      01000EEFH   LINE      CODE     ---       #393
      01000EF0H   LINE      CODE     ---       #394
      01000EF1H   LINE      CODE     ---       #395
      01000EF3H   LINE      CODE     ---       #396
      01000EF5H   LINE      CODE     ---       #397
      01000EF7H   LINE      CODE     ---       #398
      01000EF8H   LINE      CODE     ---       #399
      01000EF9H   LINE      CODE     ---       #400
      01000EFBH   LINE      CODE     ---       #401
      01000EFCH   LINE      CODE     ---       #402
      01000EFEH   LINE      CODE     ---       #405
      01000F00H   LINE      CODE     ---       #406
      01000F02H   LINE      CODE     ---       #407
      01000F04H   LINE      CODE     ---       #408
      01000F06H   LINE      CODE     ---       #409
      01000F08H   LINE      CODE     ---       #410
      01000F0AH   LINE      CODE     ---       #412
      01000F0BH   LINE      CODE     ---       #413
      01000F0CH   LINE      CODE     ---       #414
      01000F0FH   LINE      CODE     ---       #415
      01000F10H   LINE      CODE     ---       #416
      01000F12H   LINE      CODE     ---       #417
      01000F14H   LINE      CODE     ---       #418
      01000F16H   LINE      CODE     ---       #419
      01000F18H   LINE      CODE     ---       #420
      01000F1AH   LINE      CODE     ---       #421
      01000F1CH   LINE      CODE     ---       #423
      01000F1DH   LINE      CODE     ---       #424
      01000F1EH   LINE      CODE     ---       #425
      01000F1FH   LINE      CODE     ---       #426
      01000F22H   LINE      CODE     ---       #429
      01000F23H   LINE      CODE     ---       #430
      01000F26H   LINE      CODE     ---       #431
      01000F27H   LINE      CODE     ---       #433
      01000F29H   LINE      CODE     ---       #437
      ---         BLOCKEND  ---      ---       LVL=0

      ---         MODULE    ---      ---       SERIAL
LX51 LINKER/LOCATER V4.34a                                                            05/05/2009  14:28:33  PAGE 45


      01000F67H   PUBLIC    CODE     NEAR LAB  _?INT_PRINT
      01000050H   PUBLIC    CODE     NEAR LAB  _PUTC
      01000FD7H   PUBLIC    CODE     NEAR LAB  _PUTS
      0100122DH   PUBLIC    CODE     NEAR LAB  _SERIAL_INIT
      01000FFCH   PUBLIC    CODE     NEAR LAB  GETC
      000000D0H.6 SFRSYM    DATA     BIT       AC
      000000E0H   SFRSYM    DATA     BYTE      ACC
      000000A1H   SFRSYM    DATA     BYTE      ADCCON
      000000A2H   SFRSYM    DATA     BYTE      ADCDATAH
      000000A3H   SFRSYM    DATA     BYTE      ADCDATAL
      000000A4H   SFRSYM    DATA     BYTE      ADCSTATIC
      000000F0H   SFRSYM    DATA     BYTE      B
      000000C8H.1 SFRSYM    DATA     BIT       C_T2
      000000A0H.6 SFRSYM    DATA     BIT       CE
      000000B6H   SFRSYM    DATA     BYTE      CK_CTRL
      0000008EH   SFRSYM    DATA     BYTE      CKCON
      000000A0H.1 SFRSYM    DATA     BIT       CLK1
      000000A0H.5 SFRSYM    DATA     BIT       CLK2
      000000C8H   SFRSYM    DATA     BIT       CP_RL2
      000000C8H   SFRSYM    DATA     BIT       CPRL2
      000000A0H.3 SFRSYM    DATA     BIT       CS
      000000C8H.1 SFRSYM    DATA     BIT       CT2
      000000D0H.7 SFRSYM    DATA     BIT       CY
      000000A0H   SFRSYM    DATA     BIT       DATA?
      000000BEH   SFRSYM    DATA     BYTE      DEV_OFFSET
      00000090H.2 SFRSYM    DATA     BIT       DIN0
      00000090H   SFRSYM    DATA     BIT       DIO0
      00000090H.1 SFRSYM    DATA     BIT       DIO1
      00000080H   SFRSYM    DATA     BIT       DIO2
      00000080H.1 SFRSYM    DATA     BIT       DIO3
      00000080H.2 SFRSYM    DATA     BIT       DIO4
      00000080H.3 SFRSYM    DATA     BIT       DIO5
      00000080H.4 SFRSYM    DATA     BIT       DIO6
      00000080H.5 SFRSYM    DATA     BIT       DIO7
      00000080H.6 SFRSYM    DATA     BIT       DIO8
      00000080H.7 SFRSYM    DATA     BIT       DIO9
      000000A0H.4 SFRSYM    DATA     BIT       DOUT2
      00000083H   SFRSYM    DATA     BYTE      DPH
      00000083H   SFRSYM    DATA     BYTE      DPH0
      00000085H   SFRSYM    DATA     BYTE      DPH1
      00000082H   SFRSYM    DATA     BYTE      DPL
      00000082H   SFRSYM    DATA     BYTE      DPL0
      00000084H   SFRSYM    DATA     BYTE      DPL1
      00000086H   SFRSYM    DATA     BYTE      DPS
      000000A0H.2 SFRSYM    DATA     BIT       DR1
      000000A0H.6 SFRSYM    DATA     BIT       DR2
      000000A0H.6 SFRSYM    DATA     BIT       DR2_CE
      000000A8H.7 SFRSYM    DATA     BIT       EA
      000000D8H   SFRSYM    DATA     BYTE      EICON
      000000E8H   SFRSYM    DATA     BYTE      EIE
      000000F8H   SFRSYM    DATA     BYTE      EIP
      000000A8H.4 SFRSYM    DATA     BIT       ES
      000000A8H.1 SFRSYM    DATA     BIT       ET0
      000000A8H.3 SFRSYM    DATA     BIT       ET1
      000000A8H.5 SFRSYM    DATA     BIT       ET2
      000000E8H.4 SFRSYM    DATA     BIT       EWDI
      000000A8H   SFRSYM    DATA     BIT       EX0
      000000A8H.2 SFRSYM    DATA     BIT       EX1
      000000E8H   SFRSYM    DATA     BIT       EX2
      000000E8H.1 SFRSYM    DATA     BIT       EX3
      000000E8H.2 SFRSYM    DATA     BIT       EX4
      000000E8H.3 SFRSYM    DATA     BIT       EX5
      000000C8H.3 SFRSYM    DATA     BIT       EXEN2
      000000C8H.6 SFRSYM    DATA     BIT       EXF2
      00000091H   SFRSYM    DATA     BYTE      EXIF
LX51 LINKER/LOCATER V4.34a                                                            05/05/2009  14:28:33  PAGE 46


      000000D0H.5 SFRSYM    DATA     BIT       F0
      000000D0H.1 SFRSYM    DATA     BIT       F1
      000000A8H   SFRSYM    DATA     BYTE      IE
      00000088H.1 SFRSYM    DATA     BIT       IE0
      00000088H.3 SFRSYM    DATA     BIT       IE1
      00000080H.3 SFRSYM    DATA     BIT       INT0_N
      00000080H.4 SFRSYM    DATA     BIT       INT1_N
      000000B8H   SFRSYM    DATA     BYTE      IP
      00000088H   SFRSYM    DATA     BIT       IT0
      00000088H.2 SFRSYM    DATA     BIT       IT1
      00000092H   SFRSYM    DATA     BYTE      MPAGE
      000000D0H.2 SFRSYM    DATA     BIT       OV
      000000D0H   SFRSYM    DATA     BIT       P
      00000080H   SFRSYM    DATA     BYTE      P0
      00000080H   SFRSYM    DATA     BIT       P0_0
      00000080H.1 SFRSYM    DATA     BIT       P0_1
      00000080H.2 SFRSYM    DATA     BIT       P0_2
      00000080H.3 SFRSYM    DATA     BIT       P0_3
      00000080H.4 SFRSYM    DATA     BIT       P0_4
      00000080H.5 SFRSYM    DATA     BIT       P0_5
      00000080H.6 SFRSYM    DATA     BIT       P0_6
      00000080H.7 SFRSYM    DATA     BIT       P0_7
      00000095H   SFRSYM    DATA     BYTE      P0_ALT
      00000094H   SFRSYM    DATA     BYTE      P0_DIR
      00000090H   SFRSYM    DATA     BYTE      P1
      00000090H   SFRSYM    DATA     BIT       P1_0
      00000090H.1 SFRSYM    DATA     BIT       P1_1
      00000090H.2 SFRSYM    DATA     BIT       P1_2
      00000097H   SFRSYM    DATA     BYTE      P1_ALT
      00000096H   SFRSYM    DATA     BYTE      P1_DIR
      00000087H   SFRSYM    DATA     BYTE      PCON
      000000B8H.4 SFRSYM    DATA     BIT       PS
      000000D0H   SFRSYM    DATA     BYTE      PSW
      000000B8H.1 SFRSYM    DATA     BIT       PT0
      000000B8H.3 SFRSYM    DATA     BIT       PT1
      000000B8H.5 SFRSYM    DATA     BIT       PT2
      000000F8H.4 SFRSYM    DATA     BIT       PWDI
      00000080H.7 SFRSYM    DATA     BIT       PWM
      000000A9H   SFRSYM    DATA     BYTE      PWMCON
      000000AAH   SFRSYM    DATA     BYTE      PWMDUTY
      000000A0H.7 SFRSYM    DATA     BIT       PWR_UP
      000000B8H   SFRSYM    DATA     BIT       PX0
      000000B8H.2 SFRSYM    DATA     BIT       PX1
      000000F8H   SFRSYM    DATA     BIT       PX2
      000000F8H.1 SFRSYM    DATA     BIT       PX3
      000000F8H.2 SFRSYM    DATA     BIT       PX4
      000000F8H.3 SFRSYM    DATA     BIT       PX5
      000000A0H   SFRSYM    DATA     BYTE      RADIO
      00000098H.2 SFRSYM    DATA     BIT       RB8
      000000CBH   SFRSYM    DATA     BYTE      RCAP2H
      000000CAH   SFRSYM    DATA     BYTE      RCAP2L
      000000C8H.5 SFRSYM    DATA     BIT       RCLK
      000000ADH   SFRSYM    DATA     BYTE      REGX_CTRL
      000000ACH   SFRSYM    DATA     BYTE      REGX_LSB
      000000ABH   SFRSYM    DATA     BYTE      REGX_MSB
      00000098H.4 SFRSYM    DATA     BIT       REN
      00000098H   SFRSYM    DATA     BIT       RI
      000000D0H.3 SFRSYM    DATA     BIT       RS0
      000000D0H.4 SFRSYM    DATA     BIT       RS1
      000000B1H   SFRSYM    DATA     BYTE      RSTREAS
      00000080H.1 SFRSYM    DATA     BIT       RXD
      00000099H   SFRSYM    DATA     BYTE      SBUF
      00000098H   SFRSYM    DATA     BYTE      SCON
      00000098H.7 SFRSYM    DATA     BIT       SM0
      00000098H.6 SFRSYM    DATA     BIT       SM1
LX51 LINKER/LOCATER V4.34a                                                            05/05/2009  14:28:33  PAGE 47


      00000098H.5 SFRSYM    DATA     BIT       SM2
      00000081H   SFRSYM    DATA     BYTE      SP
      0000008FH   SFRSYM    DATA     BYTE      SPC_FNC
      000000B3H   SFRSYM    DATA     BYTE      SPI_CTRL
      000000B2H   SFRSYM    DATA     BYTE      SPI_DATA
      000000B4H   SFRSYM    DATA     BYTE      SPICLK
      00000080H.5 SFRSYM    DATA     BIT       T0
      00000080H.6 SFRSYM    DATA     BIT       T1
      000000BCH   SFRSYM    DATA     BYTE      T1_1V2
      00000090H   SFRSYM    DATA     BIT       T2
      000000BDH   SFRSYM    DATA     BYTE      T2_1V2
      000000C8H   SFRSYM    DATA     BYTE      T2CON
      00000098H.3 SFRSYM    DATA     BIT       TB8
      000000C8H.4 SFRSYM    DATA     BIT       TCLK
      00000088H   SFRSYM    DATA     BYTE      TCON
      000000B7H   SFRSYM    DATA     BYTE      TEST_MODE
      00000088H.5 SFRSYM    DATA     BIT       TF0
      00000088H.7 SFRSYM    DATA     BIT       TF1
      000000C8H.7 SFRSYM    DATA     BIT       TF2
      0000008CH   SFRSYM    DATA     BYTE      TH0
      0000008DH   SFRSYM    DATA     BYTE      TH1
      000000CDH   SFRSYM    DATA     BYTE      TH2
      00000098H.1 SFRSYM    DATA     BIT       TI
      000000B5H   SFRSYM    DATA     BYTE      TICK_DV
      0000008AH   SFRSYM    DATA     BYTE      TL0
      0000008BH   SFRSYM    DATA     BYTE      TL1
      000000CCH   SFRSYM    DATA     BYTE      TL2
      00000089H   SFRSYM    DATA     BYTE      TMOD
      00000088H.4 SFRSYM    DATA     BIT       TR0
      00000088H.6 SFRSYM    DATA     BIT       TR1
      000000C8H.2 SFRSYM    DATA     BIT       TR2
      00000080H.2 SFRSYM    DATA     BIT       TXD
      000000D8H.3 SFRSYM    DATA     BIT       WDTI
      0000006CH   SYMBOL    DATA     BYTE      ?_PUTS?BYTE
      01000F62H   SYMBOL    CODE     NEAR LAB  ?C0001
      01000F4EH   SYMBOL    CODE     NEAR LAB  ?C0002
      01000F56H   SYMBOL    CODE     NEAR LAB  ?C0003
      01000F5EH   SYMBOL    CODE     NEAR LAB  ?C0004
      01000F66H   SYMBOL    CODE     NEAR LAB  ?C0005
      01003049H   SYMBOL    CODE     NEAR LAB  ?C0007
      0100304CH   SYMBOL    CODE     NEAR LAB  ?C0008
      01001237H   SYMBOL    CODE     NEAR LAB  ?C0010
      0100123AH   SYMBOL    CODE     NEAR LAB  ?C0011
      0100123EH   SYMBOL    CODE     NEAR LAB  ?C0012
      01000FDDH   SYMBOL    CODE     NEAR LAB  ?C0014
      01000FFBH   SYMBOL    CODE     NEAR LAB  ?C0016
      01000FFFH   SYMBOL    CODE     NEAR LAB  ?C0017
      01000F87H   SYMBOL    CODE     NEAR LAB  ?C0018
      01000FF0H   SYMBOL    CODE     NEAR LAB  ?C0020
      01003047H   SYMBOL    CODE     NEAR LAB  _SERIAL_WRITE
      01000F2AH   SYMBOL    CODE     NEAR LAB  _SETUP_BAUDRATE
      0000006CH   SYMBOL    DATA     BYTE      S?544
      01001237H   SYMBOL    CODE     NEAR LAB  SERIAL_READ

      01000F2AH   BLOCK     CODE     NEAR LAB  LVL=0
      01000F2AH   LINE      CODE     ---       #221
      01000F2DH   LINE      CODE     ---       #224
      01000F2FH   LINE      CODE     ---       #227
      01000F31H   LINE      CODE     ---       #230
      01000F33H   LINE      CODE     ---       #233
      01000F36H   LINE      CODE     ---       #237
      01000F39H   LINE      CODE     ---       #240
      01000F3CH   LINE      CODE     ---       #244
      01000F3DH   LINE      CODE     ---       #245
      01000F3FH   LINE      CODE     ---       #246
LX51 LINKER/LOCATER V4.34a                                                            05/05/2009  14:28:33  PAGE 48


      01000F4EH   LINE      CODE     ---       #258
      01000F51H   LINE      CODE     ---       #261
      01000F54H   LINE      CODE     ---       #264
      01000F56H   LINE      CODE     ---       #270
      01000F59H   LINE      CODE     ---       #273
      01000F5CH   LINE      CODE     ---       #276
      01000F5EH   LINE      CODE     ---       #283
      01000F5FH   LINE      CODE     ---       #284
      01000F60H   LINE      CODE     ---       #285
      01000F61H   LINE      CODE     ---       #286
      01000F62H   LINE      CODE     ---       #292
      01000F64H   LINE      CODE     ---       #293
      01000F66H   LINE      CODE     ---       #297
      ---         BLOCKEND  ---      ---       LVL=0

      0100122DH   BLOCK     CODE     NEAR LAB  LVL=0
      0100122DH   LINE      CODE     ---       #319
      01001230H   LINE      CODE     ---       #322
      01001233H   LINE      CODE     ---       #325
      01001236H   LINE      CODE     ---       #328
      ---         BLOCKEND  ---      ---       LVL=0

      01003047H   BLOCK     CODE     NEAR LAB  LVL=0
      01003047H   LINE      CODE     ---       #345
      01003049H   LINE      CODE     ---       #349
      0100304CH   LINE      CODE     ---       #354
      0100304EH   LINE      CODE     ---       #357
      ---         BLOCKEND  ---      ---       LVL=0

      01001237H   BLOCK     CODE     NEAR LAB  LVL=0
      01001237H   LINE      CODE     ---       #375
      0100123AH   LINE      CODE     ---       #380
      0100123CH   LINE      CODE     ---       #383
      0100123EH   LINE      CODE     ---       #387
      ---         BLOCKEND  ---      ---       LVL=0

      01000050H   BLOCK     CODE     NEAR LAB  LVL=0
      01000050H   LINE      CODE     ---       #402
      ---         BLOCKEND  ---      ---       LVL=0

      01000FD7H   BLOCK     CODE     NEAR LAB  LVL=0
      01000FD7H   LINE      CODE     ---       #413
      01000FD9H   LINE      CODE     ---       #414
      01000FDBH   LINE      CODE     ---       #415
      01000FDDH   LINE      CODE     ---       #421
      01000FDFH   LINE      CODE     ---       #422
      01000FE1H   LINE      CODE     ---       #423
      01000FE3H   LINE      CODE     ---       #424
      01000FE6H   LINE      CODE     ---       #425
      01000FE8H   LINE      CODE     ---       #428
      01000FEAH   LINE      CODE     ---       #429
      01000FECH   LINE      CODE     ---       #430
      01000FEEH   LINE      CODE     ---       #431
      01000FF0H   LINE      CODE     ---       #433
      01000FF1H   LINE      CODE     ---       #434
      01000FF2H   LINE      CODE     ---       #435
      01000FF5H   LINE      CODE     ---       #436
      01000FF6H   LINE      CODE     ---       #437
      01000FF9H   LINE      CODE     ---       #438
      01000FFBH   LINE      CODE     ---       #442
      ---         BLOCKEND  ---      ---       LVL=0

      01000FFCH   BLOCK     CODE     NEAR LAB  LVL=0
      01000FFCH   LINE      CODE     ---       #456
      01000FFFH   LINE      CODE     ---       #460
LX51 LINKER/LOCATER V4.34a                                                            05/05/2009  14:28:33  PAGE 49


      ---         BLOCKEND  ---      ---       LVL=0

      01000F67H   BLOCK     CODE     NEAR LAB  LVL=0
      01000F67H   LINE      CODE     ---       #474
      01000F69H   LINE      CODE     ---       #475
      01000F6BH   LINE      CODE     ---       #476
      01000F6DH   LINE      CODE     ---       #477
      01000F6FH   LINE      CODE     ---       #478
      01000F70H   LINE      CODE     ---       #479
      01000F72H   LINE      CODE     ---       #483
      01000F74H   LINE      CODE     ---       #484
      01000F75H   LINE      CODE     ---       #485
      01000F76H   LINE      CODE     ---       #486
      01000F77H   LINE      CODE     ---       #487
      01000F78H   LINE      CODE     ---       #488
      01000F79H   LINE      CODE     ---       #489
      01000F7BH   LINE      CODE     ---       #490
      01000F7DH   LINE      CODE     ---       #491
      01000F80H   LINE      CODE     ---       #492
      01000F81H   LINE      CODE     ---       #493
      01000F82H   LINE      CODE     ---       #494
      01000F84H   LINE      CODE     ---       #497
      01000F87H   LINE      CODE     ---       #501
      01000F89H   LINE      CODE     ---       #502
      01000F8AH   LINE      CODE     ---       #503
      01000F8BH   LINE      CODE     ---       #504
      01000F8CH   LINE      CODE     ---       #505
      01000F8DH   LINE      CODE     ---       #506
      01000F8EH   LINE      CODE     ---       #507
      01000F90H   LINE      CODE     ---       #508
      01000F92H   LINE      CODE     ---       #509
      01000F95H   LINE      CODE     ---       #510
      01000F96H   LINE      CODE     ---       #511
      01000F98H   LINE      CODE     ---       #512
      01000F99H   LINE      CODE     ---       #513
      01000F9CH   LINE      CODE     ---       #516
      01000F9EH   LINE      CODE     ---       #517
      01000FA0H   LINE      CODE     ---       #518
      ---         BLOCKEND  ---      ---       LVL=0

      ---         MODULE    ---      ---       SPI
      0100123FH   PUBLIC    CODE     NEAR LAB  _SPI_INIT
      01001220H   PUBLIC    CODE     NEAR LAB  _SPI_WRITE_THEN_READ
      000000D0H.6 SFRSYM    DATA     BIT       AC
      000000E0H   SFRSYM    DATA     BYTE      ACC
      000000A1H   SFRSYM    DATA     BYTE      ADCCON
      000000A2H   SFRSYM    DATA     BYTE      ADCDATAH
      000000A3H   SFRSYM    DATA     BYTE      ADCDATAL
      000000A4H   SFRSYM    DATA     BYTE      ADCSTATIC
      000000F0H   SFRSYM    DATA     BYTE      B
      000000C8H.1 SFRSYM    DATA     BIT       C_T2
      000000A0H.6 SFRSYM    DATA     BIT       CE
      000000B6H   SFRSYM    DATA     BYTE      CK_CTRL
      0000008EH   SFRSYM    DATA     BYTE      CKCON
      000000A0H.1 SFRSYM    DATA     BIT       CLK1
      000000A0H.5 SFRSYM    DATA     BIT       CLK2
      000000C8H   SFRSYM    DATA     BIT       CP_RL2
      000000C8H   SFRSYM    DATA     BIT       CPRL2
      000000A0H.3 SFRSYM    DATA     BIT       CS
      000000C8H.1 SFRSYM    DATA     BIT       CT2
      000000D0H.7 SFRSYM    DATA     BIT       CY
      000000A0H   SFRSYM    DATA     BIT       DATA?
      000000BEH   SFRSYM    DATA     BYTE      DEV_OFFSET
      00000090H.2 SFRSYM    DATA     BIT       DIN0
      00000090H   SFRSYM    DATA     BIT       DIO0
LX51 LINKER/LOCATER V4.34a                                                            05/05/2009  14:28:33  PAGE 50


      00000090H.1 SFRSYM    DATA     BIT       DIO1
      00000080H   SFRSYM    DATA     BIT       DIO2
      00000080H.1 SFRSYM    DATA     BIT       DIO3
      00000080H.2 SFRSYM    DATA     BIT       DIO4
      00000080H.3 SFRSYM    DATA     BIT       DIO5
      00000080H.4 SFRSYM    DATA     BIT       DIO6
      00000080H.5 SFRSYM    DATA     BIT       DIO7
      00000080H.6 SFRSYM    DATA     BIT       DIO8
      00000080H.7 SFRSYM    DATA     BIT       DIO9
      000000A0H.4 SFRSYM    DATA     BIT       DOUT2
      00000083H   SFRSYM    DATA     BYTE      DPH
      00000083H   SFRSYM    DATA     BYTE      DPH0
      00000085H   SFRSYM    DATA     BYTE      DPH1
      00000082H   SFRSYM    DATA     BYTE      DPL
      00000082H   SFRSYM    DATA     BYTE      DPL0
      00000084H   SFRSYM    DATA     BYTE      DPL1
      00000086H   SFRSYM    DATA     BYTE      DPS
      000000A0H.2 SFRSYM    DATA     BIT       DR1
      000000A0H.6 SFRSYM    DATA     BIT       DR2
      000000A0H.6 SFRSYM    DATA     BIT       DR2_CE
      000000A8H.7 SFRSYM    DATA     BIT       EA
      000000D8H   SFRSYM    DATA     BYTE      EICON
      000000E8H   SFRSYM    DATA     BYTE      EIE
      000000F8H   SFRSYM    DATA     BYTE      EIP
      000000A8H.4 SFRSYM    DATA     BIT       ES
      000000A8H.1 SFRSYM    DATA     BIT       ET0
      000000A8H.3 SFRSYM    DATA     BIT       ET1
      000000A8H.5 SFRSYM    DATA     BIT       ET2
      000000E8H.4 SFRSYM    DATA     BIT       EWDI
      000000A8H   SFRSYM    DATA     BIT       EX0
      000000A8H.2 SFRSYM    DATA     BIT       EX1
      000000E8H   SFRSYM    DATA     BIT       EX2
      000000E8H.1 SFRSYM    DATA     BIT       EX3
      000000E8H.2 SFRSYM    DATA     BIT       EX4
      000000E8H.3 SFRSYM    DATA     BIT       EX5
      000000C8H.3 SFRSYM    DATA     BIT       EXEN2
      000000C8H.6 SFRSYM    DATA     BIT       EXF2
      00000091H   SFRSYM    DATA     BYTE      EXIF
      000000D0H.5 SFRSYM    DATA     BIT       F0
      000000D0H.1 SFRSYM    DATA     BIT       F1
      000000A8H   SFRSYM    DATA     BYTE      IE
      00000088H.1 SFRSYM    DATA     BIT       IE0
      00000088H.3 SFRSYM    DATA     BIT       IE1
      00000080H.3 SFRSYM    DATA     BIT       INT0_N
      00000080H.4 SFRSYM    DATA     BIT       INT1_N
      000000B8H   SFRSYM    DATA     BYTE      IP
      00000088H   SFRSYM    DATA     BIT       IT0
      00000088H.2 SFRSYM    DATA     BIT       IT1
      00000092H   SFRSYM    DATA     BYTE      MPAGE
      000000D0H.2 SFRSYM    DATA     BIT       OV
      000000D0H   SFRSYM    DATA     BIT       P
      00000080H   SFRSYM    DATA     BYTE      P0
      00000080H   SFRSYM    DATA     BIT       P0_0
      00000080H.1 SFRSYM    DATA     BIT       P0_1
      00000080H.2 SFRSYM    DATA     BIT       P0_2
      00000080H.3 SFRSYM    DATA     BIT       P0_3
      00000080H.4 SFRSYM    DATA     BIT       P0_4
      00000080H.5 SFRSYM    DATA     BIT       P0_5
      00000080H.6 SFRSYM    DATA     BIT       P0_6
      00000080H.7 SFRSYM    DATA     BIT       P0_7
      00000095H   SFRSYM    DATA     BYTE      P0_ALT
      00000094H   SFRSYM    DATA     BYTE      P0_DIR
      00000090H   SFRSYM    DATA     BYTE      P1
      00000090H   SFRSYM    DATA     BIT       P1_0
      00000090H.1 SFRSYM    DATA     BIT       P1_1
LX51 LINKER/LOCATER V4.34a                                                            05/05/2009  14:28:33  PAGE 51


      00000090H.2 SFRSYM    DATA     BIT       P1_2
      00000097H   SFRSYM    DATA     BYTE      P1_ALT
      00000096H   SFRSYM    DATA     BYTE      P1_DIR
      00000087H   SFRSYM    DATA     BYTE      PCON
      000000B8H.4 SFRSYM    DATA     BIT       PS
      000000D0H   SFRSYM    DATA     BYTE      PSW
      000000B8H.1 SFRSYM    DATA     BIT       PT0
      000000B8H.3 SFRSYM    DATA     BIT       PT1
      000000B8H.5 SFRSYM    DATA     BIT       PT2
      000000F8H.4 SFRSYM    DATA     BIT       PWDI
      00000080H.7 SFRSYM    DATA     BIT       PWM
      000000A9H   SFRSYM    DATA     BYTE      PWMCON
      000000AAH   SFRSYM    DATA     BYTE      PWMDUTY
      000000A0H.7 SFRSYM    DATA     BIT       PWR_UP
      000000B8H   SFRSYM    DATA     BIT       PX0
      000000B8H.2 SFRSYM    DATA     BIT       PX1
      000000F8H   SFRSYM    DATA     BIT       PX2
      000000F8H.1 SFRSYM    DATA     BIT       PX3
      000000F8H.2 SFRSYM    DATA     BIT       PX4
      000000F8H.3 SFRSYM    DATA     BIT       PX5
      000000A0H   SFRSYM    DATA     BYTE      RADIO
      00000098H.2 SFRSYM    DATA     BIT       RB8
      000000CBH   SFRSYM    DATA     BYTE      RCAP2H
      000000CAH   SFRSYM    DATA     BYTE      RCAP2L
      000000C8H.5 SFRSYM    DATA     BIT       RCLK
      000000ADH   SFRSYM    DATA     BYTE      REGX_CTRL
      000000ACH   SFRSYM    DATA     BYTE      REGX_LSB
      000000ABH   SFRSYM    DATA     BYTE      REGX_MSB
      00000098H.4 SFRSYM    DATA     BIT       REN
      00000098H   SFRSYM    DATA     BIT       RI
      000000D0H.3 SFRSYM    DATA     BIT       RS0
      000000D0H.4 SFRSYM    DATA     BIT       RS1
      000000B1H   SFRSYM    DATA     BYTE      RSTREAS
      00000080H.1 SFRSYM    DATA     BIT       RXD
      00000099H   SFRSYM    DATA     BYTE      SBUF
      00000098H   SFRSYM    DATA     BYTE      SCON
      00000098H.7 SFRSYM    DATA     BIT       SM0
      00000098H.6 SFRSYM    DATA     BIT       SM1
      00000098H.5 SFRSYM    DATA     BIT       SM2
      00000081H   SFRSYM    DATA     BYTE      SP
      0000008FH   SFRSYM    DATA     BYTE      SPC_FNC
      000000B3H   SFRSYM    DATA     BYTE      SPI_CTRL
      000000B2H   SFRSYM    DATA     BYTE      SPI_DATA
      000000B4H   SFRSYM    DATA     BYTE      SPICLK
      00000080H.5 SFRSYM    DATA     BIT       T0
      00000080H.6 SFRSYM    DATA     BIT       T1
      000000BCH   SFRSYM    DATA     BYTE      T1_1V2
      00000090H   SFRSYM    DATA     BIT       T2
      000000BDH   SFRSYM    DATA     BYTE      T2_1V2
      000000C8H   SFRSYM    DATA     BYTE      T2CON
      00000098H.3 SFRSYM    DATA     BIT       TB8
      000000C8H.4 SFRSYM    DATA     BIT       TCLK
      00000088H   SFRSYM    DATA     BYTE      TCON
      000000B7H   SFRSYM    DATA     BYTE      TEST_MODE
      00000088H.5 SFRSYM    DATA     BIT       TF0
      00000088H.7 SFRSYM    DATA     BIT       TF1
      000000C8H.7 SFRSYM    DATA     BIT       TF2
      0000008CH   SFRSYM    DATA     BYTE      TH0
      0000008DH   SFRSYM    DATA     BYTE      TH1
      000000CDH   SFRSYM    DATA     BYTE      TH2
      00000098H.1 SFRSYM    DATA     BIT       TI
      000000B5H   SFRSYM    DATA     BYTE      TICK_DV
      0000008AH   SFRSYM    DATA     BYTE      TL0
      0000008BH   SFRSYM    DATA     BYTE      TL1
      000000CCH   SFRSYM    DATA     BYTE      TL2
LX51 LINKER/LOCATER V4.34a                                                            05/05/2009  14:28:33  PAGE 52


      00000089H   SFRSYM    DATA     BYTE      TMOD
      00000088H.4 SFRSYM    DATA     BIT       TR0
      00000088H.6 SFRSYM    DATA     BIT       TR1
      000000C8H.2 SFRSYM    DATA     BIT       TR2
      00000080H.2 SFRSYM    DATA     BIT       TXD
      000000D8H.3 SFRSYM    DATA     BIT       WDTI
      01001225H   SYMBOL    CODE     NEAR LAB  ?C0002
      0100122AH   SYMBOL    CODE     NEAR LAB  ?C0003
      0100122CH   SYMBOL    CODE     NEAR LAB  ?C0004

      0100123FH   BLOCK     CODE     NEAR LAB  LVL=0
      0100123FH   LINE      CODE     ---       #203
      01001241H   LINE      CODE     ---       #206
      01001243H   LINE      CODE     ---       #209
      ---         BLOCKEND  ---      ---       LVL=0

      01001220H   BLOCK     CODE     NEAR LAB  LVL=0
      01001220H   LINE      CODE     ---       #229
      01001223H   LINE      CODE     ---       #232
      01001225H   LINE      CODE     ---       #236
      01001227H   LINE      CODE     ---       #237
      0100122AH   LINE      CODE     ---       #242
      0100122CH   LINE      CODE     ---       #246
      ---         BLOCKEND  ---      ---       LVL=0

      ---         MODULE    ---      ---       EEPROM
      01001080H   PUBLIC    CODE     NEAR LAB  _EEPROM_READ
      01003000H   PUBLIC    CODE     NEAR LAB  _EEPROM_WRITE
      010010F5H   PUBLIC    CODE     NEAR LAB  EEPROM_INIT
      010011F6H   PUBLIC    CODE     NEAR LAB  EEPROM_STATUS
      010030B8H   PUBLIC    CODE     NEAR LAB  FLASH_ERASE_ALL
      000000D0H.6 SFRSYM    DATA     BIT       AC
      000000E0H   SFRSYM    DATA     BYTE      ACC
      000000A1H   SFRSYM    DATA     BYTE      ADCCON
      000000A2H   SFRSYM    DATA     BYTE      ADCDATAH
      000000A3H   SFRSYM    DATA     BYTE      ADCDATAL
      000000A4H   SFRSYM    DATA     BYTE      ADCSTATIC
      000000F0H   SFRSYM    DATA     BYTE      B
      000000C8H.1 SFRSYM    DATA     BIT       C_T2
      000000A0H.6 SFRSYM    DATA     BIT       CE
      000000B6H   SFRSYM    DATA     BYTE      CK_CTRL
      0000008EH   SFRSYM    DATA     BYTE      CKCON
      000000A0H.1 SFRSYM    DATA     BIT       CLK1
      000000A0H.5 SFRSYM    DATA     BIT       CLK2
      000000C8H   SFRSYM    DATA     BIT       CP_RL2
      000000C8H   SFRSYM    DATA     BIT       CPRL2
      000000A0H.3 SFRSYM    DATA     BIT       CS
      000000C8H.1 SFRSYM    DATA     BIT       CT2
      000000D0H.7 SFRSYM    DATA     BIT       CY
      000000A0H   SFRSYM    DATA     BIT       DATA?
      000000BEH   SFRSYM    DATA     BYTE      DEV_OFFSET
      00000090H.2 SFRSYM    DATA     BIT       DIN0
      00000090H   SFRSYM    DATA     BIT       DIO0
      00000090H.1 SFRSYM    DATA     BIT       DIO1
      00000080H   SFRSYM    DATA     BIT       DIO2
      00000080H.1 SFRSYM    DATA     BIT       DIO3
      00000080H.2 SFRSYM    DATA     BIT       DIO4
      00000080H.3 SFRSYM    DATA     BIT       DIO5
      00000080H.4 SFRSYM    DATA     BIT       DIO6
      00000080H.5 SFRSYM    DATA     BIT       DIO7
      00000080H.6 SFRSYM    DATA     BIT       DIO8
      00000080H.7 SFRSYM    DATA     BIT       DIO9
      000000A0H.4 SFRSYM    DATA     BIT       DOUT2
      00000083H   SFRSYM    DATA     BYTE      DPH
      00000083H   SFRSYM    DATA     BYTE      DPH0
LX51 LINKER/LOCATER V4.34a                                                            05/05/2009  14:28:33  PAGE 53


      00000085H   SFRSYM    DATA     BYTE      DPH1
      00000082H   SFRSYM    DATA     BYTE      DPL
      00000082H   SFRSYM    DATA     BYTE      DPL0
      00000084H   SFRSYM    DATA     BYTE      DPL1
      00000086H   SFRSYM    DATA     BYTE      DPS
      000000A0H.2 SFRSYM    DATA     BIT       DR1
      000000A0H.6 SFRSYM    DATA     BIT       DR2
      000000A0H.6 SFRSYM    DATA     BIT       DR2_CE
      000000A8H.7 SFRSYM    DATA     BIT       EA
      000000D8H   SFRSYM    DATA     BYTE      EICON
      000000E8H   SFRSYM    DATA     BYTE      EIE
      000000F8H   SFRSYM    DATA     BYTE      EIP
      000000A8H.4 SFRSYM    DATA     BIT       ES
      000000A8H.1 SFRSYM    DATA     BIT       ET0
      000000A8H.3 SFRSYM    DATA     BIT       ET1
      000000A8H.5 SFRSYM    DATA     BIT       ET2
      000000E8H.4 SFRSYM    DATA     BIT       EWDI
      000000A8H   SFRSYM    DATA     BIT       EX0
      000000A8H.2 SFRSYM    DATA     BIT       EX1
      000000E8H   SFRSYM    DATA     BIT       EX2
      000000E8H.1 SFRSYM    DATA     BIT       EX3
      000000E8H.2 SFRSYM    DATA     BIT       EX4
      000000E8H.3 SFRSYM    DATA     BIT       EX5
      000000C8H.3 SFRSYM    DATA     BIT       EXEN2
      000000C8H.6 SFRSYM    DATA     BIT       EXF2
      00000091H   SFRSYM    DATA     BYTE      EXIF
      000000D0H.5 SFRSYM    DATA     BIT       F0
      000000D0H.1 SFRSYM    DATA     BIT       F1
      000000A8H   SFRSYM    DATA     BYTE      IE
      00000088H.1 SFRSYM    DATA     BIT       IE0
      00000088H.3 SFRSYM    DATA     BIT       IE1
      00000080H.3 SFRSYM    DATA     BIT       INT0_N
      00000080H.4 SFRSYM    DATA     BIT       INT1_N
      000000B8H   SFRSYM    DATA     BYTE      IP
      00000088H   SFRSYM    DATA     BIT       IT0
      00000088H.2 SFRSYM    DATA     BIT       IT1
      00000092H   SFRSYM    DATA     BYTE      MPAGE
      000000D0H.2 SFRSYM    DATA     BIT       OV
      000000D0H   SFRSYM    DATA     BIT       P
      00000080H   SFRSYM    DATA     BYTE      P0
      00000080H   SFRSYM    DATA     BIT       P0_0
      00000080H.1 SFRSYM    DATA     BIT       P0_1
      00000080H.2 SFRSYM    DATA     BIT       P0_2
      00000080H.3 SFRSYM    DATA     BIT       P0_3
      00000080H.4 SFRSYM    DATA     BIT       P0_4
      00000080H.5 SFRSYM    DATA     BIT       P0_5
      00000080H.6 SFRSYM    DATA     BIT       P0_6
      00000080H.7 SFRSYM    DATA     BIT       P0_7
      00000095H   SFRSYM    DATA     BYTE      P0_ALT
      00000094H   SFRSYM    DATA     BYTE      P0_DIR
      00000090H   SFRSYM    DATA     BYTE      P1
      00000090H   SFRSYM    DATA     BIT       P1_0
      00000090H.1 SFRSYM    DATA     BIT       P1_1
      00000090H.2 SFRSYM    DATA     BIT       P1_2
      00000097H   SFRSYM    DATA     BYTE      P1_ALT
      00000096H   SFRSYM    DATA     BYTE      P1_DIR
      00000087H   SFRSYM    DATA     BYTE      PCON
      000000B8H.4 SFRSYM    DATA     BIT       PS
      000000D0H   SFRSYM    DATA     BYTE      PSW
      000000B8H.1 SFRSYM    DATA     BIT       PT0
      000000B8H.3 SFRSYM    DATA     BIT       PT1
      000000B8H.5 SFRSYM    DATA     BIT       PT2
      000000F8H.4 SFRSYM    DATA     BIT       PWDI
      00000080H.7 SFRSYM    DATA     BIT       PWM
      000000A9H   SFRSYM    DATA     BYTE      PWMCON
LX51 LINKER/LOCATER V4.34a                                                            05/05/2009  14:28:33  PAGE 54


      000000AAH   SFRSYM    DATA     BYTE      PWMDUTY
      000000A0H.7 SFRSYM    DATA     BIT       PWR_UP
      000000B8H   SFRSYM    DATA     BIT       PX0
      000000B8H.2 SFRSYM    DATA     BIT       PX1
      000000F8H   SFRSYM    DATA     BIT       PX2
      000000F8H.1 SFRSYM    DATA     BIT       PX3
      000000F8H.2 SFRSYM    DATA     BIT       PX4
      000000F8H.3 SFRSYM    DATA     BIT       PX5
      000000A0H   SFRSYM    DATA     BYTE      RADIO
      00000098H.2 SFRSYM    DATA     BIT       RB8
      000000CBH   SFRSYM    DATA     BYTE      RCAP2H
      000000CAH   SFRSYM    DATA     BYTE      RCAP2L
      000000C8H.5 SFRSYM    DATA     BIT       RCLK
      000000ADH   SFRSYM    DATA     BYTE      REGX_CTRL
      000000ACH   SFRSYM    DATA     BYTE      REGX_LSB
      000000ABH   SFRSYM    DATA     BYTE      REGX_MSB
      00000098H.4 SFRSYM    DATA     BIT       REN
      00000098H   SFRSYM    DATA     BIT       RI
      000000D0H.3 SFRSYM    DATA     BIT       RS0
      000000D0H.4 SFRSYM    DATA     BIT       RS1
      000000B1H   SFRSYM    DATA     BYTE      RSTREAS
      00000080H.1 SFRSYM    DATA     BIT       RXD
      00000099H   SFRSYM    DATA     BYTE      SBUF
      00000098H   SFRSYM    DATA     BYTE      SCON
      00000098H.7 SFRSYM    DATA     BIT       SM0
      00000098H.6 SFRSYM    DATA     BIT       SM1
      00000098H.5 SFRSYM    DATA     BIT       SM2
      00000081H   SFRSYM    DATA     BYTE      SP
      0000008FH   SFRSYM    DATA     BYTE      SPC_FNC
      000000B3H   SFRSYM    DATA     BYTE      SPI_CTRL
      000000B2H   SFRSYM    DATA     BYTE      SPI_DATA
      000000B4H   SFRSYM    DATA     BYTE      SPICLK
      00000080H.5 SFRSYM    DATA     BIT       T0
      00000080H.6 SFRSYM    DATA     BIT       T1
      000000BCH   SFRSYM    DATA     BYTE      T1_1V2
      00000090H   SFRSYM    DATA     BIT       T2
      000000BDH   SFRSYM    DATA     BYTE      T2_1V2
      000000C8H   SFRSYM    DATA     BYTE      T2CON
      00000098H.3 SFRSYM    DATA     BIT       TB8
      000000C8H.4 SFRSYM    DATA     BIT       TCLK
      00000088H   SFRSYM    DATA     BYTE      TCON
      000000B7H   SFRSYM    DATA     BYTE      TEST_MODE
      00000088H.5 SFRSYM    DATA     BIT       TF0
      00000088H.7 SFRSYM    DATA     BIT       TF1
      000000C8H.7 SFRSYM    DATA     BIT       TF2
      0000008CH   SFRSYM    DATA     BYTE      TH0
      0000008DH   SFRSYM    DATA     BYTE      TH1
      000000CDH   SFRSYM    DATA     BYTE      TH2
      00000098H.1 SFRSYM    DATA     BIT       TI
      000000B5H   SFRSYM    DATA     BYTE      TICK_DV
      0000008AH   SFRSYM    DATA     BYTE      TL0
      0000008BH   SFRSYM    DATA     BYTE      TL1
      000000CCH   SFRSYM    DATA     BYTE      TL2
      00000089H   SFRSYM    DATA     BYTE      TMOD
      00000088H.4 SFRSYM    DATA     BIT       TR0
      00000088H.6 SFRSYM    DATA     BIT       TR1
      000000C8H.2 SFRSYM    DATA     BIT       TR2
      00000080H.2 SFRSYM    DATA     BIT       TXD
      000000D8H.3 SFRSYM    DATA     BIT       WDTI
      00000072H   SYMBOL    DATA     BYTE      ?_EEPROM_READ?BYTE
      0000006FH   SYMBOL    DATA     BYTE      ?_EEPROM_WRITE?BYTE
      01001204H   SYMBOL    CODE     NEAR LAB  ?C0002
      01003006H   SYMBOL    CODE     NEAR LAB  ?C0003
      0100300DH   SYMBOL    CODE     NEAR LAB  ?C0004
      01001087H   SYMBOL    CODE     NEAR LAB  ?C0006
LX51 LINKER/LOCATER V4.34a                                                            05/05/2009  14:28:33  PAGE 55


      0100108EH   SYMBOL    CODE     NEAR LAB  ?C0007
      010010ABH   SYMBOL    CODE     NEAR LAB  ?C0008
      010030B8H   SYMBOL    CODE     NEAR LAB  ?C0009
      010030BFH   SYMBOL    CODE     NEAR LAB  ?C0010
      010030D1H   SYMBOL    CODE     NEAR LAB  ?C0012
      0000006FH   SYMBOL    DATA     BYTE      ADDR?241
      00000072H   SYMBOL    DATA     BYTE      ADDR?343
      00000071H   SYMBOL    DATA     BYTE      BYTE?242
      00000074H   SYMBOL    DATA     BYTE      BYTE?344

      010010F5H   BLOCK     CODE     NEAR LAB  LVL=0
      010010F5H   LINE      CODE     ---       #244
      010010F6H   LINE      CODE     ---       #245
      010010F7H   LINE      CODE     ---       #246
      010010F9H   LINE      CODE     ---       #247
      010010FCH   LINE      CODE     ---       #251
      010010FFH   LINE      CODE     ---       #254
      ---         BLOCKEND  ---      ---       LVL=0

      010011F6H   BLOCK     CODE     NEAR LAB  LVL=0
      010011F6H   LINE      CODE     ---       #270
      010011F8H   LINE      CODE     ---       #273
      010011FAH   LINE      CODE     ---       #274
      010011FDH   LINE      CODE     ---       #278
      010011FEH   LINE      CODE     ---       #279
      010011FFH   LINE      CODE     ---       #280
      01001202H   LINE      CODE     ---       #284
      01001204H   LINE      CODE     ---       #291
      ---         BLOCKEND  ---      ---       LVL=0

      01003000H   BLOCK     CODE     NEAR LAB  LVL=0
      01003000H   LINE      CODE     ---       #305
      01003002H   LINE      CODE     ---       #306
      01003004H   LINE      CODE     ---       #307
      01003006H   LINE      CODE     ---       #313
      01003009H   LINE      CODE     ---       #314
      0100300AH   LINE      CODE     ---       #315
      0100300DH   LINE      CODE     ---       #320
      0100300FH   LINE      CODE     ---       #323
      01003011H   LINE      CODE     ---       #324
      01003014H   LINE      CODE     ---       #327
      01003016H   LINE      CODE     ---       #330
      01003018H   LINE      CODE     ---       #333
      0100301AH   LINE      CODE     ---       #334
      0100301DH   LINE      CODE     ---       #337
      0100301FH   LINE      CODE     ---       #338
      01003020H   LINE      CODE     ---       #339
      01003023H   LINE      CODE     ---       #342
      01003025H   LINE      CODE     ---       #343
      01003027H   LINE      CODE     ---       #344
      0100302AH   LINE      CODE     ---       #347
      0100302CH   LINE      CODE     ---       #348
      0100302FH   LINE      CODE     ---       #351
      01003031H   LINE      CODE     ---       #354
      01003033H   LINE      CODE     ---       #357
      01003035H   LINE      CODE     ---       #358
      01003038H   LINE      CODE     ---       #361
      0100303AH   LINE      CODE     ---       #364
      ---         BLOCKEND  ---      ---       LVL=0

      01001080H   BLOCK     CODE     NEAR LAB  LVL=0
      01001080H   LINE      CODE     ---       #377
      01001082H   LINE      CODE     ---       #378
      01001084H   LINE      CODE     ---       #383
      01001085H   LINE      CODE     ---       #384
LX51 LINKER/LOCATER V4.34a                                                            05/05/2009  14:28:33  PAGE 56


      01001087H   LINE      CODE     ---       #388
      0100108AH   LINE      CODE     ---       #389
      0100108BH   LINE      CODE     ---       #390
      0100108EH   LINE      CODE     ---       #395
      01001090H   LINE      CODE     ---       #398
      01001092H   LINE      CODE     ---       #399
      01001095H   LINE      CODE     ---       #402
      01001097H   LINE      CODE     ---       #403
      01001098H   LINE      CODE     ---       #404
      0100109BH   LINE      CODE     ---       #407
      0100109DH   LINE      CODE     ---       #408
      0100109FH   LINE      CODE     ---       #409
      010010A2H   LINE      CODE     ---       #412
      010010A3H   LINE      CODE     ---       #413
      010010A4H   LINE      CODE     ---       #414
      010010A7H   LINE      CODE     ---       #415
      010010A9H   LINE      CODE     ---       #418
      010010ABH   LINE      CODE     ---       #424
      ---         BLOCKEND  ---      ---       LVL=0

      010030B8H   BLOCK     CODE     NEAR LAB  LVL=0
      010030B8H   LINE      CODE     ---       #440
      010030BBH   LINE      CODE     ---       #441
      010030BCH   LINE      CODE     ---       #442
      010030BFH   LINE      CODE     ---       #447
      010030C1H   LINE      CODE     ---       #450
      010030C3H   LINE      CODE     ---       #451
      010030C6H   LINE      CODE     ---       #454
      010030C8H   LINE      CODE     ---       #457
      010030CAH   LINE      CODE     ---       #460
      010030CCH   LINE      CODE     ---       #461
      010030CFH   LINE      CODE     ---       #464
      010030D1H   LINE      CODE     ---       #472
      010030D3H   LINE      CODE     ---       #475
      010030D5H   LINE      CODE     ---       #476
      010030D8H   LINE      CODE     ---       #479
      010030DAH   LINE      CODE     ---       #482
      ---         BLOCKEND  ---      ---       LVL=0

      ---         MODULE    ---      ---       ?C_STARTUP
      01000000H   PUBLIC    CODE     ---       ?C_STARTUP

      ---         MODULE    ---      ---       ?C?CLDPTR
      01000056H   PUBLIC    CODE     ---       ?C?CLDPTR

      ---         MODULE    ---      ---       ?C?CLDOPTR
      0100006FH   PUBLIC    CODE     ---       ?C?CLDOPTR

      ---         MODULE    ---      ---       ?C?CSTPTR
      0100009CH   PUBLIC    CODE     ---       ?C?CSTPTR

      ---         MODULE    ---      ---       ?C?IMUL
      010000AEH   PUBLIC    CODE     ---       ?C?IMUL

      ---         MODULE    ---      ---       ?C?UIDIV
      010000C0H   PUBLIC    CODE     ---       ?C?UIDIV

      ---         MODULE    ---      ---       ?C?SIDIV
      01000115H   PUBLIC    CODE     ---       ?C?SIDIV

      ---         MODULE    ---      ---       ?C?ILDOPTR
      0100014BH   PUBLIC    CODE     ---       ?C?ILDOPTR

      ---         MODULE    ---      ---       ?C?ISTOPTR
      01000183H   PUBLIC    CODE     ---       ?C?ISTOPTR
LX51 LINKER/LOCATER V4.34a                                                            05/05/2009  14:28:33  PAGE 57



      ---         MODULE    ---      ---       ?C?LMUL
      010001B0H   PUBLIC    CODE     ---       ?C?LMUL

      ---         MODULE    ---      ---       ?C?ULDIV
      0100023BH   PUBLIC    CODE     ---       ?C?ULDIV

      ---         MODULE    ---      ---       ?C?ICASE
      010002CDH   PUBLIC    CODE     ---       ?C?ICASE

      ---         MODULE    ---      ---       ?C_IBP
      0000007BH   PUBLIC    DATA     ---       ?C_IBP

      ---         MODULE    ---      ---       ?C_INIT
      01000DEDH   PUBLIC    CODE     ---       ?C_START

      ---         MODULE    ---      ---       ?C?FCAST
      01000304H   PUBLIC    CODE     ---       ?C?FCASTC
      010002FFH   PUBLIC    CODE     ---       ?C?FCASTI
      010002FAH   PUBLIC    CODE     ---       ?C?FCASTL

      ---         MODULE    ---      ---       ?C?CASTF
      01000338H   PUBLIC    CODE     ---       ?C?CASTF

      ---         MODULE    ---      ---       SIN
      010009ACH   PUBLIC    CODE     ---       _COS
      010009C2H   PUBLIC    CODE     ---       _SIN
      010009FEH   PUBLIC    CODE     ---       _TAN

      ---         MODULE    ---      ---       ?C?FPGETOPN
      0100036FH   PUBLIC    CODE     ---       ?C?FPGETOPN2
      010003A4H   PUBLIC    CODE     ---       ?C?FPNANRESULT
      010003AEH   PUBLIC    CODE     ---       ?C?FPOVERFLOW
      01000386H   PUBLIC    CODE     ---       ?C?FPRESULT
      0100039AH   PUBLIC    CODE     ---       ?C?FPRESULT2
      010003ABH   PUBLIC    CODE     ---       ?C?FPUNDERFLOW

      ---         MODULE    ---      ---       ?C?FPADD
      010003C0H   PUBLIC    CODE     ---       ?C?FPADD
      010003BCH   PUBLIC    CODE     ---       ?C?FPSUB

      ---         MODULE    ---      ---       ?C?FPMUL
      010004B1H   PUBLIC    CODE     ---       ?C?FPMUL

      ---         MODULE    ---      ---       ?C?FPDIV
      010005BAH   PUBLIC    CODE     ---       ?C?FPDIV

      ---         MODULE    ---      ---       ?C?FPSERIES
      01000657H   PUBLIC    CODE     ---       ?C?FP2SERIES
      01000666H   PUBLIC    CODE     ---       ?C?FPSERIES

      ---         MODULE    ---      ---       ?C?LNEG
      010006A4H   PUBLIC    CODE     ---       ?C?LNEG

      ---         MODULE    ---      ---       ?C?LLDCODE
      010006B2H   PUBLIC    CODE     ---       ?C?LLDCODE

      ---         MODULE    ---      ---       ?C?LLDXDATA0
      010006C2H   PUBLIC    CODE     ---       ?C?LLDXDATA0

      ---         MODULE    ---      ---       ?C?LLDCODE0
      010006CEH   PUBLIC    CODE     ---       ?C?LLDCODE0

      ---         MODULE    ---      ---       ?C?LSTXDATA
      010006DEH   PUBLIC    CODE     ---       ?C?LSTXDATA
LX51 LINKER/LOCATER V4.34a                                                            05/05/2009  14:28:33  PAGE 58



Program Size: data=223.1 xdata=4 const=0 code=4895
LX51 RUN COMPLETE.  0 WARNING(S),  0 ERROR(S)
