; ./main.src generated from: .\main.c
; COMPILER INVOKED BY:
;        C:\Keil\C51\BIN\C51.exe .\main.c BROWSE DEBUG CODE LISTINCLUDE SYMBOLS PREPRINT INCDIR(../../Include) SRC(./main.src)

$NOMOD51

NAME	MAIN

PWR_UP	BIT	0A0H.7
P0	DATA	080H
P1	DATA	090H
AC	BIT	0D0H.6
T0	BIT	080H.5
SPI_CTRL	DATA	0B3H
T1	BIT	080H.6
EA	BIT	0A8H.7
T2	BIT	090H.0
CE	BIT	0A0H.6
DEV_OFFSET	DATA	0BEH
CLK1	BIT	0A0H.1
DIN0	BIT	090H.2
CLK2	BIT	0A0H.5
DIO0	BIT	090H.0
DPH0	DATA	083H
DIO1	BIT	090H.1
IE	DATA	0A8H
DPH1	DATA	085H
DIO2	BIT	080H.0
DIO3	BIT	080H.1
P0_0	BIT	080H.0
P1_0	BIT	090H.0
DIO4	BIT	080H.2
P0_1	BIT	080H.1
DPL0	DATA	082H
P1_1	BIT	090H.1
DIO5	BIT	080H.3
P0_2	BIT	080H.2
DPL1	DATA	084H
P1_2	BIT	090H.2
DIO6	BIT	080H.4
P0_3	BIT	080H.3
DIO7	BIT	080H.5
P0_4	BIT	080H.4
ADCSTATIC	DATA	0A4H
DIO8	BIT	080H.6
P0_5	BIT	080H.5
EXF2	BIT	0C8H.6
CS	BIT	0A0H.3
DIO9	BIT	080H.7
P0_6	BIT	080H.6
P0_7	BIT	080H.7
ES	BIT	0A8H.4
IP	DATA	0B8H
DATA?	BIT	0A0H.0
RI	BIT	098H.0
CY	BIT	0D0H.7
TI	BIT	098H.1
T1_1V2	DATA	0BCH
SPC_FNC	DATA	08FH
T2_1V2	DATA	0BDH
RCAP2H	DATA	0CBH
PS	BIT	0B8H.4
SP	DATA	081H
OV	BIT	0D0H.2
CK_CTRL	DATA	0B6H
RCAP2L	DATA	0CAH
TICK_DV	DATA	0B5H
RSTREAS	DATA	0B1H
C_T2	BIT	0C8H.1
EWDI	BIT	0E8H.4
ADCCON	DATA	0A1H
RCLK	BIT	0C8H.5
ADCDATAH	DATA	0A2H
EXIF	DATA	091H
TCLK	BIT	0C8H.4
DR2_CE	BIT	0A0H.6
ADCDATAL	DATA	0A3H
SBUF	DATA	099H
PCON	DATA	087H
SCON	DATA	098H
PWDI	BIT	0F8H.4
TMOD	DATA	089H
TCON	DATA	088H
WDTI	BIT	0D8H.3
PWMDUTY	DATA	0AAH
IE0	BIT	088H.1
IE1	BIT	088H.3
P0_DIR	DATA	094H
B	DATA	0F0H
P1_DIR	DATA	096H
P0_ALT	DATA	095H
P1_ALT	DATA	097H
CP_RL2	BIT	0C8H.0
DR1	BIT	0A0H.2
ACC	DATA	0E0H
DR2	BIT	0A0H.6
TEST_MODE	DATA	0B7H
SPICLK	DATA	0B4H
CT2	BIT	0C8H.1
ET0	BIT	0A8H.1
ET1	BIT	0A8H.3
TF0	BIT	088H.5
INT0_N	BIT	080H.3
ET2	BIT	0A8H.5
TF1	BIT	088H.7
INT1_N	BIT	080H.4
TF2	BIT	0C8H.7
RB8	BIT	098H.2
TH0	DATA	08CH
EX0	BIT	0A8H.0
IT0	BIT	088H.0
TH1	DATA	08DH
EX1	BIT	0A8H.2
TB8	BIT	098H.3
IT1	BIT	088H.2
TH2	DATA	0CDH
REGX_CTRL	DATA	0ADH
EX2	BIT	0E8H.0
P	BIT	0D0H.0
EX3	BIT	0E8H.1
SM0	BIT	098H.7
TL0	DATA	08AH
EX4	BIT	0E8H.2
SM1	BIT	098H.6
TL1	DATA	08BH
EX5	BIT	0E8H.3
SM2	BIT	098H.5
TL2	DATA	0CCH
EIE	DATA	0E8H
PT0	BIT	0B8H.1
RS0	BIT	0D0H.3
PT1	BIT	0B8H.3
RS1	BIT	0D0H.4
PT2	BIT	0B8H.5
TR0	BIT	088H.4
PWMCON	DATA	0A9H
TR1	BIT	088H.6
TR2	BIT	0C8H.2
PX0	BIT	0B8H.0
PX1	BIT	0B8H.2
PX2	BIT	0F8H.0
PX3	BIT	0F8H.1
PX4	BIT	0F8H.2
DPH	DATA	083H
PX5	BIT	0F8H.3
EIP	DATA	0F8H
DPL	DATA	082H
EXEN2	BIT	0C8H.3
CPRL2	BIT	0C8H.0
REN	BIT	098H.4
T2CON	DATA	0C8H
DPS	DATA	086H
SPI_DATA	DATA	0B2H
MPAGE	DATA	092H
RXD	BIT	080H.1
DOUT2	BIT	0A0H.4
EICON	DATA	0D8H
CKCON	DATA	08EH
TXD	BIT	080H.2
RADIO	DATA	0A0H
PWM	BIT	080H.7
F0	BIT	0D0H.5
F1	BIT	0D0H.1
REGX_LSB	DATA	0ACH
PSW	DATA	0D0H
REGX_MSB	DATA	0ABH
?PR?main?MAIN        SEGMENT CODE 
?DT?main?MAIN        SEGMENT DATA OVERLAYABLE 
?CO?MAIN             SEGMENT CODE 
?C_INITSEG           SEGMENT CODE 
?DT?MAIN             SEGMENT DATA 
	EXTRN	CODE (_mdelay)
	EXTRN	CODE (_rf_configure)
	EXTRN	CODE (rf_wait_msg)
	EXTRN	CODE (_serial_init)
	EXTRN	CODE (_adc_init)
	EXTRN	CODE (_puts)
	EXTRN	CODE (_?int_print)
	EXTRN	CODE (_store_cpu_rate)
	EXTRN	CODE (rf_init)
	EXTRN	DATA (rf_buf)
	EXTRN	CODE (?C_STARTUP)
	PUBLIC	rf_data
	PUBLIC	dst_addr
	PUBLIC	cfg
	PUBLIC	main

	RSEG  ?DT?main?MAIN
?main?BYTE:
          i?040:   DS   2
	ORG  2
        acc?041:   DS   2

	RSEG  ?DT?MAIN
            cfg:   DS   3
       dst_addr:   DS   5
        rf_data:   DS   15

	RSEG  ?CO?MAIN
?SC_0:
	DB  'r' ,'f' ,' ' ,'t' ,'e' ,'s' ,'t' ,'i' ,'n' ,'g' 
	DB  ' ' ,'p' ,'r' ,'o' ,'g' ,'r' ,'a' ,'m' ,' ' ,'s' 
	DB  't' ,'a' ,'r' ,'t' ,'s' ,00AH,00DH,000H

?SC_28:
	DB  'r' ,'f' ,' ' ,'r' ,'e' ,'c' ,'v' ,':' ,00AH,00DH
	DB  000H

?SC_39:
	DB  'X' ,':' ,000H

?SC_42:
	DB  ' ' ,' ' ,' ' ,' ' ,000H

?SC_47:
	DB  'Y' ,':' ,000H

?SC_50:
	DB  'Z' ,':' ,000H

?SC_53:
	DB  00AH,00DH,000H


	RSEG  ?C_INITSEG
	DB	00FH
	DB	rf_data
	DB	000H
	DB	0A8H
	DB	000H
	DB	000H
	DB	000H
	DB	000H
	DB	000H
	DB	0F1H
	DB	0F2H
	DB	0F3H
	DB	0F4H
	DB	0F5H
	DB	0A3H
	DB	06FH
	DB	0EDH

	DB	003H
	DB	cfg
	DB	000H
	DW	rf_data + 0

	DB	005H
	DB	dst_addr
	DB	001H
	DB	001H
	DB	001H
	DB  000H,000H


; #include "Eco/reg24e1.h"
; #include "Eco/eco_sys.h"
; #include "utils/utils.h"
; #include "eeprom/eeprom.h"
; #include "adc/adc.h"
; #include "eco_page.h"
; #include "serial/serial.h"
; //#include "rf/rf.h"
; #include "isr/isr_rf.h"
; 
; //extern char rf_buf[RF_BUF_LEN];
; extern struct radio_buffer rf_buf;
; struct rf_config rf_data = { {0x00}, /* data2 width */
; 	{0xA8}, /* data1 width */
; 	{0x00, 0x00, 0x00, 0x00, 0x00}, /* addr2 */
; 	{0xF1, 0xF2, 0xF3, 0xF4, 0xF5}, /* addr1, host addr */
; 	{0xA3}, /* 24-bit address, 8-bit CRC */
; 	{0x6F, 0xED} };
; struct rf_config *cfg = &rf_data;
; char dst_addr[5] = {0x01, 0x01, 0x01};
; /* utils.c */
; 
; 
; int main()

	RSEG  ?PR?main?MAIN
main:
	USING	0
			; SOURCE LINE # 24
; {
			; SOURCE LINE # 25
; 	int i;
; 	int acc = 0;
			; SOURCE LINE # 27
	CLR  	A
	MOV  	acc?041,A
	MOV  	acc?041+01H,A
; 	store_cpu_rate(16);
			; SOURCE LINE # 28
	MOV  	R7,#010H
	MOV  	R6,A
	LCALL	_store_cpu_rate
; 	/* init led */
; 	P0_DIR &= ~0x28;
			; SOURCE LINE # 30
	ANL  	P0_DIR,#0D7H
; 	P0_ALT &= ~0x28;
			; SOURCE LINE # 31
	ANL  	P0_ALT,#0D7H
; 	TMOD = 0x02;
			; SOURCE LINE # 32
	MOV  	TMOD,#02H
;     TH0 = 0xA4;
			; SOURCE LINE # 33
	MOV  	TH0,#0A4H
;    	EA = 1;
			; SOURCE LINE # 34
	SETB 	EA
;     ET0 = 1;
			; SOURCE LINE # 35
	SETB 	ET0
;     TR0 = 1;
			; SOURCE LINE # 36
	SETB 	TR0
; 
; 	for (i = 0; i < 6; i++) {
			; SOURCE LINE # 38
	CLR  	A
	MOV  	i?040,A
	MOV  	i?040+01H,A
?C0001:
; 		blink_led();
			; SOURCE LINE # 39
	XRL  	P0,#020H
; 		mdelay(400);
			; SOURCE LINE # 40
	MOV  	R7,#090H
	MOV  	R6,#01H
	LCALL	_mdelay
; 	}
			; SOURCE LINE # 41
	INC  	i?040+01H
	MOV  	A,i?040+01H
	JNZ  	?C0007
	INC  	i?040
?C0007:
	CLR  	C
	SUBB 	A,#06H
	MOV  	A,i?040
	XRL  	A,#080H
	SUBB 	A,#080H
	JC   	?C0001
?C0002:
; 	
; 	/* init adc */
;     adc_init(ADC_CLK_D8, ADC_RES_12, EXTREF);
			; SOURCE LINE # 44
	MOV  	R3,#010H
	MOV  	R5,#03H
	MOV  	R7,#020H
	LCALL	_adc_init
; 	
; 	/* serial */
; 	serial_init(19200);
			; SOURCE LINE # 47
	MOV  	R7,#00H
	MOV  	R6,#04BH
	LCALL	_serial_init
; 	puts("rf testing program starts\n\r");
			; SOURCE LINE # 48
	MOV  	R3,#0FFH
	MOV  	R2,#HIGH (?SC_0)
	MOV  	R1,#LOW (?SC_0)
	LCALL	_puts
; 
; 	/* rf */
; 	rf_init();
			; SOURCE LINE # 51
	LCALL	rf_init
; 	rf_configure(cfg);
			; SOURCE LINE # 52
	MOV  	R3,cfg
	MOV  	R2,cfg+01H
	MOV  	R1,cfg+02H
	LCALL	_rf_configure
?C0004:
; 
; 	/* init IO port */
; 	//P0_ALT &= ~0x06;
; 	//P0_DIR &= ~0x06;
; 
; 	while (1) {
			; SOURCE LINE # 58
; 		
; 		puts("rf recv:\n\r");
			; SOURCE LINE # 60
	MOV  	R3,#0FFH
	MOV  	R2,#HIGH (?SC_28)
	MOV  	R1,#LOW (?SC_28)
	LCALL	_puts
; 		rf_buf.ready = 0;
			; SOURCE LINE # 61
	CLR  	A
	MOV  	rf_buf,A
; 		rf_wait_msg();
			; SOURCE LINE # 62
	LCALL	rf_wait_msg
; 
; 		acc = rf_buf.buffer[1] + (rf_buf.buffer[0] << 8);
			; SOURCE LINE # 64
	MOV  	A,rf_buf+01H
	MOV  	R6,A
	MOV  	R4,#00H
	CLR  	A
	ADD  	A,rf_buf+02H
	MOV  	acc?041+01H,A
	MOV  	A,R4
	ADDC 	A,R6
	MOV  	acc?041,A
; 		puts("X:");
			; SOURCE LINE # 65
	MOV  	R3,#0FFH
	MOV  	R2,#HIGH (?SC_39)
	MOV  	R1,#LOW (?SC_39)
	LCALL	_puts
; 		int_print(acc);
			; SOURCE LINE # 66
	MOV  	R6,acc?041
	MOV  	R7,acc?041+01H
	LCALL	_?int_print
; 		puts("    ");
			; SOURCE LINE # 67
	MOV  	R3,#0FFH
	MOV  	R2,#HIGH (?SC_42)
	MOV  	R1,#LOW (?SC_42)
	LCALL	_puts
; 		acc = rf_buf.buffer[3] + (rf_buf.buffer[2] << 8);
			; SOURCE LINE # 68
	MOV  	A,rf_buf+03H
	MOV  	R6,A
	MOV  	R4,#00H
	CLR  	A
	ADD  	A,rf_buf+04H
	MOV  	acc?041+01H,A
	MOV  	A,R4
	ADDC 	A,R6
	MOV  	acc?041,A
; 		puts("Y:");
			; SOURCE LINE # 69
	MOV  	R3,#0FFH
	MOV  	R2,#HIGH (?SC_47)
	MOV  	R1,#LOW (?SC_47)
	LCALL	_puts
; 		int_print(acc);
			; SOURCE LINE # 70
	MOV  	R6,acc?041
	MOV  	R7,acc?041+01H
	LCALL	_?int_print
; 		puts("    ");
			; SOURCE LINE # 71
	MOV  	R3,#0FFH
	MOV  	R2,#HIGH (?SC_42)
	MOV  	R1,#LOW (?SC_42)
	LCALL	_puts
; 		acc = rf_buf.buffer[5] + (rf_buf.buffer[4] << 8);
			; SOURCE LINE # 72
	MOV  	A,rf_buf+05H
	MOV  	R6,A
	MOV  	R4,#00H
	CLR  	A
	ADD  	A,rf_buf+06H
	MOV  	acc?041+01H,A
	MOV  	A,R4
	ADDC 	A,R6
	MOV  	acc?041,A
; 		puts("Z:");
			; SOURCE LINE # 73
	MOV  	R3,#0FFH
	MOV  	R2,#HIGH (?SC_50)
	MOV  	R1,#LOW (?SC_50)
	LCALL	_puts
; 		int_print(acc);
			; SOURCE LINE # 74
	MOV  	R6,acc?041
	MOV  	R7,acc?041+01H
	LCALL	_?int_print
; 		puts("\n\r");
			; SOURCE LINE # 75
	MOV  	R3,#0FFH
	MOV  	R2,#HIGH (?SC_53)
	MOV  	R1,#LOW (?SC_53)
	LCALL	_puts
; 
; 		blink_led();
			; SOURCE LINE # 77
	XRL  	P0,#020H
; 		mdelay(10);
			; SOURCE LINE # 78
	MOV  	R7,#0AH
	MOV  	R6,#00H
	LCALL	_mdelay
; 	}
			; SOURCE LINE # 79
	LJMP 	?C0004
; END OF main

	END
