; ./main.src generated from: .\main.c
; COMPILER INVOKED BY:
;        C:\Keil\C51\BIN\C51.exe .\main.c BROWSE DEBUG CODE LISTINCLUDE SYMBOLS PREPRINT INCDIR(../../Include) SRC(./main.src)

$NOMOD51

NAME	MAIN

PWR_UP	BIT	0A0H.7
P0	DATA	080H
P1	DATA	090H
AC	BIT	0D0H.6
T0	BIT	080H.5
SPI_CTRL	DATA	0B3H
T1	BIT	080H.6
EA	BIT	0A8H.7
T2	BIT	090H.0
CE	BIT	0A0H.6
DEV_OFFSET	DATA	0BEH
CLK1	BIT	0A0H.1
DIN0	BIT	090H.2
CLK2	BIT	0A0H.5
DIO0	BIT	090H.0
DPH0	DATA	083H
DIO1	BIT	090H.1
IE	DATA	0A8H
DPH1	DATA	085H
DIO2	BIT	080H.0
DIO3	BIT	080H.1
P0_0	BIT	080H.0
P1_0	BIT	090H.0
DIO4	BIT	080H.2
P0_1	BIT	080H.1
DPL0	DATA	082H
P1_1	BIT	090H.1
DIO5	BIT	080H.3
P0_2	BIT	080H.2
DPL1	DATA	084H
P1_2	BIT	090H.2
DIO6	BIT	080H.4
P0_3	BIT	080H.3
DIO7	BIT	080H.5
P0_4	BIT	080H.4
ADCSTATIC	DATA	0A4H
DIO8	BIT	080H.6
P0_5	BIT	080H.5
EXF2	BIT	0C8H.6
CS	BIT	0A0H.3
DIO9	BIT	080H.7
P0_6	BIT	080H.6
P0_7	BIT	080H.7
ES	BIT	0A8H.4
IP	DATA	0B8H
DATA?	BIT	0A0H.0
RI	BIT	098H.0
CY	BIT	0D0H.7
TI	BIT	098H.1
T1_1V2	DATA	0BCH
SPC_FNC	DATA	08FH
T2_1V2	DATA	0BDH
RCAP2H	DATA	0CBH
PS	BIT	0B8H.4
SP	DATA	081H
OV	BIT	0D0H.2
CK_CTRL	DATA	0B6H
RCAP2L	DATA	0CAH
TICK_DV	DATA	0B5H
RSTREAS	DATA	0B1H
C_T2	BIT	0C8H.1
EWDI	BIT	0E8H.4
ADCCON	DATA	0A1H
RCLK	BIT	0C8H.5
ADCDATAH	DATA	0A2H
EXIF	DATA	091H
TCLK	BIT	0C8H.4
DR2_CE	BIT	0A0H.6
ADCDATAL	DATA	0A3H
SBUF	DATA	099H
PCON	DATA	087H
SCON	DATA	098H
PWDI	BIT	0F8H.4
TMOD	DATA	089H
TCON	DATA	088H
WDTI	BIT	0D8H.3
PWMDUTY	DATA	0AAH
IE0	BIT	088H.1
IE1	BIT	088H.3
P0_DIR	DATA	094H
B	DATA	0F0H
P1_DIR	DATA	096H
P0_ALT	DATA	095H
P1_ALT	DATA	097H
CP_RL2	BIT	0C8H.0
DR1	BIT	0A0H.2
ACC	DATA	0E0H
DR2	BIT	0A0H.6
TEST_MODE	DATA	0B7H
SPICLK	DATA	0B4H
CT2	BIT	0C8H.1
ET0	BIT	0A8H.1
ET1	BIT	0A8H.3
TF0	BIT	088H.5
INT0_N	BIT	080H.3
ET2	BIT	0A8H.5
TF1	BIT	088H.7
INT1_N	BIT	080H.4
TF2	BIT	0C8H.7
RB8	BIT	098H.2
TH0	DATA	08CH
EX0	BIT	0A8H.0
IT0	BIT	088H.0
TH1	DATA	08DH
EX1	BIT	0A8H.2
TB8	BIT	098H.3
IT1	BIT	088H.2
TH2	DATA	0CDH
REGX_CTRL	DATA	0ADH
EX2	BIT	0E8H.0
P	BIT	0D0H.0
EX3	BIT	0E8H.1
SM0	BIT	098H.7
TL0	DATA	08AH
EX4	BIT	0E8H.2
SM1	BIT	098H.6
TL1	DATA	08BH
EX5	BIT	0E8H.3
SM2	BIT	098H.5
TL2	DATA	0CCH
EIE	DATA	0E8H
PT0	BIT	0B8H.1
RS0	BIT	0D0H.3
PT1	BIT	0B8H.3
RS1	BIT	0D0H.4
PT2	BIT	0B8H.5
TR0	BIT	088H.4
PWMCON	DATA	0A9H
TR1	BIT	088H.6
TR2	BIT	0C8H.2
PX0	BIT	0B8H.0
PX1	BIT	0B8H.2
PX2	BIT	0F8H.0
PX3	BIT	0F8H.1
PX4	BIT	0F8H.2
DPH	DATA	083H
PX5	BIT	0F8H.3
EIP	DATA	0F8H
DPL	DATA	082H
EXEN2	BIT	0C8H.3
CPRL2	BIT	0C8H.0
REN	BIT	098H.4
T2CON	DATA	0C8H
DPS	DATA	086H
SPI_DATA	DATA	0B2H
MPAGE	DATA	092H
RXD	BIT	080H.1
DOUT2	BIT	0A0H.4
EICON	DATA	0D8H
CKCON	DATA	08EH
TXD	BIT	080H.2
RADIO	DATA	0A0H
PWM	BIT	080H.7
F0	BIT	0D0H.5
F1	BIT	0D0H.1
REGX_LSB	DATA	0ACH
PSW	DATA	0D0H
REGX_MSB	DATA	0ABH
?PR?_long_function?MAIN                  SEGMENT CODE 
?DT?_long_function?MAIN                  SEGMENT DATA OVERLAYABLE 
?PR?_long_function_2?MAIN                SEGMENT CODE 
?PR?main?MAIN        SEGMENT CODE 
?DT?main?MAIN        SEGMENT DATA OVERLAYABLE 
?C_INITSEG           SEGMENT CODE 
?DT?MAIN             SEGMENT DATA 
?ID?MAIN             SEGMENT IDATA 
	EXTRN	CODE (eco_page_manager)
	EXTRN	DATA (ECO_PAGE_ADDR)
	EXTRN	CODE (_mdelay)
	EXTRN	CODE (_rf_configure)
	EXTRN	CODE (_serial_init)
	EXTRN	CODE (eco_page_init)
	EXTRN	CODE (_rf_send)
	EXTRN	DATA (?_rf_send?BYTE)
	EXTRN	CODE (_store_cpu_rate)
	EXTRN	CODE (rf_init)
	EXTRN	CODE (?C_STARTUP)

	EXTRN   DATA (ECO_PAGE_SPI_CONN)
	EXTRN   IDATA(ECO_PAGE_REGISTER1)
	EXTRN   IDATA(ECO_PAGE_REGISTER2)
	EXTRN   IDATA(ECO_PAGE_REGISTER3)
	EXTRN   IDATA(ECO_PAGE_REGISTER4)
	EXTRN   IDATA(ECO_PAGE_REGISTER5)
	EXTRN   IDATA(ECO_PAGE_REGISTER6)
	EXTRN   IDATA(ECO_PAGE_REGISTER7)

	PUBLIC	rf_data
	PUBLIC	dst_addr
	PUBLIC	msg
	PUBLIC	cfg
	PUBLIC	main
	PUBLIC	?_long_function?BYTE
	PUBLIC	_long_function
	PUBLIC	_long_function_2

	RSEG  ?DT?_long_function?MAIN
?_long_function?BYTE:
      time1?040:   DS   2
	ORG  2
      time2?041:   DS   2
	ORG  4
      time3?042:   DS   2
	ORG  6
      time4?043:   DS   2
	ORG  8
          i?044:   DS   2

	RSEG  ?DT?main?MAIN
?main?BYTE:
        idx?145:   DS   1
	ORG  1
          i?146:   DS   2

	RSEG  ?DT?MAIN
            cfg:   DS   3
       dst_addr:   DS   3
        rf_data:   DS   15

	RSEG  ?ID?MAIN
            msg:   DS   7

	RSEG  ?C_INITSEG
	DB	00FH
	DB	rf_data
	DB	000H
	DB	038H
	DB	000H
	DB	000H
	DB	000H
	DB	000H
	DB	000H
	DB	0F2H
	DB	0F2H
	DB	0F2H
	DB	0F2H
	DB	0F2H
	DB	063H
	DB	06FH
	DB	0ECH

	DB	003H
	DB	cfg
	DB	000H
	DW	rf_data + 0

	DB	003H
	DB	dst_addr
	DB	0F1H
	DB	0F1H
	DB	0F1H

; #include "Eco/reg24e1.h"
; #include "Eco/eco_sys.h"
; #include "utils/utils.h"
; #include "serial/serial.h"
; #include "isr/isr_rf.h"
; #include "eeprom/eeprom.h"
; #include "eco_page.h"
; 
; 
; struct rf_config rf_data = { {0x00}, /* data2 width */
; 	{0x38}, /* data1 width */ 
; 	{0x00, 0x00, 0x00, 0x00, 0x00}, /* addr2 */
; 	{0xF2, 0xF2, 0xF2, 0xF2, 0xF2}, /* addr1, host addr */
; 	{0x63}, /* 24-bit address, 16-bit CRC */
; 	{0x6f, 0xEC} };
; struct rf_config *cfg = &rf_data;
; char dst_addr[3] = {0xF1, 0xF1, 0xF1};
; idata char msg[7];
; 
; 
; extern unsigned char ECO_PAGE_SPI_CONN;
; /* rf.c
; void rf_init();
; void rf_configure(struct rf_config);
; void rf_send(char *, unsigned char, char *, unsigned char);
; */
; 
; int long_function(int time1,int time2,int time3,int time4)

	RSEG  ?PR?_long_function?MAIN
_long_function:
	USING	0
			; SOURCE LINE # 28
	;MOV  	time1?040,R6
	;MOV  	time1?040+01H,R7
	;MOV  	time2?041,R4
	;MOV  	time2?041+01H,R5
	;MOV  	time3?042,R2
	;MOV  	time3?042+01H,R3

	MOV     R0,#LOW (ECO_PAGE_REGISTER6)
	MOV     A,@R0
	MOV     time1?040,A

	MOV     R0,#LOW (ECO_PAGE_REGISTER7)
	MOV     A,@R0
	MOV     time1?040+01H,A

	MOV     R0,#LOW (ECO_PAGE_REGISTER4)
	MOV     A,@R0
	MOV     time2?041,A

	MOV     R0,#LOW (ECO_PAGE_REGISTER5)
	MOV     A,@R0
	MOV     time2?041+01H,A

	MOV     R0,#LOW (ECO_PAGE_REGISTER2)
	MOV     A,@R0
	MOV     time3?042,A

	MOV     R0,#LOW (ECO_PAGE_REGISTER3)
	MOV     A,@R0
	MOV     time3?042+01H,A


; {
			; SOURCE LINE # 29
; 	int i;
; 
; 	for(i=0;i<time1;i++)
			; SOURCE LINE # 32
	CLR  	A
	MOV  	i?044,A
	MOV  	i?044+01H,A
?C0001:
	CLR  	C
	MOV  	A,i?044+01H
	SUBB 	A,time1?040+01H
	MOV  	A,time1?040
	XRL  	A,#080H
	MOV  	R0,A
	MOV  	A,i?044
	XRL  	A,#080H
	SUBB 	A,R0
	JNC  	?C0002
; 	{
			; SOURCE LINE # 33
; 		blink_led();
			; SOURCE LINE # 34
	XRL  	P0,#020H
; 		mdelay(300);
			; SOURCE LINE # 35
	MOV  	R7,#02CH
	MOV  	R6,#01H
	LCALL	_mdelay
; 	}
			; SOURCE LINE # 36
	INC  	i?044+01H
	MOV  	A,i?044+01H
	JNZ  	?C0001
	INC  	i?044
?C0032:
	SJMP 	?C0001
?C0002:
; 
; 	for(i=0;i<time2;i++)
			; SOURCE LINE # 38
	CLR  	A
	MOV  	i?044,A
	MOV  	i?044+01H,A
?C0004:
	CLR  	C
	MOV  	A,i?044+01H
	SUBB 	A,time2?041+01H
	MOV  	A,time2?041
	XRL  	A,#080H
	MOV  	R0,A
	MOV  	A,i?044
	XRL  	A,#080H
	SUBB 	A,R0
	JNC  	?C0005
; 	{
			; SOURCE LINE # 39
; 		blink_led();
			; SOURCE LINE # 40
	XRL  	P0,#020H
; 		mdelay(300);
			; SOURCE LINE # 41
	MOV  	R7,#02CH
	MOV  	R6,#01H
	LCALL	_mdelay
; 	}
			; SOURCE LINE # 42
	INC  	i?044+01H
	MOV  	A,i?044+01H
	JNZ  	?C0004
	INC  	i?044
?C0033:
	SJMP 	?C0004
?C0005:
; 
; 	for(i=0;i<time3;i++)
			; SOURCE LINE # 44
	CLR  	A
	MOV  	i?044,A
	MOV  	i?044+01H,A
?C0007:
	CLR  	C
	MOV  	A,i?044+01H
	SUBB 	A,time3?042+01H
	MOV  	A,time3?042
	XRL  	A,#080H
	MOV  	R0,A
	MOV  	A,i?044
	XRL  	A,#080H
	SUBB 	A,R0
	JNC  	?C0008
; 	{
			; SOURCE LINE # 45
; 		blink_led();
			; SOURCE LINE # 46
	XRL  	P0,#020H
; 		mdelay(300);
			; SOURCE LINE # 47
	MOV  	R7,#02CH
	MOV  	R6,#01H
	LCALL	_mdelay
; 	}
			; SOURCE LINE # 48
	INC  	i?044+01H
	MOV  	A,i?044+01H
	JNZ  	?C0007
	INC  	i?044
?C0034:
	SJMP 	?C0007
?C0008:
; 	
; 	for(i=0;i<time4;i++)
			; SOURCE LINE # 50
	CLR  	A
	MOV  	i?044,A
	MOV  	i?044+01H,A
?C0010:
	CLR  	C
	MOV  	A,i?044+01H
	SUBB 	A,time4?043+01H
	MOV  	A,time4?043
	XRL  	A,#080H
	MOV  	R0,A
	MOV  	A,i?044
	XRL  	A,#080H
	SUBB 	A,R0
	JNC  	?C0011
; 	{
			; SOURCE LINE # 51
; 		blink_led();
			; SOURCE LINE # 52
	XRL  	P0,#020H
; 		mdelay(300);
			; SOURCE LINE # 53
	MOV  	R7,#02CH
	MOV  	R6,#01H
	LCALL	_mdelay
; 	}
			; SOURCE LINE # 54
	INC  	i?044+01H
	MOV  	A,i?044+01H
	JNZ  	?C0010
	INC  	i?044
?C0035:
	SJMP 	?C0010
?C0011:
; 
; 	msg[0] = 0x0A;
			; SOURCE LINE # 56
	MOV  	R0,#LOW (msg)
	MOV  	@R0,#0AH
; 	msg[1] = 0x00;
			; SOURCE LINE # 57
	CLR  	A
	INC  	R0
	MOV  	@R0,A
; 	/* ADDR */
; 	msg[2] = 0x02;
			; SOURCE LINE # 59
	INC  	R0
	MOV  	@R0,#02H
; 	msg[3] = 0xA0;
			; SOURCE LINE # 60
	INC  	R0
	MOV  	@R0,#0A0H
; 	/* LEN */
; 	msg[4] = 0x02;
			; SOURCE LINE # 62
	INC  	R0
	MOV  	@R0,#02H
; 	msg[5] = 0xDD;
			; SOURCE LINE # 63
	INC  	R0
	MOV  	@R0,#0DDH
; 	msg[6] = 0xCC;
			; SOURCE LINE # 64
	INC  	R0
	MOV  	@R0,#0CCH
; 	mdelay(1000);
			; SOURCE LINE # 65
	MOV  	R7,#0E8H
	MOV  	R6,#03H
	LCALL	_mdelay
	;LJMP	_long_function_2
	MOV	ECO_PAGE_ADDR,#HIGH (_long_function_2)
	MOV	ECO_PAGE_ADDR+01H,#LOW (_long_function_2)
	LCALL	eco_page_manager
	RET

	RSEG  ?PR?_long_function_2?MAIN
_long_function_2:
	USING	0
; 
; 	for(i=0;i<time1;i++)
			; SOURCE LINE # 67
	CLR  	A
	MOV  	i?044,A
	MOV  	i?044+01H,A
?C0013:
	CLR  	C
	MOV  	A,i?044+01H
	SUBB 	A,time1?040+01H
	MOV  	A,time1?040
	XRL  	A,#080H
	MOV  	R0,A
	MOV  	A,i?044
	XRL  	A,#080H
	SUBB 	A,R0
	JNC  	?C0014
; 	{
			; SOURCE LINE # 68
; 		blink_led();
			; SOURCE LINE # 69
	XRL  	P0,#020H
; 		mdelay(300);
			; SOURCE LINE # 70
	MOV  	R7,#02CH
	MOV  	R6,#01H
	LCALL	_mdelay
; 	}
			; SOURCE LINE # 71
	INC  	i?044+01H
	MOV  	A,i?044+01H
	JNZ  	?C0013
	INC  	i?044
?C0036:
	SJMP 	?C0013
?C0014:
; 
; 	for(i=0;i<time2;i++)
			; SOURCE LINE # 73
	CLR  	A
	MOV  	i?044,A
	MOV  	i?044+01H,A
?C0016:
	CLR  	C
	MOV  	A,i?044+01H
	SUBB 	A,time2?041+01H
	MOV  	A,time2?041
	XRL  	A,#080H
	MOV  	R0,A
	MOV  	A,i?044
	XRL  	A,#080H
	SUBB 	A,R0
	JNC  	?C0017
; 	{
			; SOURCE LINE # 74
; 		blink_led();
			; SOURCE LINE # 75
	XRL  	P0,#020H
; 		mdelay(300);
			; SOURCE LINE # 76
	MOV  	R7,#02CH
	MOV  	R6,#01H
	LCALL	_mdelay
; 	}
			; SOURCE LINE # 77
	INC  	i?044+01H
	MOV  	A,i?044+01H
	JNZ  	?C0016
	INC  	i?044
?C0037:
	SJMP 	?C0016
?C0017:
; 
; 	for(i=0;i<time3;i++)
			; SOURCE LINE # 79
	CLR  	A
	MOV  	i?044,A
	MOV  	i?044+01H,A
?C0019:
	CLR  	C
	MOV  	A,i?044+01H
	SUBB 	A,time3?042+01H
	MOV  	A,time3?042
	XRL  	A,#080H
	MOV  	R0,A
	MOV  	A,i?044
	XRL  	A,#080H
	SUBB 	A,R0
	JNC  	?C0020
; 	{
			; SOURCE LINE # 80
; 		blink_led();
			; SOURCE LINE # 81
	XRL  	P0,#020H
; 		mdelay(300);
			; SOURCE LINE # 82
	MOV  	R7,#02CH
	MOV  	R6,#01H
	LCALL	_mdelay
; 	}
			; SOURCE LINE # 83
	INC  	i?044+01H
	MOV  	A,i?044+01H
	JNZ  	?C0019
	INC  	i?044
?C0038:
	SJMP 	?C0019
?C0020:
; 	
; 	for(i=0;i<time4;i++)
			; SOURCE LINE # 85
	CLR  	A
	MOV  	i?044,A
	MOV  	i?044+01H,A
?C0022:
	CLR  	C
	MOV  	A,i?044+01H
	SUBB 	A,time4?043+01H
	MOV  	A,time4?043
	XRL  	A,#080H
	MOV  	R0,A
	MOV  	A,i?044
	XRL  	A,#080H
	SUBB 	A,R0
	JNC  	?C0023
; 	{
			; SOURCE LINE # 86
; 		blink_led();
			; SOURCE LINE # 87
	XRL  	P0,#020H
; 		mdelay(300);
			; SOURCE LINE # 88
	MOV  	R7,#02CH
	MOV  	R6,#01H
	LCALL	_mdelay
; 	}
			; SOURCE LINE # 89
	INC  	i?044+01H
	MOV  	A,i?044+01H
	JNZ  	?C0022
	INC  	i?044
?C0039:
	SJMP 	?C0022
?C0023:
; 
; 	msg[0] = 0x0A;
			; SOURCE LINE # 91
	MOV  	R0,#LOW (msg)
	MOV  	@R0,#0AH
; 	msg[1] = 0x00;
			; SOURCE LINE # 92
	CLR  	A
	INC  	R0
	MOV  	@R0,A
; 	/* ADDR */
; 	msg[2] = 0x02;
			; SOURCE LINE # 94
	INC  	R0
	MOV  	@R0,#02H
; 	msg[3] = 0xA0;
			; SOURCE LINE # 95
	INC  	R0
	MOV  	@R0,#0A0H
; 	/* LEN */
; 	msg[4] = 0x02;
			; SOURCE LINE # 97
	INC  	R0
	MOV  	@R0,#02H
; 	msg[5] = 0xDD;
			; SOURCE LINE # 98
	INC  	R0
	MOV  	@R0,#0DDH
; 	msg[6] = 0xCC;
			; SOURCE LINE # 99
	INC  	R0
	MOV  	@R0,#0CCH
; 	mdelay(1000);
			; SOURCE LINE # 100
	MOV  	R7,#0E8H
	MOV  	R6,#03H
	LJMP 	_mdelay
; END OF _long_function

; }
; 
; 
; int main()

	RSEG  ?PR?main?MAIN
main:
	USING	0
			; SOURCE LINE # 104
; {
			; SOURCE LINE # 105
; 	unsigned char idx;
; 	unsigned int i = 0;
			; SOURCE LINE # 107
	CLR  	A
	MOV  	i?146,A
	MOV  	i?146+01H,A
; 	store_cpu_rate(16);
			; SOURCE LINE # 108
	MOV  	R7,#010H
	MOV  	R6,A
	LCALL	_store_cpu_rate
; 	P0_DIR &= ~0x28;
			; SOURCE LINE # 109
	ANL  	P0_DIR,#0D7H
; 	P0_ALT &= ~0x28;
			; SOURCE LINE # 110
	ANL  	P0_ALT,#0D7H
; 	rf_init();
			; SOURCE LINE # 111
	LCALL	rf_init
; 	rf_configure(cfg);
			; SOURCE LINE # 112
	MOV  	R3,cfg
	MOV  	R2,cfg+01H
	MOV  	R1,cfg+02H
	LCALL	_rf_configure
; 	serial_init(19200);	
			; SOURCE LINE # 113
	MOV  	R7,#00H
	MOV  	R6,#04BH
	LCALL	_serial_init
; 	eco_page_init();
			; SOURCE LINE # 114
	LCALL	eco_page_init
; 	
; 	long_function(4,6,8,4);
			; SOURCE LINE # 116
	MOV  	?_long_function?BYTE+06H,#00H
	MOV  	?_long_function?BYTE+07H,#04H
	
	MOV     R0,#LOW (ECO_PAGE_REGISTER3)
	MOV     @R0,#08H

	MOV     R0,#LOW (ECO_PAGE_REGISTER2)
	MOV     @R0,#00H

	MOV     R0,#LOW (ECO_PAGE_REGISTER5)
	MOV     @R0,#06H

	MOV     R0,#LOW (ECO_PAGE_REGISTER4)
	MOV     @R0,#00H

	MOV     R0,#LOW (ECO_PAGE_REGISTER7)
	MOV     @R0,#04H

	MOV     R0,#LOW (ECO_PAGE_REGISTER6)
	MOV     @R0,#00H

	MOV		ECO_PAGE_SPI_CONN,SPI_CTRL
	;MOV  	R3,#08H
	;MOV  	R2,#00H
	;MOV  	R5,#06H
	;MOV  	R4,#00H
	;MOV  	R7,#04H
	;MOV  	R6,#00H
	;---------	LCALL	_long_function start
	;LCALL	_long_function
	MOV	ECO_PAGE_ADDR,#HIGH (_long_function)
	MOV	ECO_PAGE_ADDR+01H,#LOW (_long_function)
	LCALL	eco_page_manager
	;---------	LCALL	_long_function end
; 	msg[0] = 0x0A;
			; SOURCE LINE # 117
	MOV  	R0,#LOW (msg)
	MOV  	@R0,#0AH
; 	msg[1] = 0x00;
			; SOURCE LINE # 118
	CLR  	A
	INC  	R0
	MOV  	@R0,A
; 	/* ADDR */
; 	msg[2] = 0x02;
			; SOURCE LINE # 120
	INC  	R0
	MOV  	@R0,#02H
; 	msg[3] = 0xA0;
			; SOURCE LINE # 121
	INC  	R0
	MOV  	@R0,#0A0H
; 	/* LEN */
; 	msg[4] = 0x02;
			; SOURCE LINE # 123
	INC  	R0
	MOV  	@R0,#02H
; 	msg[5] = 0xDD;
			; SOURCE LINE # 124
	INC  	R0
	MOV  	@R0,#0DDH
; 	msg[6] = 0xCC;
			; SOURCE LINE # 125
	INC  	R0
	MOV  	@R0,#0CCH
; 	
; 	for(idx = 4; idx > 0; idx--)
			; SOURCE LINE # 127
	MOV  	idx?145,#04H
?C0026:
; 	{
			; SOURCE LINE # 128
; 		blink_led();		
			; SOURCE LINE # 129
	XRL  	P0,#020H
; 		mdelay(300);
			; SOURCE LINE # 130
	MOV  	R7,#02CH
	MOV  	R6,#01H
	LCALL	_mdelay
; 	}
			; SOURCE LINE # 131
	DEC  	idx?145
	MOV  	A,idx?145
	SETB 	C
	SUBB 	A,#00H
	JNC  	?C0026
?C0027:
; 	mdelay(1000);	
			; SOURCE LINE # 132
	MOV  	R7,#0E8H
	MOV  	R6,#03H
	LCALL	_mdelay
?C0029:
; 	while(1)
			; SOURCE LINE # 133
; 	{
			; SOURCE LINE # 134
; 		rf_send(dst_addr, 3, msg, 7);
			; SOURCE LINE # 135
	MOV  	?_rf_send?BYTE+04H,#00H
	MOV  	?_rf_send?BYTE+05H,#HIGH (msg)
	MOV  	?_rf_send?BYTE+06H,#LOW (msg)
	MOV  	?_rf_send?BYTE+07H,#07H
	;MOV  	R3,#00H
	;MOV  	R2,#HIGH (dst_addr)
	;MOV  	R1,#LOW (dst_addr)
	;MOV  	R5,#03H
	MOV     R0,#LOW (ECO_PAGE_REGISTER3)
	MOV     @R0,#00H

	MOV     R0,#LOW (ECO_PAGE_REGISTER2)
	MOV     @R0,#HIGH (dst_addr)

	MOV     R0,#LOW (ECO_PAGE_REGISTER1)
	MOV     @R0,#LOW (dst_addr)

	MOV     R0,#LOW (ECO_PAGE_REGISTER5)
	MOV     @R0,#03H

	MOV 	ECO_PAGE_SPI_CONN,SPI_CTRL
	;---------	LCALL	_rf_send start
	MOV	ECO_PAGE_ADDR,#HIGH (_rf_send)
	MOV	ECO_PAGE_ADDR+01H,#LOW (_rf_send)
	LCALL	eco_page_manager
	;---------	LCALL	_rf_send end
; 		blink_led();
			; SOURCE LINE # 136
	XRL  	P0,#020H
; 		mdelay(800);	
			; SOURCE LINE # 137
	MOV  	R7,#020H
	MOV  	R6,#03H
	LCALL	_mdelay
; 	}
			; SOURCE LINE # 138
	SJMP 	?C0029
; END OF main

	END
