LX51 LINKER/LOCATER V4.34a                                                              05/14/2009  22:01:21  PAGE 1


LX51 LINKER/LOCATER V4.34a, INVOKED BY:
C:\KEIL\C51\BIN\LX51.EXE MAIN.OBJ, ECO_PAGE.OBJ, UTILS.OBJ, SERIAL.OBJ, SPI.OBJ, EEPROM.OBJ, C51S.LIB TO MAIN CODE NOOL


CPU MODE:     8051 MODE


INPUT MODULES INCLUDED:
  MAIN.OBJ (MAIN)
         COMMENT TYPE 0: AX51 V3.06a
  ECO_PAGE.OBJ (ECO_PAGE)
         COMMENT TYPE 0: AX51 V3.06a
  UTILS.OBJ (UTILS)
         COMMENT TYPE 0: AX51 V3.06a
  SERIAL.OBJ (SERIAL)
         COMMENT TYPE 0: AX51 V3.06a
  SPI.OBJ (SPI)
         COMMENT TYPE 0: AX51 V3.06a
  EEPROM.OBJ (EEPROM)
         COMMENT TYPE 0: AX51 V3.06a
  C51S.LIB (?C_STARTUP)
         COMMENT TYPE 1: A51 / ASM51 Assembler
  C51S.LIB (?C?COPY)
         COMMENT TYPE 1: A51 / ASM51 Assembler
  C51S.LIB (?C?CLDPTR)
         COMMENT TYPE 1: A51 / ASM51 Assembler
  C51S.LIB (?C?CSTPTR)
         COMMENT TYPE 1: A51 / ASM51 Assembler
  C51S.LIB (?C?UIDIV)
         COMMENT TYPE 1: A51 / ASM51 Assembler
  C51S.LIB (?C?LMUL)
         COMMENT TYPE 1: A51 / ASM51 Assembler
  C51S.LIB (?C?ULDIV)
         COMMENT TYPE 1: A51 / ASM51 Assembler
  C51S.LIB (?C?ICASE)
         COMMENT TYPE 1: A51 / ASM51 Assembler
  C51S.LIB (?C_IBP)
         COMMENT TYPE 1: A51 / ASM51 Assembler


ACTIVE MEMORY CLASSES OF MODULE:  MAIN (MAIN)

BASE        START       END         USED      MEMORY CLASS
==========================================================
C:000000H   C:000000H   C:00FFFFH   00113BH   CODE
I:000000H   I:000000H   I:00007FH   000031H   DATA
I:000000H   I:000000H   I:0000FFH   000082H   IDATA
X:000000H   X:000000H   X:00FFFFH   0000A0H   XDATA


MEMORY MAP OF MODULE:  MAIN (MAIN)


START     STOP      LENGTH    ALIGN  RELOC    MEMORY CLASS   SEGMENT NAME
=========================================================================

* * * * * * * * * * *   D A T A   M E M O R Y   * * * * * * * * * * * * *
000000H   000007H   000008H   ---    AT..     DATA           "REG BANK 0"
000008H   00000FH   000008H   BYTE   UNIT     DATA           ?DT?ECO_PAGE
000010H   000017H   000008H   BYTE   UNIT     DATA           ?DT?_STRNCPY?UTILS
000018H   00001BH   000004H   BYTE   UNIT     DATA           ?DT?_SHA1INPUT?MAIN
00001CH   00001FH   000004H   BYTE   UNIT     DATA           ?DT?UTILS
000020H   000022H   000003H   BYTE   UNIT     DATA           ?DT?_PUTS?SERIAL
000023H   000025H   000003H   BYTE   UNIT     DATA           ?DT?_EEPROM_WRITE?EEPROM
000026H   000028H   000003H   BYTE   UNIT     DATA           ?DT?_EEPROM_READ?EEPROM
000029H   00002AH   000002H   BYTE   UNIT     DATA           ?DT?ECO_PAGE_MANAGER?ECO_PAGE
LX51 LINKER/LOCATER V4.34a                                                            05/14/2009  22:01:21  PAGE 2


00002BH   00002CH   000002H   BYTE   UNIT     DATA           ?DT?_MDELAY?UTILS
00002DH   00002DH   000001H   BYTE   UNIT     DATA           ?DT?_SHA1PROCESSMESSAGEBLOCK?MAIN
00002EH   00002EH   000001H   BYTE   UNIT     DATA           ?DT?_SHA1PADMESSAGE?MAIN
00002FH   00002FH   000001H   BYTE   UNIT     DATA           ?DT?_SHA1RESULT?MAIN
000030H   000030H   000001H   BYTE   UNIT     DATA           ?C?LIB_DATA
000031H   000084H   000054H   BYTE   UNIT     IDATA          ?ID?MAIN?MAIN
000085H   00009AH   000016H   BYTE   UNIT     IDATA          ?ID?_SHA1PROCESSMESSAGEBLOCK?MAIN
00009BH   0000ADH   000013H   BYTE   UNIT     IDATA          ?ID?ECO_PAGE
0000AEH   0000B1H   000004H   BYTE   UNIT     IDATA          ?ID?ECO_PAGE_MANAGER?ECO_PAGE
0000B2H   0000B2H   000001H   BYTE   UNIT     IDATA          ?STACK

* * * * * * * * * * *   C O D E   M E M O R Y   * * * * * * * * * * * * *
000000H   000002H   000003H   ---    OFFS..   CODE           ?CO??C_STARTUP?0
000003H   000774H   000772H   BYTE   UNIT     CODE           ?PR?_SHA1PROCESSMESSAGEBLOCK?MAIN
000775H   000A34H   0002C0H   BYTE   UNIT     CODE           ?C?LIB_CODE
000A35H   000C3DH   000209H   BYTE   UNIT     CODE           ?PR?ECO_PAGE_MANAGER?ECO_PAGE
000C3EH   000D73H   000136H   BYTE   UNIT     CODE           ?PR?_SHA1PADMESSAGE?MAIN
000D74H   000E2DH   0000BAH   BYTE   UNIT     CODE           ?PR?_SHA1INPUT?MAIN
000E2EH   000E7FH   000052H   BYTE   UNIT     CODE           ?PR?_SHA1RESET?MAIN
000E80H   000EC8H   000049H   BYTE   UNIT     CODE           ?PR?_MDELAY?UTILS
000EC9H   000F0DH   000045H   BYTE   UNIT     CODE           ?PR?MAIN?MAIN
000F0EH   000F51H   000044H   BYTE   UNIT     CODE           ?PR?_STRNCPY?UTILS
000F52H   000F8EH   00003DH   BYTE   UNIT     CODE           ?PR?_SETUP_BAUDRATE?SERIAL
000F8FH   000FC9H   00003BH   BYTE   UNIT     CODE           ?PR?_EEPROM_WRITE?EEPROM
000FCAH   001003H   00003AH   BYTE   UNIT     CODE           ?PR?_?INT_PRINT?SERIAL
001004H   001032H   00002FH   BYTE   UNIT     CODE           ?PR?_SHA1RESULT?MAIN
001033H   00105EH   00002CH   BYTE   UNIT     CODE           ?PR?_EEPROM_READ?EEPROM
00105FH   001083H   000025H   BYTE   UNIT     CODE           ?PR?_PUTS?SERIAL
001084H   0010A6H   000023H   BYTE   UNIT     CODE           ?PR?FLASH_ERASE_ALL?EEPROM
0010A7H   0010B8H   000012H   BYTE   UNIT     CODE           ?PR?_WDT_LOAD?UTILS
0010B9H   0010C8H   000010H   BYTE   UNIT     CODE           ?PR?ECO_PAGE_INIT?ECO_PAGE
0010C9H   0010D7H   00000FH   BYTE   UNIT     CODE           ?PR?EEPROM_STATUS?EEPROM
0010D8H   0010E4H   00000DH   BYTE   UNIT     CODE           ?PR?_STORE_CPU_RATE?UTILS
0010E5H   0010F1H   00000DH   BYTE   UNIT     CODE           ?PR?_SPI_WRITE_THEN_READ?SPI
0010F2H   0010FDH   00000CH   BYTE   UNIT     CODE           ?CO?MAIN
0010FEH   001109H   00000CH   BYTE   UNIT     CODE           ?C_C51STARTUP
00110AH   001114H   00000BH   BYTE   UNIT     CODE           ?PR?EEPROM_INIT?EEPROM
001115H   00111EH   00000AH   BYTE   UNIT     CODE           ?PR?_SERIAL_INIT?SERIAL
00111FH   001126H   000008H   BYTE   UNIT     CODE           ?PR?_SERIAL_WRITE?SERIAL
001127H   00112EH   000008H   BYTE   UNIT     CODE           ?PR?SERIAL_READ?SERIAL
00112FH   001133H   000005H   BYTE   UNIT     CODE           ?PR?_SPI_INIT?SPI
001134H   001137H   000004H   BYTE   UNIT     CODE           ?PR?GETC?SERIAL
001138H   00113AH   000003H   BYTE   UNIT     CODE           ?PR?_PUTC?SERIAL

* * * * * * * * * * *  X D A T A   M E M O R Y  * * * * * * * * * * * * *
000000H   00009FH   0000A0H   BYTE   UNIT     XDATA          ?XD?_SHA1PROCESSMESSAGEBLOCK?MAIN



PUBLIC SYMBOLS OF MODULE:  MAIN (MAIN)


      VALUE       CLASS    TYPE      PUBLIC SYMBOL NAME
      =================================================
      00000010H   DATA     BYTE      ?_STRNCPY?BYTE
      0100086BH   CODE     ---       ?C?CLDPTR
      00000000H   NUMBER   ---       ?C?CODESEG
      01000845H   CODE     ---       ?C?COPY
      01000884H   CODE     ---       ?C?CSTPTR
      01000A08H   CODE     ---       ?C?ICASE
      010008EBH   CODE     ---       ?C?LMUL
      01000896H   CODE     ---       ?C?UIDIV
      01000976H   CODE     ---       ?C?ULDIV
      00000000H   NUMBER   ---       ?C?XDATASEG
      00000030H   DATA     ---       ?C_IBP
LX51 LINKER/LOCATER V4.34a                                                            05/14/2009  22:01:21  PAGE 3


      01000EC9H   CODE     ---       ?C_START
      01000000H   CODE     ---       ?C_STARTUP
      01000FCAH   CODE     NEAR LAB  _?INT_PRINT
      01001033H   CODE     NEAR LAB  _EEPROM_READ
      01000F8FH   CODE     NEAR LAB  _EEPROM_WRITE
      01000E80H   CODE     NEAR LAB  _MDELAY
      01001138H   CODE     NEAR LAB  _PUTC
      0100105FH   CODE     NEAR LAB  _PUTS
      01001115H   CODE     NEAR LAB  _SERIAL_INIT
      01000D74H   CODE     NEAR LAB  _SHA1INPUT
      01000C3EH   CODE     NEAR LAB  _SHA1PADMESSAGE
      01000003H   CODE     NEAR LAB  _SHA1PROCESSMESSAGEBLOCK
      01000E2EH   CODE     NEAR LAB  _SHA1RESET
      01001004H   CODE     NEAR LAB  _SHA1RESULT
      0100112FH   CODE     NEAR LAB  _SPI_INIT
      010010E5H   CODE     NEAR LAB  _SPI_WRITE_THEN_READ
      010010D8H   CODE     NEAR LAB  _STORE_CPU_RATE
      01000F0EH   CODE     NEAR LAB  _STRNCPY
      010010A7H   CODE     NEAR LAB  _WDT_LOAD
*SFR* 000000D0H.6 DATA     BIT       AC
*SFR* 000000E0H   DATA     BYTE      ACC
*SFR* 000000A1H   DATA     BYTE      ADCCON
*SFR* 000000A2H   DATA     BYTE      ADCDATAH
*SFR* 000000A3H   DATA     BYTE      ADCDATAL
*SFR* 000000A4H   DATA     BYTE      ADCSTATIC
*SFR* 000000F0H   DATA     BYTE      B
*SFR* 000000C8H.1 DATA     BIT       C_T2
*SFR* 000000A0H.6 DATA     BIT       CE
*SFR* 000000B6H   DATA     BYTE      CK_CTRL
*SFR* 0000008EH   DATA     BYTE      CKCON
*SFR* 000000A0H.1 DATA     BIT       CLK1
*SFR* 000000A0H.5 DATA     BIT       CLK2
*SFR* 000000C8H   DATA     BIT       CP_RL2
*SFR* 000000C8H   DATA     BIT       CPRL2
*SFR* 000000A0H.3 DATA     BIT       CS
*SFR* 000000C8H.1 DATA     BIT       CT2
*SFR* 000000D0H.7 DATA     BIT       CY
*SFR* 000000A0H   DATA     BIT       DATA?
*SFR* 000000BEH   DATA     BYTE      DEV_OFFSET
*SFR* 00000090H.2 DATA     BIT       DIN0
*SFR* 00000090H   DATA     BIT       DIO0
*SFR* 00000090H.1 DATA     BIT       DIO1
*SFR* 00000080H   DATA     BIT       DIO2
*SFR* 00000080H.1 DATA     BIT       DIO3
*SFR* 00000080H.2 DATA     BIT       DIO4
*SFR* 00000080H.3 DATA     BIT       DIO5
*SFR* 00000080H.4 DATA     BIT       DIO6
*SFR* 00000080H.5 DATA     BIT       DIO7
*SFR* 00000080H.6 DATA     BIT       DIO8
*SFR* 00000080H.7 DATA     BIT       DIO9
*SFR* 000000A0H.4 DATA     BIT       DOUT2
*SFR* 00000083H   DATA     BYTE      DPH
*SFR* 00000083H   DATA     BYTE      DPH0
*SFR* 00000085H   DATA     BYTE      DPH1
*SFR* 00000082H   DATA     BYTE      DPL
*SFR* 00000082H   DATA     BYTE      DPL0
*SFR* 00000084H   DATA     BYTE      DPL1
*SFR* 00000086H   DATA     BYTE      DPS
*SFR* 000000A0H.2 DATA     BIT       DR1
*SFR* 000000A0H.6 DATA     BIT       DR2
*SFR* 000000A0H.6 DATA     BIT       DR2_CE
*SFR* 000000A8H.7 DATA     BIT       EA
      0000000DH   DATA     BYTE      ECO_PAGE_ADDR
      010010B9H   CODE     NEAR LAB  ECO_PAGE_INIT
      01000A35H   CODE     NEAR LAB  ECO_PAGE_MANAGER
LX51 LINKER/LOCATER V4.34a                                                            05/14/2009  22:01:21  PAGE 4


      00000009H   DATA     BYTE      ECO_PAGE_PREV_PID
      0000000BH   DATA     BYTE      ECO_PAGE_PREV_VID
      000000A7H   IDATA    BYTE      ECO_PAGE_REGISTER1
      000000A8H   IDATA    BYTE      ECO_PAGE_REGISTER2
      000000A9H   IDATA    BYTE      ECO_PAGE_REGISTER3
      000000AAH   IDATA    BYTE      ECO_PAGE_REGISTER4
      000000ABH   IDATA    BYTE      ECO_PAGE_REGISTER5
      000000ACH   IDATA    BYTE      ECO_PAGE_REGISTER6
      000000ADH   IDATA    BYTE      ECO_PAGE_REGISTER7
      00000008H   DATA     BYTE      ECO_PAGE_SPI_CONN
      0000009BH   IDATA    BYTE      ECO_PAGE_TABLE
      0000000FH   DATA     BYTE      ECO_PAGE_TABLE_INDEX
      0100110AH   CODE     NEAR LAB  EEPROM_INIT
      010010C9H   CODE     NEAR LAB  EEPROM_STATUS
*SFR* 000000D8H   DATA     BYTE      EICON
*SFR* 000000E8H   DATA     BYTE      EIE
*SFR* 000000F8H   DATA     BYTE      EIP
*SFR* 000000A8H.4 DATA     BIT       ES
*SFR* 000000A8H.1 DATA     BIT       ET0
*SFR* 000000A8H.3 DATA     BIT       ET1
*SFR* 000000A8H.5 DATA     BIT       ET2
*SFR* 000000E8H.4 DATA     BIT       EWDI
*SFR* 000000A8H   DATA     BIT       EX0
*SFR* 000000A8H.2 DATA     BIT       EX1
*SFR* 000000E8H   DATA     BIT       EX2
*SFR* 000000E8H.1 DATA     BIT       EX3
*SFR* 000000E8H.2 DATA     BIT       EX4
*SFR* 000000E8H.3 DATA     BIT       EX5
*SFR* 000000C8H.3 DATA     BIT       EXEN2
*SFR* 000000C8H.6 DATA     BIT       EXF2
*SFR* 00000091H   DATA     BYTE      EXIF
*SFR* 000000D0H.5 DATA     BIT       F0
*SFR* 000000D0H.1 DATA     BIT       F1
      01001084H   CODE     NEAR LAB  FLASH_ERASE_ALL
      01001134H   CODE     NEAR LAB  GETC
*SFR* 000000A8H   DATA     BYTE      IE
*SFR* 00000088H.1 DATA     BIT       IE0
*SFR* 00000088H.3 DATA     BIT       IE1
*SFR* 00000080H.3 DATA     BIT       INT0_N
*SFR* 00000080H.4 DATA     BIT       INT1_N
*SFR* 000000B8H   DATA     BYTE      IP
*SFR* 00000088H   DATA     BIT       IT0
*SFR* 00000088H.2 DATA     BIT       IT1
      01000EC9H   CODE     NEAR LAB  MAIN
      0000001CH   DATA     BYTE      MHZ
*SFR* 00000092H   DATA     BYTE      MPAGE
*SFR* 000000D0H.2 DATA     BIT       OV
*SFR* 000000D0H   DATA     BIT       P
*SFR* 00000080H   DATA     BYTE      P0
*SFR* 00000080H   DATA     BIT       P0_0
*SFR* 00000080H.1 DATA     BIT       P0_1
*SFR* 00000080H.2 DATA     BIT       P0_2
*SFR* 00000080H.3 DATA     BIT       P0_3
*SFR* 00000080H.4 DATA     BIT       P0_4
*SFR* 00000080H.5 DATA     BIT       P0_5
*SFR* 00000080H.6 DATA     BIT       P0_6
*SFR* 00000080H.7 DATA     BIT       P0_7
*SFR* 00000095H   DATA     BYTE      P0_ALT
*SFR* 00000094H   DATA     BYTE      P0_DIR
*SFR* 00000090H   DATA     BYTE      P1
*SFR* 00000090H   DATA     BIT       P1_0
*SFR* 00000090H.1 DATA     BIT       P1_1
*SFR* 00000090H.2 DATA     BIT       P1_2
*SFR* 00000097H   DATA     BYTE      P1_ALT
*SFR* 00000096H   DATA     BYTE      P1_DIR
LX51 LINKER/LOCATER V4.34a                                                            05/14/2009  22:01:21  PAGE 5


*SFR* 00000087H   DATA     BYTE      PCON
*SFR* 000000B8H.4 DATA     BIT       PS
*SFR* 000000D0H   DATA     BYTE      PSW
*SFR* 000000B8H.1 DATA     BIT       PT0
*SFR* 000000B8H.3 DATA     BIT       PT1
*SFR* 000000B8H.5 DATA     BIT       PT2
*SFR* 000000F8H.4 DATA     BIT       PWDI
*SFR* 00000080H.7 DATA     BIT       PWM
*SFR* 000000A9H   DATA     BYTE      PWMCON
*SFR* 000000AAH   DATA     BYTE      PWMDUTY
*SFR* 000000A0H.7 DATA     BIT       PWR_UP
*SFR* 000000B8H   DATA     BIT       PX0
*SFR* 000000B8H.2 DATA     BIT       PX1
*SFR* 000000F8H   DATA     BIT       PX2
*SFR* 000000F8H.1 DATA     BIT       PX3
*SFR* 000000F8H.2 DATA     BIT       PX4
*SFR* 000000F8H.3 DATA     BIT       PX5
*SFR* 000000A0H   DATA     BYTE      RADIO
*SFR* 00000098H.2 DATA     BIT       RB8
*SFR* 000000CBH   DATA     BYTE      RCAP2H
*SFR* 000000CAH   DATA     BYTE      RCAP2L
*SFR* 000000C8H.5 DATA     BIT       RCLK
*SFR* 000000ADH   DATA     BYTE      REGX_CTRL
*SFR* 000000ACH   DATA     BYTE      REGX_LSB
*SFR* 000000ABH   DATA     BYTE      REGX_MSB
*SFR* 00000098H.4 DATA     BIT       REN
*SFR* 00000098H   DATA     BIT       RI
*SFR* 000000D0H.3 DATA     BIT       RS0
*SFR* 000000D0H.4 DATA     BIT       RS1
*SFR* 000000B1H   DATA     BYTE      RSTREAS
*SFR* 00000080H.1 DATA     BIT       RXD
*SFR* 00000099H   DATA     BYTE      SBUF
*SFR* 00000098H   DATA     BYTE      SCON
*SFR* 00000098H.7 DATA     BIT       SM0
*SFR* 00000098H.6 DATA     BIT       SM1
*SFR* 00000098H.5 DATA     BIT       SM2
*SFR* 00000081H   DATA     BYTE      SP
*SFR* 0000008FH   DATA     BYTE      SPC_FNC
*SFR* 000000B3H   DATA     BYTE      SPI_CTRL
*SFR* 000000B2H   DATA     BYTE      SPI_DATA
*SFR* 000000B4H   DATA     BYTE      SPICLK
*SFR* 00000080H.5 DATA     BIT       T0
*SFR* 00000080H.6 DATA     BIT       T1
*SFR* 000000BCH   DATA     BYTE      T1_1V2
*SFR* 00000090H   DATA     BIT       T2
*SFR* 000000BDH   DATA     BYTE      T2_1V2
*SFR* 000000C8H   DATA     BYTE      T2CON
*SFR* 00000098H.3 DATA     BIT       TB8
*SFR* 000000C8H.4 DATA     BIT       TCLK
*SFR* 00000088H   DATA     BYTE      TCON
*SFR* 000000B7H   DATA     BYTE      TEST_MODE
*SFR* 00000088H.5 DATA     BIT       TF0
*SFR* 00000088H.7 DATA     BIT       TF1
*SFR* 000000C8H.7 DATA     BIT       TF2
*SFR* 0000008CH   DATA     BYTE      TH0
*SFR* 0000008DH   DATA     BYTE      TH1
*SFR* 000000CDH   DATA     BYTE      TH2
*SFR* 00000098H.1 DATA     BIT       TI
*SFR* 000000B5H   DATA     BYTE      TICK_DV
*SFR* 0000008AH   DATA     BYTE      TL0
*SFR* 0000008BH   DATA     BYTE      TL1
*SFR* 000000CCH   DATA     BYTE      TL2
*SFR* 00000089H   DATA     BYTE      TMOD
*SFR* 00000088H.4 DATA     BIT       TR0
*SFR* 00000088H.6 DATA     BIT       TR1
LX51 LINKER/LOCATER V4.34a                                                            05/14/2009  22:01:21  PAGE 6


*SFR* 000000C8H.2 DATA     BIT       TR2
*SFR* 00000080H.2 DATA     BIT       TXD
*SFR* 000000D8H.3 DATA     BIT       WDTI



SYMBOL TABLE OF MODULE:  MAIN (MAIN)

      VALUE       REP       CLASS    TYPE      SYMBOL NAME
      ====================================================
      ---         MODULE    ---      ---       MAIN
      01000D74H   PUBLIC    CODE     NEAR LAB  _SHA1INPUT
      01000C3EH   PUBLIC    CODE     NEAR LAB  _SHA1PADMESSAGE
      01000003H   PUBLIC    CODE     NEAR LAB  _SHA1PROCESSMESSAGEBLOCK
      01000E2EH   PUBLIC    CODE     NEAR LAB  _SHA1RESET
      01001004H   PUBLIC    CODE     NEAR LAB  _SHA1RESULT
      01000EC9H   PUBLIC    CODE     NEAR LAB  MAIN
      000000D0H.6 SFRSYM    DATA     BIT       AC
      000000E0H   SFRSYM    DATA     BYTE      ACC
      000000A1H   SFRSYM    DATA     BYTE      ADCCON
      000000A2H   SFRSYM    DATA     BYTE      ADCDATAH
      000000A3H   SFRSYM    DATA     BYTE      ADCDATAL
      000000A4H   SFRSYM    DATA     BYTE      ADCSTATIC
      000000F0H   SFRSYM    DATA     BYTE      B
      000000C8H.1 SFRSYM    DATA     BIT       C_T2
      000000A0H.6 SFRSYM    DATA     BIT       CE
      000000B6H   SFRSYM    DATA     BYTE      CK_CTRL
      0000008EH   SFRSYM    DATA     BYTE      CKCON
      000000A0H.1 SFRSYM    DATA     BIT       CLK1
      000000A0H.5 SFRSYM    DATA     BIT       CLK2
      000000C8H   SFRSYM    DATA     BIT       CP_RL2
      000000C8H   SFRSYM    DATA     BIT       CPRL2
      000000A0H.3 SFRSYM    DATA     BIT       CS
      000000C8H.1 SFRSYM    DATA     BIT       CT2
      000000D0H.7 SFRSYM    DATA     BIT       CY
      000000A0H   SFRSYM    DATA     BIT       DATA?
      000000BEH   SFRSYM    DATA     BYTE      DEV_OFFSET
      00000090H.2 SFRSYM    DATA     BIT       DIN0
      00000090H   SFRSYM    DATA     BIT       DIO0
      00000090H.1 SFRSYM    DATA     BIT       DIO1
      00000080H   SFRSYM    DATA     BIT       DIO2
      00000080H.1 SFRSYM    DATA     BIT       DIO3
      00000080H.2 SFRSYM    DATA     BIT       DIO4
      00000080H.3 SFRSYM    DATA     BIT       DIO5
      00000080H.4 SFRSYM    DATA     BIT       DIO6
      00000080H.5 SFRSYM    DATA     BIT       DIO7
      00000080H.6 SFRSYM    DATA     BIT       DIO8
      00000080H.7 SFRSYM    DATA     BIT       DIO9
      000000A0H.4 SFRSYM    DATA     BIT       DOUT2
      00000083H   SFRSYM    DATA     BYTE      DPH
      00000083H   SFRSYM    DATA     BYTE      DPH0
      00000085H   SFRSYM    DATA     BYTE      DPH1
      00000082H   SFRSYM    DATA     BYTE      DPL
      00000082H   SFRSYM    DATA     BYTE      DPL0
      00000084H   SFRSYM    DATA     BYTE      DPL1
      00000086H   SFRSYM    DATA     BYTE      DPS
      000000A0H.2 SFRSYM    DATA     BIT       DR1
      000000A0H.6 SFRSYM    DATA     BIT       DR2
      000000A0H.6 SFRSYM    DATA     BIT       DR2_CE
      000000A8H.7 SFRSYM    DATA     BIT       EA
      000000D8H   SFRSYM    DATA     BYTE      EICON
      000000E8H   SFRSYM    DATA     BYTE      EIE
      000000F8H   SFRSYM    DATA     BYTE      EIP
      000000A8H.4 SFRSYM    DATA     BIT       ES
      000000A8H.1 SFRSYM    DATA     BIT       ET0
LX51 LINKER/LOCATER V4.34a                                                            05/14/2009  22:01:21  PAGE 7


      000000A8H.3 SFRSYM    DATA     BIT       ET1
      000000A8H.5 SFRSYM    DATA     BIT       ET2
      000000E8H.4 SFRSYM    DATA     BIT       EWDI
      000000A8H   SFRSYM    DATA     BIT       EX0
      000000A8H.2 SFRSYM    DATA     BIT       EX1
      000000E8H   SFRSYM    DATA     BIT       EX2
      000000E8H.1 SFRSYM    DATA     BIT       EX3
      000000E8H.2 SFRSYM    DATA     BIT       EX4
      000000E8H.3 SFRSYM    DATA     BIT       EX5
      000000C8H.3 SFRSYM    DATA     BIT       EXEN2
      000000C8H.6 SFRSYM    DATA     BIT       EXF2
      00000091H   SFRSYM    DATA     BYTE      EXIF
      000000D0H.5 SFRSYM    DATA     BIT       F0
      000000D0H.1 SFRSYM    DATA     BIT       F1
      000000A8H   SFRSYM    DATA     BYTE      IE
      00000088H.1 SFRSYM    DATA     BIT       IE0
      00000088H.3 SFRSYM    DATA     BIT       IE1
      00000080H.3 SFRSYM    DATA     BIT       INT0_N
      00000080H.4 SFRSYM    DATA     BIT       INT1_N
      000000B8H   SFRSYM    DATA     BYTE      IP
      00000088H   SFRSYM    DATA     BIT       IT0
      00000088H.2 SFRSYM    DATA     BIT       IT1
      00000092H   SFRSYM    DATA     BYTE      MPAGE
      000000D0H.2 SFRSYM    DATA     BIT       OV
      000000D0H   SFRSYM    DATA     BIT       P
      00000080H   SFRSYM    DATA     BYTE      P0
      00000080H   SFRSYM    DATA     BIT       P0_0
      00000080H.1 SFRSYM    DATA     BIT       P0_1
      00000080H.2 SFRSYM    DATA     BIT       P0_2
      00000080H.3 SFRSYM    DATA     BIT       P0_3
      00000080H.4 SFRSYM    DATA     BIT       P0_4
      00000080H.5 SFRSYM    DATA     BIT       P0_5
      00000080H.6 SFRSYM    DATA     BIT       P0_6
      00000080H.7 SFRSYM    DATA     BIT       P0_7
      00000095H   SFRSYM    DATA     BYTE      P0_ALT
      00000094H   SFRSYM    DATA     BYTE      P0_DIR
      00000090H   SFRSYM    DATA     BYTE      P1
      00000090H   SFRSYM    DATA     BIT       P1_0
      00000090H.1 SFRSYM    DATA     BIT       P1_1
      00000090H.2 SFRSYM    DATA     BIT       P1_2
      00000097H   SFRSYM    DATA     BYTE      P1_ALT
      00000096H   SFRSYM    DATA     BYTE      P1_DIR
      00000087H   SFRSYM    DATA     BYTE      PCON
      000000B8H.4 SFRSYM    DATA     BIT       PS
      000000D0H   SFRSYM    DATA     BYTE      PSW
      000000B8H.1 SFRSYM    DATA     BIT       PT0
      000000B8H.3 SFRSYM    DATA     BIT       PT1
      000000B8H.5 SFRSYM    DATA     BIT       PT2
      000000F8H.4 SFRSYM    DATA     BIT       PWDI
      00000080H.7 SFRSYM    DATA     BIT       PWM
      000000A9H   SFRSYM    DATA     BYTE      PWMCON
      000000AAH   SFRSYM    DATA     BYTE      PWMDUTY
      000000A0H.7 SFRSYM    DATA     BIT       PWR_UP
      000000B8H   SFRSYM    DATA     BIT       PX0
      000000B8H.2 SFRSYM    DATA     BIT       PX1
      000000F8H   SFRSYM    DATA     BIT       PX2
      000000F8H.1 SFRSYM    DATA     BIT       PX3
      000000F8H.2 SFRSYM    DATA     BIT       PX4
      000000F8H.3 SFRSYM    DATA     BIT       PX5
      000000A0H   SFRSYM    DATA     BYTE      RADIO
      00000098H.2 SFRSYM    DATA     BIT       RB8
      000000CBH   SFRSYM    DATA     BYTE      RCAP2H
      000000CAH   SFRSYM    DATA     BYTE      RCAP2L
      000000C8H.5 SFRSYM    DATA     BIT       RCLK
      000000ADH   SFRSYM    DATA     BYTE      REGX_CTRL
LX51 LINKER/LOCATER V4.34a                                                            05/14/2009  22:01:21  PAGE 8


      000000ACH   SFRSYM    DATA     BYTE      REGX_LSB
      000000ABH   SFRSYM    DATA     BYTE      REGX_MSB
      00000098H.4 SFRSYM    DATA     BIT       REN
      00000098H   SFRSYM    DATA     BIT       RI
      000000D0H.3 SFRSYM    DATA     BIT       RS0
      000000D0H.4 SFRSYM    DATA     BIT       RS1
      000000B1H   SFRSYM    DATA     BYTE      RSTREAS
      00000080H.1 SFRSYM    DATA     BIT       RXD
      00000099H   SFRSYM    DATA     BYTE      SBUF
      00000098H   SFRSYM    DATA     BYTE      SCON
      00000098H.7 SFRSYM    DATA     BIT       SM0
      00000098H.6 SFRSYM    DATA     BIT       SM1
      00000098H.5 SFRSYM    DATA     BIT       SM2
      00000081H   SFRSYM    DATA     BYTE      SP
      0000008FH   SFRSYM    DATA     BYTE      SPC_FNC
      000000B3H   SFRSYM    DATA     BYTE      SPI_CTRL
      000000B2H   SFRSYM    DATA     BYTE      SPI_DATA
      000000B4H   SFRSYM    DATA     BYTE      SPICLK
      00000080H.5 SFRSYM    DATA     BIT       T0
      00000080H.6 SFRSYM    DATA     BIT       T1
      000000BCH   SFRSYM    DATA     BYTE      T1_1V2
      00000090H   SFRSYM    DATA     BIT       T2
      000000BDH   SFRSYM    DATA     BYTE      T2_1V2
      000000C8H   SFRSYM    DATA     BYTE      T2CON
      00000098H.3 SFRSYM    DATA     BIT       TB8
      000000C8H.4 SFRSYM    DATA     BIT       TCLK
      00000088H   SFRSYM    DATA     BYTE      TCON
      000000B7H   SFRSYM    DATA     BYTE      TEST_MODE
      00000088H.5 SFRSYM    DATA     BIT       TF0
      00000088H.7 SFRSYM    DATA     BIT       TF1
      000000C8H.7 SFRSYM    DATA     BIT       TF2
      0000008CH   SFRSYM    DATA     BYTE      TH0
      0000008DH   SFRSYM    DATA     BYTE      TH1
      000000CDH   SFRSYM    DATA     BYTE      TH2
      00000098H.1 SFRSYM    DATA     BIT       TI
      000000B5H   SFRSYM    DATA     BYTE      TICK_DV
      0000008AH   SFRSYM    DATA     BYTE      TL0
      0000008BH   SFRSYM    DATA     BYTE      TL1
      000000CCH   SFRSYM    DATA     BYTE      TL2
      00000089H   SFRSYM    DATA     BYTE      TMOD
      00000088H.4 SFRSYM    DATA     BIT       TR0
      00000088H.6 SFRSYM    DATA     BIT       TR1
      000000C8H.2 SFRSYM    DATA     BIT       TR2
      00000080H.2 SFRSYM    DATA     BIT       TXD
      000000D8H.3 SFRSYM    DATA     BIT       WDTI
      00000018H   SYMBOL    DATA     BYTE      ?_SHA1INPUT?BYTE
      0000002EH   SYMBOL    DATA     BYTE      ?_SHA1PADMESSAGE?BYTE
      0000002DH   SYMBOL    DATA     BYTE      ?_SHA1PROCESSMESSAGEBLOCK?BYTE
      0000002FH   SYMBOL    DATA     BYTE      ?_SHA1RESULT?BYTE
      0100001EH   SYMBOL    CODE     NEAR LAB  ?C0001
      0100010FH   SYMBOL    CODE     NEAR LAB  ?C0002
      01000116H   SYMBOL    CODE     NEAR LAB  ?C0004
      01000218H   SYMBOL    CODE     NEAR LAB  ?C0005
      01000270H   SYMBOL    CODE     NEAR LAB  ?C0007
      01000394H   SYMBOL    CODE     NEAR LAB  ?C0008
      0100039BH   SYMBOL    CODE     NEAR LAB  ?C0010
      010004ABH   SYMBOL    CODE     NEAR LAB  ?C0011
      010004B2H   SYMBOL    CODE     NEAR LAB  ?C0013
      010005DFH   SYMBOL    CODE     NEAR LAB  ?C0014
      010005E6H   SYMBOL    CODE     NEAR LAB  ?C0016
      010006F5H   SYMBOL    CODE     NEAR LAB  ?C0017
      01000CA0H   SYMBOL    CODE     NEAR LAB  ?C0021
      01000C5DH   SYMBOL    CODE     NEAR LAB  ?C0022
      01000C7CH   SYMBOL    CODE     NEAR LAB  ?C0023
      01000C81H   SYMBOL    CODE     NEAR LAB  ?C0024
LX51 LINKER/LOCATER V4.34a                                                            05/14/2009  22:01:21  PAGE 9


      01000CCFH   SYMBOL    CODE     NEAR LAB  ?C0026
      01000CB0H   SYMBOL    CODE     NEAR LAB  ?C0027
      01001015H   SYMBOL    CODE     NEAR LAB  ?C0030
      01001032H   SYMBOL    CODE     NEAR LAB  ?C0031
      0100102EH   SYMBOL    CODE     NEAR LAB  ?C0032
      01000D85H   SYMBOL    CODE     NEAR LAB  ?C0033
      01000E2DH   SYMBOL    CODE     NEAR LAB  ?C0034
      01000D99H   SYMBOL    CODE     NEAR LAB  ?C0036
      01000DA4H   SYMBOL    CODE     NEAR LAB  ?C0037
      01000E1AH   SYMBOL    CODE     NEAR LAB  ?C0039
      01000E28H   SYMBOL    CODE     NEAR LAB  ?C0041
      01000EE1H   SYMBOL    CODE     NEAR LAB  ?C0042
      01000EF6H   SYMBOL    CODE     NEAR LAB  ?C0045
      01000039H   SYMBOL    CODE     NEAR LAB  ?C0048
      0100007CH   SYMBOL    CODE     NEAR LAB  ?C0049
      01000103H   SYMBOL    CODE     NEAR LAB  ?C0050
      010001D2H   SYMBOL    CODE     NEAR LAB  ?C0051
      0100020CH   SYMBOL    CODE     NEAR LAB  ?C0052
      01000278H   SYMBOL    CODE     NEAR LAB  ?C0053
      01000293H   SYMBOL    CODE     NEAR LAB  ?C0054
      0100032EH   SYMBOL    CODE     NEAR LAB  ?C0055
      01000349H   SYMBOL    CODE     NEAR LAB  ?C0056
      01000388H   SYMBOL    CODE     NEAR LAB  ?C0057
      010003A3H   SYMBOL    CODE     NEAR LAB  ?C0058
      010003BEH   SYMBOL    CODE     NEAR LAB  ?C0059
      01000445H   SYMBOL    CODE     NEAR LAB  ?C0060
      01000460H   SYMBOL    CODE     NEAR LAB  ?C0061
      0100049FH   SYMBOL    CODE     NEAR LAB  ?C0062
      010004BAH   SYMBOL    CODE     NEAR LAB  ?C0063
      010004D5H   SYMBOL    CODE     NEAR LAB  ?C0064
      01000579H   SYMBOL    CODE     NEAR LAB  ?C0065
      01000594H   SYMBOL    CODE     NEAR LAB  ?C0066
      010005D3H   SYMBOL    CODE     NEAR LAB  ?C0067
      010005EEH   SYMBOL    CODE     NEAR LAB  ?C0068
      01000609H   SYMBOL    CODE     NEAR LAB  ?C0069
      0100068FH   SYMBOL    CODE     NEAR LAB  ?C0070
      010006AAH   SYMBOL    CODE     NEAR LAB  ?C0071
      010006E9H   SYMBOL    CODE     NEAR LAB  ?C0072
      01000CDAH   SYMBOL    CODE     NEAR LAB  ?C0073
      01000CF4H   SYMBOL    CODE     NEAR LAB  ?C0074
      01000D2AH   SYMBOL    CODE     NEAR LAB  ?C0075
      01000D44H   SYMBOL    CODE     NEAR LAB  ?C0076
      01000DAEH   SYMBOL    CODE     NEAR LAB  ?C0077
      01000DFCH   SYMBOL    CODE     NEAR LAB  ?C0078
      010010F2H   SYMBOL    CODE     NEAR LAB  ?SC_0
      010010F6H   SYMBOL    CODE     NEAR LAB  _?IX1000
      00000091H   SYMBOL    IDATA    BYTE      A?045
      00000093H   SYMBOL    IDATA    BYTE      B?046
      00000095H   SYMBOL    IDATA    BYTE      C?047
      0000002DH   SYMBOL    DATA     BYTE      CONTEXT?040
      0000002EH   SYMBOL    DATA     BYTE      CONTEXT?251
      0000002FH   SYMBOL    DATA     BYTE      CONTEXT?352
      00000018H   SYMBOL    DATA     BYTE      CONTEXT?453
      00000097H   SYMBOL    IDATA    BYTE      D?048
      00000099H   SYMBOL    IDATA    BYTE      E?049
      00000031H   SYMBOL    IDATA    BYTE      I?556
      00000085H   SYMBOL    IDATA    BYTE      K?041
      0000001AH   SYMBOL    DATA     BYTE      LENGTH?455
      00000019H   SYMBOL    DATA     BYTE      MESSAGE_ARRAY?454
      00000032H   SYMBOL    IDATA    BYTE      SHA?557
      0000008DH   SYMBOL    IDATA    BYTE      T?042
      0000008FH   SYMBOL    IDATA    BYTE      TEMP?043
      02000000H   SYMBOL    XDATA    BYTE      W?044

      01000003H   BLOCK     CODE     NEAR LAB  LVL=0
LX51 LINKER/LOCATER V4.34a                                                            05/14/2009  22:01:21  PAGE 10


      01000003H   LINE      CODE     ---       #292
      01000005H   LINE      CODE     ---       #297
      01000007H   LINE      CODE     ---       #298
      01000009H   LINE      CODE     ---       #299
      0100000BH   LINE      CODE     ---       #300
      0100000DH   LINE      CODE     ---       #301
      0100000FH   LINE      CODE     ---       #302
      01000011H   LINE      CODE     ---       #303
      01000013H   LINE      CODE     ---       #304
      01000015H   LINE      CODE     ---       #305
      01000018H   LINE      CODE     ---       #322
      01000019H   LINE      CODE     ---       #323
      0100001BH   LINE      CODE     ---       #324
      0100001CH   LINE      CODE     ---       #325
      0100001DH   LINE      CODE     ---       #326
      0100001EH   LINE      CODE     ---       #332
      01000020H   LINE      CODE     ---       #333
      01000022H   LINE      CODE     ---       #334
      01000023H   LINE      CODE     ---       #335
      01000025H   LINE      CODE     ---       #336
      01000027H   LINE      CODE     ---       #337
      01000028H   LINE      CODE     ---       #338
      01000029H   LINE      CODE     ---       #339
      0100002AH   LINE      CODE     ---       #340
      0100002BH   LINE      CODE     ---       #341
      0100002CH   LINE      CODE     ---       #342
      0100002EH   LINE      CODE     ---       #343
      01000030H   LINE      CODE     ---       #344
      01000032H   LINE      CODE     ---       #345
      01000033H   LINE      CODE     ---       #346
      01000034H   LINE      CODE     ---       #347
      01000035H   LINE      CODE     ---       #348
      01000037H   LINE      CODE     ---       #349
      01000039H   LINE      CODE     ---       #351
      0100003AH   LINE      CODE     ---       #352
      0100003BH   LINE      CODE     ---       #353
      0100003CH   LINE      CODE     ---       #354
      0100003DH   LINE      CODE     ---       #355
      0100003EH   LINE      CODE     ---       #356
      01000040H   LINE      CODE     ---       #357
      01000041H   LINE      CODE     ---       #358
      01000043H   LINE      CODE     ---       #359
      01000044H   LINE      CODE     ---       #360
      01000046H   LINE      CODE     ---       #361
      01000047H   LINE      CODE     ---       #362
      01000048H   LINE      CODE     ---       #363
      01000049H   LINE      CODE     ---       #364
      0100004AH   LINE      CODE     ---       #365
      0100004CH   LINE      CODE     ---       #366
      0100004DH   LINE      CODE     ---       #367
      0100004FH   LINE      CODE     ---       #368
      01000051H   LINE      CODE     ---       #369
      01000052H   LINE      CODE     ---       #370
      01000054H   LINE      CODE     ---       #371
      01000055H   LINE      CODE     ---       #372
      01000056H   LINE      CODE     ---       #373
      01000057H   LINE      CODE     ---       #374
      01000058H   LINE      CODE     ---       #375
      01000059H   LINE      CODE     ---       #378
      0100005BH   LINE      CODE     ---       #379
      0100005CH   LINE      CODE     ---       #380
      0100005EH   LINE      CODE     ---       #381
      01000060H   LINE      CODE     ---       #382
      01000061H   LINE      CODE     ---       #383
      01000063H   LINE      CODE     ---       #384
LX51 LINKER/LOCATER V4.34a                                                            05/14/2009  22:01:21  PAGE 11


      01000065H   LINE      CODE     ---       #385
      01000067H   LINE      CODE     ---       #386
      01000069H   LINE      CODE     ---       #387
      0100006AH   LINE      CODE     ---       #388
      0100006BH   LINE      CODE     ---       #389
      0100006CH   LINE      CODE     ---       #390
      0100006DH   LINE      CODE     ---       #391
      0100006EH   LINE      CODE     ---       #392
      01000070H   LINE      CODE     ---       #393
      01000072H   LINE      CODE     ---       #394
      01000074H   LINE      CODE     ---       #395
      01000076H   LINE      CODE     ---       #396
      01000077H   LINE      CODE     ---       #397
      01000078H   LINE      CODE     ---       #398
      0100007AH   LINE      CODE     ---       #399
      0100007CH   LINE      CODE     ---       #401
      0100007DH   LINE      CODE     ---       #402
      0100007EH   LINE      CODE     ---       #403
      0100007FH   LINE      CODE     ---       #404
      01000080H   LINE      CODE     ---       #405
      01000081H   LINE      CODE     ---       #406
      01000083H   LINE      CODE     ---       #407
      01000084H   LINE      CODE     ---       #408
      01000085H   LINE      CODE     ---       #409
      01000086H   LINE      CODE     ---       #410
      01000087H   LINE      CODE     ---       #411
      01000088H   LINE      CODE     ---       #412
      01000089H   LINE      CODE     ---       #413
      0100008AH   LINE      CODE     ---       #414
      0100008BH   LINE      CODE     ---       #415
      0100008DH   LINE      CODE     ---       #416
      0100008FH   LINE      CODE     ---       #417
      01000090H   LINE      CODE     ---       #418
      01000091H   LINE      CODE     ---       #419
      01000092H   LINE      CODE     ---       #420
      01000093H   LINE      CODE     ---       #421
      01000094H   LINE      CODE     ---       #424
      01000095H   LINE      CODE     ---       #425
      01000097H   LINE      CODE     ---       #426
      01000098H   LINE      CODE     ---       #427
      01000099H   LINE      CODE     ---       #428
      0100009AH   LINE      CODE     ---       #429
      0100009BH   LINE      CODE     ---       #430
      0100009DH   LINE      CODE     ---       #431
      0100009EH   LINE      CODE     ---       #432
      010000A0H   LINE      CODE     ---       #433
      010000A2H   LINE      CODE     ---       #434
      010000A3H   LINE      CODE     ---       #435
      010000A5H   LINE      CODE     ---       #436
      010000A7H   LINE      CODE     ---       #437
      010000A9H   LINE      CODE     ---       #438
      010000ABH   LINE      CODE     ---       #439
      010000ACH   LINE      CODE     ---       #440
      010000ADH   LINE      CODE     ---       #441
      010000AEH   LINE      CODE     ---       #442
      010000AFH   LINE      CODE     ---       #443
      010000B0H   LINE      CODE     ---       #444
      010000B2H   LINE      CODE     ---       #445
      010000B4H   LINE      CODE     ---       #446
      010000B6H   LINE      CODE     ---       #447
      010000B8H   LINE      CODE     ---       #448
      010000B9H   LINE      CODE     ---       #449
      010000BAH   LINE      CODE     ---       #450
      010000BBH   LINE      CODE     ---       #451
      010000BCH   LINE      CODE     ---       #452
LX51 LINKER/LOCATER V4.34a                                                            05/14/2009  22:01:21  PAGE 12


      010000BDH   LINE      CODE     ---       #453
      010000BEH   LINE      CODE     ---       #454
      010000BFH   LINE      CODE     ---       #455
      010000C0H   LINE      CODE     ---       #456
      010000C2H   LINE      CODE     ---       #457
      010000C4H   LINE      CODE     ---       #458
      010000C5H   LINE      CODE     ---       #459
      010000C6H   LINE      CODE     ---       #460
      010000C7H   LINE      CODE     ---       #461
      010000C8H   LINE      CODE     ---       #462
      010000C9H   LINE      CODE     ---       #465
      010000CAH   LINE      CODE     ---       #466
      010000CCH   LINE      CODE     ---       #467
      010000CDH   LINE      CODE     ---       #468
      010000CEH   LINE      CODE     ---       #469
      010000CFH   LINE      CODE     ---       #470
      010000D0H   LINE      CODE     ---       #471
      010000D2H   LINE      CODE     ---       #472
      010000D3H   LINE      CODE     ---       #473
      010000D5H   LINE      CODE     ---       #474
      010000D7H   LINE      CODE     ---       #475
      010000D8H   LINE      CODE     ---       #476
      010000DAH   LINE      CODE     ---       #477
      010000DCH   LINE      CODE     ---       #478
      010000DEH   LINE      CODE     ---       #479
      010000E0H   LINE      CODE     ---       #480
      010000E1H   LINE      CODE     ---       #481
      010000E3H   LINE      CODE     ---       #482
      010000E5H   LINE      CODE     ---       #483
      010000E7H   LINE      CODE     ---       #484
      010000E9H   LINE      CODE     ---       #485
      010000EAH   LINE      CODE     ---       #486
      010000EBH   LINE      CODE     ---       #487
      010000ECH   LINE      CODE     ---       #488
      010000EDH   LINE      CODE     ---       #489
      010000EEH   LINE      CODE     ---       #490
      010000EFH   LINE      CODE     ---       #491
      010000F0H   LINE      CODE     ---       #492
      010000F1H   LINE      CODE     ---       #493
      010000F2H   LINE      CODE     ---       #494
      010000F4H   LINE      CODE     ---       #495
      010000F6H   LINE      CODE     ---       #496
      010000F7H   LINE      CODE     ---       #497
      010000F8H   LINE      CODE     ---       #498
      010000F9H   LINE      CODE     ---       #499
      010000FAH   LINE      CODE     ---       #500
      010000FBH   LINE      CODE     ---       #503
      010000FDH   LINE      CODE     ---       #504
      010000FEH   LINE      CODE     ---       #505
      010000FFH   LINE      CODE     ---       #506
      01000100H   LINE      CODE     ---       #507
      01000102H   LINE      CODE     ---       #508
      01000103H   LINE      CODE     ---       #510
      01000105H   LINE      CODE     ---       #511
      01000106H   LINE      CODE     ---       #512
      01000108H   LINE      CODE     ---       #513
      01000109H   LINE      CODE     ---       #514
      0100010AH   LINE      CODE     ---       #515
      0100010CH   LINE      CODE     ---       #516
      0100010FH   LINE      CODE     ---       #521
      01000111H   LINE      CODE     ---       #522
      01000113H   LINE      CODE     ---       #523
      01000114H   LINE      CODE     ---       #524
      01000116H   LINE      CODE     ---       #530
      01000118H   LINE      CODE     ---       #531
LX51 LINKER/LOCATER V4.34a                                                            05/14/2009  22:01:21  PAGE 13


      01000119H   LINE      CODE     ---       #532
      0100011AH   LINE      CODE     ---       #533
      0100011BH   LINE      CODE     ---       #534
      0100011CH   LINE      CODE     ---       #535
      0100011DH   LINE      CODE     ---       #536
      0100011FH   LINE      CODE     ---       #537
      01000120H   LINE      CODE     ---       #538
      01000121H   LINE      CODE     ---       #539
      01000122H   LINE      CODE     ---       #540
      01000123H   LINE      CODE     ---       #541
      01000125H   LINE      CODE     ---       #542
      01000126H   LINE      CODE     ---       #543
      01000128H   LINE      CODE     ---       #544
      0100012AH   LINE      CODE     ---       #545
      0100012BH   LINE      CODE     ---       #546
      0100012DH   LINE      CODE     ---       #547
      0100012EH   LINE      CODE     ---       #548
      0100012FH   LINE      CODE     ---       #549
      01000130H   LINE      CODE     ---       #550
      01000131H   LINE      CODE     ---       #551
      01000132H   LINE      CODE     ---       #552
      01000134H   LINE      CODE     ---       #553
      01000135H   LINE      CODE     ---       #554
      01000137H   LINE      CODE     ---       #555
      01000139H   LINE      CODE     ---       #556
      0100013AH   LINE      CODE     ---       #557
      0100013CH   LINE      CODE     ---       #558
      0100013DH   LINE      CODE     ---       #559
      0100013EH   LINE      CODE     ---       #560
      0100013FH   LINE      CODE     ---       #561
      01000140H   LINE      CODE     ---       #562
      01000141H   LINE      CODE     ---       #563
      01000142H   LINE      CODE     ---       #564
      01000143H   LINE      CODE     ---       #565
      01000144H   LINE      CODE     ---       #566
      01000146H   LINE      CODE     ---       #567
      01000147H   LINE      CODE     ---       #568
      01000148H   LINE      CODE     ---       #569
      01000149H   LINE      CODE     ---       #570
      0100014AH   LINE      CODE     ---       #571
      0100014CH   LINE      CODE     ---       #572
      0100014DH   LINE      CODE     ---       #573
      0100014FH   LINE      CODE     ---       #574
      01000151H   LINE      CODE     ---       #575
      01000152H   LINE      CODE     ---       #576
      01000154H   LINE      CODE     ---       #577
      01000155H   LINE      CODE     ---       #578
      01000156H   LINE      CODE     ---       #579
      01000157H   LINE      CODE     ---       #580
      01000158H   LINE      CODE     ---       #581
      01000159H   LINE      CODE     ---       #582
      0100015AH   LINE      CODE     ---       #583
      0100015BH   LINE      CODE     ---       #584
      0100015DH   LINE      CODE     ---       #585
      0100015EH   LINE      CODE     ---       #586
      01000160H   LINE      CODE     ---       #587
      01000162H   LINE      CODE     ---       #588
      01000163H   LINE      CODE     ---       #589
      01000165H   LINE      CODE     ---       #590
      01000166H   LINE      CODE     ---       #591
      01000167H   LINE      CODE     ---       #592
      01000168H   LINE      CODE     ---       #593
      01000169H   LINE      CODE     ---       #594
      0100016AH   LINE      CODE     ---       #595
      0100016BH   LINE      CODE     ---       #596
LX51 LINKER/LOCATER V4.34a                                                            05/14/2009  22:01:21  PAGE 14


      0100016DH   LINE      CODE     ---       #597
      0100016EH   LINE      CODE     ---       #598
      0100016FH   LINE      CODE     ---       #599
      01000170H   LINE      CODE     ---       #600
      01000171H   LINE      CODE     ---       #601
      01000172H   LINE      CODE     ---       #602
      01000173H   LINE      CODE     ---       #603
      01000174H   LINE      CODE     ---       #604
      01000176H   LINE      CODE     ---       #605
      01000178H   LINE      CODE     ---       #606
      0100017AH   LINE      CODE     ---       #607
      0100017CH   LINE      CODE     ---       #608
      0100017DH   LINE      CODE     ---       #609
      0100017EH   LINE      CODE     ---       #610
      0100017FH   LINE      CODE     ---       #611
      01000180H   LINE      CODE     ---       #612
      01000181H   LINE      CODE     ---       #613
      01000182H   LINE      CODE     ---       #614
      01000184H   LINE      CODE     ---       #615
      01000185H   LINE      CODE     ---       #616
      01000186H   LINE      CODE     ---       #617
      01000187H   LINE      CODE     ---       #618
      01000188H   LINE      CODE     ---       #619
      0100018AH   LINE      CODE     ---       #620
      0100018BH   LINE      CODE     ---       #621
      0100018DH   LINE      CODE     ---       #622
      0100018FH   LINE      CODE     ---       #623
      01000190H   LINE      CODE     ---       #624
      01000192H   LINE      CODE     ---       #625
      01000193H   LINE      CODE     ---       #626
      01000194H   LINE      CODE     ---       #627
      01000195H   LINE      CODE     ---       #628
      01000196H   LINE      CODE     ---       #629
      01000197H   LINE      CODE     ---       #630
      01000199H   LINE      CODE     ---       #631
      0100019AH   LINE      CODE     ---       #632
      0100019CH   LINE      CODE     ---       #633
      0100019EH   LINE      CODE     ---       #634
      0100019FH   LINE      CODE     ---       #635
      010001A1H   LINE      CODE     ---       #636
      010001A2H   LINE      CODE     ---       #637
      010001A3H   LINE      CODE     ---       #638
      010001A4H   LINE      CODE     ---       #639
      010001A5H   LINE      CODE     ---       #640
      010001A6H   LINE      CODE     ---       #641
      010001A7H   LINE      CODE     ---       #642
      010001A8H   LINE      CODE     ---       #643
      010001A9H   LINE      CODE     ---       #644
      010001ABH   LINE      CODE     ---       #645
      010001ACH   LINE      CODE     ---       #646
      010001ADH   LINE      CODE     ---       #647
      010001AEH   LINE      CODE     ---       #648
      010001AFH   LINE      CODE     ---       #649
      010001B1H   LINE      CODE     ---       #650
      010001B2H   LINE      CODE     ---       #651
      010001B4H   LINE      CODE     ---       #652
      010001B6H   LINE      CODE     ---       #653
      010001B7H   LINE      CODE     ---       #654
      010001B9H   LINE      CODE     ---       #655
      010001BAH   LINE      CODE     ---       #656
      010001BBH   LINE      CODE     ---       #657
      010001BCH   LINE      CODE     ---       #658
      010001BDH   LINE      CODE     ---       #659
      010001BEH   LINE      CODE     ---       #660
      010001BFH   LINE      CODE     ---       #661
LX51 LINKER/LOCATER V4.34a                                                            05/14/2009  22:01:21  PAGE 15


      010001C0H   LINE      CODE     ---       #662
      010001C2H   LINE      CODE     ---       #663
      010001C3H   LINE      CODE     ---       #664
      010001C5H   LINE      CODE     ---       #665
      010001C7H   LINE      CODE     ---       #666
      010001C8H   LINE      CODE     ---       #667
      010001CAH   LINE      CODE     ---       #668
      010001CBH   LINE      CODE     ---       #669
      010001CCH   LINE      CODE     ---       #670
      010001CDH   LINE      CODE     ---       #671
      010001CEH   LINE      CODE     ---       #672
      010001CFH   LINE      CODE     ---       #673
      010001D0H   LINE      CODE     ---       #674
      010001D2H   LINE      CODE     ---       #676
      010001D3H   LINE      CODE     ---       #677
      010001D4H   LINE      CODE     ---       #678
      010001D5H   LINE      CODE     ---       #679
      010001D6H   LINE      CODE     ---       #680
      010001D7H   LINE      CODE     ---       #681
      010001D9H   LINE      CODE     ---       #682
      010001DAH   LINE      CODE     ---       #683
      010001DCH   LINE      CODE     ---       #684
      010001DEH   LINE      CODE     ---       #685
      010001E0H   LINE      CODE     ---       #686
      010001E2H   LINE      CODE     ---       #687
      010001E3H   LINE      CODE     ---       #688
      010001E4H   LINE      CODE     ---       #689
      010001E5H   LINE      CODE     ---       #690
      010001E6H   LINE      CODE     ---       #691
      010001E7H   LINE      CODE     ---       #692
      010001E8H   LINE      CODE     ---       #693
      010001EAH   LINE      CODE     ---       #694
      010001ECH   LINE      CODE     ---       #695
      010001EEH   LINE      CODE     ---       #696
      010001EFH   LINE      CODE     ---       #697
      010001F1H   LINE      CODE     ---       #698
      010001F2H   LINE      CODE     ---       #699
      010001F3H   LINE      CODE     ---       #700
      010001F4H   LINE      CODE     ---       #701
      010001F5H   LINE      CODE     ---       #702
      010001F6H   LINE      CODE     ---       #703
      010001F8H   LINE      CODE     ---       #704
      010001F9H   LINE      CODE     ---       #705
      010001FBH   LINE      CODE     ---       #706
      010001FDH   LINE      CODE     ---       #707
      010001FEH   LINE      CODE     ---       #708
      01000200H   LINE      CODE     ---       #709
      01000201H   LINE      CODE     ---       #710
      01000202H   LINE      CODE     ---       #711
      01000203H   LINE      CODE     ---       #712
      01000204H   LINE      CODE     ---       #713
      01000205H   LINE      CODE     ---       #716
      01000206H   LINE      CODE     ---       #717
      01000207H   LINE      CODE     ---       #718
      01000208H   LINE      CODE     ---       #719
      01000209H   LINE      CODE     ---       #720
      0100020BH   LINE      CODE     ---       #721
      0100020CH   LINE      CODE     ---       #723
      0100020EH   LINE      CODE     ---       #724
      0100020FH   LINE      CODE     ---       #725
      01000211H   LINE      CODE     ---       #726
      01000212H   LINE      CODE     ---       #727
      01000213H   LINE      CODE     ---       #728
      01000215H   LINE      CODE     ---       #729
      01000218H   LINE      CODE     ---       #734
LX51 LINKER/LOCATER V4.34a                                                            05/14/2009  22:01:21  PAGE 16


      0100021AH   LINE      CODE     ---       #735
      0100021BH   LINE      CODE     ---       #736
      0100021CH   LINE      CODE     ---       #737
      0100021DH   LINE      CODE     ---       #738
      0100021EH   LINE      CODE     ---       #739
      0100021FH   LINE      CODE     ---       #740
      01000221H   LINE      CODE     ---       #741
      01000223H   LINE      CODE     ---       #742
      01000224H   LINE      CODE     ---       #743
      01000226H   LINE      CODE     ---       #746
      01000228H   LINE      CODE     ---       #747
      0100022AH   LINE      CODE     ---       #748
      0100022BH   LINE      CODE     ---       #749
      0100022CH   LINE      CODE     ---       #750
      0100022DH   LINE      CODE     ---       #751
      0100022EH   LINE      CODE     ---       #752
      0100022FH   LINE      CODE     ---       #753
      01000230H   LINE      CODE     ---       #754
      01000232H   LINE      CODE     ---       #755
      01000234H   LINE      CODE     ---       #756
      01000235H   LINE      CODE     ---       #757
      01000237H   LINE      CODE     ---       #760
      01000239H   LINE      CODE     ---       #761
      0100023BH   LINE      CODE     ---       #762
      0100023CH   LINE      CODE     ---       #763
      0100023DH   LINE      CODE     ---       #764
      0100023EH   LINE      CODE     ---       #765
      0100023FH   LINE      CODE     ---       #766
      01000240H   LINE      CODE     ---       #767
      01000241H   LINE      CODE     ---       #768
      01000243H   LINE      CODE     ---       #769
      01000245H   LINE      CODE     ---       #770
      01000246H   LINE      CODE     ---       #771
      01000248H   LINE      CODE     ---       #774
      0100024AH   LINE      CODE     ---       #775
      0100024CH   LINE      CODE     ---       #776
      0100024DH   LINE      CODE     ---       #777
      0100024EH   LINE      CODE     ---       #778
      0100024FH   LINE      CODE     ---       #779
      01000250H   LINE      CODE     ---       #780
      01000251H   LINE      CODE     ---       #781
      01000252H   LINE      CODE     ---       #782
      01000254H   LINE      CODE     ---       #783
      01000256H   LINE      CODE     ---       #784
      01000257H   LINE      CODE     ---       #785
      01000259H   LINE      CODE     ---       #788
      0100025BH   LINE      CODE     ---       #789
      0100025DH   LINE      CODE     ---       #790
      0100025EH   LINE      CODE     ---       #791
      0100025FH   LINE      CODE     ---       #792
      01000260H   LINE      CODE     ---       #793
      01000261H   LINE      CODE     ---       #794
      01000262H   LINE      CODE     ---       #795
      01000263H   LINE      CODE     ---       #796
      01000265H   LINE      CODE     ---       #797
      01000267H   LINE      CODE     ---       #798
      01000268H   LINE      CODE     ---       #799
      0100026AH   LINE      CODE     ---       #803
      0100026BH   LINE      CODE     ---       #804
      0100026DH   LINE      CODE     ---       #805
      0100026EH   LINE      CODE     ---       #806
      0100026FH   LINE      CODE     ---       #807
      01000270H   LINE      CODE     ---       #813
      01000272H   LINE      CODE     ---       #814
      01000273H   LINE      CODE     ---       #815
LX51 LINKER/LOCATER V4.34a                                                            05/14/2009  22:01:21  PAGE 17


      01000274H   LINE      CODE     ---       #816
      01000275H   LINE      CODE     ---       #817
      01000276H   LINE      CODE     ---       #818
      01000278H   LINE      CODE     ---       #820
      01000279H   LINE      CODE     ---       #821
      0100027AH   LINE      CODE     ---       #822
      0100027BH   LINE      CODE     ---       #823
      0100027CH   LINE      CODE     ---       #824
      0100027DH   LINE      CODE     ---       #825
      0100027FH   LINE      CODE     ---       #826
      01000280H   LINE      CODE     ---       #827
      01000281H   LINE      CODE     ---       #828
      01000282H   LINE      CODE     ---       #829
      01000283H   LINE      CODE     ---       #830
      01000285H   LINE      CODE     ---       #831
      01000287H   LINE      CODE     ---       #832
      01000289H   LINE      CODE     ---       #833
      0100028BH   LINE      CODE     ---       #834
      0100028DH   LINE      CODE     ---       #835
      0100028EH   LINE      CODE     ---       #836
      0100028FH   LINE      CODE     ---       #837
      01000290H   LINE      CODE     ---       #838
      01000291H   LINE      CODE     ---       #839
      01000293H   LINE      CODE     ---       #841
      01000294H   LINE      CODE     ---       #842
      01000295H   LINE      CODE     ---       #843
      01000296H   LINE      CODE     ---       #844
      01000297H   LINE      CODE     ---       #845
      01000298H   LINE      CODE     ---       #846
      0100029AH   LINE      CODE     ---       #847
      0100029BH   LINE      CODE     ---       #848
      0100029DH   LINE      CODE     ---       #849
      0100029FH   LINE      CODE     ---       #850
      010002A1H   LINE      CODE     ---       #851
      010002A3H   LINE      CODE     ---       #852
      010002A4H   LINE      CODE     ---       #853
      010002A5H   LINE      CODE     ---       #854
      010002A6H   LINE      CODE     ---       #855
      010002A7H   LINE      CODE     ---       #856
      010002A8H   LINE      CODE     ---       #857
      010002A9H   LINE      CODE     ---       #858
      010002ABH   LINE      CODE     ---       #859
      010002ACH   LINE      CODE     ---       #860
      010002ADH   LINE      CODE     ---       #861
      010002AEH   LINE      CODE     ---       #862
      010002AFH   LINE      CODE     ---       #863
      010002B0H   LINE      CODE     ---       #864
      010002B1H   LINE      CODE     ---       #865
      010002B2H   LINE      CODE     ---       #866
      010002B3H   LINE      CODE     ---       #867
      010002B5H   LINE      CODE     ---       #868
      010002B6H   LINE      CODE     ---       #869
      010002B7H   LINE      CODE     ---       #870
      010002B8H   LINE      CODE     ---       #871
      010002B9H   LINE      CODE     ---       #872
      010002BAH   LINE      CODE     ---       #873
      010002BBH   LINE      CODE     ---       #874
      010002BDH   LINE      CODE     ---       #875
      010002BEH   LINE      CODE     ---       #876
      010002C0H   LINE      CODE     ---       #877
      010002C1H   LINE      CODE     ---       #878
      010002C2H   LINE      CODE     ---       #879
      010002C3H   LINE      CODE     ---       #880
      010002C4H   LINE      CODE     ---       #881
      010002C5H   LINE      CODE     ---       #882
LX51 LINKER/LOCATER V4.34a                                                            05/14/2009  22:01:21  PAGE 18


      010002C6H   LINE      CODE     ---       #883
      010002C7H   LINE      CODE     ---       #884
      010002C8H   LINE      CODE     ---       #885
      010002C9H   LINE      CODE     ---       #886
      010002CAH   LINE      CODE     ---       #887
      010002CBH   LINE      CODE     ---       #888
      010002CCH   LINE      CODE     ---       #889
      010002CDH   LINE      CODE     ---       #890
      010002CEH   LINE      CODE     ---       #891
      010002CFH   LINE      CODE     ---       #892
      010002D0H   LINE      CODE     ---       #893
      010002D1H   LINE      CODE     ---       #894
      010002D2H   LINE      CODE     ---       #895
      010002D4H   LINE      CODE     ---       #896
      010002D5H   LINE      CODE     ---       #897
      010002D6H   LINE      CODE     ---       #898
      010002D7H   LINE      CODE     ---       #899
      010002D8H   LINE      CODE     ---       #900
      010002D9H   LINE      CODE     ---       #901
      010002DAH   LINE      CODE     ---       #902
      010002DCH   LINE      CODE     ---       #903
      010002DDH   LINE      CODE     ---       #904
      010002DFH   LINE      CODE     ---       #905
      010002E0H   LINE      CODE     ---       #906
      010002E1H   LINE      CODE     ---       #907
      010002E2H   LINE      CODE     ---       #908
      010002E3H   LINE      CODE     ---       #909
      010002E4H   LINE      CODE     ---       #910
      010002E6H   LINE      CODE     ---       #911
      010002E7H   LINE      CODE     ---       #912
      010002E9H   LINE      CODE     ---       #913
      010002EBH   LINE      CODE     ---       #914
      010002ECH   LINE      CODE     ---       #915
      010002EEH   LINE      CODE     ---       #916
      010002EFH   LINE      CODE     ---       #917
      010002F0H   LINE      CODE     ---       #918
      010002F1H   LINE      CODE     ---       #919
      010002F2H   LINE      CODE     ---       #920
      010002F3H   LINE      CODE     ---       #921
      010002F4H   LINE      CODE     ---       #922
      010002F5H   LINE      CODE     ---       #923
      010002F6H   LINE      CODE     ---       #924
      010002F7H   LINE      CODE     ---       #925
      010002F8H   LINE      CODE     ---       #926
      010002FAH   LINE      CODE     ---       #927
      010002FBH   LINE      CODE     ---       #928
      010002FCH   LINE      CODE     ---       #929
      010002FDH   LINE      CODE     ---       #930
      010002FEH   LINE      CODE     ---       #931
      010002FFH   LINE      CODE     ---       #932
      01000300H   LINE      CODE     ---       #933
      01000302H   LINE      CODE     ---       #934
      01000303H   LINE      CODE     ---       #935
      01000304H   LINE      CODE     ---       #936
      01000305H   LINE      CODE     ---       #937
      01000306H   LINE      CODE     ---       #941
      01000307H   LINE      CODE     ---       #942
      01000308H   LINE      CODE     ---       #943
      01000309H   LINE      CODE     ---       #944
      0100030AH   LINE      CODE     ---       #945
      0100030BH   LINE      CODE     ---       #946
      0100030CH   LINE      CODE     ---       #949
      0100030EH   LINE      CODE     ---       #950
      0100030FH   LINE      CODE     ---       #951
      01000310H   LINE      CODE     ---       #952
LX51 LINKER/LOCATER V4.34a                                                            05/14/2009  22:01:21  PAGE 19


      01000311H   LINE      CODE     ---       #953
      01000312H   LINE      CODE     ---       #954
      01000313H   LINE      CODE     ---       #955
      01000314H   LINE      CODE     ---       #956
      01000316H   LINE      CODE     ---       #957
      01000317H   LINE      CODE     ---       #958
      01000319H   LINE      CODE     ---       #961
      0100031BH   LINE      CODE     ---       #962
      0100031CH   LINE      CODE     ---       #963
      0100031DH   LINE      CODE     ---       #964
      0100031EH   LINE      CODE     ---       #965
      0100031FH   LINE      CODE     ---       #966
      01000320H   LINE      CODE     ---       #967
      01000321H   LINE      CODE     ---       #968
      01000323H   LINE      CODE     ---       #969
      01000324H   LINE      CODE     ---       #970
      01000326H   LINE      CODE     ---       #973
      01000328H   LINE      CODE     ---       #974
      01000329H   LINE      CODE     ---       #975
      0100032AH   LINE      CODE     ---       #976
      0100032BH   LINE      CODE     ---       #977
      0100032CH   LINE      CODE     ---       #978
      0100032EH   LINE      CODE     ---       #980
      0100032FH   LINE      CODE     ---       #981
      01000330H   LINE      CODE     ---       #982
      01000331H   LINE      CODE     ---       #983
      01000332H   LINE      CODE     ---       #984
      01000333H   LINE      CODE     ---       #985
      01000335H   LINE      CODE     ---       #986
      01000336H   LINE      CODE     ---       #987
      01000337H   LINE      CODE     ---       #988
      01000338H   LINE      CODE     ---       #989
      01000339H   LINE      CODE     ---       #990
      0100033BH   LINE      CODE     ---       #991
      0100033DH   LINE      CODE     ---       #992
      0100033FH   LINE      CODE     ---       #993
      01000341H   LINE      CODE     ---       #994
      01000343H   LINE      CODE     ---       #995
      01000344H   LINE      CODE     ---       #996
      01000345H   LINE      CODE     ---       #997
      01000346H   LINE      CODE     ---       #998
      01000347H   LINE      CODE     ---       #999
      01000349H   LINE      CODE     ---       #1001
      0100034AH   LINE      CODE     ---       #1002
      0100034BH   LINE      CODE     ---       #1003
      0100034CH   LINE      CODE     ---       #1004
      0100034DH   LINE      CODE     ---       #1005
      0100034EH   LINE      CODE     ---       #1006
      01000350H   LINE      CODE     ---       #1007
      01000351H   LINE      CODE     ---       #1008
      01000353H   LINE      CODE     ---       #1009
      01000355H   LINE      CODE     ---       #1010
      01000357H   LINE      CODE     ---       #1011
      01000359H   LINE      CODE     ---       #1012
      0100035AH   LINE      CODE     ---       #1013
      0100035BH   LINE      CODE     ---       #1014
      0100035CH   LINE      CODE     ---       #1015
      0100035DH   LINE      CODE     ---       #1016
      0100035EH   LINE      CODE     ---       #1017
      0100035FH   LINE      CODE     ---       #1018
      01000361H   LINE      CODE     ---       #1019
      01000363H   LINE      CODE     ---       #1020
      01000364H   LINE      CODE     ---       #1021
      01000366H   LINE      CODE     ---       #1024
      01000368H   LINE      CODE     ---       #1025
LX51 LINKER/LOCATER V4.34a                                                            05/14/2009  22:01:21  PAGE 20


      01000369H   LINE      CODE     ---       #1026
      0100036AH   LINE      CODE     ---       #1027
      0100036BH   LINE      CODE     ---       #1028
      0100036CH   LINE      CODE     ---       #1029
      0100036DH   LINE      CODE     ---       #1030
      0100036EH   LINE      CODE     ---       #1031
      01000370H   LINE      CODE     ---       #1032
      01000371H   LINE      CODE     ---       #1033
      01000373H   LINE      CODE     ---       #1036
      01000375H   LINE      CODE     ---       #1037
      01000376H   LINE      CODE     ---       #1038
      01000377H   LINE      CODE     ---       #1039
      01000378H   LINE      CODE     ---       #1040
      01000379H   LINE      CODE     ---       #1041
      0100037AH   LINE      CODE     ---       #1042
      0100037BH   LINE      CODE     ---       #1043
      0100037DH   LINE      CODE     ---       #1044
      0100037EH   LINE      CODE     ---       #1045
      01000380H   LINE      CODE     ---       #1048
      01000382H   LINE      CODE     ---       #1049
      01000383H   LINE      CODE     ---       #1050
      01000384H   LINE      CODE     ---       #1051
      01000385H   LINE      CODE     ---       #1052
      01000387H   LINE      CODE     ---       #1053
      01000388H   LINE      CODE     ---       #1055
      0100038AH   LINE      CODE     ---       #1056
      0100038BH   LINE      CODE     ---       #1057
      0100038DH   LINE      CODE     ---       #1058
      0100038EH   LINE      CODE     ---       #1059
      0100038FH   LINE      CODE     ---       #1060
      01000391H   LINE      CODE     ---       #1061
      01000394H   LINE      CODE     ---       #1066
      01000396H   LINE      CODE     ---       #1067
      01000398H   LINE      CODE     ---       #1068
      01000399H   LINE      CODE     ---       #1069
      0100039BH   LINE      CODE     ---       #1075
      0100039DH   LINE      CODE     ---       #1076
      0100039EH   LINE      CODE     ---       #1077
      0100039FH   LINE      CODE     ---       #1078
      010003A0H   LINE      CODE     ---       #1079
      010003A1H   LINE      CODE     ---       #1080
      010003A3H   LINE      CODE     ---       #1082
      010003A4H   LINE      CODE     ---       #1083
      010003A5H   LINE      CODE     ---       #1084
      010003A6H   LINE      CODE     ---       #1085
      010003A7H   LINE      CODE     ---       #1086
      010003A8H   LINE      CODE     ---       #1087
      010003AAH   LINE      CODE     ---       #1088
      010003ABH   LINE      CODE     ---       #1089
      010003ACH   LINE      CODE     ---       #1090
      010003ADH   LINE      CODE     ---       #1091
      010003AEH   LINE      CODE     ---       #1092
      010003B0H   LINE      CODE     ---       #1093
      010003B2H   LINE      CODE     ---       #1094
      010003B4H   LINE      CODE     ---       #1095
      010003B6H   LINE      CODE     ---       #1096
      010003B8H   LINE      CODE     ---       #1097
      010003B9H   LINE      CODE     ---       #1098
      010003BAH   LINE      CODE     ---       #1099
      010003BBH   LINE      CODE     ---       #1100
      010003BCH   LINE      CODE     ---       #1101
      010003BEH   LINE      CODE     ---       #1103
      010003BFH   LINE      CODE     ---       #1104
      010003C0H   LINE      CODE     ---       #1105
      010003C1H   LINE      CODE     ---       #1106
LX51 LINKER/LOCATER V4.34a                                                            05/14/2009  22:01:21  PAGE 21


      010003C2H   LINE      CODE     ---       #1107
      010003C3H   LINE      CODE     ---       #1108
      010003C5H   LINE      CODE     ---       #1109
      010003C6H   LINE      CODE     ---       #1110
      010003C8H   LINE      CODE     ---       #1111
      010003CAH   LINE      CODE     ---       #1112
      010003CCH   LINE      CODE     ---       #1113
      010003CEH   LINE      CODE     ---       #1114
      010003CFH   LINE      CODE     ---       #1115
      010003D0H   LINE      CODE     ---       #1116
      010003D1H   LINE      CODE     ---       #1117
      010003D2H   LINE      CODE     ---       #1118
      010003D3H   LINE      CODE     ---       #1119
      010003D4H   LINE      CODE     ---       #1120
      010003D6H   LINE      CODE     ---       #1121
      010003D7H   LINE      CODE     ---       #1122
      010003D9H   LINE      CODE     ---       #1123
      010003DAH   LINE      CODE     ---       #1124
      010003DBH   LINE      CODE     ---       #1125
      010003DCH   LINE      CODE     ---       #1126
      010003DDH   LINE      CODE     ---       #1127
      010003DEH   LINE      CODE     ---       #1128
      010003DFH   LINE      CODE     ---       #1129
      010003E0H   LINE      CODE     ---       #1130
      010003E1H   LINE      CODE     ---       #1131
      010003E2H   LINE      CODE     ---       #1132
      010003E3H   LINE      CODE     ---       #1133
      010003E4H   LINE      CODE     ---       #1134
      010003E5H   LINE      CODE     ---       #1135
      010003E6H   LINE      CODE     ---       #1136
      010003E7H   LINE      CODE     ---       #1137
      010003E8H   LINE      CODE     ---       #1138
      010003E9H   LINE      CODE     ---       #1139
      010003EAH   LINE      CODE     ---       #1140
      010003EBH   LINE      CODE     ---       #1141
      010003ECH   LINE      CODE     ---       #1142
      010003EDH   LINE      CODE     ---       #1143
      010003EEH   LINE      CODE     ---       #1144
      010003EFH   LINE      CODE     ---       #1145
      010003F0H   LINE      CODE     ---       #1146
      010003F1H   LINE      CODE     ---       #1147
      010003F3H   LINE      CODE     ---       #1148
      010003F4H   LINE      CODE     ---       #1149
      010003F5H   LINE      CODE     ---       #1150
      010003F6H   LINE      CODE     ---       #1151
      010003F7H   LINE      CODE     ---       #1152
      010003F8H   LINE      CODE     ---       #1153
      010003F9H   LINE      CODE     ---       #1154
      010003FBH   LINE      CODE     ---       #1155
      010003FCH   LINE      CODE     ---       #1156
      010003FEH   LINE      CODE     ---       #1157
      010003FFH   LINE      CODE     ---       #1158
      01000400H   LINE      CODE     ---       #1159
      01000401H   LINE      CODE     ---       #1160
      01000402H   LINE      CODE     ---       #1161
      01000403H   LINE      CODE     ---       #1162
      01000405H   LINE      CODE     ---       #1163
      01000406H   LINE      CODE     ---       #1164
      01000408H   LINE      CODE     ---       #1165
      0100040AH   LINE      CODE     ---       #1166
      0100040BH   LINE      CODE     ---       #1167
      0100040DH   LINE      CODE     ---       #1168
      0100040EH   LINE      CODE     ---       #1169
      0100040FH   LINE      CODE     ---       #1170
      01000410H   LINE      CODE     ---       #1171
LX51 LINKER/LOCATER V4.34a                                                            05/14/2009  22:01:21  PAGE 22


      01000411H   LINE      CODE     ---       #1172
      01000412H   LINE      CODE     ---       #1173
      01000413H   LINE      CODE     ---       #1174
      01000414H   LINE      CODE     ---       #1175
      01000415H   LINE      CODE     ---       #1176
      01000416H   LINE      CODE     ---       #1177
      01000417H   LINE      CODE     ---       #1178
      01000419H   LINE      CODE     ---       #1179
      0100041AH   LINE      CODE     ---       #1180
      0100041CH   LINE      CODE     ---       #1181
      0100041DH   LINE      CODE     ---       #1182
      0100041EH   LINE      CODE     ---       #1183
      0100041FH   LINE      CODE     ---       #1184
      01000420H   LINE      CODE     ---       #1185
      01000421H   LINE      CODE     ---       #1186
      01000422H   LINE      CODE     ---       #1189
      01000424H   LINE      CODE     ---       #1190
      01000425H   LINE      CODE     ---       #1191
      01000426H   LINE      CODE     ---       #1192
      01000427H   LINE      CODE     ---       #1193
      01000428H   LINE      CODE     ---       #1194
      01000429H   LINE      CODE     ---       #1197
      0100042BH   LINE      CODE     ---       #1198
      0100042DH   LINE      CODE     ---       #1199
      0100042EH   LINE      CODE     ---       #1200
      01000430H   LINE      CODE     ---       #1203
      01000432H   LINE      CODE     ---       #1204
      01000433H   LINE      CODE     ---       #1205
      01000434H   LINE      CODE     ---       #1206
      01000435H   LINE      CODE     ---       #1207
      01000436H   LINE      CODE     ---       #1208
      01000437H   LINE      CODE     ---       #1209
      01000438H   LINE      CODE     ---       #1210
      0100043AH   LINE      CODE     ---       #1211
      0100043BH   LINE      CODE     ---       #1212
      0100043DH   LINE      CODE     ---       #1215
      0100043FH   LINE      CODE     ---       #1216
      01000440H   LINE      CODE     ---       #1217
      01000441H   LINE      CODE     ---       #1218
      01000442H   LINE      CODE     ---       #1219
      01000443H   LINE      CODE     ---       #1220
      01000445H   LINE      CODE     ---       #1222
      01000446H   LINE      CODE     ---       #1223
      01000447H   LINE      CODE     ---       #1224
      01000448H   LINE      CODE     ---       #1225
      01000449H   LINE      CODE     ---       #1226
      0100044AH   LINE      CODE     ---       #1227
      0100044CH   LINE      CODE     ---       #1228
      0100044DH   LINE      CODE     ---       #1229
      0100044EH   LINE      CODE     ---       #1230
      0100044FH   LINE      CODE     ---       #1231
      01000450H   LINE      CODE     ---       #1232
      01000452H   LINE      CODE     ---       #1233
      01000454H   LINE      CODE     ---       #1234
      01000456H   LINE      CODE     ---       #1235
      01000458H   LINE      CODE     ---       #1236
      0100045AH   LINE      CODE     ---       #1237
      0100045BH   LINE      CODE     ---       #1238
      0100045CH   LINE      CODE     ---       #1239
      0100045DH   LINE      CODE     ---       #1240
      0100045EH   LINE      CODE     ---       #1241
      01000460H   LINE      CODE     ---       #1243
      01000461H   LINE      CODE     ---       #1244
      01000462H   LINE      CODE     ---       #1245
      01000463H   LINE      CODE     ---       #1246
LX51 LINKER/LOCATER V4.34a                                                            05/14/2009  22:01:21  PAGE 23


      01000464H   LINE      CODE     ---       #1247
      01000465H   LINE      CODE     ---       #1248
      01000467H   LINE      CODE     ---       #1249
      01000468H   LINE      CODE     ---       #1250
      0100046AH   LINE      CODE     ---       #1251
      0100046CH   LINE      CODE     ---       #1252
      0100046EH   LINE      CODE     ---       #1253
      01000470H   LINE      CODE     ---       #1254
      01000471H   LINE      CODE     ---       #1255
      01000472H   LINE      CODE     ---       #1256
      01000473H   LINE      CODE     ---       #1257
      01000474H   LINE      CODE     ---       #1258
      01000475H   LINE      CODE     ---       #1259
      01000476H   LINE      CODE     ---       #1260
      01000478H   LINE      CODE     ---       #1261
      0100047AH   LINE      CODE     ---       #1262
      0100047BH   LINE      CODE     ---       #1263
      0100047DH   LINE      CODE     ---       #1266
      0100047FH   LINE      CODE     ---       #1267
      01000480H   LINE      CODE     ---       #1268
      01000481H   LINE      CODE     ---       #1269
      01000482H   LINE      CODE     ---       #1270
      01000483H   LINE      CODE     ---       #1271
      01000484H   LINE      CODE     ---       #1272
      01000485H   LINE      CODE     ---       #1273
      01000487H   LINE      CODE     ---       #1274
      01000488H   LINE      CODE     ---       #1275
      0100048AH   LINE      CODE     ---       #1278
      0100048CH   LINE      CODE     ---       #1279
      0100048DH   LINE      CODE     ---       #1280
      0100048EH   LINE      CODE     ---       #1281
      0100048FH   LINE      CODE     ---       #1282
      01000490H   LINE      CODE     ---       #1283
      01000491H   LINE      CODE     ---       #1284
      01000492H   LINE      CODE     ---       #1285
      01000494H   LINE      CODE     ---       #1286
      01000495H   LINE      CODE     ---       #1287
      01000497H   LINE      CODE     ---       #1290
      01000499H   LINE      CODE     ---       #1291
      0100049AH   LINE      CODE     ---       #1292
      0100049BH   LINE      CODE     ---       #1293
      0100049CH   LINE      CODE     ---       #1294
      0100049EH   LINE      CODE     ---       #1295
      0100049FH   LINE      CODE     ---       #1297
      010004A1H   LINE      CODE     ---       #1298
      010004A2H   LINE      CODE     ---       #1299
      010004A4H   LINE      CODE     ---       #1300
      010004A5H   LINE      CODE     ---       #1301
      010004A6H   LINE      CODE     ---       #1302
      010004A8H   LINE      CODE     ---       #1303
      010004ABH   LINE      CODE     ---       #1308
      010004ADH   LINE      CODE     ---       #1309
      010004AFH   LINE      CODE     ---       #1310
      010004B0H   LINE      CODE     ---       #1311
      010004B2H   LINE      CODE     ---       #1317
      010004B4H   LINE      CODE     ---       #1318
      010004B5H   LINE      CODE     ---       #1319
      010004B6H   LINE      CODE     ---       #1320
      010004B7H   LINE      CODE     ---       #1321
      010004B8H   LINE      CODE     ---       #1322
      010004BAH   LINE      CODE     ---       #1324
      010004BBH   LINE      CODE     ---       #1325
      010004BCH   LINE      CODE     ---       #1326
      010004BDH   LINE      CODE     ---       #1327
      010004BEH   LINE      CODE     ---       #1328
LX51 LINKER/LOCATER V4.34a                                                            05/14/2009  22:01:21  PAGE 24


      010004BFH   LINE      CODE     ---       #1329
      010004C1H   LINE      CODE     ---       #1330
      010004C2H   LINE      CODE     ---       #1331
      010004C3H   LINE      CODE     ---       #1332
      010004C4H   LINE      CODE     ---       #1333
      010004C5H   LINE      CODE     ---       #1334
      010004C7H   LINE      CODE     ---       #1335
      010004C9H   LINE      CODE     ---       #1336
      010004CBH   LINE      CODE     ---       #1337
      010004CDH   LINE      CODE     ---       #1338
      010004CFH   LINE      CODE     ---       #1339
      010004D0H   LINE      CODE     ---       #1340
      010004D1H   LINE      CODE     ---       #1341
      010004D2H   LINE      CODE     ---       #1342
      010004D3H   LINE      CODE     ---       #1343
      010004D5H   LINE      CODE     ---       #1345
      010004D6H   LINE      CODE     ---       #1346
      010004D7H   LINE      CODE     ---       #1347
      010004D8H   LINE      CODE     ---       #1348
      010004D9H   LINE      CODE     ---       #1349
      010004DAH   LINE      CODE     ---       #1350
      010004DCH   LINE      CODE     ---       #1351
      010004DDH   LINE      CODE     ---       #1352
      010004DFH   LINE      CODE     ---       #1353
      010004E1H   LINE      CODE     ---       #1354
      010004E3H   LINE      CODE     ---       #1355
      010004E5H   LINE      CODE     ---       #1356
      010004E6H   LINE      CODE     ---       #1357
      010004E7H   LINE      CODE     ---       #1358
      010004E8H   LINE      CODE     ---       #1359
      010004E9H   LINE      CODE     ---       #1360
      010004EAH   LINE      CODE     ---       #1361
      010004EBH   LINE      CODE     ---       #1362
      010004EDH   LINE      CODE     ---       #1363
      010004EEH   LINE      CODE     ---       #1364
      010004F0H   LINE      CODE     ---       #1365
      010004F1H   LINE      CODE     ---       #1366
      010004F2H   LINE      CODE     ---       #1367
      010004F3H   LINE      CODE     ---       #1368
      010004F4H   LINE      CODE     ---       #1369
      010004F5H   LINE      CODE     ---       #1370
      010004F6H   LINE      CODE     ---       #1371
      010004F7H   LINE      CODE     ---       #1372
      010004F8H   LINE      CODE     ---       #1373
      010004F9H   LINE      CODE     ---       #1374
      010004FBH   LINE      CODE     ---       #1375
      010004FCH   LINE      CODE     ---       #1376
      010004FDH   LINE      CODE     ---       #1377
      010004FEH   LINE      CODE     ---       #1378
      010004FFH   LINE      CODE     ---       #1379
      01000500H   LINE      CODE     ---       #1380
      01000501H   LINE      CODE     ---       #1381
      01000502H   LINE      CODE     ---       #1382
      01000503H   LINE      CODE     ---       #1383
      01000504H   LINE      CODE     ---       #1384
      01000505H   LINE      CODE     ---       #1385
      01000506H   LINE      CODE     ---       #1386
      01000507H   LINE      CODE     ---       #1387
      01000508H   LINE      CODE     ---       #1388
      01000509H   LINE      CODE     ---       #1389
      0100050AH   LINE      CODE     ---       #1390
      0100050BH   LINE      CODE     ---       #1391
      0100050CH   LINE      CODE     ---       #1392
      0100050DH   LINE      CODE     ---       #1393
      0100050EH   LINE      CODE     ---       #1394
LX51 LINKER/LOCATER V4.34a                                                            05/14/2009  22:01:21  PAGE 25


      0100050FH   LINE      CODE     ---       #1395
      01000510H   LINE      CODE     ---       #1396
      01000511H   LINE      CODE     ---       #1397
      01000512H   LINE      CODE     ---       #1398
      01000513H   LINE      CODE     ---       #1399
      01000514H   LINE      CODE     ---       #1400
      01000515H   LINE      CODE     ---       #1401
      01000516H   LINE      CODE     ---       #1402
      01000517H   LINE      CODE     ---       #1403
      01000518H   LINE      CODE     ---       #1404
      01000519H   LINE      CODE     ---       #1405
      0100051AH   LINE      CODE     ---       #1406
      0100051BH   LINE      CODE     ---       #1407
      0100051CH   LINE      CODE     ---       #1408
      0100051DH   LINE      CODE     ---       #1409
      0100051FH   LINE      CODE     ---       #1410
      01000520H   LINE      CODE     ---       #1411
      01000521H   LINE      CODE     ---       #1412
      01000522H   LINE      CODE     ---       #1413
      01000523H   LINE      CODE     ---       #1414
      01000524H   LINE      CODE     ---       #1415
      01000525H   LINE      CODE     ---       #1416
      01000527H   LINE      CODE     ---       #1417
      01000528H   LINE      CODE     ---       #1418
      0100052AH   LINE      CODE     ---       #1419
      0100052BH   LINE      CODE     ---       #1420
      0100052CH   LINE      CODE     ---       #1421
      0100052DH   LINE      CODE     ---       #1422
      0100052EH   LINE      CODE     ---       #1423
      0100052FH   LINE      CODE     ---       #1424
      01000531H   LINE      CODE     ---       #1425
      01000532H   LINE      CODE     ---       #1426
      01000534H   LINE      CODE     ---       #1427
      01000536H   LINE      CODE     ---       #1428
      01000537H   LINE      CODE     ---       #1429
      01000539H   LINE      CODE     ---       #1430
      0100053AH   LINE      CODE     ---       #1431
      0100053BH   LINE      CODE     ---       #1432
      0100053CH   LINE      CODE     ---       #1433
      0100053DH   LINE      CODE     ---       #1434
      0100053EH   LINE      CODE     ---       #1435
      0100053FH   LINE      CODE     ---       #1436
      01000540H   LINE      CODE     ---       #1437
      01000541H   LINE      CODE     ---       #1438
      01000542H   LINE      CODE     ---       #1439
      01000543H   LINE      CODE     ---       #1440
      01000545H   LINE      CODE     ---       #1441
      01000546H   LINE      CODE     ---       #1442
      01000547H   LINE      CODE     ---       #1443
      01000548H   LINE      CODE     ---       #1444
      01000549H   LINE      CODE     ---       #1445
      0100054AH   LINE      CODE     ---       #1446
      0100054BH   LINE      CODE     ---       #1447
      0100054DH   LINE      CODE     ---       #1448
      0100054EH   LINE      CODE     ---       #1449
      0100054FH   LINE      CODE     ---       #1450
      01000550H   LINE      CODE     ---       #1451
      01000551H   LINE      CODE     ---       #1455
      01000552H   LINE      CODE     ---       #1456
      01000553H   LINE      CODE     ---       #1457
      01000554H   LINE      CODE     ---       #1458
      01000555H   LINE      CODE     ---       #1459
      01000556H   LINE      CODE     ---       #1460
      01000557H   LINE      CODE     ---       #1463
      01000559H   LINE      CODE     ---       #1464
LX51 LINKER/LOCATER V4.34a                                                            05/14/2009  22:01:21  PAGE 26


      0100055AH   LINE      CODE     ---       #1465
      0100055BH   LINE      CODE     ---       #1466
      0100055CH   LINE      CODE     ---       #1467
      0100055DH   LINE      CODE     ---       #1468
      0100055EH   LINE      CODE     ---       #1469
      0100055FH   LINE      CODE     ---       #1470
      01000561H   LINE      CODE     ---       #1471
      01000562H   LINE      CODE     ---       #1472
      01000564H   LINE      CODE     ---       #1475
      01000566H   LINE      CODE     ---       #1476
      01000567H   LINE      CODE     ---       #1477
      01000568H   LINE      CODE     ---       #1478
      01000569H   LINE      CODE     ---       #1479
      0100056AH   LINE      CODE     ---       #1480
      0100056BH   LINE      CODE     ---       #1481
      0100056CH   LINE      CODE     ---       #1482
      0100056EH   LINE      CODE     ---       #1483
      0100056FH   LINE      CODE     ---       #1484
      01000571H   LINE      CODE     ---       #1487
      01000573H   LINE      CODE     ---       #1488
      01000574H   LINE      CODE     ---       #1489
      01000575H   LINE      CODE     ---       #1490
      01000576H   LINE      CODE     ---       #1491
      01000577H   LINE      CODE     ---       #1492
      01000579H   LINE      CODE     ---       #1494
      0100057AH   LINE      CODE     ---       #1495
      0100057BH   LINE      CODE     ---       #1496
      0100057CH   LINE      CODE     ---       #1497
      0100057DH   LINE      CODE     ---       #1498
      0100057EH   LINE      CODE     ---       #1499
      01000580H   LINE      CODE     ---       #1500
      01000581H   LINE      CODE     ---       #1501
      01000582H   LINE      CODE     ---       #1502
      01000583H   LINE      CODE     ---       #1503
      01000584H   LINE      CODE     ---       #1504
      01000586H   LINE      CODE     ---       #1505
      01000588H   LINE      CODE     ---       #1506
      0100058AH   LINE      CODE     ---       #1507
      0100058CH   LINE      CODE     ---       #1508
      0100058EH   LINE      CODE     ---       #1509
      0100058FH   LINE      CODE     ---       #1510
      01000590H   LINE      CODE     ---       #1511
      01000591H   LINE      CODE     ---       #1512
      01000592H   LINE      CODE     ---       #1513
      01000594H   LINE      CODE     ---       #1515
      01000595H   LINE      CODE     ---       #1516
      01000596H   LINE      CODE     ---       #1517
      01000597H   LINE      CODE     ---       #1518
      01000598H   LINE      CODE     ---       #1519
      01000599H   LINE      CODE     ---       #1520
      0100059BH   LINE      CODE     ---       #1521
      0100059CH   LINE      CODE     ---       #1522
      0100059EH   LINE      CODE     ---       #1523
      010005A0H   LINE      CODE     ---       #1524
      010005A2H   LINE      CODE     ---       #1525
      010005A4H   LINE      CODE     ---       #1526
      010005A5H   LINE      CODE     ---       #1527
      010005A6H   LINE      CODE     ---       #1528
      010005A7H   LINE      CODE     ---       #1529
      010005A8H   LINE      CODE     ---       #1530
      010005A9H   LINE      CODE     ---       #1531
      010005AAH   LINE      CODE     ---       #1532
      010005ACH   LINE      CODE     ---       #1533
      010005AEH   LINE      CODE     ---       #1534
      010005AFH   LINE      CODE     ---       #1535
LX51 LINKER/LOCATER V4.34a                                                            05/14/2009  22:01:21  PAGE 27


      010005B1H   LINE      CODE     ---       #1538
      010005B3H   LINE      CODE     ---       #1539
      010005B4H   LINE      CODE     ---       #1540
      010005B5H   LINE      CODE     ---       #1541
      010005B6H   LINE      CODE     ---       #1542
      010005B7H   LINE      CODE     ---       #1543
      010005B8H   LINE      CODE     ---       #1544
      010005B9H   LINE      CODE     ---       #1545
      010005BBH   LINE      CODE     ---       #1546
      010005BCH   LINE      CODE     ---       #1547
      010005BEH   LINE      CODE     ---       #1550
      010005C0H   LINE      CODE     ---       #1551
      010005C1H   LINE      CODE     ---       #1552
      010005C2H   LINE      CODE     ---       #1553
      010005C3H   LINE      CODE     ---       #1554
      010005C4H   LINE      CODE     ---       #1555
      010005C5H   LINE      CODE     ---       #1556
      010005C6H   LINE      CODE     ---       #1557
      010005C8H   LINE      CODE     ---       #1558
      010005C9H   LINE      CODE     ---       #1559
      010005CBH   LINE      CODE     ---       #1562
      010005CDH   LINE      CODE     ---       #1563
      010005CEH   LINE      CODE     ---       #1564
      010005CFH   LINE      CODE     ---       #1565
      010005D0H   LINE      CODE     ---       #1566
      010005D2H   LINE      CODE     ---       #1567
      010005D3H   LINE      CODE     ---       #1569
      010005D5H   LINE      CODE     ---       #1570
      010005D6H   LINE      CODE     ---       #1571
      010005D8H   LINE      CODE     ---       #1572
      010005D9H   LINE      CODE     ---       #1573
      010005DAH   LINE      CODE     ---       #1574
      010005DCH   LINE      CODE     ---       #1575
      010005DFH   LINE      CODE     ---       #1580
      010005E1H   LINE      CODE     ---       #1581
      010005E3H   LINE      CODE     ---       #1582
      010005E4H   LINE      CODE     ---       #1583
      010005E6H   LINE      CODE     ---       #1589
      010005E8H   LINE      CODE     ---       #1590
      010005E9H   LINE      CODE     ---       #1591
      010005EAH   LINE      CODE     ---       #1592
      010005EBH   LINE      CODE     ---       #1593
      010005ECH   LINE      CODE     ---       #1594
      010005EEH   LINE      CODE     ---       #1596
      010005EFH   LINE      CODE     ---       #1597
      010005F0H   LINE      CODE     ---       #1598
      010005F1H   LINE      CODE     ---       #1599
      010005F2H   LINE      CODE     ---       #1600
      010005F3H   LINE      CODE     ---       #1601
      010005F5H   LINE      CODE     ---       #1602
      010005F6H   LINE      CODE     ---       #1603
      010005F7H   LINE      CODE     ---       #1604
      010005F8H   LINE      CODE     ---       #1605
      010005F9H   LINE      CODE     ---       #1606
      010005FBH   LINE      CODE     ---       #1607
      010005FDH   LINE      CODE     ---       #1608
      010005FFH   LINE      CODE     ---       #1609
      01000601H   LINE      CODE     ---       #1610
      01000603H   LINE      CODE     ---       #1611
      01000604H   LINE      CODE     ---       #1612
      01000605H   LINE      CODE     ---       #1613
      01000606H   LINE      CODE     ---       #1614
      01000607H   LINE      CODE     ---       #1615
      01000609H   LINE      CODE     ---       #1617
      0100060AH   LINE      CODE     ---       #1618
LX51 LINKER/LOCATER V4.34a                                                            05/14/2009  22:01:21  PAGE 28


      0100060BH   LINE      CODE     ---       #1619
      0100060CH   LINE      CODE     ---       #1620
      0100060DH   LINE      CODE     ---       #1621
      0100060EH   LINE      CODE     ---       #1622
      01000610H   LINE      CODE     ---       #1623
      01000611H   LINE      CODE     ---       #1624
      01000613H   LINE      CODE     ---       #1625
      01000615H   LINE      CODE     ---       #1626
      01000617H   LINE      CODE     ---       #1627
      01000619H   LINE      CODE     ---       #1628
      0100061AH   LINE      CODE     ---       #1629
      0100061BH   LINE      CODE     ---       #1630
      0100061CH   LINE      CODE     ---       #1631
      0100061DH   LINE      CODE     ---       #1632
      0100061EH   LINE      CODE     ---       #1633
      0100061FH   LINE      CODE     ---       #1634
      01000621H   LINE      CODE     ---       #1635
      01000622H   LINE      CODE     ---       #1636
      01000624H   LINE      CODE     ---       #1637
      01000625H   LINE      CODE     ---       #1638
      01000626H   LINE      CODE     ---       #1639
      01000627H   LINE      CODE     ---       #1640
      01000628H   LINE      CODE     ---       #1641
      01000629H   LINE      CODE     ---       #1642
      0100062AH   LINE      CODE     ---       #1643
      0100062BH   LINE      CODE     ---       #1644
      0100062CH   LINE      CODE     ---       #1645
      0100062DH   LINE      CODE     ---       #1646
      0100062EH   LINE      CODE     ---       #1647
      0100062FH   LINE      CODE     ---       #1648
      01000630H   LINE      CODE     ---       #1649
      01000631H   LINE      CODE     ---       #1650
      01000632H   LINE      CODE     ---       #1651
      01000633H   LINE      CODE     ---       #1652
      01000634H   LINE      CODE     ---       #1653
      01000635H   LINE      CODE     ---       #1654
      01000636H   LINE      CODE     ---       #1655
      01000637H   LINE      CODE     ---       #1656
      01000638H   LINE      CODE     ---       #1657
      01000639H   LINE      CODE     ---       #1658
      0100063AH   LINE      CODE     ---       #1659
      0100063BH   LINE      CODE     ---       #1660
      0100063CH   LINE      CODE     ---       #1661
      0100063EH   LINE      CODE     ---       #1662
      0100063FH   LINE      CODE     ---       #1663
      01000640H   LINE      CODE     ---       #1664
      01000641H   LINE      CODE     ---       #1665
      01000642H   LINE      CODE     ---       #1666
      01000643H   LINE      CODE     ---       #1667
      01000644H   LINE      CODE     ---       #1668
      01000646H   LINE      CODE     ---       #1669
      01000647H   LINE      CODE     ---       #1670
      01000649H   LINE      CODE     ---       #1671
      0100064AH   LINE      CODE     ---       #1672
      0100064BH   LINE      CODE     ---       #1673
      0100064CH   LINE      CODE     ---       #1674
      0100064DH   LINE      CODE     ---       #1675
      0100064EH   LINE      CODE     ---       #1676
      01000650H   LINE      CODE     ---       #1677
      01000651H   LINE      CODE     ---       #1678
      01000653H   LINE      CODE     ---       #1679
      01000655H   LINE      CODE     ---       #1680
      01000656H   LINE      CODE     ---       #1681
      01000658H   LINE      CODE     ---       #1682
      01000659H   LINE      CODE     ---       #1683
LX51 LINKER/LOCATER V4.34a                                                            05/14/2009  22:01:21  PAGE 29


      0100065AH   LINE      CODE     ---       #1684
      0100065BH   LINE      CODE     ---       #1685
      0100065CH   LINE      CODE     ---       #1686
      0100065DH   LINE      CODE     ---       #1687
      0100065EH   LINE      CODE     ---       #1688
      0100065FH   LINE      CODE     ---       #1689
      01000660H   LINE      CODE     ---       #1690
      01000661H   LINE      CODE     ---       #1691
      01000662H   LINE      CODE     ---       #1692
      01000663H   LINE      CODE     ---       #1693
      01000664H   LINE      CODE     ---       #1694
      01000666H   LINE      CODE     ---       #1695
      01000667H   LINE      CODE     ---       #1696
      01000668H   LINE      CODE     ---       #1697
      01000669H   LINE      CODE     ---       #1698
      0100066AH   LINE      CODE     ---       #1699
      0100066BH   LINE      CODE     ---       #1700
      0100066CH   LINE      CODE     ---       #1703
      0100066EH   LINE      CODE     ---       #1704
      0100066FH   LINE      CODE     ---       #1705
      01000670H   LINE      CODE     ---       #1706
      01000671H   LINE      CODE     ---       #1707
      01000672H   LINE      CODE     ---       #1708
      01000673H   LINE      CODE     ---       #1711
      01000675H   LINE      CODE     ---       #1712
      01000677H   LINE      CODE     ---       #1713
      01000678H   LINE      CODE     ---       #1714
      0100067AH   LINE      CODE     ---       #1717
      0100067CH   LINE      CODE     ---       #1718
      0100067DH   LINE      CODE     ---       #1719
      0100067EH   LINE      CODE     ---       #1720
      0100067FH   LINE      CODE     ---       #1721
      01000680H   LINE      CODE     ---       #1722
      01000681H   LINE      CODE     ---       #1723
      01000682H   LINE      CODE     ---       #1724
      01000684H   LINE      CODE     ---       #1725
      01000685H   LINE      CODE     ---       #1726
      01000687H   LINE      CODE     ---       #1729
      01000689H   LINE      CODE     ---       #1730
      0100068AH   LINE      CODE     ---       #1731
      0100068BH   LINE      CODE     ---       #1732
      0100068CH   LINE      CODE     ---       #1733
      0100068DH   LINE      CODE     ---       #1734
      0100068FH   LINE      CODE     ---       #1736
      01000690H   LINE      CODE     ---       #1737
      01000691H   LINE      CODE     ---       #1738
      01000692H   LINE      CODE     ---       #1739
      01000693H   LINE      CODE     ---       #1740
      01000694H   LINE      CODE     ---       #1741
      01000696H   LINE      CODE     ---       #1742
      01000697H   LINE      CODE     ---       #1743
      01000698H   LINE      CODE     ---       #1744
      01000699H   LINE      CODE     ---       #1745
      0100069AH   LINE      CODE     ---       #1746
      0100069CH   LINE      CODE     ---       #1747
      0100069EH   LINE      CODE     ---       #1748
      010006A0H   LINE      CODE     ---       #1749
      010006A2H   LINE      CODE     ---       #1750
      010006A4H   LINE      CODE     ---       #1751
      010006A5H   LINE      CODE     ---       #1752
      010006A6H   LINE      CODE     ---       #1753
      010006A7H   LINE      CODE     ---       #1754
      010006A8H   LINE      CODE     ---       #1755
      010006AAH   LINE      CODE     ---       #1757
      010006ABH   LINE      CODE     ---       #1758
LX51 LINKER/LOCATER V4.34a                                                            05/14/2009  22:01:21  PAGE 30


      010006ACH   LINE      CODE     ---       #1759
      010006ADH   LINE      CODE     ---       #1760
      010006AEH   LINE      CODE     ---       #1761
      010006AFH   LINE      CODE     ---       #1762
      010006B1H   LINE      CODE     ---       #1763
      010006B2H   LINE      CODE     ---       #1764
      010006B4H   LINE      CODE     ---       #1765
      010006B6H   LINE      CODE     ---       #1766
      010006B8H   LINE      CODE     ---       #1767
      010006BAH   LINE      CODE     ---       #1768
      010006BBH   LINE      CODE     ---       #1769
      010006BCH   LINE      CODE     ---       #1770
      010006BDH   LINE      CODE     ---       #1771
      010006BEH   LINE      CODE     ---       #1772
      010006BFH   LINE      CODE     ---       #1773
      010006C0H   LINE      CODE     ---       #1774
      010006C2H   LINE      CODE     ---       #1775
      010006C4H   LINE      CODE     ---       #1776
      010006C5H   LINE      CODE     ---       #1777
      010006C7H   LINE      CODE     ---       #1780
      010006C9H   LINE      CODE     ---       #1781
      010006CAH   LINE      CODE     ---       #1782
      010006CBH   LINE      CODE     ---       #1783
      010006CCH   LINE      CODE     ---       #1784
      010006CDH   LINE      CODE     ---       #1785
      010006CEH   LINE      CODE     ---       #1786
      010006CFH   LINE      CODE     ---       #1787
      010006D1H   LINE      CODE     ---       #1788
      010006D2H   LINE      CODE     ---       #1789
      010006D4H   LINE      CODE     ---       #1792
      010006D6H   LINE      CODE     ---       #1793
      010006D7H   LINE      CODE     ---       #1794
      010006D8H   LINE      CODE     ---       #1795
      010006D9H   LINE      CODE     ---       #1796
      010006DAH   LINE      CODE     ---       #1797
      010006DBH   LINE      CODE     ---       #1798
      010006DCH   LINE      CODE     ---       #1799
      010006DEH   LINE      CODE     ---       #1800
      010006DFH   LINE      CODE     ---       #1801
      010006E1H   LINE      CODE     ---       #1804
      010006E3H   LINE      CODE     ---       #1805
      010006E4H   LINE      CODE     ---       #1806
      010006E5H   LINE      CODE     ---       #1807
      010006E6H   LINE      CODE     ---       #1808
      010006E8H   LINE      CODE     ---       #1809
      010006E9H   LINE      CODE     ---       #1811
      010006EBH   LINE      CODE     ---       #1812
      010006ECH   LINE      CODE     ---       #1813
      010006EEH   LINE      CODE     ---       #1814
      010006EFH   LINE      CODE     ---       #1815
      010006F0H   LINE      CODE     ---       #1816
      010006F2H   LINE      CODE     ---       #1817
      010006F5H   LINE      CODE     ---       #1822
      010006F7H   LINE      CODE     ---       #1823
      010006F8H   LINE      CODE     ---       #1824
      010006F9H   LINE      CODE     ---       #1825
      010006FBH   LINE      CODE     ---       #1826
      010006FCH   LINE      CODE     ---       #1827
      010006FDH   LINE      CODE     ---       #1828
      010006FEH   LINE      CODE     ---       #1829
      010006FFH   LINE      CODE     ---       #1830
      01000700H   LINE      CODE     ---       #1831
      01000701H   LINE      CODE     ---       #1832
      01000702H   LINE      CODE     ---       #1833
      01000704H   LINE      CODE     ---       #1834
LX51 LINKER/LOCATER V4.34a                                                            05/14/2009  22:01:21  PAGE 31


      01000706H   LINE      CODE     ---       #1835
      01000707H   LINE      CODE     ---       #1836
      01000709H   LINE      CODE     ---       #1840
      0100070BH   LINE      CODE     ---       #1841
      0100070DH   LINE      CODE     ---       #1842
      0100070EH   LINE      CODE     ---       #1843
      0100070FH   LINE      CODE     ---       #1844
      01000711H   LINE      CODE     ---       #1845
      01000712H   LINE      CODE     ---       #1846
      01000713H   LINE      CODE     ---       #1847
      01000714H   LINE      CODE     ---       #1848
      01000715H   LINE      CODE     ---       #1849
      01000716H   LINE      CODE     ---       #1850
      01000717H   LINE      CODE     ---       #1851
      01000718H   LINE      CODE     ---       #1852
      0100071AH   LINE      CODE     ---       #1853
      0100071CH   LINE      CODE     ---       #1854
      0100071DH   LINE      CODE     ---       #1855
      0100071FH   LINE      CODE     ---       #1856
      01000720H   LINE      CODE     ---       #1857
      01000722H   LINE      CODE     ---       #1861
      01000724H   LINE      CODE     ---       #1862
      01000726H   LINE      CODE     ---       #1863
      01000727H   LINE      CODE     ---       #1864
      01000728H   LINE      CODE     ---       #1865
      0100072AH   LINE      CODE     ---       #1866
      0100072BH   LINE      CODE     ---       #1867
      0100072CH   LINE      CODE     ---       #1868
      0100072DH   LINE      CODE     ---       #1869
      0100072EH   LINE      CODE     ---       #1870
      0100072FH   LINE      CODE     ---       #1871
      01000730H   LINE      CODE     ---       #1872
      01000731H   LINE      CODE     ---       #1873
      01000733H   LINE      CODE     ---       #1874
      01000735H   LINE      CODE     ---       #1875
      01000736H   LINE      CODE     ---       #1876
      01000738H   LINE      CODE     ---       #1877
      01000739H   LINE      CODE     ---       #1878
      0100073BH   LINE      CODE     ---       #1882
      0100073DH   LINE      CODE     ---       #1883
      0100073FH   LINE      CODE     ---       #1884
      01000740H   LINE      CODE     ---       #1885
      01000741H   LINE      CODE     ---       #1886
      01000743H   LINE      CODE     ---       #1887
      01000744H   LINE      CODE     ---       #1888
      01000745H   LINE      CODE     ---       #1889
      01000746H   LINE      CODE     ---       #1890
      01000747H   LINE      CODE     ---       #1891
      01000748H   LINE      CODE     ---       #1892
      01000749H   LINE      CODE     ---       #1893
      0100074AH   LINE      CODE     ---       #1894
      0100074CH   LINE      CODE     ---       #1895
      0100074EH   LINE      CODE     ---       #1896
      0100074FH   LINE      CODE     ---       #1897
      01000751H   LINE      CODE     ---       #1898
      01000752H   LINE      CODE     ---       #1899
      01000754H   LINE      CODE     ---       #1903
      01000756H   LINE      CODE     ---       #1904
      01000758H   LINE      CODE     ---       #1905
      01000759H   LINE      CODE     ---       #1906
      0100075AH   LINE      CODE     ---       #1907
      0100075CH   LINE      CODE     ---       #1908
      0100075DH   LINE      CODE     ---       #1909
      0100075EH   LINE      CODE     ---       #1910
      0100075FH   LINE      CODE     ---       #1911
LX51 LINKER/LOCATER V4.34a                                                            05/14/2009  22:01:21  PAGE 32


      01000760H   LINE      CODE     ---       #1912
      01000761H   LINE      CODE     ---       #1913
      01000762H   LINE      CODE     ---       #1914
      01000763H   LINE      CODE     ---       #1915
      01000765H   LINE      CODE     ---       #1916
      01000767H   LINE      CODE     ---       #1917
      01000768H   LINE      CODE     ---       #1918
      0100076AH   LINE      CODE     ---       #1919
      0100076BH   LINE      CODE     ---       #1920
      0100076DH   LINE      CODE     ---       #1925
      0100076FH   LINE      CODE     ---       #1926
      01000771H   LINE      CODE     ---       #1927
      01000772H   LINE      CODE     ---       #1928
      01000773H   LINE      CODE     ---       #1929
      01000774H   LINE      CODE     ---       #1933
      ---         BLOCKEND  ---      ---       LVL=0

      01000E2EH   BLOCK     CODE     NEAR LAB  LVL=0
      01000E2EH   LINE      CODE     ---       #1949
      01000E2FH   LINE      CODE     ---       #1950
      01000E31H   LINE      CODE     ---       #1951
      01000E32H   LINE      CODE     ---       #1952
      01000E33H   LINE      CODE     ---       #1953
      01000E34H   LINE      CODE     ---       #1954
      01000E35H   LINE      CODE     ---       #1955
      01000E36H   LINE      CODE     ---       #1958
      01000E37H   LINE      CODE     ---       #1959
      01000E39H   LINE      CODE     ---       #1960
      01000E3AH   LINE      CODE     ---       #1961
      01000E3BH   LINE      CODE     ---       #1962
      01000E3CH   LINE      CODE     ---       #1963
      01000E3DH   LINE      CODE     ---       #1964
      01000E3EH   LINE      CODE     ---       #1967
      01000E3FH   LINE      CODE     ---       #1968
      01000E41H   LINE      CODE     ---       #1969
      01000E42H   LINE      CODE     ---       #1970
      01000E43H   LINE      CODE     ---       #1971
      01000E44H   LINE      CODE     ---       #1975
      01000E46H   LINE      CODE     ---       #1976
      01000E48H   LINE      CODE     ---       #1977
      01000E49H   LINE      CODE     ---       #1978
      01000E4BH   LINE      CODE     ---       #1981
      01000E4CH   LINE      CODE     ---       #1982
      01000E4EH   LINE      CODE     ---       #1983
      01000E4FH   LINE      CODE     ---       #1984
      01000E51H   LINE      CODE     ---       #1985
      01000E52H   LINE      CODE     ---       #1986
      01000E54H   LINE      CODE     ---       #1989
      01000E55H   LINE      CODE     ---       #1990
      01000E57H   LINE      CODE     ---       #1991
      01000E58H   LINE      CODE     ---       #1992
      01000E5AH   LINE      CODE     ---       #1993
      01000E5BH   LINE      CODE     ---       #1994
      01000E5DH   LINE      CODE     ---       #1997
      01000E5EH   LINE      CODE     ---       #1998
      01000E60H   LINE      CODE     ---       #1999
      01000E61H   LINE      CODE     ---       #2000
      01000E63H   LINE      CODE     ---       #2001
      01000E64H   LINE      CODE     ---       #2002
      01000E66H   LINE      CODE     ---       #2005
      01000E67H   LINE      CODE     ---       #2006
      01000E69H   LINE      CODE     ---       #2007
      01000E6AH   LINE      CODE     ---       #2008
      01000E6CH   LINE      CODE     ---       #2009
      01000E6DH   LINE      CODE     ---       #2010
LX51 LINKER/LOCATER V4.34a                                                            05/14/2009  22:01:21  PAGE 33


      01000E6FH   LINE      CODE     ---       #2014
      01000E70H   LINE      CODE     ---       #2015
      01000E72H   LINE      CODE     ---       #2016
      01000E73H   LINE      CODE     ---       #2017
      01000E74H   LINE      CODE     ---       #2018
      01000E75H   LINE      CODE     ---       #2019
      01000E76H   LINE      CODE     ---       #2020
      01000E77H   LINE      CODE     ---       #2023
      01000E78H   LINE      CODE     ---       #2024
      01000E7AH   LINE      CODE     ---       #2025
      01000E7BH   LINE      CODE     ---       #2026
      01000E7CH   LINE      CODE     ---       #2027
      01000E7DH   LINE      CODE     ---       #2028
      01000E7EH   LINE      CODE     ---       #2029
      01000E7FH   LINE      CODE     ---       #2032
      ---         BLOCKEND  ---      ---       LVL=0

      01000C3EH   BLOCK     CODE     NEAR LAB  LVL=0
      01000C3EH   LINE      CODE     ---       #2043
      01000C40H   LINE      CODE     ---       #2054
      01000C42H   LINE      CODE     ---       #2055
      01000C43H   LINE      CODE     ---       #2056
      01000C45H   LINE      CODE     ---       #2057
      01000C46H   LINE      CODE     ---       #2058
      01000C47H   LINE      CODE     ---       #2059
      01000C48H   LINE      CODE     ---       #2060
      01000C4AH   LINE      CODE     ---       #2061
      01000C4CH   LINE      CODE     ---       #2062
      01000C4EH   LINE      CODE     ---       #2067
      01000C4FH   LINE      CODE     ---       #2068
      01000C51H   LINE      CODE     ---       #2069
      01000C52H   LINE      CODE     ---       #2070
      01000C53H   LINE      CODE     ---       #2071
      01000C54H   LINE      CODE     ---       #2072
      01000C55H   LINE      CODE     ---       #2073
      01000C57H   LINE      CODE     ---       #2074
      01000C59H   LINE      CODE     ---       #2075
      01000C5AH   LINE      CODE     ---       #2076
      01000C5BH   LINE      CODE     ---       #2077
      01000C5DH   LINE      CODE     ---       #2081
      01000C5FH   LINE      CODE     ---       #2082
      01000C61H   LINE      CODE     ---       #2083
      01000C62H   LINE      CODE     ---       #2084
      01000C63H   LINE      CODE     ---       #2085
      01000C64H   LINE      CODE     ---       #2086
      01000C66H   LINE      CODE     ---       #2087
      01000C68H   LINE      CODE     ---       #2088
      01000C6AH   LINE      CODE     ---       #2093
      01000C6CH   LINE      CODE     ---       #2094
      01000C6EH   LINE      CODE     ---       #2095
      01000C6FH   LINE      CODE     ---       #2096
      01000C70H   LINE      CODE     ---       #2097
      01000C71H   LINE      CODE     ---       #2098
      01000C72H   LINE      CODE     ---       #2099
      01000C74H   LINE      CODE     ---       #2100
      01000C76H   LINE      CODE     ---       #2101
      01000C77H   LINE      CODE     ---       #2102
      01000C78H   LINE      CODE     ---       #2103
      01000C79H   LINE      CODE     ---       #2104
      01000C7AH   LINE      CODE     ---       #2107
      01000C7CH   LINE      CODE     ---       #2112
      01000C7EH   LINE      CODE     ---       #2113
      01000C81H   LINE      CODE     ---       #2118
      01000C83H   LINE      CODE     ---       #2119
      01000C85H   LINE      CODE     ---       #2120
LX51 LINKER/LOCATER V4.34a                                                            05/14/2009  22:01:21  PAGE 34


      01000C86H   LINE      CODE     ---       #2121
      01000C87H   LINE      CODE     ---       #2122
      01000C88H   LINE      CODE     ---       #2123
      01000C8AH   LINE      CODE     ---       #2124
      01000C8CH   LINE      CODE     ---       #2125
      01000C8EH   LINE      CODE     ---       #2130
      01000C90H   LINE      CODE     ---       #2131
      01000C92H   LINE      CODE     ---       #2132
      01000C93H   LINE      CODE     ---       #2133
      01000C94H   LINE      CODE     ---       #2134
      01000C95H   LINE      CODE     ---       #2135
      01000C96H   LINE      CODE     ---       #2136
      01000C98H   LINE      CODE     ---       #2137
      01000C9AH   LINE      CODE     ---       #2138
      01000C9BH   LINE      CODE     ---       #2139
      01000C9CH   LINE      CODE     ---       #2140
      01000C9DH   LINE      CODE     ---       #2141
      01000C9EH   LINE      CODE     ---       #2144
      01000CA0H   LINE      CODE     ---       #2153
      01000CA2H   LINE      CODE     ---       #2154
      01000CA4H   LINE      CODE     ---       #2155
      01000CA5H   LINE      CODE     ---       #2156
      01000CA6H   LINE      CODE     ---       #2157
      01000CA7H   LINE      CODE     ---       #2158
      01000CA8H   LINE      CODE     ---       #2159
      01000CAAH   LINE      CODE     ---       #2160
      01000CACH   LINE      CODE     ---       #2161
      01000CADH   LINE      CODE     ---       #2162
      01000CAEH   LINE      CODE     ---       #2163
      01000CB0H   LINE      CODE     ---       #2167
      01000CB2H   LINE      CODE     ---       #2168
      01000CB4H   LINE      CODE     ---       #2169
      01000CB5H   LINE      CODE     ---       #2170
      01000CB6H   LINE      CODE     ---       #2171
      01000CB7H   LINE      CODE     ---       #2172
      01000CB9H   LINE      CODE     ---       #2173
      01000CBBH   LINE      CODE     ---       #2174
      01000CBDH   LINE      CODE     ---       #2179
      01000CBFH   LINE      CODE     ---       #2180
      01000CC1H   LINE      CODE     ---       #2181
      01000CC2H   LINE      CODE     ---       #2182
      01000CC3H   LINE      CODE     ---       #2183
      01000CC4H   LINE      CODE     ---       #2184
      01000CC5H   LINE      CODE     ---       #2185
      01000CC7H   LINE      CODE     ---       #2186
      01000CC9H   LINE      CODE     ---       #2187
      01000CCAH   LINE      CODE     ---       #2188
      01000CCBH   LINE      CODE     ---       #2189
      01000CCCH   LINE      CODE     ---       #2190
      01000CCDH   LINE      CODE     ---       #2193
      01000CCFH   LINE      CODE     ---       #2203
      01000CD1H   LINE      CODE     ---       #2204
      01000CD3H   LINE      CODE     ---       #2205
      01000CD4H   LINE      CODE     ---       #2206
      01000CD5H   LINE      CODE     ---       #2207
      01000CD6H   LINE      CODE     ---       #2208
      01000CD7H   LINE      CODE     ---       #2209
      01000CD8H   LINE      CODE     ---       #2210
      01000CDAH   LINE      CODE     ---       #2212
      01000CDBH   LINE      CODE     ---       #2213
      01000CDCH   LINE      CODE     ---       #2214
      01000CDDH   LINE      CODE     ---       #2215
      01000CDEH   LINE      CODE     ---       #2216
      01000CDFH   LINE      CODE     ---       #2217
      01000CE1H   LINE      CODE     ---       #2218
LX51 LINKER/LOCATER V4.34a                                                            05/14/2009  22:01:21  PAGE 35


      01000CE2H   LINE      CODE     ---       #2219
      01000CE4H   LINE      CODE     ---       #2220
      01000CE6H   LINE      CODE     ---       #2221
      01000CE7H   LINE      CODE     ---       #2222
      01000CE9H   LINE      CODE     ---       #2225
      01000CEBH   LINE      CODE     ---       #2226
      01000CEDH   LINE      CODE     ---       #2227
      01000CEEH   LINE      CODE     ---       #2228
      01000CEFH   LINE      CODE     ---       #2229
      01000CF0H   LINE      CODE     ---       #2230
      01000CF1H   LINE      CODE     ---       #2231
      01000CF2H   LINE      CODE     ---       #2232
      01000CF4H   LINE      CODE     ---       #2234
      01000CF5H   LINE      CODE     ---       #2235
      01000CF6H   LINE      CODE     ---       #2236
      01000CF7H   LINE      CODE     ---       #2237
      01000CF8H   LINE      CODE     ---       #2238
      01000CF9H   LINE      CODE     ---       #2239
      01000CFBH   LINE      CODE     ---       #2240
      01000CFCH   LINE      CODE     ---       #2241
      01000CFEH   LINE      CODE     ---       #2242
      01000D00H   LINE      CODE     ---       #2243
      01000D01H   LINE      CODE     ---       #2244
      01000D03H   LINE      CODE     ---       #2247
      01000D05H   LINE      CODE     ---       #2248
      01000D07H   LINE      CODE     ---       #2249
      01000D08H   LINE      CODE     ---       #2250
      01000D09H   LINE      CODE     ---       #2251
      01000D0AH   LINE      CODE     ---       #2252
      01000D0CH   LINE      CODE     ---       #2253
      01000D0EH   LINE      CODE     ---       #2254
      01000D0FH   LINE      CODE     ---       #2255
      01000D11H   LINE      CODE     ---       #2258
      01000D13H   LINE      CODE     ---       #2259
      01000D15H   LINE      CODE     ---       #2260
      01000D16H   LINE      CODE     ---       #2261
      01000D17H   LINE      CODE     ---       #2262
      01000D18H   LINE      CODE     ---       #2263
      01000D1AH   LINE      CODE     ---       #2264
      01000D1CH   LINE      CODE     ---       #2265
      01000D1DH   LINE      CODE     ---       #2266
      01000D1FH   LINE      CODE     ---       #2269
      01000D21H   LINE      CODE     ---       #2270
      01000D23H   LINE      CODE     ---       #2271
      01000D24H   LINE      CODE     ---       #2272
      01000D25H   LINE      CODE     ---       #2273
      01000D26H   LINE      CODE     ---       #2274
      01000D27H   LINE      CODE     ---       #2275
      01000D28H   LINE      CODE     ---       #2276
      01000D2AH   LINE      CODE     ---       #2278
      01000D2BH   LINE      CODE     ---       #2279
      01000D2CH   LINE      CODE     ---       #2280
      01000D2DH   LINE      CODE     ---       #2281
      01000D2EH   LINE      CODE     ---       #2282
      01000D2FH   LINE      CODE     ---       #2283
      01000D31H   LINE      CODE     ---       #2284
      01000D32H   LINE      CODE     ---       #2285
      01000D34H   LINE      CODE     ---       #2286
      01000D36H   LINE      CODE     ---       #2287
      01000D37H   LINE      CODE     ---       #2288
      01000D39H   LINE      CODE     ---       #2291
      01000D3BH   LINE      CODE     ---       #2292
      01000D3DH   LINE      CODE     ---       #2293
      01000D3EH   LINE      CODE     ---       #2294
      01000D3FH   LINE      CODE     ---       #2295
LX51 LINKER/LOCATER V4.34a                                                            05/14/2009  22:01:21  PAGE 36


      01000D40H   LINE      CODE     ---       #2296
      01000D41H   LINE      CODE     ---       #2297
      01000D42H   LINE      CODE     ---       #2298
      01000D44H   LINE      CODE     ---       #2300
      01000D45H   LINE      CODE     ---       #2301
      01000D46H   LINE      CODE     ---       #2302
      01000D47H   LINE      CODE     ---       #2303
      01000D48H   LINE      CODE     ---       #2304
      01000D49H   LINE      CODE     ---       #2305
      01000D4BH   LINE      CODE     ---       #2306
      01000D4CH   LINE      CODE     ---       #2307
      01000D4EH   LINE      CODE     ---       #2308
      01000D50H   LINE      CODE     ---       #2309
      01000D51H   LINE      CODE     ---       #2310
      01000D53H   LINE      CODE     ---       #2313
      01000D55H   LINE      CODE     ---       #2314
      01000D57H   LINE      CODE     ---       #2315
      01000D58H   LINE      CODE     ---       #2316
      01000D59H   LINE      CODE     ---       #2317
      01000D5AH   LINE      CODE     ---       #2318
      01000D5CH   LINE      CODE     ---       #2319
      01000D5EH   LINE      CODE     ---       #2320
      01000D5FH   LINE      CODE     ---       #2321
      01000D61H   LINE      CODE     ---       #2324
      01000D63H   LINE      CODE     ---       #2325
      01000D65H   LINE      CODE     ---       #2326
      01000D66H   LINE      CODE     ---       #2327
      01000D67H   LINE      CODE     ---       #2328
      01000D68H   LINE      CODE     ---       #2329
      01000D6AH   LINE      CODE     ---       #2330
      01000D6CH   LINE      CODE     ---       #2331
      01000D6DH   LINE      CODE     ---       #2332
      01000D6FH   LINE      CODE     ---       #2336
      01000D71H   LINE      CODE     ---       #2337
      ---         BLOCKEND  ---      ---       LVL=0

      01001004H   BLOCK     CODE     NEAR LAB  LVL=0
      01001004H   LINE      CODE     ---       #2349
      01001006H   LINE      CODE     ---       #2355
      01001008H   LINE      CODE     ---       #2356
      01001009H   LINE      CODE     ---       #2357
      0100100BH   LINE      CODE     ---       #2358
      0100100CH   LINE      CODE     ---       #2359
      0100100DH   LINE      CODE     ---       #2360
      0100100EH   LINE      CODE     ---       #2361
      0100100FH   LINE      CODE     ---       #2362
      01001011H   LINE      CODE     ---       #2367
      01001012H   LINE      CODE     ---       #2368
      01001013H   LINE      CODE     ---       #2369
      01001014H   LINE      CODE     ---       #2370
      01001015H   LINE      CODE     ---       #2377
      01001017H   LINE      CODE     ---       #2378
      01001019H   LINE      CODE     ---       #2379
      0100101AH   LINE      CODE     ---       #2380
      0100101BH   LINE      CODE     ---       #2381
      0100101CH   LINE      CODE     ---       #2382
      0100101DH   LINE      CODE     ---       #2383
      0100101FH   LINE      CODE     ---       #2388
      01001021H   LINE      CODE     ---       #2389
      01001024H   LINE      CODE     ---       #2392
      01001026H   LINE      CODE     ---       #2393
      01001028H   LINE      CODE     ---       #2394
      01001029H   LINE      CODE     ---       #2395
      0100102BH   LINE      CODE     ---       #2396
      0100102CH   LINE      CODE     ---       #2397
LX51 LINKER/LOCATER V4.34a                                                            05/14/2009  22:01:21  PAGE 37


      0100102EH   LINE      CODE     ---       #2404
      01001030H   LINE      CODE     ---       #2405
      01001032H   LINE      CODE     ---       #2409
      ---         BLOCKEND  ---      ---       LVL=0

      01000D74H   BLOCK     CODE     NEAR LAB  LVL=0
      01000D74H   LINE      CODE     ---       #2420
      01000D76H   LINE      CODE     ---       #2421
      01000D78H   LINE      CODE     ---       #2422
      01000D7AH   LINE      CODE     ---       #2423
      01000D7CH   LINE      CODE     ---       #2428
      01000D7EH   LINE      CODE     ---       #2429
      01000D80H   LINE      CODE     ---       #2430
      01000D82H   LINE      CODE     ---       #2431
      01000D85H   LINE      CODE     ---       #2441
      01000D87H   LINE      CODE     ---       #2442
      01000D89H   LINE      CODE     ---       #2443
      01000D8AH   LINE      CODE     ---       #2444
      01000D8BH   LINE      CODE     ---       #2445
      01000D8CH   LINE      CODE     ---       #2446
      01000D8DH   LINE      CODE     ---       #2447
      01000D8FH   LINE      CODE     ---       #2448
      01000D91H   LINE      CODE     ---       #2449
      01000D93H   LINE      CODE     ---       #2450
      01000D94H   LINE      CODE     ---       #2451
      01000D95H   LINE      CODE     ---       #2452
      01000D96H   LINE      CODE     ---       #2453
      01000D97H   LINE      CODE     ---       #2454
      01000D99H   LINE      CODE     ---       #2460
      01000D9BH   LINE      CODE     ---       #2461
      01000D9DH   LINE      CODE     ---       #2462
      01000D9EH   LINE      CODE     ---       #2463
      01000DA0H   LINE      CODE     ---       #2464
      01000DA1H   LINE      CODE     ---       #2465
      01000DA3H   LINE      CODE     ---       #2466
      01000DA4H   LINE      CODE     ---       #2474
      01000DA6H   LINE      CODE     ---       #2475
      01000DA8H   LINE      CODE     ---       #2476
      01000DAAH   LINE      CODE     ---       #2477
      01000DACH   LINE      CODE     ---       #2478
      01000DAEH   LINE      CODE     ---       #2480
      01000DAFH   LINE      CODE     ---       #2481
      01000DB1H   LINE      CODE     ---       #2482
      01000DB3H   LINE      CODE     ---       #2483
      01000DB5H   LINE      CODE     ---       #2484
      01000DB6H   LINE      CODE     ---       #2485
      01000DB7H   LINE      CODE     ---       #2486
      01000DB8H   LINE      CODE     ---       #2487
      01000DB9H   LINE      CODE     ---       #2488
      01000DBBH   LINE      CODE     ---       #2493
      01000DBDH   LINE      CODE     ---       #2494
      01000DBEH   LINE      CODE     ---       #2495
      01000DBFH   LINE      CODE     ---       #2496
      01000DC1H   LINE      CODE     ---       #2497
      01000DC3H   LINE      CODE     ---       #2498
      01000DC4H   LINE      CODE     ---       #2499
      01000DC5H   LINE      CODE     ---       #2500
      01000DC6H   LINE      CODE     ---       #2501
      01000DC7H   LINE      CODE     ---       #2502
      01000DC9H   LINE      CODE     ---       #2503
      01000DCBH   LINE      CODE     ---       #2504
      01000DCCH   LINE      CODE     ---       #2505
      01000DCDH   LINE      CODE     ---       #2506
      01000DCFH   LINE      CODE     ---       #2510
      01000DD1H   LINE      CODE     ---       #2511
LX51 LINKER/LOCATER V4.34a                                                            05/14/2009  22:01:21  PAGE 38


      01000DD3H   LINE      CODE     ---       #2512
      01000DD4H   LINE      CODE     ---       #2513
      01000DD6H   LINE      CODE     ---       #2514
      01000DD7H   LINE      CODE     ---       #2515
      01000DD8H   LINE      CODE     ---       #2516
      01000DD9H   LINE      CODE     ---       #2517
      01000DDAH   LINE      CODE     ---       #2518
      01000DDBH   LINE      CODE     ---       #2519
      01000DDCH   LINE      CODE     ---       #2523
      01000DDEH   LINE      CODE     ---       #2524
      01000DE0H   LINE      CODE     ---       #2525
      01000DE1H   LINE      CODE     ---       #2526
      01000DE2H   LINE      CODE     ---       #2527
      01000DE3H   LINE      CODE     ---       #2528
      01000DE4H   LINE      CODE     ---       #2529
      01000DE5H   LINE      CODE     ---       #2530
      01000DE6H   LINE      CODE     ---       #2533
      01000DE8H   LINE      CODE     ---       #2534
      01000DEAH   LINE      CODE     ---       #2535
      01000DEBH   LINE      CODE     ---       #2536
      01000DECH   LINE      CODE     ---       #2537
      01000DEDH   LINE      CODE     ---       #2538
      01000DEEH   LINE      CODE     ---       #2539
      01000DF0H   LINE      CODE     ---       #2544
      01000DF2H   LINE      CODE     ---       #2545
      01000DF4H   LINE      CODE     ---       #2546
      01000DF5H   LINE      CODE     ---       #2547
      01000DF6H   LINE      CODE     ---       #2548
      01000DF7H   LINE      CODE     ---       #2549
      01000DF8H   LINE      CODE     ---       #2550
      01000DF9H   LINE      CODE     ---       #2551
      01000DFBH   LINE      CODE     ---       #2552
      01000DFCH   LINE      CODE     ---       #2557
      01000DFEH   LINE      CODE     ---       #2558
      01000E00H   LINE      CODE     ---       #2559
      01000E01H   LINE      CODE     ---       #2560
      01000E02H   LINE      CODE     ---       #2561
      01000E03H   LINE      CODE     ---       #2562
      01000E04H   LINE      CODE     ---       #2563
      01000E05H   LINE      CODE     ---       #2564
      01000E06H   LINE      CODE     ---       #2567
      01000E08H   LINE      CODE     ---       #2568
      01000E0AH   LINE      CODE     ---       #2569
      01000E0BH   LINE      CODE     ---       #2570
      01000E0CH   LINE      CODE     ---       #2571
      01000E0DH   LINE      CODE     ---       #2572
      01000E0EH   LINE      CODE     ---       #2573
      01000E10H   LINE      CODE     ---       #2579
      01000E12H   LINE      CODE     ---       #2580
      01000E14H   LINE      CODE     ---       #2581
      01000E15H   LINE      CODE     ---       #2582
      01000E17H   LINE      CODE     ---       #2583
      01000E18H   LINE      CODE     ---       #2584
      01000E1AH   LINE      CODE     ---       #2593
      01000E1CH   LINE      CODE     ---       #2594
      01000E1EH   LINE      CODE     ---       #2595
      01000E1FH   LINE      CODE     ---       #2596
      01000E20H   LINE      CODE     ---       #2597
      01000E23H   LINE      CODE     ---       #2602
      01000E25H   LINE      CODE     ---       #2603
      01000E28H   LINE      CODE     ---       #2610
      01000E2AH   LINE      CODE     ---       #2613
      01000E2DH   LINE      CODE     ---       #2617
      ---         BLOCKEND  ---      ---       LVL=0

LX51 LINKER/LOCATER V4.34a                                                            05/14/2009  22:01:21  PAGE 39


      01000EC9H   BLOCK     CODE     NEAR LAB  LVL=0
      01000EC9H   LINE      CODE     ---       #2636
      01000ECBH   LINE      CODE     ---       #2637
      01000ECDH   LINE      CODE     ---       #2638
      01000ED0H   LINE      CODE     ---       #2642
      01000ED3H   LINE      CODE     ---       #2645
      01000ED6H   LINE      CODE     ---       #2649
      01000ED8H   LINE      CODE     ---       #2650
      01000EDAH   LINE      CODE     ---       #2651
      01000EDDH   LINE      CODE     ---       #2656
      01000EDEH   LINE      CODE     ---       #2657
      01000EE0H   LINE      CODE     ---       #2658
      01000EE1H   LINE      CODE     ---       #2664
      01000EE4H   LINE      CODE     ---       #2667
      01000EE6H   LINE      CODE     ---       #2668
      01000EE8H   LINE      CODE     ---       #2669
      01000EEBH   LINE      CODE     ---       #2672
      01000EEDH   LINE      CODE     ---       #2673
      01000EEEH   LINE      CODE     ---       #2674
      01000EEFH   LINE      CODE     ---       #2675
      01000EF0H   LINE      CODE     ---       #2676
      01000EF2H   LINE      CODE     ---       #2677
      01000EF4H   LINE      CODE     ---       #2678
      01000EF6H   LINE      CODE     ---       #2687
      01000EF8H   LINE      CODE     ---       #2688
      01000EFBH   LINE      CODE     ---       #2691
      01000EFDH   LINE      CODE     ---       #2692
      01000EFFH   LINE      CODE     ---       #2693
      01000F01H   LINE      CODE     ---       #2694
      01000F04H   LINE      CODE     ---       #2698
      01000F06H   LINE      CODE     ---       #2699
      01000F09H   LINE      CODE     ---       #2702
      01000F0CH   LINE      CODE     ---       #2705
      ---         BLOCKEND  ---      ---       LVL=0

      ---         MODULE    ---      ---       ECO_PAGE
      0000000DH   PUBLIC    DATA     BYTE      ECO_PAGE_ADDR
      010010B9H   PUBLIC    CODE     NEAR LAB  ECO_PAGE_INIT
      01000A35H   PUBLIC    CODE     NEAR LAB  ECO_PAGE_MANAGER
      00000009H   PUBLIC    DATA     BYTE      ECO_PAGE_PREV_PID
      0000000BH   PUBLIC    DATA     BYTE      ECO_PAGE_PREV_VID
      000000A7H   PUBLIC    IDATA    BYTE      ECO_PAGE_REGISTER1
      000000A8H   PUBLIC    IDATA    BYTE      ECO_PAGE_REGISTER2
      000000A9H   PUBLIC    IDATA    BYTE      ECO_PAGE_REGISTER3
      000000AAH   PUBLIC    IDATA    BYTE      ECO_PAGE_REGISTER4
      000000ABH   PUBLIC    IDATA    BYTE      ECO_PAGE_REGISTER5
      000000ACH   PUBLIC    IDATA    BYTE      ECO_PAGE_REGISTER6
      000000ADH   PUBLIC    IDATA    BYTE      ECO_PAGE_REGISTER7
      00000008H   PUBLIC    DATA     BYTE      ECO_PAGE_SPI_CONN
      0000009BH   PUBLIC    IDATA    BYTE      ECO_PAGE_TABLE
      0000000FH   PUBLIC    DATA     BYTE      ECO_PAGE_TABLE_INDEX
      000000D0H.6 SFRSYM    DATA     BIT       AC
      000000E0H   SFRSYM    DATA     BYTE      ACC
      000000A1H   SFRSYM    DATA     BYTE      ADCCON
      000000A2H   SFRSYM    DATA     BYTE      ADCDATAH
      000000A3H   SFRSYM    DATA     BYTE      ADCDATAL
      000000A4H   SFRSYM    DATA     BYTE      ADCSTATIC
      000000F0H   SFRSYM    DATA     BYTE      B
      000000C8H.1 SFRSYM    DATA     BIT       C_T2
      000000A0H.6 SFRSYM    DATA     BIT       CE
      000000B6H   SFRSYM    DATA     BYTE      CK_CTRL
      0000008EH   SFRSYM    DATA     BYTE      CKCON
      000000A0H.1 SFRSYM    DATA     BIT       CLK1
      000000A0H.5 SFRSYM    DATA     BIT       CLK2
      000000C8H   SFRSYM    DATA     BIT       CP_RL2
LX51 LINKER/LOCATER V4.34a                                                            05/14/2009  22:01:21  PAGE 40


      000000C8H   SFRSYM    DATA     BIT       CPRL2
      000000A0H.3 SFRSYM    DATA     BIT       CS
      000000C8H.1 SFRSYM    DATA     BIT       CT2
      000000D0H.7 SFRSYM    DATA     BIT       CY
      000000A0H   SFRSYM    DATA     BIT       DATA?
      000000BEH   SFRSYM    DATA     BYTE      DEV_OFFSET
      00000090H.2 SFRSYM    DATA     BIT       DIN0
      00000090H   SFRSYM    DATA     BIT       DIO0
      00000090H.1 SFRSYM    DATA     BIT       DIO1
      00000080H   SFRSYM    DATA     BIT       DIO2
      00000080H.1 SFRSYM    DATA     BIT       DIO3
      00000080H.2 SFRSYM    DATA     BIT       DIO4
      00000080H.3 SFRSYM    DATA     BIT       DIO5
      00000080H.4 SFRSYM    DATA     BIT       DIO6
      00000080H.5 SFRSYM    DATA     BIT       DIO7
      00000080H.6 SFRSYM    DATA     BIT       DIO8
      00000080H.7 SFRSYM    DATA     BIT       DIO9
      000000A0H.4 SFRSYM    DATA     BIT       DOUT2
      00000083H   SFRSYM    DATA     BYTE      DPH
      00000083H   SFRSYM    DATA     BYTE      DPH0
      00000085H   SFRSYM    DATA     BYTE      DPH1
      00000082H   SFRSYM    DATA     BYTE      DPL
      00000082H   SFRSYM    DATA     BYTE      DPL0
      00000084H   SFRSYM    DATA     BYTE      DPL1
      00000086H   SFRSYM    DATA     BYTE      DPS
      000000A0H.2 SFRSYM    DATA     BIT       DR1
      000000A0H.6 SFRSYM    DATA     BIT       DR2
      000000A0H.6 SFRSYM    DATA     BIT       DR2_CE
      000000A8H.7 SFRSYM    DATA     BIT       EA
      000000D8H   SFRSYM    DATA     BYTE      EICON
      000000E8H   SFRSYM    DATA     BYTE      EIE
      000000F8H   SFRSYM    DATA     BYTE      EIP
      000000A8H.4 SFRSYM    DATA     BIT       ES
      000000A8H.1 SFRSYM    DATA     BIT       ET0
      000000A8H.3 SFRSYM    DATA     BIT       ET1
      000000A8H.5 SFRSYM    DATA     BIT       ET2
      000000E8H.4 SFRSYM    DATA     BIT       EWDI
      000000A8H   SFRSYM    DATA     BIT       EX0
      000000A8H.2 SFRSYM    DATA     BIT       EX1
      000000E8H   SFRSYM    DATA     BIT       EX2
      000000E8H.1 SFRSYM    DATA     BIT       EX3
      000000E8H.2 SFRSYM    DATA     BIT       EX4
      000000E8H.3 SFRSYM    DATA     BIT       EX5
      000000C8H.3 SFRSYM    DATA     BIT       EXEN2
      000000C8H.6 SFRSYM    DATA     BIT       EXF2
      00000091H   SFRSYM    DATA     BYTE      EXIF
      000000D0H.5 SFRSYM    DATA     BIT       F0
      000000D0H.1 SFRSYM    DATA     BIT       F1
      000000A8H   SFRSYM    DATA     BYTE      IE
      00000088H.1 SFRSYM    DATA     BIT       IE0
      00000088H.3 SFRSYM    DATA     BIT       IE1
      00000080H.3 SFRSYM    DATA     BIT       INT0_N
      00000080H.4 SFRSYM    DATA     BIT       INT1_N
      000000B8H   SFRSYM    DATA     BYTE      IP
      00000088H   SFRSYM    DATA     BIT       IT0
      00000088H.2 SFRSYM    DATA     BIT       IT1
      00000092H   SFRSYM    DATA     BYTE      MPAGE
      000000D0H.2 SFRSYM    DATA     BIT       OV
      000000D0H   SFRSYM    DATA     BIT       P
      00000080H   SFRSYM    DATA     BYTE      P0
      00000080H   SFRSYM    DATA     BIT       P0_0
      00000080H.1 SFRSYM    DATA     BIT       P0_1
      00000080H.2 SFRSYM    DATA     BIT       P0_2
      00000080H.3 SFRSYM    DATA     BIT       P0_3
      00000080H.4 SFRSYM    DATA     BIT       P0_4
LX51 LINKER/LOCATER V4.34a                                                            05/14/2009  22:01:21  PAGE 41


      00000080H.5 SFRSYM    DATA     BIT       P0_5
      00000080H.6 SFRSYM    DATA     BIT       P0_6
      00000080H.7 SFRSYM    DATA     BIT       P0_7
      00000095H   SFRSYM    DATA     BYTE      P0_ALT
      00000094H   SFRSYM    DATA     BYTE      P0_DIR
      00000090H   SFRSYM    DATA     BYTE      P1
      00000090H   SFRSYM    DATA     BIT       P1_0
      00000090H.1 SFRSYM    DATA     BIT       P1_1
      00000090H.2 SFRSYM    DATA     BIT       P1_2
      00000097H   SFRSYM    DATA     BYTE      P1_ALT
      00000096H   SFRSYM    DATA     BYTE      P1_DIR
      00000087H   SFRSYM    DATA     BYTE      PCON
      000000B8H.4 SFRSYM    DATA     BIT       PS
      000000D0H   SFRSYM    DATA     BYTE      PSW
      000000B8H.1 SFRSYM    DATA     BIT       PT0
      000000B8H.3 SFRSYM    DATA     BIT       PT1
      000000B8H.5 SFRSYM    DATA     BIT       PT2
      000000F8H.4 SFRSYM    DATA     BIT       PWDI
      00000080H.7 SFRSYM    DATA     BIT       PWM
      000000A9H   SFRSYM    DATA     BYTE      PWMCON
      000000AAH   SFRSYM    DATA     BYTE      PWMDUTY
      000000A0H.7 SFRSYM    DATA     BIT       PWR_UP
      000000B8H   SFRSYM    DATA     BIT       PX0
      000000B8H.2 SFRSYM    DATA     BIT       PX1
      000000F8H   SFRSYM    DATA     BIT       PX2
      000000F8H.1 SFRSYM    DATA     BIT       PX3
      000000F8H.2 SFRSYM    DATA     BIT       PX4
      000000F8H.3 SFRSYM    DATA     BIT       PX5
      000000A0H   SFRSYM    DATA     BYTE      RADIO
      00000098H.2 SFRSYM    DATA     BIT       RB8
      000000CBH   SFRSYM    DATA     BYTE      RCAP2H
      000000CAH   SFRSYM    DATA     BYTE      RCAP2L
      000000C8H.5 SFRSYM    DATA     BIT       RCLK
      000000ADH   SFRSYM    DATA     BYTE      REGX_CTRL
      000000ACH   SFRSYM    DATA     BYTE      REGX_LSB
      000000ABH   SFRSYM    DATA     BYTE      REGX_MSB
      00000098H.4 SFRSYM    DATA     BIT       REN
      00000098H   SFRSYM    DATA     BIT       RI
      000000D0H.3 SFRSYM    DATA     BIT       RS0
      000000D0H.4 SFRSYM    DATA     BIT       RS1
      000000B1H   SFRSYM    DATA     BYTE      RSTREAS
      00000080H.1 SFRSYM    DATA     BIT       RXD
      00000099H   SFRSYM    DATA     BYTE      SBUF
      00000098H   SFRSYM    DATA     BYTE      SCON
      00000098H.7 SFRSYM    DATA     BIT       SM0
      00000098H.6 SFRSYM    DATA     BIT       SM1
      00000098H.5 SFRSYM    DATA     BIT       SM2
      00000081H   SFRSYM    DATA     BYTE      SP
      0000008FH   SFRSYM    DATA     BYTE      SPC_FNC
      000000B3H   SFRSYM    DATA     BYTE      SPI_CTRL
      000000B2H   SFRSYM    DATA     BYTE      SPI_DATA
      000000B4H   SFRSYM    DATA     BYTE      SPICLK
      00000080H.5 SFRSYM    DATA     BIT       T0
      00000080H.6 SFRSYM    DATA     BIT       T1
      000000BCH   SFRSYM    DATA     BYTE      T1_1V2
      00000090H   SFRSYM    DATA     BIT       T2
      000000BDH   SFRSYM    DATA     BYTE      T2_1V2
      000000C8H   SFRSYM    DATA     BYTE      T2CON
      00000098H.3 SFRSYM    DATA     BIT       TB8
      000000C8H.4 SFRSYM    DATA     BIT       TCLK
      00000088H   SFRSYM    DATA     BYTE      TCON
      000000B7H   SFRSYM    DATA     BYTE      TEST_MODE
      00000088H.5 SFRSYM    DATA     BIT       TF0
      00000088H.7 SFRSYM    DATA     BIT       TF1
      000000C8H.7 SFRSYM    DATA     BIT       TF2
LX51 LINKER/LOCATER V4.34a                                                            05/14/2009  22:01:21  PAGE 42


      0000008CH   SFRSYM    DATA     BYTE      TH0
      0000008DH   SFRSYM    DATA     BYTE      TH1
      000000CDH   SFRSYM    DATA     BYTE      TH2
      00000098H.1 SFRSYM    DATA     BIT       TI
      000000B5H   SFRSYM    DATA     BYTE      TICK_DV
      0000008AH   SFRSYM    DATA     BYTE      TL0
      0000008BH   SFRSYM    DATA     BYTE      TL1
      000000CCH   SFRSYM    DATA     BYTE      TL2
      00000089H   SFRSYM    DATA     BYTE      TMOD
      00000088H.4 SFRSYM    DATA     BIT       TR0
      00000088H.6 SFRSYM    DATA     BIT       TR1
      000000C8H.2 SFRSYM    DATA     BIT       TR2
      00000080H.2 SFRSYM    DATA     BIT       TXD
      000000D8H.3 SFRSYM    DATA     BIT       WDTI
      01000A97H   SYMBOL    CODE     NEAR LAB  ?C0002
      01000A9DH   SYMBOL    CODE     NEAR LAB  ?C0003
      01000AE0H   SYMBOL    CODE     NEAR LAB  ?C0004
      01000AD6H   SYMBOL    CODE     NEAR LAB  ?C0005
      01000B5AH   SYMBOL    CODE     NEAR LAB  ?C0007
      01000B79H   SYMBOL    CODE     NEAR LAB  ?C0009
      01000BB4H   SYMBOL    CODE     NEAR LAB  ?C0010
      01000C3DH   SYMBOL    CODE     NEAR LAB  ?C0012
      01000A42H   SYMBOL    CODE     NEAR LAB  ?C0013
      01000A50H   SYMBOL    CODE     NEAR LAB  ?C0014
      01000A5BH   SYMBOL    CODE     NEAR LAB  ?C0015
      01000AB8H   SYMBOL    CODE     NEAR LAB  ?C0016
      01000AC5H   SYMBOL    CODE     NEAR LAB  ?C0017
      01000ADEH   SYMBOL    CODE     NEAR LAB  ?C0018
      01000AECH   SYMBOL    CODE     NEAR LAB  ?C0019
      01000AF7H   SYMBOL    CODE     NEAR LAB  ?C0020
      01000B0CH   SYMBOL    CODE     NEAR LAB  ?C0021
      01000B27H   SYMBOL    CODE     NEAR LAB  ?C0022
      01000B65H   SYMBOL    CODE     NEAR LAB  ?C0023
      01000BB2H   SYMBOL    CODE     NEAR LAB  ?C0024
      01000BBAH   SYMBOL    CODE     NEAR LAB  ?C0025
      01000BE0H   SYMBOL    CODE     NEAR LAB  ?C0026
      01000BFBH   SYMBOL    CODE     NEAR LAB  ?C0027
      00000029H   SYMBOL    DATA     BYTE      ?ECO_PAGE_MANAGER?BYTE
      000000AEH   SYMBOL    IDATA    BYTE      I?141
      000000B0H   SYMBOL    IDATA    BYTE      PAGE_INDEX?142
      00000029H   SYMBOL    DATA     BYTE      SEG?140

      010010B9H   BLOCK     CODE     NEAR LAB  LVL=0
      010010B9H   LINE      CODE     ---       #320
      010010BAH   LINE      CODE     ---       #321
      010010BCH   LINE      CODE     ---       #324
      010010BEH   LINE      CODE     ---       #325
      010010C0H   LINE      CODE     ---       #328
      010010C2H   LINE      CODE     ---       #329
      010010C4H   LINE      CODE     ---       #332
      010010C6H   LINE      CODE     ---       #333
      010010C8H   LINE      CODE     ---       #336
      ---         BLOCKEND  ---      ---       LVL=0

      01000A35H   BLOCK     CODE     NEAR LAB  LVL=0
      01000A35H   LINE      CODE     ---       #551
      01000A37H   LINE      CODE     ---       #552
      01000A39H   LINE      CODE     ---       #553
      01000A3AH   LINE      CODE     ---       #554
      01000A3BH   LINE      CODE     ---       #555
      01000A3CH   LINE      CODE     ---       #568
      01000A3EH   LINE      CODE     ---       #569
      01000A40H   LINE      CODE     ---       #570
      01000A42H   LINE      CODE     ---       #572
      01000A43H   LINE      CODE     ---       #573
LX51 LINKER/LOCATER V4.34a                                                            05/14/2009  22:01:21  PAGE 43


      01000A44H   LINE      CODE     ---       #574
      01000A45H   LINE      CODE     ---       #575
      01000A46H   LINE      CODE     ---       #576
      01000A47H   LINE      CODE     ---       #577
      01000A49H   LINE      CODE     ---       #578
      01000A4BH   LINE      CODE     ---       #579
      01000A4DH   LINE      CODE     ---       #580
      01000A4EH   LINE      CODE     ---       #581
      01000A50H   LINE      CODE     ---       #583
      01000A52H   LINE      CODE     ---       #584
      01000A55H   LINE      CODE     ---       #590
      01000A57H   LINE      CODE     ---       #591
      01000A59H   LINE      CODE     ---       #592
      01000A5BH   LINE      CODE     ---       #594
      01000A5CH   LINE      CODE     ---       #595
      01000A5DH   LINE      CODE     ---       #596
      01000A5EH   LINE      CODE     ---       #597
      01000A5FH   LINE      CODE     ---       #598
      01000A60H   LINE      CODE     ---       #599
      01000A62H   LINE      CODE     ---       #600
      01000A63H   LINE      CODE     ---       #601
      01000A65H   LINE      CODE     ---       #602
      01000A67H   LINE      CODE     ---       #603
      01000A69H   LINE      CODE     ---       #604
      01000A6AH   LINE      CODE     ---       #605
      01000A6CH   LINE      CODE     ---       #606
      01000A6DH   LINE      CODE     ---       #607
      01000A6EH   LINE      CODE     ---       #608
      01000A70H   LINE      CODE     ---       #613
      01000A72H   LINE      CODE     ---       #615
      01000A73H   LINE      CODE     ---       #617
      01000A74H   LINE      CODE     ---       #621
      01000A76H   LINE      CODE     ---       #623
      01000A77H   LINE      CODE     ---       #625
      01000A78H   LINE      CODE     ---       #629
      01000A7AH   LINE      CODE     ---       #631
      01000A7BH   LINE      CODE     ---       #633
      01000A7CH   LINE      CODE     ---       #637
      01000A7EH   LINE      CODE     ---       #639
      01000A7FH   LINE      CODE     ---       #641
      01000A80H   LINE      CODE     ---       #645
      01000A82H   LINE      CODE     ---       #647
      01000A83H   LINE      CODE     ---       #649
      01000A84H   LINE      CODE     ---       #653
      01000A86H   LINE      CODE     ---       #655
      01000A87H   LINE      CODE     ---       #657
      01000A88H   LINE      CODE     ---       #661
      01000A8AH   LINE      CODE     ---       #663
      01000A8BH   LINE      CODE     ---       #665
      01000A8CH   LINE      CODE     ---       #671
      01000A8FH   LINE      CODE     ---       #673
      01000A92H   LINE      CODE     ---       #675
      01000A95H   LINE      CODE     ---       #679
      01000A96H   LINE      CODE     ---       #681
      01000A97H   LINE      CODE     ---       #690
      01000A98H   LINE      CODE     ---       #691
      01000A9AH   LINE      CODE     ---       #692
      01000A9BH   LINE      CODE     ---       #693
      01000A9CH   LINE      CODE     ---       #694
      01000A9DH   LINE      CODE     ---       #696
      01000A9FH   LINE      CODE     ---       #697
      01000AA0H   LINE      CODE     ---       #698
      01000AA1H   LINE      CODE     ---       #699
      01000AA2H   LINE      CODE     ---       #700
      01000AA3H   LINE      CODE     ---       #701
LX51 LINKER/LOCATER V4.34a                                                            05/14/2009  22:01:21  PAGE 44


      01000AA4H   LINE      CODE     ---       #702
      01000AA5H   LINE      CODE     ---       #703
      01000AA7H   LINE      CODE     ---       #704
      01000AA8H   LINE      CODE     ---       #705
      01000AAAH   LINE      CODE     ---       #706
      01000AACH   LINE      CODE     ---       #711
      01000AADH   LINE      CODE     ---       #712
      01000AAFH   LINE      CODE     ---       #713
      01000AB1H   LINE      CODE     ---       #714
      01000AB2H   LINE      CODE     ---       #715
      01000AB4H   LINE      CODE     ---       #716
      01000AB6H   LINE      CODE     ---       #717
      01000AB8H   LINE      CODE     ---       #719
      01000AB9H   LINE      CODE     ---       #720
      01000ABAH   LINE      CODE     ---       #721
      01000ABBH   LINE      CODE     ---       #722
      01000ABCH   LINE      CODE     ---       #723
      01000ABDH   LINE      CODE     ---       #724
      01000ABFH   LINE      CODE     ---       #725
      01000AC0H   LINE      CODE     ---       #726
      01000AC2H   LINE      CODE     ---       #727
      01000AC3H   LINE      CODE     ---       #728
      01000AC4H   LINE      CODE     ---       #729
      01000AC5H   LINE      CODE     ---       #731
      01000AC7H   LINE      CODE     ---       #736
      01000AC9H   LINE      CODE     ---       #737
      01000ACAH   LINE      CODE     ---       #738
      01000ACBH   LINE      CODE     ---       #739
      01000ACCH   LINE      CODE     ---       #740
      01000ACDH   LINE      CODE     ---       #741
      01000ACEH   LINE      CODE     ---       #742
      01000ACFH   LINE      CODE     ---       #743
      01000AD1H   LINE      CODE     ---       #744
      01000AD2H   LINE      CODE     ---       #745
      01000AD4H   LINE      CODE     ---       #748
      01000AD6H   LINE      CODE     ---       #754
      01000AD8H   LINE      CODE     ---       #755
      01000AD9H   LINE      CODE     ---       #756
      01000ADAH   LINE      CODE     ---       #757
      01000ADBH   LINE      CODE     ---       #758
      01000ADDH   LINE      CODE     ---       #759
      01000ADEH   LINE      CODE     ---       #761
      01000AE0H   LINE      CODE     ---       #766
      01000AE2H   LINE      CODE     ---       #767
      01000AE3H   LINE      CODE     ---       #768
      01000AE4H   LINE      CODE     ---       #769
      01000AE5H   LINE      CODE     ---       #770
      01000AE6H   LINE      CODE     ---       #771
      01000AE7H   LINE      CODE     ---       #772
      01000AE8H   LINE      CODE     ---       #773
      01000AEAH   LINE      CODE     ---       #774
      01000AEBH   LINE      CODE     ---       #775
      01000AECH   LINE      CODE     ---       #777
      01000AEEH   LINE      CODE     ---       #778
      01000AF1H   LINE      CODE     ---       #784
      01000AF3H   LINE      CODE     ---       #785
      01000AF5H   LINE      CODE     ---       #786
      01000AF7H   LINE      CODE     ---       #788
      01000AF8H   LINE      CODE     ---       #789
      01000AF9H   LINE      CODE     ---       #790
      01000AFAH   LINE      CODE     ---       #791
      01000AFBH   LINE      CODE     ---       #792
      01000AFCH   LINE      CODE     ---       #793
      01000AFEH   LINE      CODE     ---       #794
      01000B00H   LINE      CODE     ---       #795
LX51 LINKER/LOCATER V4.34a                                                            05/14/2009  22:01:21  PAGE 45


      01000B02H   LINE      CODE     ---       #800
      01000B03H   LINE      CODE     ---       #801
      01000B05H   LINE      CODE     ---       #802
      01000B06H   LINE      CODE     ---       #803
      01000B07H   LINE      CODE     ---       #804
      01000B08H   LINE      CODE     ---       #805
      01000B09H   LINE      CODE     ---       #806
      01000B0AH   LINE      CODE     ---       #807
      01000B0CH   LINE      CODE     ---       #809
      01000B0DH   LINE      CODE     ---       #810
      01000B0EH   LINE      CODE     ---       #811
      01000B0FH   LINE      CODE     ---       #812
      01000B10H   LINE      CODE     ---       #813
      01000B11H   LINE      CODE     ---       #814
      01000B13H   LINE      CODE     ---       #815
      01000B14H   LINE      CODE     ---       #816
      01000B16H   LINE      CODE     ---       #817
      01000B18H   LINE      CODE     ---       #818
      01000B1AH   LINE      CODE     ---       #819
      01000B1BH   LINE      CODE     ---       #820
      01000B1DH   LINE      CODE     ---       #821
      01000B1EH   LINE      CODE     ---       #822
      01000B1FH   LINE      CODE     ---       #823
      01000B21H   LINE      CODE     ---       #828
      01000B23H   LINE      CODE     ---       #829
      01000B25H   LINE      CODE     ---       #830
      01000B27H   LINE      CODE     ---       #832
      01000B28H   LINE      CODE     ---       #833
      01000B29H   LINE      CODE     ---       #834
      01000B2AH   LINE      CODE     ---       #835
      01000B2BH   LINE      CODE     ---       #836
      01000B2CH   LINE      CODE     ---       #837
      01000B2EH   LINE      CODE     ---       #838
      01000B30H   LINE      CODE     ---       #839
      01000B32H   LINE      CODE     ---       #845
      01000B34H   LINE      CODE     ---       #847
      01000B35H   LINE      CODE     ---       #849
      01000B36H   LINE      CODE     ---       #853
      01000B38H   LINE      CODE     ---       #855
      01000B39H   LINE      CODE     ---       #857
      01000B3AH   LINE      CODE     ---       #861
      01000B3CH   LINE      CODE     ---       #863
      01000B3DH   LINE      CODE     ---       #865
      01000B3EH   LINE      CODE     ---       #869
      01000B40H   LINE      CODE     ---       #871
      01000B41H   LINE      CODE     ---       #873
      01000B42H   LINE      CODE     ---       #877
      01000B44H   LINE      CODE     ---       #879
      01000B45H   LINE      CODE     ---       #881
      01000B46H   LINE      CODE     ---       #885
      01000B48H   LINE      CODE     ---       #887
      01000B49H   LINE      CODE     ---       #889
      01000B4AH   LINE      CODE     ---       #893
      01000B4CH   LINE      CODE     ---       #895
      01000B4DH   LINE      CODE     ---       #897
      01000B4EH   LINE      CODE     ---       #903
      01000B51H   LINE      CODE     ---       #905
      01000B54H   LINE      CODE     ---       #907
      01000B57H   LINE      CODE     ---       #911
      01000B58H   LINE      CODE     ---       #913
      01000B59H   LINE      CODE     ---       #917
      01000B5AH   LINE      CODE     ---       #926
      01000B5CH   LINE      CODE     ---       #927
      01000B5EH   LINE      CODE     ---       #928
      01000B5FH   LINE      CODE     ---       #929
LX51 LINKER/LOCATER V4.34a                                                            05/14/2009  22:01:21  PAGE 46


      01000B60H   LINE      CODE     ---       #930
      01000B61H   LINE      CODE     ---       #931
      01000B62H   LINE      CODE     ---       #932
      01000B63H   LINE      CODE     ---       #933
      01000B65H   LINE      CODE     ---       #935
      01000B66H   LINE      CODE     ---       #936
      01000B67H   LINE      CODE     ---       #937
      01000B68H   LINE      CODE     ---       #938
      01000B69H   LINE      CODE     ---       #939
      01000B6AH   LINE      CODE     ---       #940
      01000B6CH   LINE      CODE     ---       #941
      01000B6EH   LINE      CODE     ---       #942
      01000B70H   LINE      CODE     ---       #947
      01000B73H   LINE      CODE     ---       #952
      01000B74H   LINE      CODE     ---       #953
      01000B76H   LINE      CODE     ---       #954
      01000B77H   LINE      CODE     ---       #955
      01000B78H   LINE      CODE     ---       #956
      01000B79H   LINE      CODE     ---       #958
      01000B7BH   LINE      CODE     ---       #959
      01000B7CH   LINE      CODE     ---       #960
      01000B7DH   LINE      CODE     ---       #961
      01000B7EH   LINE      CODE     ---       #962
      01000B7FH   LINE      CODE     ---       #963
      01000B80H   LINE      CODE     ---       #964
      01000B81H   LINE      CODE     ---       #965
      01000B83H   LINE      CODE     ---       #966
      01000B84H   LINE      CODE     ---       #967
      01000B86H   LINE      CODE     ---       #968
      01000B88H   LINE      CODE     ---       #973
      01000B8AH   LINE      CODE     ---       #974
      01000B8CH   LINE      CODE     ---       #975
      01000B8EH   LINE      CODE     ---       #976
      01000B8FH   LINE      CODE     ---       #977
      01000B90H   LINE      CODE     ---       #978
      01000B92H   LINE      CODE     ---       #979
      01000B93H   LINE      CODE     ---       #980
      01000B94H   LINE      CODE     ---       #981
      01000B95H   LINE      CODE     ---       #982
      01000B96H   LINE      CODE     ---       #983
      01000B97H   LINE      CODE     ---       #984
      01000B98H   LINE      CODE     ---       #985
      01000B9BH   LINE      CODE     ---       #986
      01000B9DH   LINE      CODE     ---       #987
      01000B9EH   LINE      CODE     ---       #988
      01000B9FH   LINE      CODE     ---       #989
      01000BA0H   LINE      CODE     ---       #990
      01000BA1H   LINE      CODE     ---       #991
      01000BA3H   LINE      CODE     ---       #992
      01000BA5H   LINE      CODE     ---       #993
      01000BA7H   LINE      CODE     ---       #994
      01000BA8H   LINE      CODE     ---       #995
      01000BAAH   LINE      CODE     ---       #996
      01000BABH   LINE      CODE     ---       #997
      01000BACH   LINE      CODE     ---       #1000
      01000BADH   LINE      CODE     ---       #1001
      01000BAEH   LINE      CODE     ---       #1002
      01000BAFH   LINE      CODE     ---       #1003
      01000BB1H   LINE      CODE     ---       #1004
      01000BB2H   LINE      CODE     ---       #1006
      01000BB4H   LINE      CODE     ---       #1012
      01000BB6H   LINE      CODE     ---       #1013
      01000BB8H   LINE      CODE     ---       #1014
      01000BBAH   LINE      CODE     ---       #1016
      01000BBBH   LINE      CODE     ---       #1017
LX51 LINKER/LOCATER V4.34a                                                            05/14/2009  22:01:21  PAGE 47


      01000BBCH   LINE      CODE     ---       #1018
      01000BBDH   LINE      CODE     ---       #1019
      01000BBEH   LINE      CODE     ---       #1020
      01000BBFH   LINE      CODE     ---       #1021
      01000BC1H   LINE      CODE     ---       #1022
      01000BC2H   LINE      CODE     ---       #1023
      01000BC4H   LINE      CODE     ---       #1024
      01000BC6H   LINE      CODE     ---       #1025
      01000BC8H   LINE      CODE     ---       #1026
      01000BC9H   LINE      CODE     ---       #1027
      01000BCBH   LINE      CODE     ---       #1028
      01000BCCH   LINE      CODE     ---       #1029
      01000BCEH   LINE      CODE     ---       #1035
      01000BD0H   LINE      CODE     ---       #1036
      01000BD2H   LINE      CODE     ---       #1041
      01000BD4H   LINE      CODE     ---       #1042
      01000BD5H   LINE      CODE     ---       #1043
      01000BD7H   LINE      CODE     ---       #1044
      01000BD9H   LINE      CODE     ---       #1045
      01000BDAH   LINE      CODE     ---       #1046
      01000BDBH   LINE      CODE     ---       #1047
      01000BDCH   LINE      CODE     ---       #1048
      01000BDDH   LINE      CODE     ---       #1049
      01000BDEH   LINE      CODE     ---       #1050
      01000BE0H   LINE      CODE     ---       #1052
      01000BE1H   LINE      CODE     ---       #1053
      01000BE2H   LINE      CODE     ---       #1054
      01000BE3H   LINE      CODE     ---       #1055
      01000BE4H   LINE      CODE     ---       #1056
      01000BE5H   LINE      CODE     ---       #1057
      01000BE7H   LINE      CODE     ---       #1058
      01000BE8H   LINE      CODE     ---       #1059
      01000BEAH   LINE      CODE     ---       #1060
      01000BECH   LINE      CODE     ---       #1061
      01000BEEH   LINE      CODE     ---       #1062
      01000BEFH   LINE      CODE     ---       #1063
      01000BF1H   LINE      CODE     ---       #1064
      01000BF2H   LINE      CODE     ---       #1065
      01000BF3H   LINE      CODE     ---       #1066
      01000BF5H   LINE      CODE     ---       #1071
      01000BF7H   LINE      CODE     ---       #1072
      01000BF9H   LINE      CODE     ---       #1073
      01000BFBH   LINE      CODE     ---       #1075
      01000BFCH   LINE      CODE     ---       #1076
      01000BFDH   LINE      CODE     ---       #1077
      01000BFEH   LINE      CODE     ---       #1078
      01000BFFH   LINE      CODE     ---       #1079
      01000C00H   LINE      CODE     ---       #1080
      01000C02H   LINE      CODE     ---       #1081
      01000C04H   LINE      CODE     ---       #1082
      01000C06H   LINE      CODE     ---       #1087
      01000C07H   LINE      CODE     ---       #1088
      01000C09H   LINE      CODE     ---       #1089
      01000C0AH   LINE      CODE     ---       #1090
      01000C0BH   LINE      CODE     ---       #1091
      01000C0CH   LINE      CODE     ---       #1092
      01000C0DH   LINE      CODE     ---       #1093
      01000C0FH   LINE      CODE     ---       #1094
      01000C11H   LINE      CODE     ---       #1095
      01000C14H   LINE      CODE     ---       #1096
      01000C16H   LINE      CODE     ---       #1103
      01000C18H   LINE      CODE     ---       #1105
      01000C19H   LINE      CODE     ---       #1107
      01000C1AH   LINE      CODE     ---       #1111
      01000C1CH   LINE      CODE     ---       #1113
LX51 LINKER/LOCATER V4.34a                                                            05/14/2009  22:01:21  PAGE 48


      01000C1DH   LINE      CODE     ---       #1115
      01000C1EH   LINE      CODE     ---       #1119
      01000C20H   LINE      CODE     ---       #1121
      01000C21H   LINE      CODE     ---       #1123
      01000C22H   LINE      CODE     ---       #1127
      01000C24H   LINE      CODE     ---       #1129
      01000C25H   LINE      CODE     ---       #1131
      01000C26H   LINE      CODE     ---       #1135
      01000C28H   LINE      CODE     ---       #1137
      01000C29H   LINE      CODE     ---       #1139
      01000C2AH   LINE      CODE     ---       #1143
      01000C2CH   LINE      CODE     ---       #1145
      01000C2DH   LINE      CODE     ---       #1147
      01000C2EH   LINE      CODE     ---       #1151
      01000C30H   LINE      CODE     ---       #1153
      01000C31H   LINE      CODE     ---       #1155
      01000C32H   LINE      CODE     ---       #1159
      01000C35H   LINE      CODE     ---       #1161
      01000C38H   LINE      CODE     ---       #1163
      01000C3BH   LINE      CODE     ---       #1167
      01000C3CH   LINE      CODE     ---       #1169
      01000C3DH   LINE      CODE     ---       #1178
      ---         BLOCKEND  ---      ---       LVL=0

      ---         MODULE    ---      ---       UTILS
      00000010H   PUBLIC    DATA     BYTE      ?_STRNCPY?BYTE
      01000E80H   PUBLIC    CODE     NEAR LAB  _MDELAY
      010010D8H   PUBLIC    CODE     NEAR LAB  _STORE_CPU_RATE
      01000F0EH   PUBLIC    CODE     NEAR LAB  _STRNCPY
      010010A7H   PUBLIC    CODE     NEAR LAB  _WDT_LOAD
      0000001CH   PUBLIC    DATA     BYTE      MHZ
      000000D0H.6 SFRSYM    DATA     BIT       AC
      000000E0H   SFRSYM    DATA     BYTE      ACC
      000000A1H   SFRSYM    DATA     BYTE      ADCCON
      000000A2H   SFRSYM    DATA     BYTE      ADCDATAH
      000000A3H   SFRSYM    DATA     BYTE      ADCDATAL
      000000A4H   SFRSYM    DATA     BYTE      ADCSTATIC
      000000F0H   SFRSYM    DATA     BYTE      B
      000000C8H.1 SFRSYM    DATA     BIT       C_T2
      000000A0H.6 SFRSYM    DATA     BIT       CE
      000000B6H   SFRSYM    DATA     BYTE      CK_CTRL
      0000008EH   SFRSYM    DATA     BYTE      CKCON
      000000A0H.1 SFRSYM    DATA     BIT       CLK1
      000000A0H.5 SFRSYM    DATA     BIT       CLK2
      000000C8H   SFRSYM    DATA     BIT       CP_RL2
      000000C8H   SFRSYM    DATA     BIT       CPRL2
      000000A0H.3 SFRSYM    DATA     BIT       CS
      000000C8H.1 SFRSYM    DATA     BIT       CT2
      000000D0H.7 SFRSYM    DATA     BIT       CY
      000000A0H   SFRSYM    DATA     BIT       DATA?
      000000BEH   SFRSYM    DATA     BYTE      DEV_OFFSET
      00000090H.2 SFRSYM    DATA     BIT       DIN0
      00000090H   SFRSYM    DATA     BIT       DIO0
      00000090H.1 SFRSYM    DATA     BIT       DIO1
      00000080H   SFRSYM    DATA     BIT       DIO2
      00000080H.1 SFRSYM    DATA     BIT       DIO3
      00000080H.2 SFRSYM    DATA     BIT       DIO4
      00000080H.3 SFRSYM    DATA     BIT       DIO5
      00000080H.4 SFRSYM    DATA     BIT       DIO6
      00000080H.5 SFRSYM    DATA     BIT       DIO7
      00000080H.6 SFRSYM    DATA     BIT       DIO8
      00000080H.7 SFRSYM    DATA     BIT       DIO9
      000000A0H.4 SFRSYM    DATA     BIT       DOUT2
      00000083H   SFRSYM    DATA     BYTE      DPH
      00000083H   SFRSYM    DATA     BYTE      DPH0
LX51 LINKER/LOCATER V4.34a                                                            05/14/2009  22:01:21  PAGE 49


      00000085H   SFRSYM    DATA     BYTE      DPH1
      00000082H   SFRSYM    DATA     BYTE      DPL
      00000082H   SFRSYM    DATA     BYTE      DPL0
      00000084H   SFRSYM    DATA     BYTE      DPL1
      00000086H   SFRSYM    DATA     BYTE      DPS
      000000A0H.2 SFRSYM    DATA     BIT       DR1
      000000A0H.6 SFRSYM    DATA     BIT       DR2
      000000A0H.6 SFRSYM    DATA     BIT       DR2_CE
      000000A8H.7 SFRSYM    DATA     BIT       EA
      000000D8H   SFRSYM    DATA     BYTE      EICON
      000000E8H   SFRSYM    DATA     BYTE      EIE
      000000F8H   SFRSYM    DATA     BYTE      EIP
      000000A8H.4 SFRSYM    DATA     BIT       ES
      000000A8H.1 SFRSYM    DATA     BIT       ET0
      000000A8H.3 SFRSYM    DATA     BIT       ET1
      000000A8H.5 SFRSYM    DATA     BIT       ET2
      000000E8H.4 SFRSYM    DATA     BIT       EWDI
      000000A8H   SFRSYM    DATA     BIT       EX0
      000000A8H.2 SFRSYM    DATA     BIT       EX1
      000000E8H   SFRSYM    DATA     BIT       EX2
      000000E8H.1 SFRSYM    DATA     BIT       EX3
      000000E8H.2 SFRSYM    DATA     BIT       EX4
      000000E8H.3 SFRSYM    DATA     BIT       EX5
      000000C8H.3 SFRSYM    DATA     BIT       EXEN2
      000000C8H.6 SFRSYM    DATA     BIT       EXF2
      00000091H   SFRSYM    DATA     BYTE      EXIF
      000000D0H.5 SFRSYM    DATA     BIT       F0
      000000D0H.1 SFRSYM    DATA     BIT       F1
      000000A8H   SFRSYM    DATA     BYTE      IE
      00000088H.1 SFRSYM    DATA     BIT       IE0
      00000088H.3 SFRSYM    DATA     BIT       IE1
      00000080H.3 SFRSYM    DATA     BIT       INT0_N
      00000080H.4 SFRSYM    DATA     BIT       INT1_N
      000000B8H   SFRSYM    DATA     BYTE      IP
      00000088H   SFRSYM    DATA     BIT       IT0
      00000088H.2 SFRSYM    DATA     BIT       IT1
      00000092H   SFRSYM    DATA     BYTE      MPAGE
      000000D0H.2 SFRSYM    DATA     BIT       OV
      000000D0H   SFRSYM    DATA     BIT       P
      00000080H   SFRSYM    DATA     BYTE      P0
      00000080H   SFRSYM    DATA     BIT       P0_0
      00000080H.1 SFRSYM    DATA     BIT       P0_1
      00000080H.2 SFRSYM    DATA     BIT       P0_2
      00000080H.3 SFRSYM    DATA     BIT       P0_3
      00000080H.4 SFRSYM    DATA     BIT       P0_4
      00000080H.5 SFRSYM    DATA     BIT       P0_5
      00000080H.6 SFRSYM    DATA     BIT       P0_6
      00000080H.7 SFRSYM    DATA     BIT       P0_7
      00000095H   SFRSYM    DATA     BYTE      P0_ALT
      00000094H   SFRSYM    DATA     BYTE      P0_DIR
      00000090H   SFRSYM    DATA     BYTE      P1
      00000090H   SFRSYM    DATA     BIT       P1_0
      00000090H.1 SFRSYM    DATA     BIT       P1_1
      00000090H.2 SFRSYM    DATA     BIT       P1_2
      00000097H   SFRSYM    DATA     BYTE      P1_ALT
      00000096H   SFRSYM    DATA     BYTE      P1_DIR
      00000087H   SFRSYM    DATA     BYTE      PCON
      000000B8H.4 SFRSYM    DATA     BIT       PS
      000000D0H   SFRSYM    DATA     BYTE      PSW
      000000B8H.1 SFRSYM    DATA     BIT       PT0
      000000B8H.3 SFRSYM    DATA     BIT       PT1
      000000B8H.5 SFRSYM    DATA     BIT       PT2
      000000F8H.4 SFRSYM    DATA     BIT       PWDI
      00000080H.7 SFRSYM    DATA     BIT       PWM
      000000A9H   SFRSYM    DATA     BYTE      PWMCON
LX51 LINKER/LOCATER V4.34a                                                            05/14/2009  22:01:21  PAGE 50


      000000AAH   SFRSYM    DATA     BYTE      PWMDUTY
      000000A0H.7 SFRSYM    DATA     BIT       PWR_UP
      000000B8H   SFRSYM    DATA     BIT       PX0
      000000B8H.2 SFRSYM    DATA     BIT       PX1
      000000F8H   SFRSYM    DATA     BIT       PX2
      000000F8H.1 SFRSYM    DATA     BIT       PX3
      000000F8H.2 SFRSYM    DATA     BIT       PX4
      000000F8H.3 SFRSYM    DATA     BIT       PX5
      000000A0H   SFRSYM    DATA     BYTE      RADIO
      00000098H.2 SFRSYM    DATA     BIT       RB8
      000000CBH   SFRSYM    DATA     BYTE      RCAP2H
      000000CAH   SFRSYM    DATA     BYTE      RCAP2L
      000000C8H.5 SFRSYM    DATA     BIT       RCLK
      000000ADH   SFRSYM    DATA     BYTE      REGX_CTRL
      000000ACH   SFRSYM    DATA     BYTE      REGX_LSB
      000000ABH   SFRSYM    DATA     BYTE      REGX_MSB
      00000098H.4 SFRSYM    DATA     BIT       REN
      00000098H   SFRSYM    DATA     BIT       RI
      000000D0H.3 SFRSYM    DATA     BIT       RS0
      000000D0H.4 SFRSYM    DATA     BIT       RS1
      000000B1H   SFRSYM    DATA     BYTE      RSTREAS
      00000080H.1 SFRSYM    DATA     BIT       RXD
      00000099H   SFRSYM    DATA     BYTE      SBUF
      00000098H   SFRSYM    DATA     BYTE      SCON
      00000098H.7 SFRSYM    DATA     BIT       SM0
      00000098H.6 SFRSYM    DATA     BIT       SM1
      00000098H.5 SFRSYM    DATA     BIT       SM2
      00000081H   SFRSYM    DATA     BYTE      SP
      0000008FH   SFRSYM    DATA     BYTE      SPC_FNC
      000000B3H   SFRSYM    DATA     BYTE      SPI_CTRL
      000000B2H   SFRSYM    DATA     BYTE      SPI_DATA
      000000B4H   SFRSYM    DATA     BYTE      SPICLK
      00000080H.5 SFRSYM    DATA     BIT       T0
      00000080H.6 SFRSYM    DATA     BIT       T1
      000000BCH   SFRSYM    DATA     BYTE      T1_1V2
      00000090H   SFRSYM    DATA     BIT       T2
      000000BDH   SFRSYM    DATA     BYTE      T2_1V2
      000000C8H   SFRSYM    DATA     BYTE      T2CON
      00000098H.3 SFRSYM    DATA     BIT       TB8
      000000C8H.4 SFRSYM    DATA     BIT       TCLK
      00000088H   SFRSYM    DATA     BYTE      TCON
      000000B7H   SFRSYM    DATA     BYTE      TEST_MODE
      00000088H.5 SFRSYM    DATA     BIT       TF0
      00000088H.7 SFRSYM    DATA     BIT       TF1
      000000C8H.7 SFRSYM    DATA     BIT       TF2
      0000008CH   SFRSYM    DATA     BYTE      TH0
      0000008DH   SFRSYM    DATA     BYTE      TH1
      000000CDH   SFRSYM    DATA     BYTE      TH2
      00000098H.1 SFRSYM    DATA     BIT       TI
      000000B5H   SFRSYM    DATA     BYTE      TICK_DV
      0000008AH   SFRSYM    DATA     BYTE      TL0
      0000008BH   SFRSYM    DATA     BYTE      TL1
      000000CCH   SFRSYM    DATA     BYTE      TL2
      00000089H   SFRSYM    DATA     BYTE      TMOD
      00000088H.4 SFRSYM    DATA     BIT       TR0
      00000088H.6 SFRSYM    DATA     BIT       TR1
      000000C8H.2 SFRSYM    DATA     BIT       TR2
      00000080H.2 SFRSYM    DATA     BIT       TXD
      000000D8H.3 SFRSYM    DATA     BIT       WDTI
      0000002BH   SYMBOL    DATA     BYTE      ?_MDELAY?BYTE
      01000EA1H   SYMBOL    CODE     NEAR LAB  ?C0002
      01000EC1H   SYMBOL    CODE     NEAR LAB  ?C0004
      01000EADH   SYMBOL    CODE     NEAR LAB  ?C0005
      01000EC8H   SYMBOL    CODE     NEAR LAB  ?C0008
      010010ABH   SYMBOL    CODE     NEAR LAB  ?C0009
LX51 LINKER/LOCATER V4.34a                                                            05/14/2009  22:01:21  PAGE 51


      010010B0H   SYMBOL    CODE     NEAR LAB  ?C0010
      01000F17H   SYMBOL    CODE     NEAR LAB  ?C0012
      01000F51H   SYMBOL    CODE     NEAR LAB  ?C0015
      01000EBFH   SYMBOL    CODE     NEAR LAB  ?C0016
      01000EC6H   SYMBOL    CODE     NEAR LAB  ?C0017
      01000F32H   SYMBOL    CODE     NEAR LAB  ?C0018
      01000F44H   SYMBOL    CODE     NEAR LAB  ?C0019
      01000F4FH   SYMBOL    CODE     NEAR LAB  ?C0020
      00000013H   SYMBOL    DATA     BYTE      DST?347
      0000002BH   SYMBOL    DATA     BYTE      MSEC?141
      00000016H   SYMBOL    DATA     BYTE      N?348
      00000010H   SYMBOL    DATA     BYTE      SRC?346

      010010D8H   BLOCK     CODE     NEAR LAB  LVL=0
      010010D8H   LINE      CODE     ---       #231
      010010D9H   LINE      CODE     ---       #232
      010010DAH   LINE      CODE     ---       #233
      010010DCH   LINE      CODE     ---       #234
      010010DEH   LINE      CODE     ---       #235
      010010E0H   LINE      CODE     ---       #236
      010010E2H   LINE      CODE     ---       #237
      010010E4H   LINE      CODE     ---       #240
      ---         BLOCKEND  ---      ---       LVL=0

      01000E80H   BLOCK     CODE     NEAR LAB  LVL=0
      01000E80H   LINE      CODE     ---       #256
      01000E82H   LINE      CODE     ---       #257
      01000E84H   LINE      CODE     ---       #263
      01000E85H   LINE      CODE     ---       #264
      01000E87H   LINE      CODE     ---       #265
      01000E88H   LINE      CODE     ---       #266
      01000E89H   LINE      CODE     ---       #267
      01000E8AH   LINE      CODE     ---       #268
      01000E8CH   LINE      CODE     ---       #269
      01000E8EH   LINE      CODE     ---       #270
      01000E90H   LINE      CODE     ---       #271
      01000E92H   LINE      CODE     ---       #272
      01000E95H   LINE      CODE     ---       #273
      01000E96H   LINE      CODE     ---       #274
      01000E98H   LINE      CODE     ---       #275
      01000E99H   LINE      CODE     ---       #276
      01000E9AH   LINE      CODE     ---       #277
      01000E9BH   LINE      CODE     ---       #278
      01000E9EH   LINE      CODE     ---       #283
      01000E9FH   LINE      CODE     ---       #284
      01000EA0H   LINE      CODE     ---       #285
      01000EA1H   LINE      CODE     ---       #287
      01000EA2H   LINE      CODE     ---       #288
      01000EA3H   LINE      CODE     ---       #289
      01000EA5H   LINE      CODE     ---       #290
      01000EA6H   LINE      CODE     ---       #291
      01000EA8H   LINE      CODE     ---       #292
      01000EAAH   LINE      CODE     ---       #296
      01000EABH   LINE      CODE     ---       #297
      01000EACH   LINE      CODE     ---       #298
      01000EADH   LINE      CODE     ---       #300
      01000EAEH   LINE      CODE     ---       #301
      01000EAFH   LINE      CODE     ---       #302
      01000EB0H   LINE      CODE     ---       #303
      01000EB1H   LINE      CODE     ---       #304
      01000EB3H   LINE      CODE     ---       #305
      01000EB4H   LINE      CODE     ---       #306
      01000EB5H   LINE      CODE     ---       #307
      01000EB7H   LINE      CODE     ---       #308
      01000EB8H   LINE      CODE     ---       #309
LX51 LINKER/LOCATER V4.34a                                                            05/14/2009  22:01:21  PAGE 52


      01000EBAH   LINE      CODE     ---       #310
      01000EBBH   LINE      CODE     ---       #311
      01000EBEH   LINE      CODE     ---       #312
      01000EBFH   LINE      CODE     ---       #314
      01000EC1H   LINE      CODE     ---       #316
      01000EC2H   LINE      CODE     ---       #317
      01000EC5H   LINE      CODE     ---       #318
      01000EC6H   LINE      CODE     ---       #320
      01000EC8H   LINE      CODE     ---       #325
      ---         BLOCKEND  ---      ---       LVL=0

      010010A7H   BLOCK     CODE     NEAR LAB  LVL=0
      010010A7H   LINE      CODE     ---       #341
      010010A9H   LINE      CODE     ---       #342
      010010ABH   LINE      CODE     ---       #348
      010010ADH   LINE      CODE     ---       #349
      010010B0H   LINE      CODE     ---       #354
      010010B2H   LINE      CODE     ---       #357
      010010B3H   LINE      CODE     ---       #358
      010010B5H   LINE      CODE     ---       #361
      010010B8H   LINE      CODE     ---       #364
      ---         BLOCKEND  ---      ---       LVL=0

      01000F0EH   BLOCK     CODE     NEAR LAB  LVL=0
      01000F0EH   LINE      CODE     ---       #380
      01000F10H   LINE      CODE     ---       #381
      01000F12H   LINE      CODE     ---       #382
      01000F14H   LINE      CODE     ---       #389
      01000F15H   LINE      CODE     ---       #390
      01000F16H   LINE      CODE     ---       #391
      01000F17H   LINE      CODE     ---       #393
      01000F18H   LINE      CODE     ---       #394
      01000F19H   LINE      CODE     ---       #395
      01000F1BH   LINE      CODE     ---       #396
      01000F1DH   LINE      CODE     ---       #397
      01000F1FH   LINE      CODE     ---       #398
      01000F20H   LINE      CODE     ---       #399
      01000F21H   LINE      CODE     ---       #400
      01000F23H   LINE      CODE     ---       #401
      01000F24H   LINE      CODE     ---       #402
      01000F26H   LINE      CODE     ---       #405
      01000F28H   LINE      CODE     ---       #406
      01000F2AH   LINE      CODE     ---       #407
      01000F2CH   LINE      CODE     ---       #408
      01000F2EH   LINE      CODE     ---       #409
      01000F30H   LINE      CODE     ---       #410
      01000F32H   LINE      CODE     ---       #412
      01000F33H   LINE      CODE     ---       #413
      01000F34H   LINE      CODE     ---       #414
      01000F37H   LINE      CODE     ---       #415
      01000F38H   LINE      CODE     ---       #416
      01000F3AH   LINE      CODE     ---       #417
      01000F3CH   LINE      CODE     ---       #418
      01000F3EH   LINE      CODE     ---       #419
      01000F40H   LINE      CODE     ---       #420
      01000F42H   LINE      CODE     ---       #421
      01000F44H   LINE      CODE     ---       #423
      01000F45H   LINE      CODE     ---       #424
      01000F46H   LINE      CODE     ---       #425
      01000F47H   LINE      CODE     ---       #426
      01000F4AH   LINE      CODE     ---       #429
      01000F4BH   LINE      CODE     ---       #430
      01000F4EH   LINE      CODE     ---       #431
      01000F4FH   LINE      CODE     ---       #433
      01000F51H   LINE      CODE     ---       #437
LX51 LINKER/LOCATER V4.34a                                                            05/14/2009  22:01:21  PAGE 53


      ---         BLOCKEND  ---      ---       LVL=0

      ---         MODULE    ---      ---       SERIAL
      01000FCAH   PUBLIC    CODE     NEAR LAB  _?INT_PRINT
      01001138H   PUBLIC    CODE     NEAR LAB  _PUTC
      0100105FH   PUBLIC    CODE     NEAR LAB  _PUTS
      01001115H   PUBLIC    CODE     NEAR LAB  _SERIAL_INIT
      01001134H   PUBLIC    CODE     NEAR LAB  GETC
      000000D0H.6 SFRSYM    DATA     BIT       AC
      000000E0H   SFRSYM    DATA     BYTE      ACC
      000000A1H   SFRSYM    DATA     BYTE      ADCCON
      000000A2H   SFRSYM    DATA     BYTE      ADCDATAH
      000000A3H   SFRSYM    DATA     BYTE      ADCDATAL
      000000A4H   SFRSYM    DATA     BYTE      ADCSTATIC
      000000F0H   SFRSYM    DATA     BYTE      B
      000000C8H.1 SFRSYM    DATA     BIT       C_T2
      000000A0H.6 SFRSYM    DATA     BIT       CE
      000000B6H   SFRSYM    DATA     BYTE      CK_CTRL
      0000008EH   SFRSYM    DATA     BYTE      CKCON
      000000A0H.1 SFRSYM    DATA     BIT       CLK1
      000000A0H.5 SFRSYM    DATA     BIT       CLK2
      000000C8H   SFRSYM    DATA     BIT       CP_RL2
      000000C8H   SFRSYM    DATA     BIT       CPRL2
      000000A0H.3 SFRSYM    DATA     BIT       CS
      000000C8H.1 SFRSYM    DATA     BIT       CT2
      000000D0H.7 SFRSYM    DATA     BIT       CY
      000000A0H   SFRSYM    DATA     BIT       DATA?
      000000BEH   SFRSYM    DATA     BYTE      DEV_OFFSET
      00000090H.2 SFRSYM    DATA     BIT       DIN0
      00000090H   SFRSYM    DATA     BIT       DIO0
      00000090H.1 SFRSYM    DATA     BIT       DIO1
      00000080H   SFRSYM    DATA     BIT       DIO2
      00000080H.1 SFRSYM    DATA     BIT       DIO3
      00000080H.2 SFRSYM    DATA     BIT       DIO4
      00000080H.3 SFRSYM    DATA     BIT       DIO5
      00000080H.4 SFRSYM    DATA     BIT       DIO6
      00000080H.5 SFRSYM    DATA     BIT       DIO7
      00000080H.6 SFRSYM    DATA     BIT       DIO8
      00000080H.7 SFRSYM    DATA     BIT       DIO9
      000000A0H.4 SFRSYM    DATA     BIT       DOUT2
      00000083H   SFRSYM    DATA     BYTE      DPH
      00000083H   SFRSYM    DATA     BYTE      DPH0
      00000085H   SFRSYM    DATA     BYTE      DPH1
      00000082H   SFRSYM    DATA     BYTE      DPL
      00000082H   SFRSYM    DATA     BYTE      DPL0
      00000084H   SFRSYM    DATA     BYTE      DPL1
      00000086H   SFRSYM    DATA     BYTE      DPS
      000000A0H.2 SFRSYM    DATA     BIT       DR1
      000000A0H.6 SFRSYM    DATA     BIT       DR2
      000000A0H.6 SFRSYM    DATA     BIT       DR2_CE
      000000A8H.7 SFRSYM    DATA     BIT       EA
      000000D8H   SFRSYM    DATA     BYTE      EICON
      000000E8H   SFRSYM    DATA     BYTE      EIE
      000000F8H   SFRSYM    DATA     BYTE      EIP
      000000A8H.4 SFRSYM    DATA     BIT       ES
      000000A8H.1 SFRSYM    DATA     BIT       ET0
      000000A8H.3 SFRSYM    DATA     BIT       ET1
      000000A8H.5 SFRSYM    DATA     BIT       ET2
      000000E8H.4 SFRSYM    DATA     BIT       EWDI
      000000A8H   SFRSYM    DATA     BIT       EX0
      000000A8H.2 SFRSYM    DATA     BIT       EX1
      000000E8H   SFRSYM    DATA     BIT       EX2
      000000E8H.1 SFRSYM    DATA     BIT       EX3
      000000E8H.2 SFRSYM    DATA     BIT       EX4
      000000E8H.3 SFRSYM    DATA     BIT       EX5
LX51 LINKER/LOCATER V4.34a                                                            05/14/2009  22:01:21  PAGE 54


      000000C8H.3 SFRSYM    DATA     BIT       EXEN2
      000000C8H.6 SFRSYM    DATA     BIT       EXF2
      00000091H   SFRSYM    DATA     BYTE      EXIF
      000000D0H.5 SFRSYM    DATA     BIT       F0
      000000D0H.1 SFRSYM    DATA     BIT       F1
      000000A8H   SFRSYM    DATA     BYTE      IE
      00000088H.1 SFRSYM    DATA     BIT       IE0
      00000088H.3 SFRSYM    DATA     BIT       IE1
      00000080H.3 SFRSYM    DATA     BIT       INT0_N
      00000080H.4 SFRSYM    DATA     BIT       INT1_N
      000000B8H   SFRSYM    DATA     BYTE      IP
      00000088H   SFRSYM    DATA     BIT       IT0
      00000088H.2 SFRSYM    DATA     BIT       IT1
      00000092H   SFRSYM    DATA     BYTE      MPAGE
      000000D0H.2 SFRSYM    DATA     BIT       OV
      000000D0H   SFRSYM    DATA     BIT       P
      00000080H   SFRSYM    DATA     BYTE      P0
      00000080H   SFRSYM    DATA     BIT       P0_0
      00000080H.1 SFRSYM    DATA     BIT       P0_1
      00000080H.2 SFRSYM    DATA     BIT       P0_2
      00000080H.3 SFRSYM    DATA     BIT       P0_3
      00000080H.4 SFRSYM    DATA     BIT       P0_4
      00000080H.5 SFRSYM    DATA     BIT       P0_5
      00000080H.6 SFRSYM    DATA     BIT       P0_6
      00000080H.7 SFRSYM    DATA     BIT       P0_7
      00000095H   SFRSYM    DATA     BYTE      P0_ALT
      00000094H   SFRSYM    DATA     BYTE      P0_DIR
      00000090H   SFRSYM    DATA     BYTE      P1
      00000090H   SFRSYM    DATA     BIT       P1_0
      00000090H.1 SFRSYM    DATA     BIT       P1_1
      00000090H.2 SFRSYM    DATA     BIT       P1_2
      00000097H   SFRSYM    DATA     BYTE      P1_ALT
      00000096H   SFRSYM    DATA     BYTE      P1_DIR
      00000087H   SFRSYM    DATA     BYTE      PCON
      000000B8H.4 SFRSYM    DATA     BIT       PS
      000000D0H   SFRSYM    DATA     BYTE      PSW
      000000B8H.1 SFRSYM    DATA     BIT       PT0
      000000B8H.3 SFRSYM    DATA     BIT       PT1
      000000B8H.5 SFRSYM    DATA     BIT       PT2
      000000F8H.4 SFRSYM    DATA     BIT       PWDI
      00000080H.7 SFRSYM    DATA     BIT       PWM
      000000A9H   SFRSYM    DATA     BYTE      PWMCON
      000000AAH   SFRSYM    DATA     BYTE      PWMDUTY
      000000A0H.7 SFRSYM    DATA     BIT       PWR_UP
      000000B8H   SFRSYM    DATA     BIT       PX0
      000000B8H.2 SFRSYM    DATA     BIT       PX1
      000000F8H   SFRSYM    DATA     BIT       PX2
      000000F8H.1 SFRSYM    DATA     BIT       PX3
      000000F8H.2 SFRSYM    DATA     BIT       PX4
      000000F8H.3 SFRSYM    DATA     BIT       PX5
      000000A0H   SFRSYM    DATA     BYTE      RADIO
      00000098H.2 SFRSYM    DATA     BIT       RB8
      000000CBH   SFRSYM    DATA     BYTE      RCAP2H
      000000CAH   SFRSYM    DATA     BYTE      RCAP2L
      000000C8H.5 SFRSYM    DATA     BIT       RCLK
      000000ADH   SFRSYM    DATA     BYTE      REGX_CTRL
      000000ACH   SFRSYM    DATA     BYTE      REGX_LSB
      000000ABH   SFRSYM    DATA     BYTE      REGX_MSB
      00000098H.4 SFRSYM    DATA     BIT       REN
      00000098H   SFRSYM    DATA     BIT       RI
      000000D0H.3 SFRSYM    DATA     BIT       RS0
      000000D0H.4 SFRSYM    DATA     BIT       RS1
      000000B1H   SFRSYM    DATA     BYTE      RSTREAS
      00000080H.1 SFRSYM    DATA     BIT       RXD
      00000099H   SFRSYM    DATA     BYTE      SBUF
LX51 LINKER/LOCATER V4.34a                                                            05/14/2009  22:01:21  PAGE 55


      00000098H   SFRSYM    DATA     BYTE      SCON
      00000098H.7 SFRSYM    DATA     BIT       SM0
      00000098H.6 SFRSYM    DATA     BIT       SM1
      00000098H.5 SFRSYM    DATA     BIT       SM2
      00000081H   SFRSYM    DATA     BYTE      SP
      0000008FH   SFRSYM    DATA     BYTE      SPC_FNC
      000000B3H   SFRSYM    DATA     BYTE      SPI_CTRL
      000000B2H   SFRSYM    DATA     BYTE      SPI_DATA
      000000B4H   SFRSYM    DATA     BYTE      SPICLK
      00000080H.5 SFRSYM    DATA     BIT       T0
      00000080H.6 SFRSYM    DATA     BIT       T1
      000000BCH   SFRSYM    DATA     BYTE      T1_1V2
      00000090H   SFRSYM    DATA     BIT       T2
      000000BDH   SFRSYM    DATA     BYTE      T2_1V2
      000000C8H   SFRSYM    DATA     BYTE      T2CON
      00000098H.3 SFRSYM    DATA     BIT       TB8
      000000C8H.4 SFRSYM    DATA     BIT       TCLK
      00000088H   SFRSYM    DATA     BYTE      TCON
      000000B7H   SFRSYM    DATA     BYTE      TEST_MODE
      00000088H.5 SFRSYM    DATA     BIT       TF0
      00000088H.7 SFRSYM    DATA     BIT       TF1
      000000C8H.7 SFRSYM    DATA     BIT       TF2
      0000008CH   SFRSYM    DATA     BYTE      TH0
      0000008DH   SFRSYM    DATA     BYTE      TH1
      000000CDH   SFRSYM    DATA     BYTE      TH2
      00000098H.1 SFRSYM    DATA     BIT       TI
      000000B5H   SFRSYM    DATA     BYTE      TICK_DV
      0000008AH   SFRSYM    DATA     BYTE      TL0
      0000008BH   SFRSYM    DATA     BYTE      TL1
      000000CCH   SFRSYM    DATA     BYTE      TL2
      00000089H   SFRSYM    DATA     BYTE      TMOD
      00000088H.4 SFRSYM    DATA     BIT       TR0
      00000088H.6 SFRSYM    DATA     BIT       TR1
      000000C8H.2 SFRSYM    DATA     BIT       TR2
      00000080H.2 SFRSYM    DATA     BIT       TXD
      000000D8H.3 SFRSYM    DATA     BIT       WDTI
      00000020H   SYMBOL    DATA     BYTE      ?_PUTS?BYTE
      01000F8AH   SYMBOL    CODE     NEAR LAB  ?C0001
      01000F76H   SYMBOL    CODE     NEAR LAB  ?C0002
      01000F7EH   SYMBOL    CODE     NEAR LAB  ?C0003
      01000F86H   SYMBOL    CODE     NEAR LAB  ?C0004
      01000F8EH   SYMBOL    CODE     NEAR LAB  ?C0005
      01001121H   SYMBOL    CODE     NEAR LAB  ?C0007
      01001124H   SYMBOL    CODE     NEAR LAB  ?C0008
      01001127H   SYMBOL    CODE     NEAR LAB  ?C0010
      0100112AH   SYMBOL    CODE     NEAR LAB  ?C0011
      0100112EH   SYMBOL    CODE     NEAR LAB  ?C0012
      01001065H   SYMBOL    CODE     NEAR LAB  ?C0014
      01001083H   SYMBOL    CODE     NEAR LAB  ?C0016
      01001137H   SYMBOL    CODE     NEAR LAB  ?C0017
      01000FEAH   SYMBOL    CODE     NEAR LAB  ?C0018
      01001078H   SYMBOL    CODE     NEAR LAB  ?C0020
      0100111FH   SYMBOL    CODE     NEAR LAB  _SERIAL_WRITE
      01000F52H   SYMBOL    CODE     NEAR LAB  _SETUP_BAUDRATE
      00000020H   SYMBOL    DATA     BYTE      S?544
      01001127H   SYMBOL    CODE     NEAR LAB  SERIAL_READ

      01000F52H   BLOCK     CODE     NEAR LAB  LVL=0
      01000F52H   LINE      CODE     ---       #221
      01000F55H   LINE      CODE     ---       #224
      01000F57H   LINE      CODE     ---       #227
      01000F59H   LINE      CODE     ---       #230
      01000F5BH   LINE      CODE     ---       #233
      01000F5EH   LINE      CODE     ---       #237
      01000F61H   LINE      CODE     ---       #240
LX51 LINKER/LOCATER V4.34a                                                            05/14/2009  22:01:21  PAGE 56


      01000F64H   LINE      CODE     ---       #244
      01000F65H   LINE      CODE     ---       #245
      01000F67H   LINE      CODE     ---       #246
      01000F76H   LINE      CODE     ---       #258
      01000F79H   LINE      CODE     ---       #261
      01000F7CH   LINE      CODE     ---       #264
      01000F7EH   LINE      CODE     ---       #270
      01000F81H   LINE      CODE     ---       #273
      01000F84H   LINE      CODE     ---       #276
      01000F86H   LINE      CODE     ---       #283
      01000F87H   LINE      CODE     ---       #284
      01000F88H   LINE      CODE     ---       #285
      01000F89H   LINE      CODE     ---       #286
      01000F8AH   LINE      CODE     ---       #292
      01000F8CH   LINE      CODE     ---       #293
      01000F8EH   LINE      CODE     ---       #297
      ---         BLOCKEND  ---      ---       LVL=0

      01001115H   BLOCK     CODE     NEAR LAB  LVL=0
      01001115H   LINE      CODE     ---       #319
      01001118H   LINE      CODE     ---       #322
      0100111BH   LINE      CODE     ---       #325
      0100111EH   LINE      CODE     ---       #328
      ---         BLOCKEND  ---      ---       LVL=0

      0100111FH   BLOCK     CODE     NEAR LAB  LVL=0
      0100111FH   LINE      CODE     ---       #345
      01001121H   LINE      CODE     ---       #349
      01001124H   LINE      CODE     ---       #354
      01001126H   LINE      CODE     ---       #357
      ---         BLOCKEND  ---      ---       LVL=0

      01001127H   BLOCK     CODE     NEAR LAB  LVL=0
      01001127H   LINE      CODE     ---       #375
      0100112AH   LINE      CODE     ---       #380
      0100112CH   LINE      CODE     ---       #383
      0100112EH   LINE      CODE     ---       #387
      ---         BLOCKEND  ---      ---       LVL=0

      01001138H   BLOCK     CODE     NEAR LAB  LVL=0
      01001138H   LINE      CODE     ---       #402
      ---         BLOCKEND  ---      ---       LVL=0

      0100105FH   BLOCK     CODE     NEAR LAB  LVL=0
      0100105FH   LINE      CODE     ---       #413
      01001061H   LINE      CODE     ---       #414
      01001063H   LINE      CODE     ---       #415
      01001065H   LINE      CODE     ---       #421
      01001067H   LINE      CODE     ---       #422
      01001069H   LINE      CODE     ---       #423
      0100106BH   LINE      CODE     ---       #424
      0100106EH   LINE      CODE     ---       #425
      01001070H   LINE      CODE     ---       #428
      01001072H   LINE      CODE     ---       #429
      01001074H   LINE      CODE     ---       #430
      01001076H   LINE      CODE     ---       #431
      01001078H   LINE      CODE     ---       #433
      01001079H   LINE      CODE     ---       #434
      0100107AH   LINE      CODE     ---       #435
      0100107DH   LINE      CODE     ---       #436
      0100107EH   LINE      CODE     ---       #437
      01001081H   LINE      CODE     ---       #438
      01001083H   LINE      CODE     ---       #442
      ---         BLOCKEND  ---      ---       LVL=0

LX51 LINKER/LOCATER V4.34a                                                            05/14/2009  22:01:21  PAGE 57


      01001134H   BLOCK     CODE     NEAR LAB  LVL=0
      01001134H   LINE      CODE     ---       #456
      01001137H   LINE      CODE     ---       #460
      ---         BLOCKEND  ---      ---       LVL=0

      01000FCAH   BLOCK     CODE     NEAR LAB  LVL=0
      01000FCAH   LINE      CODE     ---       #474
      01000FCCH   LINE      CODE     ---       #475
      01000FCEH   LINE      CODE     ---       #476
      01000FD0H   LINE      CODE     ---       #477
      01000FD2H   LINE      CODE     ---       #478
      01000FD3H   LINE      CODE     ---       #479
      01000FD5H   LINE      CODE     ---       #483
      01000FD7H   LINE      CODE     ---       #484
      01000FD8H   LINE      CODE     ---       #485
      01000FD9H   LINE      CODE     ---       #486
      01000FDAH   LINE      CODE     ---       #487
      01000FDBH   LINE      CODE     ---       #488
      01000FDCH   LINE      CODE     ---       #489
      01000FDEH   LINE      CODE     ---       #490
      01000FE0H   LINE      CODE     ---       #491
      01000FE3H   LINE      CODE     ---       #492
      01000FE4H   LINE      CODE     ---       #493
      01000FE5H   LINE      CODE     ---       #494
      01000FE7H   LINE      CODE     ---       #497
      01000FEAH   LINE      CODE     ---       #501
      01000FECH   LINE      CODE     ---       #502
      01000FEDH   LINE      CODE     ---       #503
      01000FEEH   LINE      CODE     ---       #504
      01000FEFH   LINE      CODE     ---       #505
      01000FF0H   LINE      CODE     ---       #506
      01000FF1H   LINE      CODE     ---       #507
      01000FF3H   LINE      CODE     ---       #508
      01000FF5H   LINE      CODE     ---       #509
      01000FF8H   LINE      CODE     ---       #510
      01000FF9H   LINE      CODE     ---       #511
      01000FFBH   LINE      CODE     ---       #512
      01000FFCH   LINE      CODE     ---       #513
      01000FFFH   LINE      CODE     ---       #516
      01001001H   LINE      CODE     ---       #517
      01001003H   LINE      CODE     ---       #518
      ---         BLOCKEND  ---      ---       LVL=0

      ---         MODULE    ---      ---       SPI
      0100112FH   PUBLIC    CODE     NEAR LAB  _SPI_INIT
      010010E5H   PUBLIC    CODE     NEAR LAB  _SPI_WRITE_THEN_READ
      000000D0H.6 SFRSYM    DATA     BIT       AC
      000000E0H   SFRSYM    DATA     BYTE      ACC
      000000A1H   SFRSYM    DATA     BYTE      ADCCON
      000000A2H   SFRSYM    DATA     BYTE      ADCDATAH
      000000A3H   SFRSYM    DATA     BYTE      ADCDATAL
      000000A4H   SFRSYM    DATA     BYTE      ADCSTATIC
      000000F0H   SFRSYM    DATA     BYTE      B
      000000C8H.1 SFRSYM    DATA     BIT       C_T2
      000000A0H.6 SFRSYM    DATA     BIT       CE
      000000B6H   SFRSYM    DATA     BYTE      CK_CTRL
      0000008EH   SFRSYM    DATA     BYTE      CKCON
      000000A0H.1 SFRSYM    DATA     BIT       CLK1
      000000A0H.5 SFRSYM    DATA     BIT       CLK2
      000000C8H   SFRSYM    DATA     BIT       CP_RL2
      000000C8H   SFRSYM    DATA     BIT       CPRL2
      000000A0H.3 SFRSYM    DATA     BIT       CS
      000000C8H.1 SFRSYM    DATA     BIT       CT2
      000000D0H.7 SFRSYM    DATA     BIT       CY
      000000A0H   SFRSYM    DATA     BIT       DATA?
LX51 LINKER/LOCATER V4.34a                                                            05/14/2009  22:01:21  PAGE 58


      000000BEH   SFRSYM    DATA     BYTE      DEV_OFFSET
      00000090H.2 SFRSYM    DATA     BIT       DIN0
      00000090H   SFRSYM    DATA     BIT       DIO0
      00000090H.1 SFRSYM    DATA     BIT       DIO1
      00000080H   SFRSYM    DATA     BIT       DIO2
      00000080H.1 SFRSYM    DATA     BIT       DIO3
      00000080H.2 SFRSYM    DATA     BIT       DIO4
      00000080H.3 SFRSYM    DATA     BIT       DIO5
      00000080H.4 SFRSYM    DATA     BIT       DIO6
      00000080H.5 SFRSYM    DATA     BIT       DIO7
      00000080H.6 SFRSYM    DATA     BIT       DIO8
      00000080H.7 SFRSYM    DATA     BIT       DIO9
      000000A0H.4 SFRSYM    DATA     BIT       DOUT2
      00000083H   SFRSYM    DATA     BYTE      DPH
      00000083H   SFRSYM    DATA     BYTE      DPH0
      00000085H   SFRSYM    DATA     BYTE      DPH1
      00000082H   SFRSYM    DATA     BYTE      DPL
      00000082H   SFRSYM    DATA     BYTE      DPL0
      00000084H   SFRSYM    DATA     BYTE      DPL1
      00000086H   SFRSYM    DATA     BYTE      DPS
      000000A0H.2 SFRSYM    DATA     BIT       DR1
      000000A0H.6 SFRSYM    DATA     BIT       DR2
      000000A0H.6 SFRSYM    DATA     BIT       DR2_CE
      000000A8H.7 SFRSYM    DATA     BIT       EA
      000000D8H   SFRSYM    DATA     BYTE      EICON
      000000E8H   SFRSYM    DATA     BYTE      EIE
      000000F8H   SFRSYM    DATA     BYTE      EIP
      000000A8H.4 SFRSYM    DATA     BIT       ES
      000000A8H.1 SFRSYM    DATA     BIT       ET0
      000000A8H.3 SFRSYM    DATA     BIT       ET1
      000000A8H.5 SFRSYM    DATA     BIT       ET2
      000000E8H.4 SFRSYM    DATA     BIT       EWDI
      000000A8H   SFRSYM    DATA     BIT       EX0
      000000A8H.2 SFRSYM    DATA     BIT       EX1
      000000E8H   SFRSYM    DATA     BIT       EX2
      000000E8H.1 SFRSYM    DATA     BIT       EX3
      000000E8H.2 SFRSYM    DATA     BIT       EX4
      000000E8H.3 SFRSYM    DATA     BIT       EX5
      000000C8H.3 SFRSYM    DATA     BIT       EXEN2
      000000C8H.6 SFRSYM    DATA     BIT       EXF2
      00000091H   SFRSYM    DATA     BYTE      EXIF
      000000D0H.5 SFRSYM    DATA     BIT       F0
      000000D0H.1 SFRSYM    DATA     BIT       F1
      000000A8H   SFRSYM    DATA     BYTE      IE
      00000088H.1 SFRSYM    DATA     BIT       IE0
      00000088H.3 SFRSYM    DATA     BIT       IE1
      00000080H.3 SFRSYM    DATA     BIT       INT0_N
      00000080H.4 SFRSYM    DATA     BIT       INT1_N
      000000B8H   SFRSYM    DATA     BYTE      IP
      00000088H   SFRSYM    DATA     BIT       IT0
      00000088H.2 SFRSYM    DATA     BIT       IT1
      00000092H   SFRSYM    DATA     BYTE      MPAGE
      000000D0H.2 SFRSYM    DATA     BIT       OV
      000000D0H   SFRSYM    DATA     BIT       P
      00000080H   SFRSYM    DATA     BYTE      P0
      00000080H   SFRSYM    DATA     BIT       P0_0
      00000080H.1 SFRSYM    DATA     BIT       P0_1
      00000080H.2 SFRSYM    DATA     BIT       P0_2
      00000080H.3 SFRSYM    DATA     BIT       P0_3
      00000080H.4 SFRSYM    DATA     BIT       P0_4
      00000080H.5 SFRSYM    DATA     BIT       P0_5
      00000080H.6 SFRSYM    DATA     BIT       P0_6
      00000080H.7 SFRSYM    DATA     BIT       P0_7
      00000095H   SFRSYM    DATA     BYTE      P0_ALT
      00000094H   SFRSYM    DATA     BYTE      P0_DIR
LX51 LINKER/LOCATER V4.34a                                                            05/14/2009  22:01:21  PAGE 59


      00000090H   SFRSYM    DATA     BYTE      P1
      00000090H   SFRSYM    DATA     BIT       P1_0
      00000090H.1 SFRSYM    DATA     BIT       P1_1
      00000090H.2 SFRSYM    DATA     BIT       P1_2
      00000097H   SFRSYM    DATA     BYTE      P1_ALT
      00000096H   SFRSYM    DATA     BYTE      P1_DIR
      00000087H   SFRSYM    DATA     BYTE      PCON
      000000B8H.4 SFRSYM    DATA     BIT       PS
      000000D0H   SFRSYM    DATA     BYTE      PSW
      000000B8H.1 SFRSYM    DATA     BIT       PT0
      000000B8H.3 SFRSYM    DATA     BIT       PT1
      000000B8H.5 SFRSYM    DATA     BIT       PT2
      000000F8H.4 SFRSYM    DATA     BIT       PWDI
      00000080H.7 SFRSYM    DATA     BIT       PWM
      000000A9H   SFRSYM    DATA     BYTE      PWMCON
      000000AAH   SFRSYM    DATA     BYTE      PWMDUTY
      000000A0H.7 SFRSYM    DATA     BIT       PWR_UP
      000000B8H   SFRSYM    DATA     BIT       PX0
      000000B8H.2 SFRSYM    DATA     BIT       PX1
      000000F8H   SFRSYM    DATA     BIT       PX2
      000000F8H.1 SFRSYM    DATA     BIT       PX3
      000000F8H.2 SFRSYM    DATA     BIT       PX4
      000000F8H.3 SFRSYM    DATA     BIT       PX5
      000000A0H   SFRSYM    DATA     BYTE      RADIO
      00000098H.2 SFRSYM    DATA     BIT       RB8
      000000CBH   SFRSYM    DATA     BYTE      RCAP2H
      000000CAH   SFRSYM    DATA     BYTE      RCAP2L
      000000C8H.5 SFRSYM    DATA     BIT       RCLK
      000000ADH   SFRSYM    DATA     BYTE      REGX_CTRL
      000000ACH   SFRSYM    DATA     BYTE      REGX_LSB
      000000ABH   SFRSYM    DATA     BYTE      REGX_MSB
      00000098H.4 SFRSYM    DATA     BIT       REN
      00000098H   SFRSYM    DATA     BIT       RI
      000000D0H.3 SFRSYM    DATA     BIT       RS0
      000000D0H.4 SFRSYM    DATA     BIT       RS1
      000000B1H   SFRSYM    DATA     BYTE      RSTREAS
      00000080H.1 SFRSYM    DATA     BIT       RXD
      00000099H   SFRSYM    DATA     BYTE      SBUF
      00000098H   SFRSYM    DATA     BYTE      SCON
      00000098H.7 SFRSYM    DATA     BIT       SM0
      00000098H.6 SFRSYM    DATA     BIT       SM1
      00000098H.5 SFRSYM    DATA     BIT       SM2
      00000081H   SFRSYM    DATA     BYTE      SP
      0000008FH   SFRSYM    DATA     BYTE      SPC_FNC
      000000B3H   SFRSYM    DATA     BYTE      SPI_CTRL
      000000B2H   SFRSYM    DATA     BYTE      SPI_DATA
      000000B4H   SFRSYM    DATA     BYTE      SPICLK
      00000080H.5 SFRSYM    DATA     BIT       T0
      00000080H.6 SFRSYM    DATA     BIT       T1
      000000BCH   SFRSYM    DATA     BYTE      T1_1V2
      00000090H   SFRSYM    DATA     BIT       T2
      000000BDH   SFRSYM    DATA     BYTE      T2_1V2
      000000C8H   SFRSYM    DATA     BYTE      T2CON
      00000098H.3 SFRSYM    DATA     BIT       TB8
      000000C8H.4 SFRSYM    DATA     BIT       TCLK
      00000088H   SFRSYM    DATA     BYTE      TCON
      000000B7H   SFRSYM    DATA     BYTE      TEST_MODE
      00000088H.5 SFRSYM    DATA     BIT       TF0
      00000088H.7 SFRSYM    DATA     BIT       TF1
      000000C8H.7 SFRSYM    DATA     BIT       TF2
      0000008CH   SFRSYM    DATA     BYTE      TH0
      0000008DH   SFRSYM    DATA     BYTE      TH1
      000000CDH   SFRSYM    DATA     BYTE      TH2
      00000098H.1 SFRSYM    DATA     BIT       TI
      000000B5H   SFRSYM    DATA     BYTE      TICK_DV
LX51 LINKER/LOCATER V4.34a                                                            05/14/2009  22:01:21  PAGE 60


      0000008AH   SFRSYM    DATA     BYTE      TL0
      0000008BH   SFRSYM    DATA     BYTE      TL1
      000000CCH   SFRSYM    DATA     BYTE      TL2
      00000089H   SFRSYM    DATA     BYTE      TMOD
      00000088H.4 SFRSYM    DATA     BIT       TR0
      00000088H.6 SFRSYM    DATA     BIT       TR1
      000000C8H.2 SFRSYM    DATA     BIT       TR2
      00000080H.2 SFRSYM    DATA     BIT       TXD
      000000D8H.3 SFRSYM    DATA     BIT       WDTI
      010010EAH   SYMBOL    CODE     NEAR LAB  ?C0002
      010010EFH   SYMBOL    CODE     NEAR LAB  ?C0003
      010010F1H   SYMBOL    CODE     NEAR LAB  ?C0004

      0100112FH   BLOCK     CODE     NEAR LAB  LVL=0
      0100112FH   LINE      CODE     ---       #203
      01001131H   LINE      CODE     ---       #206
      01001133H   LINE      CODE     ---       #209
      ---         BLOCKEND  ---      ---       LVL=0

      010010E5H   BLOCK     CODE     NEAR LAB  LVL=0
      010010E5H   LINE      CODE     ---       #229
      010010E8H   LINE      CODE     ---       #232
      010010EAH   LINE      CODE     ---       #236
      010010ECH   LINE      CODE     ---       #237
      010010EFH   LINE      CODE     ---       #242
      010010F1H   LINE      CODE     ---       #246
      ---         BLOCKEND  ---      ---       LVL=0

      ---         MODULE    ---      ---       EEPROM
      01001033H   PUBLIC    CODE     NEAR LAB  _EEPROM_READ
      01000F8FH   PUBLIC    CODE     NEAR LAB  _EEPROM_WRITE
      0100110AH   PUBLIC    CODE     NEAR LAB  EEPROM_INIT
      010010C9H   PUBLIC    CODE     NEAR LAB  EEPROM_STATUS
      01001084H   PUBLIC    CODE     NEAR LAB  FLASH_ERASE_ALL
      000000D0H.6 SFRSYM    DATA     BIT       AC
      000000E0H   SFRSYM    DATA     BYTE      ACC
      000000A1H   SFRSYM    DATA     BYTE      ADCCON
      000000A2H   SFRSYM    DATA     BYTE      ADCDATAH
      000000A3H   SFRSYM    DATA     BYTE      ADCDATAL
      000000A4H   SFRSYM    DATA     BYTE      ADCSTATIC
      000000F0H   SFRSYM    DATA     BYTE      B
      000000C8H.1 SFRSYM    DATA     BIT       C_T2
      000000A0H.6 SFRSYM    DATA     BIT       CE
      000000B6H   SFRSYM    DATA     BYTE      CK_CTRL
      0000008EH   SFRSYM    DATA     BYTE      CKCON
      000000A0H.1 SFRSYM    DATA     BIT       CLK1
      000000A0H.5 SFRSYM    DATA     BIT       CLK2
      000000C8H   SFRSYM    DATA     BIT       CP_RL2
      000000C8H   SFRSYM    DATA     BIT       CPRL2
      000000A0H.3 SFRSYM    DATA     BIT       CS
      000000C8H.1 SFRSYM    DATA     BIT       CT2
      000000D0H.7 SFRSYM    DATA     BIT       CY
      000000A0H   SFRSYM    DATA     BIT       DATA?
      000000BEH   SFRSYM    DATA     BYTE      DEV_OFFSET
      00000090H.2 SFRSYM    DATA     BIT       DIN0
      00000090H   SFRSYM    DATA     BIT       DIO0
      00000090H.1 SFRSYM    DATA     BIT       DIO1
      00000080H   SFRSYM    DATA     BIT       DIO2
      00000080H.1 SFRSYM    DATA     BIT       DIO3
      00000080H.2 SFRSYM    DATA     BIT       DIO4
      00000080H.3 SFRSYM    DATA     BIT       DIO5
      00000080H.4 SFRSYM    DATA     BIT       DIO6
      00000080H.5 SFRSYM    DATA     BIT       DIO7
      00000080H.6 SFRSYM    DATA     BIT       DIO8
      00000080H.7 SFRSYM    DATA     BIT       DIO9
LX51 LINKER/LOCATER V4.34a                                                            05/14/2009  22:01:21  PAGE 61


      000000A0H.4 SFRSYM    DATA     BIT       DOUT2
      00000083H   SFRSYM    DATA     BYTE      DPH
      00000083H   SFRSYM    DATA     BYTE      DPH0
      00000085H   SFRSYM    DATA     BYTE      DPH1
      00000082H   SFRSYM    DATA     BYTE      DPL
      00000082H   SFRSYM    DATA     BYTE      DPL0
      00000084H   SFRSYM    DATA     BYTE      DPL1
      00000086H   SFRSYM    DATA     BYTE      DPS
      000000A0H.2 SFRSYM    DATA     BIT       DR1
      000000A0H.6 SFRSYM    DATA     BIT       DR2
      000000A0H.6 SFRSYM    DATA     BIT       DR2_CE
      000000A8H.7 SFRSYM    DATA     BIT       EA
      000000D8H   SFRSYM    DATA     BYTE      EICON
      000000E8H   SFRSYM    DATA     BYTE      EIE
      000000F8H   SFRSYM    DATA     BYTE      EIP
      000000A8H.4 SFRSYM    DATA     BIT       ES
      000000A8H.1 SFRSYM    DATA     BIT       ET0
      000000A8H.3 SFRSYM    DATA     BIT       ET1
      000000A8H.5 SFRSYM    DATA     BIT       ET2
      000000E8H.4 SFRSYM    DATA     BIT       EWDI
      000000A8H   SFRSYM    DATA     BIT       EX0
      000000A8H.2 SFRSYM    DATA     BIT       EX1
      000000E8H   SFRSYM    DATA     BIT       EX2
      000000E8H.1 SFRSYM    DATA     BIT       EX3
      000000E8H.2 SFRSYM    DATA     BIT       EX4
      000000E8H.3 SFRSYM    DATA     BIT       EX5
      000000C8H.3 SFRSYM    DATA     BIT       EXEN2
      000000C8H.6 SFRSYM    DATA     BIT       EXF2
      00000091H   SFRSYM    DATA     BYTE      EXIF
      000000D0H.5 SFRSYM    DATA     BIT       F0
      000000D0H.1 SFRSYM    DATA     BIT       F1
      000000A8H   SFRSYM    DATA     BYTE      IE
      00000088H.1 SFRSYM    DATA     BIT       IE0
      00000088H.3 SFRSYM    DATA     BIT       IE1
      00000080H.3 SFRSYM    DATA     BIT       INT0_N
      00000080H.4 SFRSYM    DATA     BIT       INT1_N
      000000B8H   SFRSYM    DATA     BYTE      IP
      00000088H   SFRSYM    DATA     BIT       IT0
      00000088H.2 SFRSYM    DATA     BIT       IT1
      00000092H   SFRSYM    DATA     BYTE      MPAGE
      000000D0H.2 SFRSYM    DATA     BIT       OV
      000000D0H   SFRSYM    DATA     BIT       P
      00000080H   SFRSYM    DATA     BYTE      P0
      00000080H   SFRSYM    DATA     BIT       P0_0
      00000080H.1 SFRSYM    DATA     BIT       P0_1
      00000080H.2 SFRSYM    DATA     BIT       P0_2
      00000080H.3 SFRSYM    DATA     BIT       P0_3
      00000080H.4 SFRSYM    DATA     BIT       P0_4
      00000080H.5 SFRSYM    DATA     BIT       P0_5
      00000080H.6 SFRSYM    DATA     BIT       P0_6
      00000080H.7 SFRSYM    DATA     BIT       P0_7
      00000095H   SFRSYM    DATA     BYTE      P0_ALT
      00000094H   SFRSYM    DATA     BYTE      P0_DIR
      00000090H   SFRSYM    DATA     BYTE      P1
      00000090H   SFRSYM    DATA     BIT       P1_0
      00000090H.1 SFRSYM    DATA     BIT       P1_1
      00000090H.2 SFRSYM    DATA     BIT       P1_2
      00000097H   SFRSYM    DATA     BYTE      P1_ALT
      00000096H   SFRSYM    DATA     BYTE      P1_DIR
      00000087H   SFRSYM    DATA     BYTE      PCON
      000000B8H.4 SFRSYM    DATA     BIT       PS
      000000D0H   SFRSYM    DATA     BYTE      PSW
      000000B8H.1 SFRSYM    DATA     BIT       PT0
      000000B8H.3 SFRSYM    DATA     BIT       PT1
      000000B8H.5 SFRSYM    DATA     BIT       PT2
LX51 LINKER/LOCATER V4.34a                                                            05/14/2009  22:01:21  PAGE 62


      000000F8H.4 SFRSYM    DATA     BIT       PWDI
      00000080H.7 SFRSYM    DATA     BIT       PWM
      000000A9H   SFRSYM    DATA     BYTE      PWMCON
      000000AAH   SFRSYM    DATA     BYTE      PWMDUTY
      000000A0H.7 SFRSYM    DATA     BIT       PWR_UP
      000000B8H   SFRSYM    DATA     BIT       PX0
      000000B8H.2 SFRSYM    DATA     BIT       PX1
      000000F8H   SFRSYM    DATA     BIT       PX2
      000000F8H.1 SFRSYM    DATA     BIT       PX3
      000000F8H.2 SFRSYM    DATA     BIT       PX4
      000000F8H.3 SFRSYM    DATA     BIT       PX5
      000000A0H   SFRSYM    DATA     BYTE      RADIO
      00000098H.2 SFRSYM    DATA     BIT       RB8
      000000CBH   SFRSYM    DATA     BYTE      RCAP2H
      000000CAH   SFRSYM    DATA     BYTE      RCAP2L
      000000C8H.5 SFRSYM    DATA     BIT       RCLK
      000000ADH   SFRSYM    DATA     BYTE      REGX_CTRL
      000000ACH   SFRSYM    DATA     BYTE      REGX_LSB
      000000ABH   SFRSYM    DATA     BYTE      REGX_MSB
      00000098H.4 SFRSYM    DATA     BIT       REN
      00000098H   SFRSYM    DATA     BIT       RI
      000000D0H.3 SFRSYM    DATA     BIT       RS0
      000000D0H.4 SFRSYM    DATA     BIT       RS1
      000000B1H   SFRSYM    DATA     BYTE      RSTREAS
      00000080H.1 SFRSYM    DATA     BIT       RXD
      00000099H   SFRSYM    DATA     BYTE      SBUF
      00000098H   SFRSYM    DATA     BYTE      SCON
      00000098H.7 SFRSYM    DATA     BIT       SM0
      00000098H.6 SFRSYM    DATA     BIT       SM1
      00000098H.5 SFRSYM    DATA     BIT       SM2
      00000081H   SFRSYM    DATA     BYTE      SP
      0000008FH   SFRSYM    DATA     BYTE      SPC_FNC
      000000B3H   SFRSYM    DATA     BYTE      SPI_CTRL
      000000B2H   SFRSYM    DATA     BYTE      SPI_DATA
      000000B4H   SFRSYM    DATA     BYTE      SPICLK
      00000080H.5 SFRSYM    DATA     BIT       T0
      00000080H.6 SFRSYM    DATA     BIT       T1
      000000BCH   SFRSYM    DATA     BYTE      T1_1V2
      00000090H   SFRSYM    DATA     BIT       T2
      000000BDH   SFRSYM    DATA     BYTE      T2_1V2
      000000C8H   SFRSYM    DATA     BYTE      T2CON
      00000098H.3 SFRSYM    DATA     BIT       TB8
      000000C8H.4 SFRSYM    DATA     BIT       TCLK
      00000088H   SFRSYM    DATA     BYTE      TCON
      000000B7H   SFRSYM    DATA     BYTE      TEST_MODE
      00000088H.5 SFRSYM    DATA     BIT       TF0
      00000088H.7 SFRSYM    DATA     BIT       TF1
      000000C8H.7 SFRSYM    DATA     BIT       TF2
      0000008CH   SFRSYM    DATA     BYTE      TH0
      0000008DH   SFRSYM    DATA     BYTE      TH1
      000000CDH   SFRSYM    DATA     BYTE      TH2
      00000098H.1 SFRSYM    DATA     BIT       TI
      000000B5H   SFRSYM    DATA     BYTE      TICK_DV
      0000008AH   SFRSYM    DATA     BYTE      TL0
      0000008BH   SFRSYM    DATA     BYTE      TL1
      000000CCH   SFRSYM    DATA     BYTE      TL2
      00000089H   SFRSYM    DATA     BYTE      TMOD
      00000088H.4 SFRSYM    DATA     BIT       TR0
      00000088H.6 SFRSYM    DATA     BIT       TR1
      000000C8H.2 SFRSYM    DATA     BIT       TR2
      00000080H.2 SFRSYM    DATA     BIT       TXD
      000000D8H.3 SFRSYM    DATA     BIT       WDTI
      00000026H   SYMBOL    DATA     BYTE      ?_EEPROM_READ?BYTE
      00000023H   SYMBOL    DATA     BYTE      ?_EEPROM_WRITE?BYTE
      010010D7H   SYMBOL    CODE     NEAR LAB  ?C0002
LX51 LINKER/LOCATER V4.34a                                                            05/14/2009  22:01:21  PAGE 63


      01000F95H   SYMBOL    CODE     NEAR LAB  ?C0003
      01000F9CH   SYMBOL    CODE     NEAR LAB  ?C0004
      0100103AH   SYMBOL    CODE     NEAR LAB  ?C0006
      01001041H   SYMBOL    CODE     NEAR LAB  ?C0007
      0100105EH   SYMBOL    CODE     NEAR LAB  ?C0008
      01001084H   SYMBOL    CODE     NEAR LAB  ?C0009
      0100108BH   SYMBOL    CODE     NEAR LAB  ?C0010
      0100109DH   SYMBOL    CODE     NEAR LAB  ?C0012
      00000023H   SYMBOL    DATA     BYTE      ADDR?241
      00000026H   SYMBOL    DATA     BYTE      ADDR?343
      00000025H   SYMBOL    DATA     BYTE      BYTE?242
      00000028H   SYMBOL    DATA     BYTE      BYTE?344

      0100110AH   BLOCK     CODE     NEAR LAB  LVL=0
      0100110AH   LINE      CODE     ---       #244
      0100110BH   LINE      CODE     ---       #245
      0100110CH   LINE      CODE     ---       #246
      0100110EH   LINE      CODE     ---       #247
      01001111H   LINE      CODE     ---       #251
      01001114H   LINE      CODE     ---       #254
      ---         BLOCKEND  ---      ---       LVL=0

      010010C9H   BLOCK     CODE     NEAR LAB  LVL=0
      010010C9H   LINE      CODE     ---       #270
      010010CBH   LINE      CODE     ---       #273
      010010CDH   LINE      CODE     ---       #274
      010010D0H   LINE      CODE     ---       #278
      010010D1H   LINE      CODE     ---       #279
      010010D2H   LINE      CODE     ---       #280
      010010D5H   LINE      CODE     ---       #284
      010010D7H   LINE      CODE     ---       #291
      ---         BLOCKEND  ---      ---       LVL=0

      01000F8FH   BLOCK     CODE     NEAR LAB  LVL=0
      01000F8FH   LINE      CODE     ---       #305
      01000F91H   LINE      CODE     ---       #306
      01000F93H   LINE      CODE     ---       #307
      01000F95H   LINE      CODE     ---       #313
      01000F98H   LINE      CODE     ---       #314
      01000F99H   LINE      CODE     ---       #315
      01000F9CH   LINE      CODE     ---       #320
      01000F9EH   LINE      CODE     ---       #323
      01000FA0H   LINE      CODE     ---       #324
      01000FA3H   LINE      CODE     ---       #327
      01000FA5H   LINE      CODE     ---       #330
      01000FA7H   LINE      CODE     ---       #333
      01000FA9H   LINE      CODE     ---       #334
      01000FACH   LINE      CODE     ---       #337
      01000FAEH   LINE      CODE     ---       #338
      01000FAFH   LINE      CODE     ---       #339
      01000FB2H   LINE      CODE     ---       #342
      01000FB4H   LINE      CODE     ---       #343
      01000FB6H   LINE      CODE     ---       #344
      01000FB9H   LINE      CODE     ---       #347
      01000FBBH   LINE      CODE     ---       #348
      01000FBEH   LINE      CODE     ---       #351
      01000FC0H   LINE      CODE     ---       #354
      01000FC2H   LINE      CODE     ---       #357
      01000FC4H   LINE      CODE     ---       #358
      01000FC7H   LINE      CODE     ---       #361
      01000FC9H   LINE      CODE     ---       #364
      ---         BLOCKEND  ---      ---       LVL=0

      01001033H   BLOCK     CODE     NEAR LAB  LVL=0
      01001033H   LINE      CODE     ---       #377
LX51 LINKER/LOCATER V4.34a                                                            05/14/2009  22:01:21  PAGE 64


      01001035H   LINE      CODE     ---       #378
      01001037H   LINE      CODE     ---       #383
      01001038H   LINE      CODE     ---       #384
      0100103AH   LINE      CODE     ---       #388
      0100103DH   LINE      CODE     ---       #389
      0100103EH   LINE      CODE     ---       #390
      01001041H   LINE      CODE     ---       #395
      01001043H   LINE      CODE     ---       #398
      01001045H   LINE      CODE     ---       #399
      01001048H   LINE      CODE     ---       #402
      0100104AH   LINE      CODE     ---       #403
      0100104BH   LINE      CODE     ---       #404
      0100104EH   LINE      CODE     ---       #407
      01001050H   LINE      CODE     ---       #408
      01001052H   LINE      CODE     ---       #409
      01001055H   LINE      CODE     ---       #412
      01001056H   LINE      CODE     ---       #413
      01001057H   LINE      CODE     ---       #414
      0100105AH   LINE      CODE     ---       #415
      0100105CH   LINE      CODE     ---       #418
      0100105EH   LINE      CODE     ---       #424
      ---         BLOCKEND  ---      ---       LVL=0

      01001084H   BLOCK     CODE     NEAR LAB  LVL=0
      01001084H   LINE      CODE     ---       #440
      01001087H   LINE      CODE     ---       #441
      01001088H   LINE      CODE     ---       #442
      0100108BH   LINE      CODE     ---       #447
      0100108DH   LINE      CODE     ---       #450
      0100108FH   LINE      CODE     ---       #451
      01001092H   LINE      CODE     ---       #454
      01001094H   LINE      CODE     ---       #457
      01001096H   LINE      CODE     ---       #460
      01001098H   LINE      CODE     ---       #461
      0100109BH   LINE      CODE     ---       #464
      0100109DH   LINE      CODE     ---       #472
      0100109FH   LINE      CODE     ---       #475
      010010A1H   LINE      CODE     ---       #476
      010010A4H   LINE      CODE     ---       #479
      010010A6H   LINE      CODE     ---       #482
      ---         BLOCKEND  ---      ---       LVL=0

      ---         MODULE    ---      ---       ?C_STARTUP
      01000000H   PUBLIC    CODE     ---       ?C_STARTUP

      ---         MODULE    ---      ---       ?C?COPY
      01000845H   PUBLIC    CODE     ---       ?C?COPY

      ---         MODULE    ---      ---       ?C?CLDPTR
      0100086BH   PUBLIC    CODE     ---       ?C?CLDPTR

      ---         MODULE    ---      ---       ?C?CSTPTR
      01000884H   PUBLIC    CODE     ---       ?C?CSTPTR

      ---         MODULE    ---      ---       ?C?UIDIV
      01000896H   PUBLIC    CODE     ---       ?C?UIDIV

      ---         MODULE    ---      ---       ?C?LMUL
      010008EBH   PUBLIC    CODE     ---       ?C?LMUL

      ---         MODULE    ---      ---       ?C?ULDIV
      01000976H   PUBLIC    CODE     ---       ?C?ULDIV

      ---         MODULE    ---      ---       ?C?ICASE
      01000A08H   PUBLIC    CODE     ---       ?C?ICASE
LX51 LINKER/LOCATER V4.34a                                                            05/14/2009  22:01:21  PAGE 65



      ---         MODULE    ---      ---       ?C_IBP
      00000030H   PUBLIC    DATA     ---       ?C_IBP

Program Size: data=179.0 xdata=160 const=0 code=4411
LX51 RUN COMPLETE.  0 WARNING(S),  0 ERROR(S)
