; ./main.src generated from: .\main.c
; COMPILER INVOKED BY:
;        C:\Keil\C51\BIN\C51.exe .\main.c BROWSE DEBUG CODE LISTINCLUDE SYMBOLS PREPRINT ROM(LARGE) INCDIR(../../Include) SRC(./main.src)

$NOMOD51

NAME	MAIN

PWR_UP	BIT	0A0H.7
P0	DATA	080H
P1	DATA	090H
AC	BIT	0D0H.6
T0	BIT	080H.5
SPI_CTRL	DATA	0B3H
T1	BIT	080H.6
EA	BIT	0A8H.7
T2	BIT	090H.0
CE	BIT	0A0H.6
DEV_OFFSET	DATA	0BEH
CLK1	BIT	0A0H.1
DIN0	BIT	090H.2
CLK2	BIT	0A0H.5
DIO0	BIT	090H.0
DPH0	DATA	083H
DIO1	BIT	090H.1
IE	DATA	0A8H
DPH1	DATA	085H
DIO2	BIT	080H.0
DIO3	BIT	080H.1
P0_0	BIT	080H.0
P1_0	BIT	090H.0
DIO4	BIT	080H.2
P0_1	BIT	080H.1
DPL0	DATA	082H
P1_1	BIT	090H.1
DIO5	BIT	080H.3
P0_2	BIT	080H.2
DPL1	DATA	084H
P1_2	BIT	090H.2
DIO6	BIT	080H.4
P0_3	BIT	080H.3
DIO7	BIT	080H.5
P0_4	BIT	080H.4
ADCSTATIC	DATA	0A4H
DIO8	BIT	080H.6
P0_5	BIT	080H.5
EXF2	BIT	0C8H.6
CS	BIT	0A0H.3
DIO9	BIT	080H.7
P0_6	BIT	080H.6
P0_7	BIT	080H.7
ES	BIT	0A8H.4
IP	DATA	0B8H
DATA?	BIT	0A0H.0
RI	BIT	098H.0
CY	BIT	0D0H.7
TI	BIT	098H.1
T1_1V2	DATA	0BCH
SPC_FNC	DATA	08FH
T2_1V2	DATA	0BDH
RCAP2H	DATA	0CBH
PS	BIT	0B8H.4
SP	DATA	081H
OV	BIT	0D0H.2
CK_CTRL	DATA	0B6H
RCAP2L	DATA	0CAH
TICK_DV	DATA	0B5H
RSTREAS	DATA	0B1H
C_T2	BIT	0C8H.1
EWDI	BIT	0E8H.4
ADCCON	DATA	0A1H
RCLK	BIT	0C8H.5
ADCDATAH	DATA	0A2H
EXIF	DATA	091H
TCLK	BIT	0C8H.4
DR2_CE	BIT	0A0H.6
ADCDATAL	DATA	0A3H
SBUF	DATA	099H
PCON	DATA	087H
SCON	DATA	098H
PWDI	BIT	0F8H.4
TMOD	DATA	089H
TCON	DATA	088H
WDTI	BIT	0D8H.3
PWMDUTY	DATA	0AAH
IE0	BIT	088H.1
IE1	BIT	088H.3
P0_DIR	DATA	094H
B	DATA	0F0H
P1_DIR	DATA	096H
P0_ALT	DATA	095H
P1_ALT	DATA	097H
CP_RL2	BIT	0C8H.0
DR1	BIT	0A0H.2
ACC	DATA	0E0H
DR2	BIT	0A0H.6
TEST_MODE	DATA	0B7H
SPICLK	DATA	0B4H
CT2	BIT	0C8H.1
ET0	BIT	0A8H.1
ET1	BIT	0A8H.3
TF0	BIT	088H.5
INT0_N	BIT	080H.3
ET2	BIT	0A8H.5
TF1	BIT	088H.7
INT1_N	BIT	080H.4
TF2	BIT	0C8H.7
RB8	BIT	098H.2
TH0	DATA	08CH
EX0	BIT	0A8H.0
IT0	BIT	088H.0
TH1	DATA	08DH
EX1	BIT	0A8H.2
TB8	BIT	098H.3
IT1	BIT	088H.2
TH2	DATA	0CDH
REGX_CTRL	DATA	0ADH
EX2	BIT	0E8H.0
P	BIT	0D0H.0
EX3	BIT	0E8H.1
SM0	BIT	098H.7
TL0	DATA	08AH
EX4	BIT	0E8H.2
SM1	BIT	098H.6
TL1	DATA	08BH
EX5	BIT	0E8H.3
SM2	BIT	098H.5
TL2	DATA	0CCH
EIE	DATA	0E8H
PT0	BIT	0B8H.1
RS0	BIT	0D0H.3
PT1	BIT	0B8H.3
RS1	BIT	0D0H.4
PT2	BIT	0B8H.5
TR0	BIT	088H.4
PWMCON	DATA	0A9H
TR1	BIT	088H.6
TR2	BIT	0C8H.2
PX0	BIT	0B8H.0
PX1	BIT	0B8H.2
PX2	BIT	0F8H.0
PX3	BIT	0F8H.1
PX4	BIT	0F8H.2
DPH	DATA	083H
PX5	BIT	0F8H.3
EIP	DATA	0F8H
DPL	DATA	082H
EXEN2	BIT	0C8H.3
CPRL2	BIT	0C8H.0
REN	BIT	098H.4
T2CON	DATA	0C8H
DPS	DATA	086H
SPI_DATA	DATA	0B2H
MPAGE	DATA	092H
RXD	BIT	080H.1
DOUT2	BIT	0A0H.4
EICON	DATA	0D8H
CKCON	DATA	08EH
TXD	BIT	080H.2
RADIO	DATA	0A0H
PWM	BIT	080H.7
F0	BIT	0D0H.5
F1	BIT	0D0H.1
REGX_LSB	DATA	0ACH
PSW	DATA	0D0H
REGX_MSB	DATA	0ABH
?PR?printD?MAIN      SEGMENT CODE 
?PR?_dijkstra?MAIN   SEGMENT CODE 
?PR?main?MAIN        SEGMENT CODE 
?DT?main?MAIN        SEGMENT DATA OVERLAYABLE 
?CO?MAIN             SEGMENT CODE 
?C_INITSEG           SEGMENT CODE 
?DT?MAIN             SEGMENT DATA 
?ID?MAIN             SEGMENT IDATA 
?ID?printD?MAIN      SEGMENT IDATA OVERLAYABLE 
?ID?_dijkstra?MAIN   SEGMENT IDATA OVERLAYABLE 
	EXTRN	CODE (_mdelay)
	EXTRN	CODE (_serial_init)
	EXTRN	CODE (_puts)
	EXTRN	CODE (_?int_print)
	EXTRN	CODE (_store_cpu_rate)
	EXTRN	CODE (?C_STARTUP)
	EXTRN	CODE (?C?SCDIV)
	PUBLIC	n
	PUBLIC	d
	PUBLIC	dist
	PUBLIC	dij_counter
	PUBLIC	main
	PUBLIC	_dijkstra
	PUBLIC	printD

	RSEG  ?DT?main?MAIN
?main?BYTE:
          j?247:   DS   1
	ORG  1
          k?248:   DS   1

	RSEG  ?DT?MAIN
    dij_counter:   DS   2
              n:   DS   1

	RSEG  ?ID?MAIN
           dist:   DS   144
              d:   DS   12

	RSEG  ?ID?printD?MAIN
          i?040:   DS   2

	RSEG  ?ID?_dijkstra?MAIN
          i?142:   DS   1

	RSEG  ?ID?_dijkstra?MAIN
          k?143:   DS   1

	RSEG  ?ID?_dijkstra?MAIN
       mini?144:   DS   1

	RSEG  ?ID?_dijkstra?MAIN
    visited?145:   DS   12

	RSEG  ?CO?MAIN
?SC_0:
	DB  '1' ,':' ,000H

?SC_3:
	DB  00DH,00AH,'2' ,':' ,000H

?SC_8:
	DB  00DH,00AH,000H


	RSEG ?ID?printD?MAIN

	RSEG  ?C_INITSEG
	DB	002H
	DB	dij_counter
	DW	00000H

; //#include <stdio.h>
; #include "Eco/reg24e1.h"
; #include "Eco/eco_sys.h"
; #include "utils/utils.h"
; #include "serial/serial.h"
; #include "isr/isr_rf.h"
; #include "eeprom/eeprom.h"
; #include "eco_page.h"
; #include "adc/adc.h"
; 
; #define GRAPHSIZE 12
; #define INFINITY GRAPHSIZE*GRAPHSIZE
; #define MAX(a, b) ((a > b) ? (a) : (b))
; 
; //char e = 10; /* The number of nonzero edges in the graph */
; char n; /* The number of nodes in the graph */
; char idata dist[GRAPHSIZE][GRAPHSIZE]; /* dist[i][j] is the distance between node i and j; or 0 if there is no direct connection */
; char idata d[GRAPHSIZE]; /* d[i] is the length of the shortest path between the source (s) and node i */
; 
; volatile int dij_counter = 0;
; 
; 
; void printD() {

	RSEG  ?PR?printD?MAIN
printD:
	USING	0
			; SOURCE LINE # 23
; 	int idata i;
; 	puts("1:");	
			; SOURCE LINE # 25
	MOV  	R3,#0FFH
	MOV  	R2,#HIGH (?SC_0)
	MOV  	R1,#LOW (?SC_0)
	LCALL	_puts
; 	for (i = 1; i <= n; i++)
			; SOURCE LINE # 26
	MOV  	R0,#LOW (i?040)
	MOV  	@R0,#00H
	INC  	R0
	MOV  	@R0,#01H
?C0001:
	MOV  	A,n
	MOV  	R5,A
	RLC  	A
	SUBB 	A,ACC
	MOV  	R4,A
	MOV  	R0,#LOW (i?040)
	MOV  	A,@R0
	MOV  	R6,A
	INC  	R0
	MOV  	A,@R0
	MOV  	R7,A
	SETB 	C
	SUBB 	A,R5
	MOV  	A,R4
	XRL  	A,#080H
	MOV  	R0,A
	MOV  	A,R6
	XRL  	A,#080H
	SUBB 	A,R0
	JNC  	?C0002
; 		int_print(i);
			; SOURCE LINE # 27
	LCALL	_?int_print
	MOV  	R0,#LOW (i?040+01H)
	INC  	@R0
	MOV  	A,@R0
	DEC  	R0
	JNZ  	?C0001
	INC  	@R0
?C0040:
	SJMP 	?C0001
?C0002:
; 	puts("\r\n2:");
			; SOURCE LINE # 28
	MOV  	R3,#0FFH
	MOV  	R2,#HIGH (?SC_3)
	MOV  	R1,#LOW (?SC_3)
	LCALL	_puts
; 	for (i = 1; i <= n; i++) 
			; SOURCE LINE # 29
	MOV  	R0,#LOW (i?040)
	MOV  	@R0,#00H
	INC  	R0
	MOV  	@R0,#01H
?C0004:
	MOV  	R7,n
	MOV  	A,R7
	RLC  	A
	SUBB 	A,ACC
	MOV  	R6,A
	MOV  	R0,#LOW (i?040)
	MOV  	A,@R0
	MOV  	R4,A
	INC  	R0
	MOV  	A,@R0
	MOV  	R5,A
	SETB 	C
	SUBB 	A,R7
	MOV  	A,R6
	XRL  	A,#080H
	MOV  	R0,A
	MOV  	A,R4
	XRL  	A,#080H
	SUBB 	A,R0
	JNC  	?C0005
; 		int_print(d[i]);
			; SOURCE LINE # 30
	MOV  	R7,AR5
	MOV  	A,#LOW (d)
	ADD  	A,R7
	MOV  	R0,A
	MOV  	A,@R0
	MOV  	R7,A
	RLC  	A
	SUBB 	A,ACC
	MOV  	R6,A
	LCALL	_?int_print
	MOV  	R0,#LOW (i?040+01H)
	INC  	@R0
	MOV  	A,@R0
	DEC  	R0
	JNZ  	?C0004
	INC  	@R0
?C0041:
	SJMP 	?C0004
?C0005:
; 	puts("\r\n");
			; SOURCE LINE # 31
	MOV  	R3,#0FFH
	MOV  	R2,#HIGH (?SC_8)
	MOV  	R1,#LOW (?SC_8)
	LJMP 	_puts
; END OF printD

; }
; 
; void dijkstra(char s) 

	RSEG  ?PR?_dijkstra?MAIN
_dijkstra:
	USING	0
			; SOURCE LINE # 34
;---- Variable 's?141' assigned to Register 'R7' ----
; {
			; SOURCE LINE # 35
; 	idata char i, k, mini;
; 	char idata visited[GRAPHSIZE];
; 
; 	for (i = 1; i <= n; i++) 
			; SOURCE LINE # 39
	MOV  	R0,#LOW (i?142)
	MOV  	@R0,#01H
?C0008:
	MOV  	R0,#LOW (i?142)
	MOV  	A,@R0
	MOV  	R6,A
	SETB 	C
	MOV  	A,n
	XRL  	A,#080H
	MOV  	R0,A
	MOV  	A,R6
	XRL  	A,#080H
	SUBB 	A,R0
	JNC  	?C0009
; 	{
			; SOURCE LINE # 40
; 		d[i] = INFINITY;
			; SOURCE LINE # 41
	MOV  	A,#LOW (d)
	ADD  	A,R6
	MOV  	R0,A
	MOV  	@R0,#090H
; 		visited[i] = 0; /* the i-th element has not yet been visited */
			; SOURCE LINE # 42
	MOV  	A,#LOW (visited?145)
	ADD  	A,R6
	MOV  	R0,A
	CLR  	A
	MOV  	@R0,A
; 	}
			; SOURCE LINE # 43
	MOV  	R0,#LOW (i?142)
	INC  	@R0
	SJMP 	?C0008
?C0009:
; 
; 	d[s] = 0;
			; SOURCE LINE # 45
	MOV  	A,#LOW (d)
	ADD  	A,R7
	MOV  	R0,A
	CLR  	A
	MOV  	@R0,A
; 
; 	for (k = 1; k <= n; k++) 
			; SOURCE LINE # 47
	MOV  	R0,#LOW (k?143)
	MOV  	@R0,#01H
?C0011:
	SETB 	C
	MOV  	A,n
	XRL  	A,#080H
	MOV  	B,A
	MOV  	R0,#LOW (k?143)
	MOV  	A,@R0
	XRL  	A,#080H
	SUBB 	A,B
	JC   	$ + 5H
	LJMP 	?C0024
; 	{
			; SOURCE LINE # 48
; 		mini = -1;
			; SOURCE LINE # 49
	INC  	R0
	MOV  	@R0,#0FFH
; 		for (i = 1; i <= n; i++)
			; SOURCE LINE # 50
	MOV  	R0,#LOW (i?142)
	MOV  	@R0,#01H
?C0014:
	MOV  	R0,#LOW (i?142)
	MOV  	A,@R0
	MOV  	R7,A
	SETB 	C
	MOV  	A,n
	XRL  	A,#080H
	MOV  	R0,A
	MOV  	A,R7
	XRL  	A,#080H
	SUBB 	A,R0
	JNC  	?C0015
; 			if (!visited[i] && ((mini == -1) || (d[i] < d[mini])))
			; SOURCE LINE # 51
	MOV  	A,#LOW (visited?145)
	ADD  	A,R7
	MOV  	R1,A
	MOV  	A,@R1
	JNZ  	?C0016
	MOV  	R0,#LOW (mini?144)
	MOV  	A,@R0
	MOV  	R7,A
	CPL  	A
	JZ   	?C0018
	MOV  	A,#LOW (d)
	ADD  	A,R7
	MOV  	R1,A
	MOV  	R0,#LOW (i?142)
	MOV  	A,@R0
	ADD  	A,#LOW (d)
	MOV  	R0,A
	MOV  	A,@R0
	MOV  	R7,A
	CLR  	C
	MOV  	A,@R1
	XRL  	A,#080H
	MOV  	R0,A
	MOV  	A,R7
	XRL  	A,#080H
	SUBB 	A,R0
	JNC  	?C0016
?C0018:
; 				mini = i;
			; SOURCE LINE # 52
	MOV  	R0,#LOW (i?142)
	MOV  	A,@R0
	MOV  	R0,#LOW (mini?144)
	MOV  	@R0,A
?C0016:
	MOV  	R0,#LOW (i?142)
	INC  	@R0
	SJMP 	?C0014
?C0015:
; 
; 		visited[mini] = 1;
			; SOURCE LINE # 54
	MOV  	R0,#LOW (mini?144)
	MOV  	A,@R0
	ADD  	A,#LOW (visited?145)
	MOV  	R0,A
	MOV  	@R0,#01H
; 
; 		for (i = 1; i <= n; ++i)
			; SOURCE LINE # 56
	MOV  	R0,#LOW (i?142)
	MOV  	@R0,#01H
?C0019:
	MOV  	R0,#LOW (i?142)
	MOV  	A,@R0
	MOV  	R7,A
	SETB 	C
	MOV  	A,n
	XRL  	A,#080H
	MOV  	R0,A
	MOV  	A,R7
	XRL  	A,#080H
	SUBB 	A,R0
	JNC  	?C0013
; 			if (dist[mini][i])
			; SOURCE LINE # 57
	MOV  	R0,#LOW (mini?144)
	MOV  	A,@R0
	MOV  	B,#0CH
	MUL  	AB
	ADD  	A,#LOW (dist)
	ADD  	A,R7
	MOV  	R0,A
	MOV  	A,@R0
	MOV  	R7,A
	JZ   	?C0021
; 				if (d[mini] + dist[mini][i] < d[i]) 
			; SOURCE LINE # 58
	MOV  	R0,#LOW (i?142)
	MOV  	A,@R0
	MOV  	R6,A
	MOV  	R0,#LOW (mini?144)
	MOV  	A,@R0
	MOV  	R5,A
	MOV  	A,R7
	MOV  	R3,A
	RLC  	A
	SUBB 	A,ACC
	MOV  	R2,A
	MOV  	A,#LOW (d)
	ADD  	A,R5
	MOV  	R0,A
	MOV  	A,@R0
	MOV  	R7,A
	MOV  	R5,A
	RLC  	A
	SUBB 	A,ACC
	MOV  	R4,A
	MOV  	A,R5
	ADD  	A,R3
	MOV  	R5,A
	MOV  	A,R4
	ADDC 	A,R2
	MOV  	R4,A
	MOV  	A,#LOW (d)
	ADD  	A,R6
	MOV  	R0,A
	MOV  	A,@R0
	MOV  	R3,A
	RLC  	A
	SUBB 	A,ACC
	MOV  	R2,A
	CLR  	C
	MOV  	A,R5
	SUBB 	A,R3
	MOV  	A,R2
	XRL  	A,#080H
	MOV  	R0,A
	MOV  	A,R4
	XRL  	A,#080H
	SUBB 	A,R0
	JNC  	?C0021
; 					d[i] = d[mini] + dist[mini][i];
			; SOURCE LINE # 59
	MOV  	R0,#LOW (i?142)
	MOV  	A,@R0
	MOV  	R6,A
	MOV  	R0,#LOW (mini?144)
	MOV  	A,@R0
	MOV  	B,#0CH
	MUL  	AB
	ADD  	A,#LOW (dist)
	ADD  	A,R6
	MOV  	R0,A
	MOV  	A,R7
	ADD  	A,@R0
	MOV  	R7,A
	MOV  	A,#LOW (d)
	ADD  	A,R6
	MOV  	R0,A
	MOV  	@R0,AR7
?C0021:
	MOV  	R0,#LOW (i?142)
	INC  	@R0
	SJMP 	?C0019
; 	}
			; SOURCE LINE # 60
?C0013:
	MOV  	R0,#LOW (k?143)
	INC  	@R0
	LJMP 	?C0011
; }
			; SOURCE LINE # 61
?C0024:
	RET  	
; END OF _dijkstra

; 
; int main() 

	RSEG  ?PR?main?MAIN
main:
	USING	0
			; SOURCE LINE # 63
; {
			; SOURCE LINE # 64
; 	char i, j , k = 5;
			; SOURCE LINE # 65
	MOV  	k?248,#05H
; 	//char u = 1, v = 2, w = 4;
; 
; 	store_cpu_rate(16);
			; SOURCE LINE # 68
	MOV  	R7,#010H
	MOV  	R6,#00H
	LCALL	_store_cpu_rate
; 
; 	P0_DIR &= ~0x28;
			; SOURCE LINE # 70
	ANL  	P0_DIR,#0D7H
; 	P0_ALT &= ~0x28;
			; SOURCE LINE # 71
	ANL  	P0_ALT,#0D7H
; 
; 	serial_init(19200);
			; SOURCE LINE # 73
	MOV  	R7,#00H
	MOV  	R6,#04BH
	LCALL	_serial_init
; 
; 	for(n=0;n<6;n++)
			; SOURCE LINE # 75
	CLR  	A
	MOV  	n,A
?C0025:
; 	{
			; SOURCE LINE # 76
; 		blink_led();
			; SOURCE LINE # 77
	XRL  	P0,#020H
; 		mdelay(400);
			; SOURCE LINE # 78
	MOV  	R7,#090H
	MOV  	R6,#01H
	LCALL	_mdelay
; 	}
			; SOURCE LINE # 79
	INC  	n
	CLR  	C
	MOV  	A,n
	XRL  	A,#080H
	SUBB 	A,#086H
	JC   	?C0025
?C0026:
; 
; 	n = GRAPHSIZE;
			; SOURCE LINE # 81
	MOV  	n,#0CH
?C0028:
; 
; 
; 	while(1)
			; SOURCE LINE # 84
; 	{
			; SOURCE LINE # 85
; 		for (i = 0; i < n; i++)
			; SOURCE LINE # 86
;---- Variable 'i?246' assigned to Register 'R7' ----
	CLR  	A
	MOV  	R7,A
?C0030:
	CLR  	C
	MOV  	A,n
	XRL  	A,#080H
	MOV  	R0,A
	MOV  	A,R7
	XRL  	A,#080H
	SUBB 	A,R0
	JNC  	?C0031
; 			for (j = 0; j < n; j++)
			; SOURCE LINE # 87
	CLR  	A
	MOV  	j?247,A
?C0033:
	CLR  	C
	MOV  	A,n
	XRL  	A,#080H
	MOV  	R0,A
	MOV  	A,j?247
	XRL  	A,#080H
	SUBB 	A,R0
	JNC  	?C0032
; 				dist[i][j] = (k++)%30;
			; SOURCE LINE # 88
	MOV  	R6,k?248
	INC  	k?248
	MOV  	A,R6
	MOV  	B,#01EH
	LCALL	?C?SCDIV
	MOV  	R6,B
	MOV  	A,R7
	MOV  	B,#0CH
	MUL  	AB
	ADD  	A,#LOW (dist)
	ADD  	A,j?247
	MOV  	R0,A
	MOV  	@R0,AR6
	INC  	j?247
	SJMP 	?C0033
?C0032:
	INC  	R7
	SJMP 	?C0030
?C0031:
; 		//n = -1;
; 		//for (i = 0; i < 6; i++) {
; 		//fscanf(fin, "%d%d%d", &u, &v, &w);
; 		//	dist[u][v] = w++;
; 		//	n = MAX(u, MAX(v+w, n));
; 		//}
; 		//fclose(fin);
; 		for(j=0;j<n;j++)	
			; SOURCE LINE # 96
	CLR  	A
	MOV  	j?247,A
?C0036:
	CLR  	C
	MOV  	A,n
	XRL  	A,#080H
	MOV  	R0,A
	MOV  	A,j?247
	XRL  	A,#080H
	SUBB 	A,R0
	JNC  	?C0037
; 			dijkstra(j);
			; SOURCE LINE # 97
	MOV  	R7,j?247
	LCALL	_dijkstra
	INC  	j?247
	SJMP 	?C0036
?C0037:
; 
; 		dij_counter++;
			; SOURCE LINE # 99
	INC  	dij_counter+01H
	MOV  	A,dij_counter+01H
	JNZ  	?C0042
	INC  	dij_counter
?C0042:
; 
; 		int_print(dij_counter);
			; SOURCE LINE # 101
	MOV  	R6,dij_counter
	MOV  	R7,dij_counter+01H
	LCALL	_?int_print
; 		puts("\r\n");
			; SOURCE LINE # 102
	MOV  	R3,#0FFH
	MOV  	R2,#HIGH (?SC_8)
	MOV  	R1,#LOW (?SC_8)
	LCALL	_puts
; 		
; 		printD();
			; SOURCE LINE # 104
	LCALL	printD
; 	}
			; SOURCE LINE # 105
	SJMP 	?C0028
; END OF main

	END
