LX51 LINKER/LOCATER V4.34a                                                              02/24/2009  16:29:19  PAGE 1


LX51 LINKER/LOCATER V4.34a, INVOKED BY:
C:\KEIL\C51\BIN\LX51.EXE MAIN.OBJ, ISR_RF.OBJ, ECO_PAGE.OBJ, ADC.OBJ, UTILS.OBJ, SERIAL.OBJ, SPI.OBJ, EEPROM.OBJ, C51S.L
>> IB TO MAIN ASSIGN (ECO_PAGE_TABLE_INDEX (16))


CPU MODE:     8051 MODE


INPUT MODULES INCLUDED:
  MAIN.OBJ (MAIN)
         COMMENT TYPE 0: AX51 V3.06a
  ISR_RF.OBJ (ISR_RF)
         COMMENT TYPE 0: AX51 V3.06a
  ECO_PAGE.OBJ (ECO_PAGE)
         COMMENT TYPE 0: AX51 V3.06a
  ADC.OBJ (ADC)
         COMMENT TYPE 0: AX51 V3.06a
  UTILS.OBJ (UTILS)
         COMMENT TYPE 0: AX51 V3.06a
  SERIAL.OBJ (SERIAL)
         COMMENT TYPE 0: AX51 V3.06a
  SPI.OBJ (SPI)
         COMMENT TYPE 0: AX51 V3.06a
  EEPROM.OBJ (EEPROM)
         COMMENT TYPE 0: AX51 V3.06a
  C51S.LIB (?C_STARTUP)
         COMMENT TYPE 1: A51 / ASM51 Assembler
  C51S.LIB (?C?CLDPTR)
         COMMENT TYPE 1: A51 / ASM51 Assembler
  C51S.LIB (?C?CLDOPTR)
         COMMENT TYPE 1: A51 / ASM51 Assembler
  C51S.LIB (?C?CSTPTR)
         COMMENT TYPE 1: A51 / ASM51 Assembler
  C51S.LIB (?C?UIDIV)
         COMMENT TYPE 1: A51 / ASM51 Assembler
  C51S.LIB (?C?LMUL)
         COMMENT TYPE 1: A51 / ASM51 Assembler
  C51S.LIB (?C?ULDIV)
         COMMENT TYPE 1: A51 / ASM51 Assembler
  C51S.LIB (?C?ICASE)
         COMMENT TYPE 1: A51 / ASM51 Assembler
  C51S.LIB (?C_IBP)
         COMMENT TYPE 1: A51 / ASM51 Assembler
  C51S.LIB (?C_INIT)
         COMMENT TYPE 1: A51 / ASM51 Assembler


ACTIVE MEMORY CLASSES OF MODULE:  MAIN (MAIN)

BASE        START       END         USED      MEMORY CLASS
==========================================================
C:000000H   C:000000H   C:00FFFFH   000865H   CODE
I:000000H   I:000000H   I:00007FH   00007EH   DATA
I:000000H   I:000000H   I:0000FFH   000001H   IDATA


MEMORY MAP OF MODULE:  MAIN (MAIN)


START     STOP      LENGTH    ALIGN  RELOC    MEMORY CLASS   SEGMENT NAME
=========================================================================

* * * * * * * * * * *   D A T A   M E M O R Y   * * * * * * * * * * * * *
000000H   000007H   000008H   ---    AT..     DATA           "REG BANK 0"
000008H   000024H   00001DH   BYTE   UNIT     DATA           ?DT?MAIN
000025H   00003CH   000018H   BYTE   UNIT     DATA           ?DT?ISR_RF
LX51 LINKER/LOCATER V4.34a                                                            02/24/2009  16:29:19  PAGE 2


00003DH   00004AH   00000EH   BYTE   UNIT     DATA           ?DT?ECO_PAGE
00004BH   000054H   00000AH   BYTE   UNIT     DATA           ?DT?_RF_SEND?ISR_RF
000055H   00005CH   000008H   BYTE   UNIT     DATA           ?DT?_STRNCPY?UTILS
00005DH   000062H   000006H   BYTE   UNIT     DATA           ?DT?ECO_PAGE_MANAGER?ECO_PAGE
000063H   000067H   000005H   BYTE   UNIT     DATA           ?DT?_RF_CONFIGURE?ISR_RF
000068H   00006BH   000004H   BYTE   UNIT     DATA           ?DT?MAIN?MAIN
00006CH   00006FH   000004H   BYTE   UNIT     DATA           ?DT?UTILS
000070H   000072H   000003H   BYTE   UNIT     DATA           ?DT?_PUTS?SERIAL
000073H   000075H   000003H   BYTE   UNIT     DATA           ?DT?_EEPROM_WRITE?EEPROM
000076H   000078H   000003H   BYTE   UNIT     DATA           ?DT?_EEPROM_READ?EEPROM
000079H   00007AH   000002H   BYTE   UNIT     DATA           ?DT?RF_CH1_RECV?ISR_RF
00007BH   00007CH   000002H   BYTE   UNIT     DATA           ?DT?_MDELAY?UTILS
00007DH   00007DH   000001H   BYTE   UNIT     DATA           ?C?LIB_DATA
00007EH   00007EH   000001H   BYTE   UNIT     IDATA          ?STACK

* * * * * * * * * * *   C O D E   M E M O R Y   * * * * * * * * * * * * *
000000H   000002H   000003H   ---    OFFS..   CODE           ?CO??C_STARTUP?0
000003H   00004FH   00004DH   BYTE   UNIT     CODE           ?PR?P_ADC_READ?ADC
000050H   000052H   000003H   BYTE   UNIT     CODE           ?PR?_PUTC?SERIAL
000053H   000055H   000003H   ---    OFFS..   CODE           ?CO?ISR_RF?11
000056H   00024CH   0001F7H   BYTE   UNIT     CODE           ?C?LIB_CODE
00024DH   000343H   0000F7H   BYTE   UNIT     CODE           ?PR?ECO_PAGE_MANAGER?ECO_PAGE
000344H   0003F9H   0000B6H   BYTE   UNIT     CODE           ?PR?MAIN?MAIN
0003FAH   000485H   00008CH   BYTE   UNIT     CODE           ?C_C51STARTUP
000486H   0004F0H   00006BH   BYTE   UNIT     CODE           ?PR?_RF_SEND?ISR_RF
0004F1H   000550H   000060H   BYTE   UNIT     CODE           ?PR?RF_CH1_RECV?ISR_RF
000551H   000599H   000049H   BYTE   UNIT     CODE           ?PR?_MDELAY?UTILS
00059AH   0005DDH   000044H   BYTE   UNIT     CODE           ?PR?_STRNCPY?UTILS
0005DEH   00061DH   000040H   BYTE   UNIT     CODE           ?C_INITSEG
00061EH   00065AH   00003DH   BYTE   UNIT     CODE           ?PR?_SETUP_BAUDRATE?SERIAL
00065BH   000695H   00003BH   BYTE   UNIT     CODE           ?PR?_EEPROM_WRITE?EEPROM
000696H   0006CFH   00003AH   BYTE   UNIT     CODE           ?PR?_?INT_PRINT?SERIAL
0006D0H   000705H   000036H   BYTE   UNIT     CODE           ?PR?_RF_CONFIGURE?ISR_RF
000706H   000731H   00002CH   BYTE   UNIT     CODE           ?PR?_EEPROM_READ?EEPROM
000732H   00075BH   00002AH   BYTE   UNIT     CODE           ?PR?ECO_PAGE_INIT?ECO_PAGE
00075CH   000780H   000025H   BYTE   UNIT     CODE           ?PR?_PUTS?SERIAL
000781H   0007A3H   000023H   BYTE   UNIT     CODE           ?PR?FLASH_ERASE_ALL?EEPROM
0007A4H   0007BEH   00001BH   BYTE   UNIT     CODE           ?PR?_ADC_READ?ADC
0007BFH   0007D1H   000013H   BYTE   UNIT     CODE           ?CO?MAIN
0007D2H   0007E4H   000013H   BYTE   UNIT     CODE           ?PR?_ADC_INIT?ADC
0007E5H   0007F6H   000012H   BYTE   UNIT     CODE           ?PR?_WDT_LOAD?UTILS
0007F7H   000805H   00000FH   BYTE   UNIT     CODE           ?PR?EEPROM_STATUS?EEPROM
000806H   000813H   00000EH   BYTE   UNIT     CODE           ?PR?RF_INIT?ISR_RF
000814H   000820H   00000DH   BYTE   UNIT     CODE           ?PR?_STORE_CPU_RATE?UTILS
000821H   00082DH   00000DH   BYTE   UNIT     CODE           ?PR?_SPI_WRITE_THEN_READ?SPI
00082EH   000838H   00000BH   BYTE   UNIT     CODE           ?PR?EEPROM_INIT?EEPROM
000839H   000842H   00000AH   BYTE   UNIT     CODE           ?PR?_SERIAL_INIT?SERIAL
000843H   00084BH   000009H   BYTE   UNIT     CODE           ?PR?RF_WAIT_MSG?ISR_RF
00084CH   000853H   000008H   BYTE   UNIT     CODE           ?PR?_SERIAL_WRITE?SERIAL
000854H   00085BH   000008H   BYTE   UNIT     CODE           ?PR?SERIAL_READ?SERIAL
00085CH   000860H   000005H   BYTE   UNIT     CODE           ?PR?_SPI_INIT?SPI
000861H   000864H   000004H   BYTE   UNIT     CODE           ?PR?GETC?SERIAL



PUBLIC SYMBOLS OF MODULE:  MAIN (MAIN)


      VALUE       CLASS    TYPE      PUBLIC SYMBOL NAME
      =================================================
      0000004BH   DATA     BYTE      ?_RF_SEND?BYTE
      00000055H   DATA     BYTE      ?_STRNCPY?BYTE
      0100006FH   CODE     ---       ?C?CLDOPTR
      01000056H   CODE     ---       ?C?CLDPTR
      00000000H   NUMBER   ---       ?C?CODESEG
LX51 LINKER/LOCATER V4.34a                                                            02/24/2009  16:29:19  PAGE 3


      0100009CH   CODE     ---       ?C?CSTPTR
      01000220H   CODE     ---       ?C?ICASE
      01000103H   CODE     ---       ?C?LMUL
      010000AEH   CODE     ---       ?C?UIDIV
      0100018EH   CODE     ---       ?C?ULDIV
      00000000H   NUMBER   ---       ?C?XDATASEG
      0000007DH   DATA     ---       ?C_IBP
      01000441H   CODE     ---       ?C_START
      01000000H   CODE     ---       ?C_STARTUP
      01000696H   CODE     NEAR LAB  _?INT_PRINT
      010007D2H   CODE     NEAR LAB  _ADC_INIT
      010007A4H   CODE     NEAR LAB  _ADC_READ
      01000706H   CODE     NEAR LAB  _EEPROM_READ
      0100065BH   CODE     NEAR LAB  _EEPROM_WRITE
      01000551H   CODE     NEAR LAB  _MDELAY
      01000050H   CODE     NEAR LAB  _PUTC
      0100075CH   CODE     NEAR LAB  _PUTS
      010006D0H   CODE     NEAR LAB  _RF_CONFIGURE
      01000486H   CODE     NEAR LAB  _RF_SEND
      01000839H   CODE     NEAR LAB  _SERIAL_INIT
      0100085CH   CODE     NEAR LAB  _SPI_INIT
      01000821H   CODE     NEAR LAB  _SPI_WRITE_THEN_READ
      01000814H   CODE     NEAR LAB  _STORE_CPU_RATE
      0100059AH   CODE     NEAR LAB  _STRNCPY
      010007E5H   CODE     NEAR LAB  _WDT_LOAD
*SFR* 000000D0H.6 DATA     BIT       AC
*SFR* 000000E0H   DATA     BYTE      ACC
*SFR* 000000A1H   DATA     BYTE      ADCCON
*SFR* 000000A2H   DATA     BYTE      ADCDATAH
*SFR* 000000A3H   DATA     BYTE      ADCDATAL
*SFR* 000000A4H   DATA     BYTE      ADCSTATIC
*SFR* 000000F0H   DATA     BYTE      B
*SFR* 000000C8H.1 DATA     BIT       C_T2
*SFR* 000000A0H.6 DATA     BIT       CE
      00000008H   DATA     BYTE      CFG
*SFR* 000000B6H   DATA     BYTE      CK_CTRL
*SFR* 0000008EH   DATA     BYTE      CKCON
*SFR* 000000A0H.1 DATA     BIT       CLK1
*SFR* 000000A0H.5 DATA     BIT       CLK2
*SFR* 000000C8H   DATA     BIT       CP_RL2
*SFR* 000000C8H   DATA     BIT       CPRL2
*SFR* 000000A0H.3 DATA     BIT       CS
*SFR* 000000C8H.1 DATA     BIT       CT2
*SFR* 000000D0H.7 DATA     BIT       CY
*SFR* 000000A0H   DATA     BIT       DATA?
*SFR* 000000BEH   DATA     BYTE      DEV_OFFSET
*SFR* 00000090H.2 DATA     BIT       DIN0
*SFR* 00000090H   DATA     BIT       DIO0
*SFR* 00000090H.1 DATA     BIT       DIO1
*SFR* 00000080H   DATA     BIT       DIO2
*SFR* 00000080H.1 DATA     BIT       DIO3
*SFR* 00000080H.2 DATA     BIT       DIO4
*SFR* 00000080H.3 DATA     BIT       DIO5
*SFR* 00000080H.4 DATA     BIT       DIO6
*SFR* 00000080H.5 DATA     BIT       DIO7
*SFR* 00000080H.6 DATA     BIT       DIO8
*SFR* 00000080H.7 DATA     BIT       DIO9
*SFR* 000000A0H.4 DATA     BIT       DOUT2
*SFR* 00000083H   DATA     BYTE      DPH
*SFR* 00000083H   DATA     BYTE      DPH0
*SFR* 00000085H   DATA     BYTE      DPH1
*SFR* 00000082H   DATA     BYTE      DPL
*SFR* 00000082H   DATA     BYTE      DPL0
*SFR* 00000084H   DATA     BYTE      DPL1
*SFR* 00000086H   DATA     BYTE      DPS
LX51 LINKER/LOCATER V4.34a                                                            02/24/2009  16:29:19  PAGE 4


*SFR* 000000A0H.2 DATA     BIT       DR1
*SFR* 000000A0H.6 DATA     BIT       DR2
*SFR* 000000A0H.6 DATA     BIT       DR2_CE
      00000011H   DATA     BYTE      DST_ADDR
*SFR* 000000A8H.7 DATA     BIT       EA
      00000047H   DATA     BYTE      ECO_PAGE_ADDR
      01000732H   CODE     NEAR LAB  ECO_PAGE_INIT
      0100024DH   CODE     NEAR LAB  ECO_PAGE_MANAGER
      00000010H   NUMBER   ---       ECO_PAGE_TABLE_INDEX
      0100082EH   CODE     NEAR LAB  EEPROM_INIT
      010007F7H   CODE     NEAR LAB  EEPROM_STATUS
*SFR* 000000D8H   DATA     BYTE      EICON
*SFR* 000000E8H   DATA     BYTE      EIE
*SFR* 000000F8H   DATA     BYTE      EIP
*SFR* 000000A8H.4 DATA     BIT       ES
*SFR* 000000A8H.1 DATA     BIT       ET0
*SFR* 000000A8H.3 DATA     BIT       ET1
*SFR* 000000A8H.5 DATA     BIT       ET2
*SFR* 000000E8H.4 DATA     BIT       EWDI
*SFR* 000000A8H   DATA     BIT       EX0
*SFR* 000000A8H.2 DATA     BIT       EX1
*SFR* 000000E8H   DATA     BIT       EX2
*SFR* 000000E8H.1 DATA     BIT       EX3
*SFR* 000000E8H.2 DATA     BIT       EX4
*SFR* 000000E8H.3 DATA     BIT       EX5
*SFR* 000000C8H.3 DATA     BIT       EXEN2
*SFR* 000000C8H.6 DATA     BIT       EXF2
*SFR* 00000091H   DATA     BYTE      EXIF
*SFR* 000000D0H.5 DATA     BIT       F0
*SFR* 000000D0H.1 DATA     BIT       F1
      01000781H   CODE     NEAR LAB  FLASH_ERASE_ALL
      01000861H   CODE     NEAR LAB  GETC
*SFR* 000000A8H   DATA     BYTE      IE
*SFR* 00000088H.1 DATA     BIT       IE0
*SFR* 00000088H.3 DATA     BIT       IE1
*SFR* 00000080H.3 DATA     BIT       INT0_N
*SFR* 00000080H.4 DATA     BIT       INT1_N
*SFR* 000000B8H   DATA     BYTE      IP
*SFR* 00000088H   DATA     BIT       IT0
*SFR* 00000088H.2 DATA     BIT       IT1
      01000344H   CODE     NEAR LAB  MAIN
      0000006CH   DATA     BYTE      MHZ
*SFR* 00000092H   DATA     BYTE      MPAGE
      0000000BH   DATA     BYTE      MSG
*SFR* 000000D0H.2 DATA     BIT       OV
*SFR* 000000D0H   DATA     BIT       P
*SFR* 00000080H   DATA     BYTE      P0
*SFR* 00000080H   DATA     BIT       P0_0
*SFR* 00000080H.1 DATA     BIT       P0_1
*SFR* 00000080H.2 DATA     BIT       P0_2
*SFR* 00000080H.3 DATA     BIT       P0_3
*SFR* 00000080H.4 DATA     BIT       P0_4
*SFR* 00000080H.5 DATA     BIT       P0_5
*SFR* 00000080H.6 DATA     BIT       P0_6
*SFR* 00000080H.7 DATA     BIT       P0_7
*SFR* 00000095H   DATA     BYTE      P0_ALT
*SFR* 00000094H   DATA     BYTE      P0_DIR
*SFR* 00000090H   DATA     BYTE      P1
*SFR* 00000090H   DATA     BIT       P1_0
*SFR* 00000090H.1 DATA     BIT       P1_1
*SFR* 00000090H.2 DATA     BIT       P1_2
*SFR* 00000097H   DATA     BYTE      P1_ALT
*SFR* 00000096H   DATA     BYTE      P1_DIR
*SFR* 00000087H   DATA     BYTE      PCON
*SFR* 000000B8H.4 DATA     BIT       PS
LX51 LINKER/LOCATER V4.34a                                                            02/24/2009  16:29:19  PAGE 5


*SFR* 000000D0H   DATA     BYTE      PSW
*SFR* 000000B8H.1 DATA     BIT       PT0
*SFR* 000000B8H.3 DATA     BIT       PT1
*SFR* 000000B8H.5 DATA     BIT       PT2
*SFR* 000000F8H.4 DATA     BIT       PWDI
*SFR* 00000080H.7 DATA     BIT       PWM
*SFR* 000000A9H   DATA     BYTE      PWMCON
*SFR* 000000AAH   DATA     BYTE      PWMDUTY
*SFR* 000000A0H.7 DATA     BIT       PWR_UP
*SFR* 000000B8H   DATA     BIT       PX0
*SFR* 000000B8H.2 DATA     BIT       PX1
*SFR* 000000F8H   DATA     BIT       PX2
*SFR* 000000F8H.1 DATA     BIT       PX3
*SFR* 000000F8H.2 DATA     BIT       PX4
*SFR* 000000F8H.3 DATA     BIT       PX5
*SFR* 000000A0H   DATA     BYTE      RADIO
*SFR* 00000098H.2 DATA     BIT       RB8
*SFR* 000000CBH   DATA     BYTE      RCAP2H
*SFR* 000000CAH   DATA     BYTE      RCAP2L
*SFR* 000000C8H.5 DATA     BIT       RCLK
*SFR* 000000ADH   DATA     BYTE      REGX_CTRL
*SFR* 000000ACH   DATA     BYTE      REGX_LSB
*SFR* 000000ABH   DATA     BYTE      REGX_MSB
*SFR* 00000098H.4 DATA     BIT       REN
      00000025H   DATA     BYTE      RF_BUF
      010004F1H   CODE     NEAR LAB  RF_CH1_RECV
      00000016H   DATA     BYTE      RF_DATA
      01000806H   CODE     NEAR LAB  RF_INIT
      01000843H   CODE     NEAR LAB  RF_WAIT_MSG
*SFR* 00000098H   DATA     BIT       RI
*SFR* 000000D0H.3 DATA     BIT       RS0
*SFR* 000000D0H.4 DATA     BIT       RS1
*SFR* 000000B1H   DATA     BYTE      RSTREAS
*SFR* 00000080H.1 DATA     BIT       RXD
*SFR* 00000099H   DATA     BYTE      SBUF
*SFR* 00000098H   DATA     BYTE      SCON
*SFR* 00000098H.7 DATA     BIT       SM0
*SFR* 00000098H.6 DATA     BIT       SM1
*SFR* 00000098H.5 DATA     BIT       SM2
*SFR* 00000081H   DATA     BYTE      SP
*SFR* 0000008FH   DATA     BYTE      SPC_FNC
*SFR* 000000B3H   DATA     BYTE      SPI_CTRL
*SFR* 000000B2H   DATA     BYTE      SPI_DATA
*SFR* 000000B4H   DATA     BYTE      SPICLK
*SFR* 00000080H.5 DATA     BIT       T0
*SFR* 00000080H.6 DATA     BIT       T1
*SFR* 000000BCH   DATA     BYTE      T1_1V2
*SFR* 00000090H   DATA     BIT       T2
*SFR* 000000BDH   DATA     BYTE      T2_1V2
*SFR* 000000C8H   DATA     BYTE      T2CON
*SFR* 00000098H.3 DATA     BIT       TB8
*SFR* 000000C8H.4 DATA     BIT       TCLK
*SFR* 00000088H   DATA     BYTE      TCON
*SFR* 000000B7H   DATA     BYTE      TEST_MODE
*SFR* 00000088H.5 DATA     BIT       TF0
*SFR* 00000088H.7 DATA     BIT       TF1
*SFR* 000000C8H.7 DATA     BIT       TF2
*SFR* 0000008CH   DATA     BYTE      TH0
*SFR* 0000008DH   DATA     BYTE      TH1
*SFR* 000000CDH   DATA     BYTE      TH2
*SFR* 00000098H.1 DATA     BIT       TI
*SFR* 000000B5H   DATA     BYTE      TICK_DV
*SFR* 0000008AH   DATA     BYTE      TL0
*SFR* 0000008BH   DATA     BYTE      TL1
*SFR* 000000CCH   DATA     BYTE      TL2
LX51 LINKER/LOCATER V4.34a                                                            02/24/2009  16:29:19  PAGE 6


*SFR* 00000089H   DATA     BYTE      TMOD
*SFR* 00000088H.4 DATA     BIT       TR0
*SFR* 00000088H.6 DATA     BIT       TR1
*SFR* 000000C8H.2 DATA     BIT       TR2
*SFR* 00000080H.2 DATA     BIT       TXD
*SFR* 000000D8H.3 DATA     BIT       WDTI



SYMBOL TABLE OF MODULE:  MAIN (MAIN)

      VALUE       REP       CLASS    TYPE      SYMBOL NAME
      ====================================================
      ---         MODULE    ---      ---       MAIN
      00000008H   PUBLIC    DATA     BYTE      CFG
      00000011H   PUBLIC    DATA     BYTE      DST_ADDR
      01000344H   PUBLIC    CODE     NEAR LAB  MAIN
      0000000BH   PUBLIC    DATA     BYTE      MSG
      00000016H   PUBLIC    DATA     BYTE      RF_DATA
      000000D0H.6 SFRSYM    DATA     BIT       AC
      000000E0H   SFRSYM    DATA     BYTE      ACC
      000000A1H   SFRSYM    DATA     BYTE      ADCCON
      000000A2H   SFRSYM    DATA     BYTE      ADCDATAH
      000000A3H   SFRSYM    DATA     BYTE      ADCDATAL
      000000A4H   SFRSYM    DATA     BYTE      ADCSTATIC
      000000F0H   SFRSYM    DATA     BYTE      B
      000000C8H.1 SFRSYM    DATA     BIT       C_T2
      000000A0H.6 SFRSYM    DATA     BIT       CE
      000000B6H   SFRSYM    DATA     BYTE      CK_CTRL
      0000008EH   SFRSYM    DATA     BYTE      CKCON
      000000A0H.1 SFRSYM    DATA     BIT       CLK1
      000000A0H.5 SFRSYM    DATA     BIT       CLK2
      000000C8H   SFRSYM    DATA     BIT       CP_RL2
      000000C8H   SFRSYM    DATA     BIT       CPRL2
      000000A0H.3 SFRSYM    DATA     BIT       CS
      000000C8H.1 SFRSYM    DATA     BIT       CT2
      000000D0H.7 SFRSYM    DATA     BIT       CY
      000000A0H   SFRSYM    DATA     BIT       DATA?
      000000BEH   SFRSYM    DATA     BYTE      DEV_OFFSET
      00000090H.2 SFRSYM    DATA     BIT       DIN0
      00000090H   SFRSYM    DATA     BIT       DIO0
      00000090H.1 SFRSYM    DATA     BIT       DIO1
      00000080H   SFRSYM    DATA     BIT       DIO2
      00000080H.1 SFRSYM    DATA     BIT       DIO3
      00000080H.2 SFRSYM    DATA     BIT       DIO4
      00000080H.3 SFRSYM    DATA     BIT       DIO5
      00000080H.4 SFRSYM    DATA     BIT       DIO6
      00000080H.5 SFRSYM    DATA     BIT       DIO7
      00000080H.6 SFRSYM    DATA     BIT       DIO8
      00000080H.7 SFRSYM    DATA     BIT       DIO9
      000000A0H.4 SFRSYM    DATA     BIT       DOUT2
      00000083H   SFRSYM    DATA     BYTE      DPH
      00000083H   SFRSYM    DATA     BYTE      DPH0
      00000085H   SFRSYM    DATA     BYTE      DPH1
      00000082H   SFRSYM    DATA     BYTE      DPL
      00000082H   SFRSYM    DATA     BYTE      DPL0
      00000084H   SFRSYM    DATA     BYTE      DPL1
      00000086H   SFRSYM    DATA     BYTE      DPS
      000000A0H.2 SFRSYM    DATA     BIT       DR1
      000000A0H.6 SFRSYM    DATA     BIT       DR2
      000000A0H.6 SFRSYM    DATA     BIT       DR2_CE
      000000A8H.7 SFRSYM    DATA     BIT       EA
      000000D8H   SFRSYM    DATA     BYTE      EICON
      000000E8H   SFRSYM    DATA     BYTE      EIE
      000000F8H   SFRSYM    DATA     BYTE      EIP
LX51 LINKER/LOCATER V4.34a                                                            02/24/2009  16:29:19  PAGE 7


      000000A8H.4 SFRSYM    DATA     BIT       ES
      000000A8H.1 SFRSYM    DATA     BIT       ET0
      000000A8H.3 SFRSYM    DATA     BIT       ET1
      000000A8H.5 SFRSYM    DATA     BIT       ET2
      000000E8H.4 SFRSYM    DATA     BIT       EWDI
      000000A8H   SFRSYM    DATA     BIT       EX0
      000000A8H.2 SFRSYM    DATA     BIT       EX1
      000000E8H   SFRSYM    DATA     BIT       EX2
      000000E8H.1 SFRSYM    DATA     BIT       EX3
      000000E8H.2 SFRSYM    DATA     BIT       EX4
      000000E8H.3 SFRSYM    DATA     BIT       EX5
      000000C8H.3 SFRSYM    DATA     BIT       EXEN2
      000000C8H.6 SFRSYM    DATA     BIT       EXF2
      00000091H   SFRSYM    DATA     BYTE      EXIF
      000000D0H.5 SFRSYM    DATA     BIT       F0
      000000D0H.1 SFRSYM    DATA     BIT       F1
      000000A8H   SFRSYM    DATA     BYTE      IE
      00000088H.1 SFRSYM    DATA     BIT       IE0
      00000088H.3 SFRSYM    DATA     BIT       IE1
      00000080H.3 SFRSYM    DATA     BIT       INT0_N
      00000080H.4 SFRSYM    DATA     BIT       INT1_N
      000000B8H   SFRSYM    DATA     BYTE      IP
      00000088H   SFRSYM    DATA     BIT       IT0
      00000088H.2 SFRSYM    DATA     BIT       IT1
      00000092H   SFRSYM    DATA     BYTE      MPAGE
      000000D0H.2 SFRSYM    DATA     BIT       OV
      000000D0H   SFRSYM    DATA     BIT       P
      00000080H   SFRSYM    DATA     BYTE      P0
      00000080H   SFRSYM    DATA     BIT       P0_0
      00000080H.1 SFRSYM    DATA     BIT       P0_1
      00000080H.2 SFRSYM    DATA     BIT       P0_2
      00000080H.3 SFRSYM    DATA     BIT       P0_3
      00000080H.4 SFRSYM    DATA     BIT       P0_4
      00000080H.5 SFRSYM    DATA     BIT       P0_5
      00000080H.6 SFRSYM    DATA     BIT       P0_6
      00000080H.7 SFRSYM    DATA     BIT       P0_7
      00000095H   SFRSYM    DATA     BYTE      P0_ALT
      00000094H   SFRSYM    DATA     BYTE      P0_DIR
      00000090H   SFRSYM    DATA     BYTE      P1
      00000090H   SFRSYM    DATA     BIT       P1_0
      00000090H.1 SFRSYM    DATA     BIT       P1_1
      00000090H.2 SFRSYM    DATA     BIT       P1_2
      00000097H   SFRSYM    DATA     BYTE      P1_ALT
      00000096H   SFRSYM    DATA     BYTE      P1_DIR
      00000087H   SFRSYM    DATA     BYTE      PCON
      000000B8H.4 SFRSYM    DATA     BIT       PS
      000000D0H   SFRSYM    DATA     BYTE      PSW
      000000B8H.1 SFRSYM    DATA     BIT       PT0
      000000B8H.3 SFRSYM    DATA     BIT       PT1
      000000B8H.5 SFRSYM    DATA     BIT       PT2
      000000F8H.4 SFRSYM    DATA     BIT       PWDI
      00000080H.7 SFRSYM    DATA     BIT       PWM
      000000A9H   SFRSYM    DATA     BYTE      PWMCON
      000000AAH   SFRSYM    DATA     BYTE      PWMDUTY
      000000A0H.7 SFRSYM    DATA     BIT       PWR_UP
      000000B8H   SFRSYM    DATA     BIT       PX0
      000000B8H.2 SFRSYM    DATA     BIT       PX1
      000000F8H   SFRSYM    DATA     BIT       PX2
      000000F8H.1 SFRSYM    DATA     BIT       PX3
      000000F8H.2 SFRSYM    DATA     BIT       PX4
      000000F8H.3 SFRSYM    DATA     BIT       PX5
      000000A0H   SFRSYM    DATA     BYTE      RADIO
      00000098H.2 SFRSYM    DATA     BIT       RB8
      000000CBH   SFRSYM    DATA     BYTE      RCAP2H
      000000CAH   SFRSYM    DATA     BYTE      RCAP2L
LX51 LINKER/LOCATER V4.34a                                                            02/24/2009  16:29:19  PAGE 8


      000000C8H.5 SFRSYM    DATA     BIT       RCLK
      000000ADH   SFRSYM    DATA     BYTE      REGX_CTRL
      000000ACH   SFRSYM    DATA     BYTE      REGX_LSB
      000000ABH   SFRSYM    DATA     BYTE      REGX_MSB
      00000098H.4 SFRSYM    DATA     BIT       REN
      00000098H   SFRSYM    DATA     BIT       RI
      000000D0H.3 SFRSYM    DATA     BIT       RS0
      000000D0H.4 SFRSYM    DATA     BIT       RS1
      000000B1H   SFRSYM    DATA     BYTE      RSTREAS
      00000080H.1 SFRSYM    DATA     BIT       RXD
      00000099H   SFRSYM    DATA     BYTE      SBUF
      00000098H   SFRSYM    DATA     BYTE      SCON
      00000098H.7 SFRSYM    DATA     BIT       SM0
      00000098H.6 SFRSYM    DATA     BIT       SM1
      00000098H.5 SFRSYM    DATA     BIT       SM2
      00000081H   SFRSYM    DATA     BYTE      SP
      0000008FH   SFRSYM    DATA     BYTE      SPC_FNC
      000000B3H   SFRSYM    DATA     BYTE      SPI_CTRL
      000000B2H   SFRSYM    DATA     BYTE      SPI_DATA
      000000B4H   SFRSYM    DATA     BYTE      SPICLK
      00000080H.5 SFRSYM    DATA     BIT       T0
      00000080H.6 SFRSYM    DATA     BIT       T1
      000000BCH   SFRSYM    DATA     BYTE      T1_1V2
      00000090H   SFRSYM    DATA     BIT       T2
      000000BDH   SFRSYM    DATA     BYTE      T2_1V2
      000000C8H   SFRSYM    DATA     BYTE      T2CON
      00000098H.3 SFRSYM    DATA     BIT       TB8
      000000C8H.4 SFRSYM    DATA     BIT       TCLK
      00000088H   SFRSYM    DATA     BYTE      TCON
      000000B7H   SFRSYM    DATA     BYTE      TEST_MODE
      00000088H.5 SFRSYM    DATA     BIT       TF0
      00000088H.7 SFRSYM    DATA     BIT       TF1
      000000C8H.7 SFRSYM    DATA     BIT       TF2
      0000008CH   SFRSYM    DATA     BYTE      TH0
      0000008DH   SFRSYM    DATA     BYTE      TH1
      000000CDH   SFRSYM    DATA     BYTE      TH2
      00000098H.1 SFRSYM    DATA     BIT       TI
      000000B5H   SFRSYM    DATA     BYTE      TICK_DV
      0000008AH   SFRSYM    DATA     BYTE      TL0
      0000008BH   SFRSYM    DATA     BYTE      TL1
      000000CCH   SFRSYM    DATA     BYTE      TL2
      00000089H   SFRSYM    DATA     BYTE      TMOD
      00000088H.4 SFRSYM    DATA     BIT       TR0
      00000088H.6 SFRSYM    DATA     BIT       TR1
      000000C8H.2 SFRSYM    DATA     BIT       TR2
      00000080H.2 SFRSYM    DATA     BIT       TXD
      000000D8H.3 SFRSYM    DATA     BIT       WDTI
      01000356H   SYMBOL    CODE     NEAR LAB  ?C0001
      01000373H   SYMBOL    CODE     NEAR LAB  ?C0002
      01000398H   SYMBOL    CODE     NEAR LAB  ?C0004
      01000368H   SYMBOL    CODE     NEAR LAB  ?C0007
      00000068H   SYMBOL    DATA     BYTE      ?MAIN?BYTE
      010007BFH   SYMBOL    CODE     NEAR LAB  ?SC_0
      0000006AH   SYMBOL    DATA     BYTE      ACC?040
      00000068H   SYMBOL    DATA     BYTE      I?041

      01000344H   BLOCK     CODE     NEAR LAB  LVL=0
      01000344H   LINE      CODE     ---       #284
      01000346H   LINE      CODE     ---       #285
      01000348H   LINE      CODE     ---       #286
      0100034BH   LINE      CODE     ---       #291
      0100034EH   LINE      CODE     ---       #294
      01000351H   LINE      CODE     ---       #298
      01000352H   LINE      CODE     ---       #299
      01000354H   LINE      CODE     ---       #300
LX51 LINKER/LOCATER V4.34a                                                            02/24/2009  16:29:19  PAGE 9


      01000356H   LINE      CODE     ---       #306
      01000359H   LINE      CODE     ---       #309
      0100035BH   LINE      CODE     ---       #310
      0100035DH   LINE      CODE     ---       #311
      01000360H   LINE      CODE     ---       #314
      01000362H   LINE      CODE     ---       #315
      01000364H   LINE      CODE     ---       #316
      01000366H   LINE      CODE     ---       #317
      01000368H   LINE      CODE     ---       #319
      01000369H   LINE      CODE     ---       #320
      0100036BH   LINE      CODE     ---       #321
      0100036DH   LINE      CODE     ---       #322
      0100036FH   LINE      CODE     ---       #323
      01000371H   LINE      CODE     ---       #324
      01000373H   LINE      CODE     ---       #329
      01000375H   LINE      CODE     ---       #330
      01000377H   LINE      CODE     ---       #331
      01000379H   LINE      CODE     ---       #332
      0100037CH   LINE      CODE     ---       #337
      0100037EH   LINE      CODE     ---       #338
      01000380H   LINE      CODE     ---       #339
      01000383H   LINE      CODE     ---       #342
      01000385H   LINE      CODE     ---       #343
      01000387H   LINE      CODE     ---       #344
      01000389H   LINE      CODE     ---       #345
      0100038CH   LINE      CODE     ---       #350
      0100038FH   LINE      CODE     ---       #353
      01000391H   LINE      CODE     ---       #354
      01000393H   LINE      CODE     ---       #355
      01000395H   LINE      CODE     ---       #356
      01000398H   LINE      CODE     ---       #368
      0100039AH   LINE      CODE     ---       #369
      0100039DH   LINE      CODE     ---       #370
      0100039FH   LINE      CODE     ---       #371
      010003A1H   LINE      CODE     ---       #374
      010003A3H   LINE      CODE     ---       #375
      010003A4H   LINE      CODE     ---       #376
      010003A5H   LINE      CODE     ---       #377
      010003A7H   LINE      CODE     ---       #378
      010003A9H   LINE      CODE     ---       #381
      010003ABH   LINE      CODE     ---       #382
      010003ADH   LINE      CODE     ---       #386
      010003AFH   LINE      CODE     ---       #387
      010003B2H   LINE      CODE     ---       #388
      010003B4H   LINE      CODE     ---       #389
      010003B6H   LINE      CODE     ---       #392
      010003B8H   LINE      CODE     ---       #393
      010003B9H   LINE      CODE     ---       #394
      010003BAH   LINE      CODE     ---       #395
      010003BCH   LINE      CODE     ---       #396
      010003BEH   LINE      CODE     ---       #399
      010003C0H   LINE      CODE     ---       #400
      010003C2H   LINE      CODE     ---       #404
      010003C4H   LINE      CODE     ---       #405
      010003C7H   LINE      CODE     ---       #406
      010003C9H   LINE      CODE     ---       #407
      010003CBH   LINE      CODE     ---       #410
      010003CDH   LINE      CODE     ---       #411
      010003CEH   LINE      CODE     ---       #412
      010003CFH   LINE      CODE     ---       #413
      010003D1H   LINE      CODE     ---       #414
      010003D3H   LINE      CODE     ---       #417
      010003D5H   LINE      CODE     ---       #418
      010003D7H   LINE      CODE     ---       #422
      010003DAH   LINE      CODE     ---       #423
LX51 LINKER/LOCATER V4.34a                                                            02/24/2009  16:29:19  PAGE 10


      010003DDH   LINE      CODE     ---       #424
      010003E0H   LINE      CODE     ---       #425
      010003E3H   LINE      CODE     ---       #426
      010003E5H   LINE      CODE     ---       #427
      010003E7H   LINE      CODE     ---       #428
      010003E9H   LINE      CODE     ---       #429
      010003EBH   LINE      CODE     ---       #430
      010003EEH   LINE      CODE     ---       #433
      010003F1H   LINE      CODE     ---       #436
      010003F3H   LINE      CODE     ---       #437
      010003F5H   LINE      CODE     ---       #438
      010003F8H   LINE      CODE     ---       #441
      ---         BLOCKEND  ---      ---       LVL=0

      ---         MODULE    ---      ---       ISR_RF
      0000004BH   PUBLIC    DATA     BYTE      ?_RF_SEND?BYTE
      010006D0H   PUBLIC    CODE     NEAR LAB  _RF_CONFIGURE
      01000486H   PUBLIC    CODE     NEAR LAB  _RF_SEND
      00000025H   PUBLIC    DATA     BYTE      RF_BUF
      010004F1H   PUBLIC    CODE     NEAR LAB  RF_CH1_RECV
      01000806H   PUBLIC    CODE     NEAR LAB  RF_INIT
      01000843H   PUBLIC    CODE     NEAR LAB  RF_WAIT_MSG
      000000D0H.6 SFRSYM    DATA     BIT       AC
      000000E0H   SFRSYM    DATA     BYTE      ACC
      000000A1H   SFRSYM    DATA     BYTE      ADCCON
      000000A2H   SFRSYM    DATA     BYTE      ADCDATAH
      000000A3H   SFRSYM    DATA     BYTE      ADCDATAL
      000000A4H   SFRSYM    DATA     BYTE      ADCSTATIC
      000000F0H   SFRSYM    DATA     BYTE      B
      000000C8H.1 SFRSYM    DATA     BIT       C_T2
      000000A0H.6 SFRSYM    DATA     BIT       CE
      000000B6H   SFRSYM    DATA     BYTE      CK_CTRL
      0000008EH   SFRSYM    DATA     BYTE      CKCON
      000000A0H.1 SFRSYM    DATA     BIT       CLK1
      000000A0H.5 SFRSYM    DATA     BIT       CLK2
      000000C8H   SFRSYM    DATA     BIT       CP_RL2
      000000C8H   SFRSYM    DATA     BIT       CPRL2
      000000A0H.3 SFRSYM    DATA     BIT       CS
      000000C8H.1 SFRSYM    DATA     BIT       CT2
      000000D0H.7 SFRSYM    DATA     BIT       CY
      000000A0H   SFRSYM    DATA     BIT       DATA?
      000000BEH   SFRSYM    DATA     BYTE      DEV_OFFSET
      00000090H.2 SFRSYM    DATA     BIT       DIN0
      00000090H   SFRSYM    DATA     BIT       DIO0
      00000090H.1 SFRSYM    DATA     BIT       DIO1
      00000080H   SFRSYM    DATA     BIT       DIO2
      00000080H.1 SFRSYM    DATA     BIT       DIO3
      00000080H.2 SFRSYM    DATA     BIT       DIO4
      00000080H.3 SFRSYM    DATA     BIT       DIO5
      00000080H.4 SFRSYM    DATA     BIT       DIO6
      00000080H.5 SFRSYM    DATA     BIT       DIO7
      00000080H.6 SFRSYM    DATA     BIT       DIO8
      00000080H.7 SFRSYM    DATA     BIT       DIO9
      000000A0H.4 SFRSYM    DATA     BIT       DOUT2
      00000083H   SFRSYM    DATA     BYTE      DPH
      00000083H   SFRSYM    DATA     BYTE      DPH0
      00000085H   SFRSYM    DATA     BYTE      DPH1
      00000082H   SFRSYM    DATA     BYTE      DPL
      00000082H   SFRSYM    DATA     BYTE      DPL0
      00000084H   SFRSYM    DATA     BYTE      DPL1
      00000086H   SFRSYM    DATA     BYTE      DPS
      000000A0H.2 SFRSYM    DATA     BIT       DR1
      000000A0H.6 SFRSYM    DATA     BIT       DR2
      000000A0H.6 SFRSYM    DATA     BIT       DR2_CE
      000000A8H.7 SFRSYM    DATA     BIT       EA
LX51 LINKER/LOCATER V4.34a                                                            02/24/2009  16:29:19  PAGE 11


      000000D8H   SFRSYM    DATA     BYTE      EICON
      000000E8H   SFRSYM    DATA     BYTE      EIE
      000000F8H   SFRSYM    DATA     BYTE      EIP
      000000A8H.4 SFRSYM    DATA     BIT       ES
      000000A8H.1 SFRSYM    DATA     BIT       ET0
      000000A8H.3 SFRSYM    DATA     BIT       ET1
      000000A8H.5 SFRSYM    DATA     BIT       ET2
      000000E8H.4 SFRSYM    DATA     BIT       EWDI
      000000A8H   SFRSYM    DATA     BIT       EX0
      000000A8H.2 SFRSYM    DATA     BIT       EX1
      000000E8H   SFRSYM    DATA     BIT       EX2
      000000E8H.1 SFRSYM    DATA     BIT       EX3
      000000E8H.2 SFRSYM    DATA     BIT       EX4
      000000E8H.3 SFRSYM    DATA     BIT       EX5
      000000C8H.3 SFRSYM    DATA     BIT       EXEN2
      000000C8H.6 SFRSYM    DATA     BIT       EXF2
      00000091H   SFRSYM    DATA     BYTE      EXIF
      000000D0H.5 SFRSYM    DATA     BIT       F0
      000000D0H.1 SFRSYM    DATA     BIT       F1
      000000A8H   SFRSYM    DATA     BYTE      IE
      00000088H.1 SFRSYM    DATA     BIT       IE0
      00000088H.3 SFRSYM    DATA     BIT       IE1
      00000080H.3 SFRSYM    DATA     BIT       INT0_N
      00000080H.4 SFRSYM    DATA     BIT       INT1_N
      000000B8H   SFRSYM    DATA     BYTE      IP
      00000088H   SFRSYM    DATA     BIT       IT0
      00000088H.2 SFRSYM    DATA     BIT       IT1
      00000092H   SFRSYM    DATA     BYTE      MPAGE
      000000D0H.2 SFRSYM    DATA     BIT       OV
      000000D0H   SFRSYM    DATA     BIT       P
      00000080H   SFRSYM    DATA     BYTE      P0
      00000080H   SFRSYM    DATA     BIT       P0_0
      00000080H.1 SFRSYM    DATA     BIT       P0_1
      00000080H.2 SFRSYM    DATA     BIT       P0_2
      00000080H.3 SFRSYM    DATA     BIT       P0_3
      00000080H.4 SFRSYM    DATA     BIT       P0_4
      00000080H.5 SFRSYM    DATA     BIT       P0_5
      00000080H.6 SFRSYM    DATA     BIT       P0_6
      00000080H.7 SFRSYM    DATA     BIT       P0_7
      00000095H   SFRSYM    DATA     BYTE      P0_ALT
      00000094H   SFRSYM    DATA     BYTE      P0_DIR
      00000090H   SFRSYM    DATA     BYTE      P1
      00000090H   SFRSYM    DATA     BIT       P1_0
      00000090H.1 SFRSYM    DATA     BIT       P1_1
      00000090H.2 SFRSYM    DATA     BIT       P1_2
      00000097H   SFRSYM    DATA     BYTE      P1_ALT
      00000096H   SFRSYM    DATA     BYTE      P1_DIR
      00000087H   SFRSYM    DATA     BYTE      PCON
      000000B8H.4 SFRSYM    DATA     BIT       PS
      000000D0H   SFRSYM    DATA     BYTE      PSW
      000000B8H.1 SFRSYM    DATA     BIT       PT0
      000000B8H.3 SFRSYM    DATA     BIT       PT1
      000000B8H.5 SFRSYM    DATA     BIT       PT2
      000000F8H.4 SFRSYM    DATA     BIT       PWDI
      00000080H.7 SFRSYM    DATA     BIT       PWM
      000000A9H   SFRSYM    DATA     BYTE      PWMCON
      000000AAH   SFRSYM    DATA     BYTE      PWMDUTY
      000000A0H.7 SFRSYM    DATA     BIT       PWR_UP
      000000B8H   SFRSYM    DATA     BIT       PX0
      000000B8H.2 SFRSYM    DATA     BIT       PX1
      000000F8H   SFRSYM    DATA     BIT       PX2
      000000F8H.1 SFRSYM    DATA     BIT       PX3
      000000F8H.2 SFRSYM    DATA     BIT       PX4
      000000F8H.3 SFRSYM    DATA     BIT       PX5
      000000A0H   SFRSYM    DATA     BYTE      RADIO
LX51 LINKER/LOCATER V4.34a                                                            02/24/2009  16:29:19  PAGE 12


      00000098H.2 SFRSYM    DATA     BIT       RB8
      000000CBH   SFRSYM    DATA     BYTE      RCAP2H
      000000CAH   SFRSYM    DATA     BYTE      RCAP2L
      000000C8H.5 SFRSYM    DATA     BIT       RCLK
      000000ADH   SFRSYM    DATA     BYTE      REGX_CTRL
      000000ACH   SFRSYM    DATA     BYTE      REGX_LSB
      000000ABH   SFRSYM    DATA     BYTE      REGX_MSB
      00000098H.4 SFRSYM    DATA     BIT       REN
      00000098H   SFRSYM    DATA     BIT       RI
      000000D0H.3 SFRSYM    DATA     BIT       RS0
      000000D0H.4 SFRSYM    DATA     BIT       RS1
      000000B1H   SFRSYM    DATA     BYTE      RSTREAS
      00000080H.1 SFRSYM    DATA     BIT       RXD
      00000099H   SFRSYM    DATA     BYTE      SBUF
      00000098H   SFRSYM    DATA     BYTE      SCON
      00000098H.7 SFRSYM    DATA     BIT       SM0
      00000098H.6 SFRSYM    DATA     BIT       SM1
      00000098H.5 SFRSYM    DATA     BIT       SM2
      00000081H   SFRSYM    DATA     BYTE      SP
      0000008FH   SFRSYM    DATA     BYTE      SPC_FNC
      000000B3H   SFRSYM    DATA     BYTE      SPI_CTRL
      000000B2H   SFRSYM    DATA     BYTE      SPI_DATA
      000000B4H   SFRSYM    DATA     BYTE      SPICLK
      00000080H.5 SFRSYM    DATA     BIT       T0
      00000080H.6 SFRSYM    DATA     BIT       T1
      000000BCH   SFRSYM    DATA     BYTE      T1_1V2
      00000090H   SFRSYM    DATA     BIT       T2
      000000BDH   SFRSYM    DATA     BYTE      T2_1V2
      000000C8H   SFRSYM    DATA     BYTE      T2CON
      00000098H.3 SFRSYM    DATA     BIT       TB8
      000000C8H.4 SFRSYM    DATA     BIT       TCLK
      00000088H   SFRSYM    DATA     BYTE      TCON
      000000B7H   SFRSYM    DATA     BYTE      TEST_MODE
      00000088H.5 SFRSYM    DATA     BIT       TF0
      00000088H.7 SFRSYM    DATA     BIT       TF1
      000000C8H.7 SFRSYM    DATA     BIT       TF2
      0000008CH   SFRSYM    DATA     BYTE      TH0
      0000008DH   SFRSYM    DATA     BYTE      TH1
      000000CDH   SFRSYM    DATA     BYTE      TH2
      00000098H.1 SFRSYM    DATA     BIT       TI
      000000B5H   SFRSYM    DATA     BYTE      TICK_DV
      0000008AH   SFRSYM    DATA     BYTE      TL0
      0000008BH   SFRSYM    DATA     BYTE      TL1
      000000CCH   SFRSYM    DATA     BYTE      TL2
      00000089H   SFRSYM    DATA     BYTE      TMOD
      00000088H.4 SFRSYM    DATA     BIT       TR0
      00000088H.6 SFRSYM    DATA     BIT       TR1
      000000C8H.2 SFRSYM    DATA     BIT       TR2
      00000080H.2 SFRSYM    DATA     BIT       TXD
      000000D8H.3 SFRSYM    DATA     BIT       WDTI
      00000063H   SYMBOL    DATA     BYTE      ?_RF_CONFIGURE?BYTE
      010006DDH   SYMBOL    CODE     NEAR LAB  ?C0002
      01000703H   SYMBOL    CODE     NEAR LAB  ?C0003
      01000495H   SYMBOL    CODE     NEAR LAB  ?C0006
      010004BFH   SYMBOL    CODE     NEAR LAB  ?C0007
      010004C4H   SYMBOL    CODE     NEAR LAB  ?C0009
      010004EEH   SYMBOL    CODE     NEAR LAB  ?C0010
      01000518H   SYMBOL    CODE     NEAR LAB  ?C0015
      01000530H   SYMBOL    CODE     NEAR LAB  ?C0016
      01000845H   SYMBOL    CODE     NEAR LAB  ?C0018
      01000849H   SYMBOL    CODE     NEAR LAB  ?C0019
      010006F8H   SYMBOL    CODE     NEAR LAB  ?C0021
      010004BDH   SYMBOL    CODE     NEAR LAB  ?C0022
      010004ECH   SYMBOL    CODE     NEAR LAB  ?C0023
      01000528H   SYMBOL    CODE     NEAR LAB  ?C0024
LX51 LINKER/LOCATER V4.34a                                                            02/24/2009  16:29:19  PAGE 13


      00000079H   SYMBOL    DATA     BYTE      ?RF_CH1_RECV?BYTE
      01000533H   SYMBOL    CODE     NEAR LAB  ?RF_CH1_RECV?OUT
      0000004BH   SYMBOL    DATA     BYTE      ADDR?243
      0000004EH   SYMBOL    DATA     BYTE      ADDR_LEN?244
      00000066H   SYMBOL    DATA     BYTE      I?142
      00000053H   SYMBOL    DATA     BYTE      I?247
      00000079H   SYMBOL    DATA     BYTE      I?348
      00000063H   SYMBOL    DATA     BYTE      P?141
      0000004FH   SYMBOL    DATA     BYTE      PAYLOAD?245
      00000052H   SYMBOL    DATA     BYTE      PL_LEN?246

      01000806H   BLOCK     CODE     NEAR LAB  LVL=0
      01000806H   LINE      CODE     ---       #265
      01000808H   LINE      CODE     ---       #269
      01000809H   LINE      CODE     ---       #270
      0100080AH   LINE      CODE     ---       #271
      0100080CH   LINE      CODE     ---       #272
      0100080FH   LINE      CODE     ---       #275
      01000811H   LINE      CODE     ---       #278
      01000813H   LINE      CODE     ---       #281
      ---         BLOCKEND  ---      ---       LVL=0

      010006D0H   BLOCK     CODE     NEAR LAB  LVL=0
      010006D0H   LINE      CODE     ---       #304
      010006D2H   LINE      CODE     ---       #308
      010006D4H   LINE      CODE     ---       #309
      010006D6H   LINE      CODE     ---       #310
      010006D8H   LINE      CODE     ---       #314
      010006D9H   LINE      CODE     ---       #315
      010006DBH   LINE      CODE     ---       #316
      010006DDH   LINE      CODE     ---       #320
      010006DFH   LINE      CODE     ---       #321
      010006E1H   LINE      CODE     ---       #322
      010006E3H   LINE      CODE     ---       #323
      010006E6H   LINE      CODE     ---       #324
      010006E9H   LINE      CODE     ---       #325
      010006ECH   LINE      CODE     ---       #326
      010006EDH   LINE      CODE     ---       #327
      010006F0H   LINE      CODE     ---       #330
      010006F2H   LINE      CODE     ---       #331
      010006F4H   LINE      CODE     ---       #332
      010006F6H   LINE      CODE     ---       #333
      010006F8H   LINE      CODE     ---       #335
      010006F9H   LINE      CODE     ---       #336
      010006FBH   LINE      CODE     ---       #337
      010006FDH   LINE      CODE     ---       #338
      010006FFH   LINE      CODE     ---       #339
      01000701H   LINE      CODE     ---       #340
      01000703H   LINE      CODE     ---       #345
      01000705H   LINE      CODE     ---       #348
      ---         BLOCKEND  ---      ---       LVL=0

      01000486H   BLOCK     CODE     NEAR LAB  LVL=0
      01000486H   LINE      CODE     ---       #365
      01000488H   LINE      CODE     ---       #366
      0100048AH   LINE      CODE     ---       #367
      0100048CH   LINE      CODE     ---       #368
      0100048EH   LINE      CODE     ---       #376
      01000490H   LINE      CODE     ---       #381
      01000491H   LINE      CODE     ---       #382
      01000493H   LINE      CODE     ---       #383
      01000495H   LINE      CODE     ---       #385
      01000496H   LINE      CODE     ---       #386
      01000498H   LINE      CODE     ---       #387
      0100049AH   LINE      CODE     ---       #388
LX51 LINKER/LOCATER V4.34a                                                            02/24/2009  16:29:19  PAGE 14


      0100049CH   LINE      CODE     ---       #389
      0100049DH   LINE      CODE     ---       #390
      0100049FH   LINE      CODE     ---       #391
      010004A0H   LINE      CODE     ---       #392
      010004A2H   LINE      CODE     ---       #395
      010004A4H   LINE      CODE     ---       #396
      010004A6H   LINE      CODE     ---       #397
      010004A8H   LINE      CODE     ---       #398
      010004ABH   LINE      CODE     ---       #399
      010004AEH   LINE      CODE     ---       #400
      010004B1H   LINE      CODE     ---       #401
      010004B2H   LINE      CODE     ---       #402
      010004B5H   LINE      CODE     ---       #403
      010004B7H   LINE      CODE     ---       #404
      010004B9H   LINE      CODE     ---       #405
      010004BBH   LINE      CODE     ---       #406
      010004BDH   LINE      CODE     ---       #408
      010004BFH   LINE      CODE     ---       #413
      010004C0H   LINE      CODE     ---       #414
      010004C2H   LINE      CODE     ---       #415
      010004C4H   LINE      CODE     ---       #417
      010004C5H   LINE      CODE     ---       #418
      010004C7H   LINE      CODE     ---       #419
      010004C9H   LINE      CODE     ---       #420
      010004CBH   LINE      CODE     ---       #421
      010004CCH   LINE      CODE     ---       #422
      010004CEH   LINE      CODE     ---       #423
      010004CFH   LINE      CODE     ---       #424
      010004D1H   LINE      CODE     ---       #427
      010004D3H   LINE      CODE     ---       #428
      010004D5H   LINE      CODE     ---       #429
      010004D7H   LINE      CODE     ---       #430
      010004DAH   LINE      CODE     ---       #431
      010004DDH   LINE      CODE     ---       #432
      010004E0H   LINE      CODE     ---       #433
      010004E1H   LINE      CODE     ---       #434
      010004E4H   LINE      CODE     ---       #435
      010004E6H   LINE      CODE     ---       #436
      010004E8H   LINE      CODE     ---       #437
      010004EAH   LINE      CODE     ---       #438
      010004ECH   LINE      CODE     ---       #440
      010004EEH   LINE      CODE     ---       #445
      010004F0H   LINE      CODE     ---       #448
      ---         BLOCKEND  ---      ---       LVL=0

      01000053H   BLOCK     CODE     NEAR LAB  LVL=0
      01000053H   LINE      CODE     ---       #452
      ---         BLOCKEND  ---      ---       LVL=0

      010004F1H   BLOCK     CODE     NEAR LAB  LVL=0
      010004F1H   LINE      CODE     ---       #461
      010004F3H   LINE      CODE     ---       #462
      010004F5H   LINE      CODE     ---       #463
      010004F7H   LINE      CODE     ---       #464
      010004F9H   LINE      CODE     ---       #465
      010004FBH   LINE      CODE     ---       #466
      010004FEH   LINE      CODE     ---       #467
      01000500H   LINE      CODE     ---       #468
      01000502H   LINE      CODE     ---       #469
      01000504H   LINE      CODE     ---       #470
      01000506H   LINE      CODE     ---       #471
      01000508H   LINE      CODE     ---       #472
      0100050AH   LINE      CODE     ---       #473
      0100050CH   LINE      CODE     ---       #474
      0100050EH   LINE      CODE     ---       #480
LX51 LINKER/LOCATER V4.34a                                                            02/24/2009  16:29:19  PAGE 15


      01000511H   LINE      CODE     ---       #481
      01000514H   LINE      CODE     ---       #488
      01000516H   LINE      CODE     ---       #489
      01000518H   LINE      CODE     ---       #495
      0100051BH   LINE      CODE     ---       #498
      0100051CH   LINE      CODE     ---       #499
      0100051DH   LINE      CODE     ---       #500
      01000520H   LINE      CODE     ---       #501
      01000522H   LINE      CODE     ---       #502
      01000524H   LINE      CODE     ---       #503
      01000526H   LINE      CODE     ---       #504
      01000528H   LINE      CODE     ---       #506
      01000529H   LINE      CODE     ---       #507
      0100052BH   LINE      CODE     ---       #508
      0100052CH   LINE      CODE     ---       #509
      0100052EH   LINE      CODE     ---       #512
      01000530H   LINE      CODE     ---       #516
      01000533H   LINE      CODE     ---       #523
      01000536H   LINE      CODE     ---       #526
      01000538H   LINE      CODE     ---       #527
      0100053AH   LINE      CODE     ---       #528
      0100053CH   LINE      CODE     ---       #529
      0100053EH   LINE      CODE     ---       #530
      01000540H   LINE      CODE     ---       #531
      01000542H   LINE      CODE     ---       #532
      01000544H   LINE      CODE     ---       #533
      01000546H   LINE      CODE     ---       #534
      01000548H   LINE      CODE     ---       #535
      0100054AH   LINE      CODE     ---       #536
      0100054CH   LINE      CODE     ---       #537
      0100054EH   LINE      CODE     ---       #538
      01000550H   LINE      CODE     ---       #539
      ---         BLOCKEND  ---      ---       LVL=0

      01000843H   BLOCK     CODE     NEAR LAB  LVL=0
      01000843H   LINE      CODE     ---       #555
      01000845H   LINE      CODE     ---       #559
      01000847H   LINE      CODE     ---       #560
      01000849H   LINE      CODE     ---       #565
      0100084BH   LINE      CODE     ---       #568
      ---         BLOCKEND  ---      ---       LVL=0

      ---         MODULE    ---      ---       ECO_PAGE
      00000047H   PUBLIC    DATA     BYTE      ECO_PAGE_ADDR
      01000732H   PUBLIC    CODE     NEAR LAB  ECO_PAGE_INIT
      0100024DH   PUBLIC    CODE     NEAR LAB  ECO_PAGE_MANAGER
      000000D0H.6 SFRSYM    DATA     BIT       AC
      000000E0H   SFRSYM    DATA     BYTE      ACC
      000000A1H   SFRSYM    DATA     BYTE      ADCCON
      000000A2H   SFRSYM    DATA     BYTE      ADCDATAH
      000000A3H   SFRSYM    DATA     BYTE      ADCDATAL
      000000A4H   SFRSYM    DATA     BYTE      ADCSTATIC
      000000F0H   SFRSYM    DATA     BYTE      B
      000000C8H.1 SFRSYM    DATA     BIT       C_T2
      000000A0H.6 SFRSYM    DATA     BIT       CE
      000000B6H   SFRSYM    DATA     BYTE      CK_CTRL
      0000008EH   SFRSYM    DATA     BYTE      CKCON
      000000A0H.1 SFRSYM    DATA     BIT       CLK1
      000000A0H.5 SFRSYM    DATA     BIT       CLK2
      000000C8H   SFRSYM    DATA     BIT       CP_RL2
      000000C8H   SFRSYM    DATA     BIT       CPRL2
      000000A0H.3 SFRSYM    DATA     BIT       CS
      000000C8H.1 SFRSYM    DATA     BIT       CT2
      000000D0H.7 SFRSYM    DATA     BIT       CY
      000000A0H   SFRSYM    DATA     BIT       DATA?
LX51 LINKER/LOCATER V4.34a                                                            02/24/2009  16:29:19  PAGE 16


      000000BEH   SFRSYM    DATA     BYTE      DEV_OFFSET
      00000090H.2 SFRSYM    DATA     BIT       DIN0
      00000090H   SFRSYM    DATA     BIT       DIO0
      00000090H.1 SFRSYM    DATA     BIT       DIO1
      00000080H   SFRSYM    DATA     BIT       DIO2
      00000080H.1 SFRSYM    DATA     BIT       DIO3
      00000080H.2 SFRSYM    DATA     BIT       DIO4
      00000080H.3 SFRSYM    DATA     BIT       DIO5
      00000080H.4 SFRSYM    DATA     BIT       DIO6
      00000080H.5 SFRSYM    DATA     BIT       DIO7
      00000080H.6 SFRSYM    DATA     BIT       DIO8
      00000080H.7 SFRSYM    DATA     BIT       DIO9
      000000A0H.4 SFRSYM    DATA     BIT       DOUT2
      00000083H   SFRSYM    DATA     BYTE      DPH
      00000083H   SFRSYM    DATA     BYTE      DPH0
      00000085H   SFRSYM    DATA     BYTE      DPH1
      00000082H   SFRSYM    DATA     BYTE      DPL
      00000082H   SFRSYM    DATA     BYTE      DPL0
      00000084H   SFRSYM    DATA     BYTE      DPL1
      00000086H   SFRSYM    DATA     BYTE      DPS
      000000A0H.2 SFRSYM    DATA     BIT       DR1
      000000A0H.6 SFRSYM    DATA     BIT       DR2
      000000A0H.6 SFRSYM    DATA     BIT       DR2_CE
      000000A8H.7 SFRSYM    DATA     BIT       EA
      000000D8H   SFRSYM    DATA     BYTE      EICON
      000000E8H   SFRSYM    DATA     BYTE      EIE
      000000F8H   SFRSYM    DATA     BYTE      EIP
      000000A8H.4 SFRSYM    DATA     BIT       ES
      000000A8H.1 SFRSYM    DATA     BIT       ET0
      000000A8H.3 SFRSYM    DATA     BIT       ET1
      000000A8H.5 SFRSYM    DATA     BIT       ET2
      000000E8H.4 SFRSYM    DATA     BIT       EWDI
      000000A8H   SFRSYM    DATA     BIT       EX0
      000000A8H.2 SFRSYM    DATA     BIT       EX1
      000000E8H   SFRSYM    DATA     BIT       EX2
      000000E8H.1 SFRSYM    DATA     BIT       EX3
      000000E8H.2 SFRSYM    DATA     BIT       EX4
      000000E8H.3 SFRSYM    DATA     BIT       EX5
      000000C8H.3 SFRSYM    DATA     BIT       EXEN2
      000000C8H.6 SFRSYM    DATA     BIT       EXF2
      00000091H   SFRSYM    DATA     BYTE      EXIF
      000000D0H.5 SFRSYM    DATA     BIT       F0
      000000D0H.1 SFRSYM    DATA     BIT       F1
      000000A8H   SFRSYM    DATA     BYTE      IE
      00000088H.1 SFRSYM    DATA     BIT       IE0
      00000088H.3 SFRSYM    DATA     BIT       IE1
      00000080H.3 SFRSYM    DATA     BIT       INT0_N
      00000080H.4 SFRSYM    DATA     BIT       INT1_N
      000000B8H   SFRSYM    DATA     BYTE      IP
      00000088H   SFRSYM    DATA     BIT       IT0
      00000088H.2 SFRSYM    DATA     BIT       IT1
      00000092H   SFRSYM    DATA     BYTE      MPAGE
      000000D0H.2 SFRSYM    DATA     BIT       OV
      000000D0H   SFRSYM    DATA     BIT       P
      00000080H   SFRSYM    DATA     BYTE      P0
      00000080H   SFRSYM    DATA     BIT       P0_0
      00000080H.1 SFRSYM    DATA     BIT       P0_1
      00000080H.2 SFRSYM    DATA     BIT       P0_2
      00000080H.3 SFRSYM    DATA     BIT       P0_3
      00000080H.4 SFRSYM    DATA     BIT       P0_4
      00000080H.5 SFRSYM    DATA     BIT       P0_5
      00000080H.6 SFRSYM    DATA     BIT       P0_6
      00000080H.7 SFRSYM    DATA     BIT       P0_7
      00000095H   SFRSYM    DATA     BYTE      P0_ALT
      00000094H   SFRSYM    DATA     BYTE      P0_DIR
LX51 LINKER/LOCATER V4.34a                                                            02/24/2009  16:29:19  PAGE 17


      00000090H   SFRSYM    DATA     BYTE      P1
      00000090H   SFRSYM    DATA     BIT       P1_0
      00000090H.1 SFRSYM    DATA     BIT       P1_1
      00000090H.2 SFRSYM    DATA     BIT       P1_2
      00000097H   SFRSYM    DATA     BYTE      P1_ALT
      00000096H   SFRSYM    DATA     BYTE      P1_DIR
      00000087H   SFRSYM    DATA     BYTE      PCON
      000000B8H.4 SFRSYM    DATA     BIT       PS
      000000D0H   SFRSYM    DATA     BYTE      PSW
      000000B8H.1 SFRSYM    DATA     BIT       PT0
      000000B8H.3 SFRSYM    DATA     BIT       PT1
      000000B8H.5 SFRSYM    DATA     BIT       PT2
      000000F8H.4 SFRSYM    DATA     BIT       PWDI
      00000080H.7 SFRSYM    DATA     BIT       PWM
      000000A9H   SFRSYM    DATA     BYTE      PWMCON
      000000AAH   SFRSYM    DATA     BYTE      PWMDUTY
      000000A0H.7 SFRSYM    DATA     BIT       PWR_UP
      000000B8H   SFRSYM    DATA     BIT       PX0
      000000B8H.2 SFRSYM    DATA     BIT       PX1
      000000F8H   SFRSYM    DATA     BIT       PX2
      000000F8H.1 SFRSYM    DATA     BIT       PX3
      000000F8H.2 SFRSYM    DATA     BIT       PX4
      000000F8H.3 SFRSYM    DATA     BIT       PX5
      000000A0H   SFRSYM    DATA     BYTE      RADIO
      00000098H.2 SFRSYM    DATA     BIT       RB8
      000000CBH   SFRSYM    DATA     BYTE      RCAP2H
      000000CAH   SFRSYM    DATA     BYTE      RCAP2L
      000000C8H.5 SFRSYM    DATA     BIT       RCLK
      000000ADH   SFRSYM    DATA     BYTE      REGX_CTRL
      000000ACH   SFRSYM    DATA     BYTE      REGX_LSB
      000000ABH   SFRSYM    DATA     BYTE      REGX_MSB
      00000098H.4 SFRSYM    DATA     BIT       REN
      00000098H   SFRSYM    DATA     BIT       RI
      000000D0H.3 SFRSYM    DATA     BIT       RS0
      000000D0H.4 SFRSYM    DATA     BIT       RS1
      000000B1H   SFRSYM    DATA     BYTE      RSTREAS
      00000080H.1 SFRSYM    DATA     BIT       RXD
      00000099H   SFRSYM    DATA     BYTE      SBUF
      00000098H   SFRSYM    DATA     BYTE      SCON
      00000098H.7 SFRSYM    DATA     BIT       SM0
      00000098H.6 SFRSYM    DATA     BIT       SM1
      00000098H.5 SFRSYM    DATA     BIT       SM2
      00000081H   SFRSYM    DATA     BYTE      SP
      0000008FH   SFRSYM    DATA     BYTE      SPC_FNC
      000000B3H   SFRSYM    DATA     BYTE      SPI_CTRL
      000000B2H   SFRSYM    DATA     BYTE      SPI_DATA
      000000B4H   SFRSYM    DATA     BYTE      SPICLK
      00000080H.5 SFRSYM    DATA     BIT       T0
      00000080H.6 SFRSYM    DATA     BIT       T1
      000000BCH   SFRSYM    DATA     BYTE      T1_1V2
      00000090H   SFRSYM    DATA     BIT       T2
      000000BDH   SFRSYM    DATA     BYTE      T2_1V2
      000000C8H   SFRSYM    DATA     BYTE      T2CON
      00000098H.3 SFRSYM    DATA     BIT       TB8
      000000C8H.4 SFRSYM    DATA     BIT       TCLK
      00000088H   SFRSYM    DATA     BYTE      TCON
      000000B7H   SFRSYM    DATA     BYTE      TEST_MODE
      00000088H.5 SFRSYM    DATA     BIT       TF0
      00000088H.7 SFRSYM    DATA     BIT       TF1
      000000C8H.7 SFRSYM    DATA     BIT       TF2
      0000008CH   SFRSYM    DATA     BYTE      TH0
      0000008DH   SFRSYM    DATA     BYTE      TH1
      000000CDH   SFRSYM    DATA     BYTE      TH2
      00000098H.1 SFRSYM    DATA     BIT       TI
      000000B5H   SFRSYM    DATA     BYTE      TICK_DV
LX51 LINKER/LOCATER V4.34a                                                            02/24/2009  16:29:19  PAGE 18


      0000008AH   SFRSYM    DATA     BYTE      TL0
      0000008BH   SFRSYM    DATA     BYTE      TL1
      000000CCH   SFRSYM    DATA     BYTE      TL2
      00000089H   SFRSYM    DATA     BYTE      TMOD
      00000088H.4 SFRSYM    DATA     BIT       TR0
      00000088H.6 SFRSYM    DATA     BIT       TR1
      000000C8H.2 SFRSYM    DATA     BIT       TR2
      00000080H.2 SFRSYM    DATA     BIT       TXD
      000000D8H.3 SFRSYM    DATA     BIT       WDTI
      01000258H   SYMBOL    CODE     NEAR LAB  ?C0002
      01000273H   SYMBOL    CODE     NEAR LAB  ?C0003
      0100027FH   SYMBOL    CODE     NEAR LAB  ?C0005
      010002A4H   SYMBOL    CODE     NEAR LAB  ?C0006
      01000296H   SYMBOL    CODE     NEAR LAB  ?C0007
      010002DEH   SYMBOL    CODE     NEAR LAB  ?C0009
      010002B3H   SYMBOL    CODE     NEAR LAB  ?C0010
      010002CEH   SYMBOL    CODE     NEAR LAB  ?C0011
      0100033DH   SYMBOL    CODE     NEAR LAB  ?C0013
      010002EEH   SYMBOL    CODE     NEAR LAB  ?C0014
      0100031DH   SYMBOL    CODE     NEAR LAB  ?C0015
      0100026AH   SYMBOL    CODE     NEAR LAB  ?C0018
      0100029EH   SYMBOL    CODE     NEAR LAB  ?C0020
      010002ACH   SYMBOL    CODE     NEAR LAB  ?C0021
      010002C5H   SYMBOL    CODE     NEAR LAB  ?C0022
      01000316H   SYMBOL    CODE     NEAR LAB  ?C0023
      0100033DH   SYMBOL    CODE     NEAR LAB  ?C0024
      0000005DH   SYMBOL    DATA     BYTE      ?ECO_PAGE_MANAGER?BYTE
      0000003DH   SYMBOL    DATA     BYTE      ECO_PAGE_TABLE
      00000049H   SYMBOL    DATA     BYTE      ECO_PAGE_TABLE_INDEX
      0000005DH   SYMBOL    DATA     BYTE      I?141
      0000005FH   SYMBOL    DATA     BYTE      PAGE_INDEX?142
      00000061H   SYMBOL    DATA     BYTE      SEG?140

      01000732H   BLOCK     CODE     NEAR LAB  LVL=0
      01000732H   LINE      CODE     ---       #227
      01000735H   LINE      CODE     ---       #228
      01000738H   LINE      CODE     ---       #232
      01000739H   LINE      CODE     ---       #233
      0100073BH   LINE      CODE     ---       #234
      0100073DH   LINE      CODE     ---       #238
      01000740H   LINE      CODE     ---       #241
      01000743H   LINE      CODE     ---       #244
      01000746H   LINE      CODE     ---       #247
      01000749H   LINE      CODE     ---       #250
      0100074CH   LINE      CODE     ---       #253
      0100074FH   LINE      CODE     ---       #256
      01000752H   LINE      CODE     ---       #259
      01000755H   LINE      CODE     ---       #262
      01000758H   LINE      CODE     ---       #265
      0100075BH   LINE      CODE     ---       #268
      ---         BLOCKEND  ---      ---       LVL=0

      0100024DH   BLOCK     CODE     NEAR LAB  LVL=0
      0100024DH   LINE      CODE     ---       #284
      0100024FH   LINE      CODE     ---       #285
      01000251H   LINE      CODE     ---       #286
      01000253H   LINE      CODE     ---       #291
      01000254H   LINE      CODE     ---       #292
      01000256H   LINE      CODE     ---       #293
      01000258H   LINE      CODE     ---       #299
      0100025BH   LINE      CODE     ---       #302
      0100025DH   LINE      CODE     ---       #303
      0100025FH   LINE      CODE     ---       #304
      01000262H   LINE      CODE     ---       #307
      01000264H   LINE      CODE     ---       #308
LX51 LINKER/LOCATER V4.34a                                                            02/24/2009  16:29:19  PAGE 19


      01000266H   LINE      CODE     ---       #309
      01000268H   LINE      CODE     ---       #310
      0100026AH   LINE      CODE     ---       #312
      0100026BH   LINE      CODE     ---       #313
      0100026DH   LINE      CODE     ---       #314
      0100026FH   LINE      CODE     ---       #315
      01000271H   LINE      CODE     ---       #316
      01000273H   LINE      CODE     ---       #321
      01000275H   LINE      CODE     ---       #322
      01000277H   LINE      CODE     ---       #323
      0100027AH   LINE      CODE     ---       #328
      0100027BH   LINE      CODE     ---       #329
      0100027DH   LINE      CODE     ---       #330
      0100027FH   LINE      CODE     ---       #336
      01000281H   LINE      CODE     ---       #337
      01000283H   LINE      CODE     ---       #338
      01000284H   LINE      CODE     ---       #339
      01000285H   LINE      CODE     ---       #340
      01000286H   LINE      CODE     ---       #341
      01000287H   LINE      CODE     ---       #342
      0100028AH   LINE      CODE     ---       #343
      0100028BH   LINE      CODE     ---       #344
      0100028EH   LINE      CODE     ---       #349
      01000291H   LINE      CODE     ---       #350
      01000294H   LINE      CODE     ---       #353
      01000296H   LINE      CODE     ---       #359
      01000298H   LINE      CODE     ---       #360
      0100029AH   LINE      CODE     ---       #361
      0100029CH   LINE      CODE     ---       #362
      0100029EH   LINE      CODE     ---       #364
      010002A0H   LINE      CODE     ---       #365
      010002A2H   LINE      CODE     ---       #366
      010002A4H   LINE      CODE     ---       #372
      010002A6H   LINE      CODE     ---       #373
      010002A7H   LINE      CODE     ---       #374
      010002A9H   LINE      CODE     ---       #375
      010002ABH   LINE      CODE     ---       #376
      010002ACH   LINE      CODE     ---       #378
      010002AEH   LINE      CODE     ---       #384
      010002AFH   LINE      CODE     ---       #385
      010002B1H   LINE      CODE     ---       #386
      010002B3H   LINE      CODE     ---       #392
      010002B6H   LINE      CODE     ---       #395
      010002B8H   LINE      CODE     ---       #396
      010002BAH   LINE      CODE     ---       #397
      010002BDH   LINE      CODE     ---       #400
      010002BFH   LINE      CODE     ---       #401
      010002C1H   LINE      CODE     ---       #402
      010002C3H   LINE      CODE     ---       #403
      010002C5H   LINE      CODE     ---       #405
      010002C6H   LINE      CODE     ---       #406
      010002C8H   LINE      CODE     ---       #407
      010002CAH   LINE      CODE     ---       #408
      010002CCH   LINE      CODE     ---       #409
      010002CEH   LINE      CODE     ---       #414
      010002D0H   LINE      CODE     ---       #415
      010002D2H   LINE      CODE     ---       #416
      010002D3H   LINE      CODE     ---       #417
      010002D4H   LINE      CODE     ---       #418
      010002D6H   LINE      CODE     ---       #419
      010002D7H   LINE      CODE     ---       #420
      010002DAH   LINE      CODE     ---       #421
      010002DCH   LINE      CODE     ---       #435
      010002DEH   LINE      CODE     ---       #444
      010002E0H   LINE      CODE     ---       #445
LX51 LINKER/LOCATER V4.34a                                                            02/24/2009  16:29:19  PAGE 20


      010002E2H   LINE      CODE     ---       #446
      010002E3H   LINE      CODE     ---       #447
      010002E4H   LINE      CODE     ---       #448
      010002E6H   LINE      CODE     ---       #449
      010002E9H   LINE      CODE     ---       #453
      010002EAH   LINE      CODE     ---       #454
      010002ECH   LINE      CODE     ---       #455
      010002EEH   LINE      CODE     ---       #461
      010002F0H   LINE      CODE     ---       #462
      010002F2H   LINE      CODE     ---       #463
      010002F3H   LINE      CODE     ---       #464
      010002F4H   LINE      CODE     ---       #465
      010002F6H   LINE      CODE     ---       #466
      010002F7H   LINE      CODE     ---       #467
      010002F9H   LINE      CODE     ---       #468
      010002FAH   LINE      CODE     ---       #469
      010002FCH   LINE      CODE     ---       #470
      010002FDH   LINE      CODE     ---       #471
      01000300H   LINE      CODE     ---       #472
      01000302H   LINE      CODE     ---       #473
      01000304H   LINE      CODE     ---       #474
      01000306H   LINE      CODE     ---       #475
      01000308H   LINE      CODE     ---       #476
      0100030AH   LINE      CODE     ---       #477
      0100030CH   LINE      CODE     ---       #478
      0100030DH   LINE      CODE     ---       #479
      0100030EH   LINE      CODE     ---       #482
      01000310H   LINE      CODE     ---       #483
      01000312H   LINE      CODE     ---       #484
      01000314H   LINE      CODE     ---       #485
      01000316H   LINE      CODE     ---       #487
      01000317H   LINE      CODE     ---       #488
      01000319H   LINE      CODE     ---       #489
      0100031BH   LINE      CODE     ---       #490
      0100031DH   LINE      CODE     ---       #496
      0100031FH   LINE      CODE     ---       #497
      01000320H   LINE      CODE     ---       #498
      01000322H   LINE      CODE     ---       #499
      01000324H   LINE      CODE     ---       #500
      01000325H   LINE      CODE     ---       #501
      01000327H   LINE      CODE     ---       #506
      01000329H   LINE      CODE     ---       #507
      0100032BH   LINE      CODE     ---       #508
      0100032CH   LINE      CODE     ---       #509
      0100032DH   LINE      CODE     ---       #510
      0100032FH   LINE      CODE     ---       #511
      01000330H   LINE      CODE     ---       #512
      01000333H   LINE      CODE     ---       #513
      01000335H   LINE      CODE     ---       #517
      01000337H   LINE      CODE     ---       #518
      01000339H   LINE      CODE     ---       #519
      0100033BH   LINE      CODE     ---       #520
      0100033DH   LINE      CODE     ---       #540
      0100033FH   LINE      CODE     ---       #541
      01000341H   LINE      CODE     ---       #542
      ---         BLOCKEND  ---      ---       LVL=0

      ---         MODULE    ---      ---       ADC
      010007D2H   PUBLIC    CODE     NEAR LAB  _ADC_INIT
      010007A4H   PUBLIC    CODE     NEAR LAB  _ADC_READ
      000000D0H.6 SFRSYM    DATA     BIT       AC
      000000E0H   SFRSYM    DATA     BYTE      ACC
      000000A1H   SFRSYM    DATA     BYTE      ADCCON
      000000A2H   SFRSYM    DATA     BYTE      ADCDATAH
      000000A3H   SFRSYM    DATA     BYTE      ADCDATAL
LX51 LINKER/LOCATER V4.34a                                                            02/24/2009  16:29:19  PAGE 21


      000000A4H   SFRSYM    DATA     BYTE      ADCSTATIC
      000000F0H   SFRSYM    DATA     BYTE      B
      000000C8H.1 SFRSYM    DATA     BIT       C_T2
      000000A0H.6 SFRSYM    DATA     BIT       CE
      000000B6H   SFRSYM    DATA     BYTE      CK_CTRL
      0000008EH   SFRSYM    DATA     BYTE      CKCON
      000000A0H.1 SFRSYM    DATA     BIT       CLK1
      000000A0H.5 SFRSYM    DATA     BIT       CLK2
      000000C8H   SFRSYM    DATA     BIT       CP_RL2
      000000C8H   SFRSYM    DATA     BIT       CPRL2
      000000A0H.3 SFRSYM    DATA     BIT       CS
      000000C8H.1 SFRSYM    DATA     BIT       CT2
      000000D0H.7 SFRSYM    DATA     BIT       CY
      000000A0H   SFRSYM    DATA     BIT       DATA?
      000000BEH   SFRSYM    DATA     BYTE      DEV_OFFSET
      00000090H.2 SFRSYM    DATA     BIT       DIN0
      00000090H   SFRSYM    DATA     BIT       DIO0
      00000090H.1 SFRSYM    DATA     BIT       DIO1
      00000080H   SFRSYM    DATA     BIT       DIO2
      00000080H.1 SFRSYM    DATA     BIT       DIO3
      00000080H.2 SFRSYM    DATA     BIT       DIO4
      00000080H.3 SFRSYM    DATA     BIT       DIO5
      00000080H.4 SFRSYM    DATA     BIT       DIO6
      00000080H.5 SFRSYM    DATA     BIT       DIO7
      00000080H.6 SFRSYM    DATA     BIT       DIO8
      00000080H.7 SFRSYM    DATA     BIT       DIO9
      000000A0H.4 SFRSYM    DATA     BIT       DOUT2
      00000083H   SFRSYM    DATA     BYTE      DPH
      00000083H   SFRSYM    DATA     BYTE      DPH0
      00000085H   SFRSYM    DATA     BYTE      DPH1
      00000082H   SFRSYM    DATA     BYTE      DPL
      00000082H   SFRSYM    DATA     BYTE      DPL0
      00000084H   SFRSYM    DATA     BYTE      DPL1
      00000086H   SFRSYM    DATA     BYTE      DPS
      000000A0H.2 SFRSYM    DATA     BIT       DR1
      000000A0H.6 SFRSYM    DATA     BIT       DR2
      000000A0H.6 SFRSYM    DATA     BIT       DR2_CE
      000000A8H.7 SFRSYM    DATA     BIT       EA
      000000D8H   SFRSYM    DATA     BYTE      EICON
      000000E8H   SFRSYM    DATA     BYTE      EIE
      000000F8H   SFRSYM    DATA     BYTE      EIP
      000000A8H.4 SFRSYM    DATA     BIT       ES
      000000A8H.1 SFRSYM    DATA     BIT       ET0
      000000A8H.3 SFRSYM    DATA     BIT       ET1
      000000A8H.5 SFRSYM    DATA     BIT       ET2
      000000E8H.4 SFRSYM    DATA     BIT       EWDI
      000000A8H   SFRSYM    DATA     BIT       EX0
      000000A8H.2 SFRSYM    DATA     BIT       EX1
      000000E8H   SFRSYM    DATA     BIT       EX2
      000000E8H.1 SFRSYM    DATA     BIT       EX3
      000000E8H.2 SFRSYM    DATA     BIT       EX4
      000000E8H.3 SFRSYM    DATA     BIT       EX5
      000000C8H.3 SFRSYM    DATA     BIT       EXEN2
      000000C8H.6 SFRSYM    DATA     BIT       EXF2
      00000091H   SFRSYM    DATA     BYTE      EXIF
      000000D0H.5 SFRSYM    DATA     BIT       F0
      000000D0H.1 SFRSYM    DATA     BIT       F1
      000000A8H   SFRSYM    DATA     BYTE      IE
      00000088H.1 SFRSYM    DATA     BIT       IE0
      00000088H.3 SFRSYM    DATA     BIT       IE1
      00000080H.3 SFRSYM    DATA     BIT       INT0_N
      00000080H.4 SFRSYM    DATA     BIT       INT1_N
      000000B8H   SFRSYM    DATA     BYTE      IP
      00000088H   SFRSYM    DATA     BIT       IT0
      00000088H.2 SFRSYM    DATA     BIT       IT1
LX51 LINKER/LOCATER V4.34a                                                            02/24/2009  16:29:19  PAGE 22


      00000092H   SFRSYM    DATA     BYTE      MPAGE
      000000D0H.2 SFRSYM    DATA     BIT       OV
      000000D0H   SFRSYM    DATA     BIT       P
      00000080H   SFRSYM    DATA     BYTE      P0
      00000080H   SFRSYM    DATA     BIT       P0_0
      00000080H.1 SFRSYM    DATA     BIT       P0_1
      00000080H.2 SFRSYM    DATA     BIT       P0_2
      00000080H.3 SFRSYM    DATA     BIT       P0_3
      00000080H.4 SFRSYM    DATA     BIT       P0_4
      00000080H.5 SFRSYM    DATA     BIT       P0_5
      00000080H.6 SFRSYM    DATA     BIT       P0_6
      00000080H.7 SFRSYM    DATA     BIT       P0_7
      00000095H   SFRSYM    DATA     BYTE      P0_ALT
      00000094H   SFRSYM    DATA     BYTE      P0_DIR
      00000090H   SFRSYM    DATA     BYTE      P1
      00000090H   SFRSYM    DATA     BIT       P1_0
      00000090H.1 SFRSYM    DATA     BIT       P1_1
      00000090H.2 SFRSYM    DATA     BIT       P1_2
      00000097H   SFRSYM    DATA     BYTE      P1_ALT
      00000096H   SFRSYM    DATA     BYTE      P1_DIR
      00000087H   SFRSYM    DATA     BYTE      PCON
      000000B8H.4 SFRSYM    DATA     BIT       PS
      000000D0H   SFRSYM    DATA     BYTE      PSW
      000000B8H.1 SFRSYM    DATA     BIT       PT0
      000000B8H.3 SFRSYM    DATA     BIT       PT1
      000000B8H.5 SFRSYM    DATA     BIT       PT2
      000000F8H.4 SFRSYM    DATA     BIT       PWDI
      00000080H.7 SFRSYM    DATA     BIT       PWM
      000000A9H   SFRSYM    DATA     BYTE      PWMCON
      000000AAH   SFRSYM    DATA     BYTE      PWMDUTY
      000000A0H.7 SFRSYM    DATA     BIT       PWR_UP
      000000B8H   SFRSYM    DATA     BIT       PX0
      000000B8H.2 SFRSYM    DATA     BIT       PX1
      000000F8H   SFRSYM    DATA     BIT       PX2
      000000F8H.1 SFRSYM    DATA     BIT       PX3
      000000F8H.2 SFRSYM    DATA     BIT       PX4
      000000F8H.3 SFRSYM    DATA     BIT       PX5
      000000A0H   SFRSYM    DATA     BYTE      RADIO
      00000098H.2 SFRSYM    DATA     BIT       RB8
      000000CBH   SFRSYM    DATA     BYTE      RCAP2H
      000000CAH   SFRSYM    DATA     BYTE      RCAP2L
      000000C8H.5 SFRSYM    DATA     BIT       RCLK
      000000ADH   SFRSYM    DATA     BYTE      REGX_CTRL
      000000ACH   SFRSYM    DATA     BYTE      REGX_LSB
      000000ABH   SFRSYM    DATA     BYTE      REGX_MSB
      00000098H.4 SFRSYM    DATA     BIT       REN
      00000098H   SFRSYM    DATA     BIT       RI
      000000D0H.3 SFRSYM    DATA     BIT       RS0
      000000D0H.4 SFRSYM    DATA     BIT       RS1
      000000B1H   SFRSYM    DATA     BYTE      RSTREAS
      00000080H.1 SFRSYM    DATA     BIT       RXD
      00000099H   SFRSYM    DATA     BYTE      SBUF
      00000098H   SFRSYM    DATA     BYTE      SCON
      00000098H.7 SFRSYM    DATA     BIT       SM0
      00000098H.6 SFRSYM    DATA     BIT       SM1
      00000098H.5 SFRSYM    DATA     BIT       SM2
      00000081H   SFRSYM    DATA     BYTE      SP
      0000008FH   SFRSYM    DATA     BYTE      SPC_FNC
      000000B3H   SFRSYM    DATA     BYTE      SPI_CTRL
      000000B2H   SFRSYM    DATA     BYTE      SPI_DATA
      000000B4H   SFRSYM    DATA     BYTE      SPICLK
      00000080H.5 SFRSYM    DATA     BIT       T0
      00000080H.6 SFRSYM    DATA     BIT       T1
      000000BCH   SFRSYM    DATA     BYTE      T1_1V2
      00000090H   SFRSYM    DATA     BIT       T2
LX51 LINKER/LOCATER V4.34a                                                            02/24/2009  16:29:19  PAGE 23


      000000BDH   SFRSYM    DATA     BYTE      T2_1V2
      000000C8H   SFRSYM    DATA     BYTE      T2CON
      00000098H.3 SFRSYM    DATA     BIT       TB8
      000000C8H.4 SFRSYM    DATA     BIT       TCLK
      00000088H   SFRSYM    DATA     BYTE      TCON
      000000B7H   SFRSYM    DATA     BYTE      TEST_MODE
      00000088H.5 SFRSYM    DATA     BIT       TF0
      00000088H.7 SFRSYM    DATA     BIT       TF1
      000000C8H.7 SFRSYM    DATA     BIT       TF2
      0000008CH   SFRSYM    DATA     BYTE      TH0
      0000008DH   SFRSYM    DATA     BYTE      TH1
      000000CDH   SFRSYM    DATA     BYTE      TH2
      00000098H.1 SFRSYM    DATA     BIT       TI
      000000B5H   SFRSYM    DATA     BYTE      TICK_DV
      0000008AH   SFRSYM    DATA     BYTE      TL0
      0000008BH   SFRSYM    DATA     BYTE      TL1
      000000CCH   SFRSYM    DATA     BYTE      TL2
      00000089H   SFRSYM    DATA     BYTE      TMOD
      00000088H.4 SFRSYM    DATA     BIT       TR0
      00000088H.6 SFRSYM    DATA     BIT       TR1
      000000C8H.2 SFRSYM    DATA     BIT       TR2
      00000080H.2 SFRSYM    DATA     BIT       TXD
      000000D8H.3 SFRSYM    DATA     BIT       WDTI
      0100004BH   SYMBOL    CODE     NEAR LAB  ?C0002
      0100001BH   SYMBOL    CODE     NEAR LAB  ?C0004
      01000023H   SYMBOL    CODE     NEAR LAB  ?C0005
      01000037H   SYMBOL    CODE     NEAR LAB  ?C0006
      0100004FH   SYMBOL    CODE     NEAR LAB  ?C0007
      010007B3H   SYMBOL    CODE     NEAR LAB  ?C0011
      010007B8H   SYMBOL    CODE     NEAR LAB  ?C0012
      010007BEH   SYMBOL    CODE     NEAR LAB  ?C0013
      01000003H   SYMBOL    CODE     NEAR LAB  P_ADC_READ

      010007D2H   BLOCK     CODE     NEAR LAB  LVL=0
      010007D2H   LINE      CODE     ---       #206
      010007D5H   LINE      CODE     ---       #209
      010007D6H   LINE      CODE     ---       #210
      010007D8H   LINE      CODE     ---       #213
      010007DBH   LINE      CODE     ---       #216
      010007DCH   LINE      CODE     ---       #217
      010007DEH   LINE      CODE     ---       #220
      010007E1H   LINE      CODE     ---       #223
      010007E2H   LINE      CODE     ---       #224
      010007E4H   LINE      CODE     ---       #227
      ---         BLOCKEND  ---      ---       LVL=0

      01000003H   BLOCK     CODE     NEAR LAB  LVL=0
      01000003H   LINE      CODE     ---       #241
      01000005H   LINE      CODE     ---       #242
      01000007H   LINE      CODE     ---       #243
      01000008H   LINE      CODE     ---       #248
      01000009H   LINE      CODE     ---       #249
      0100000AH   LINE      CODE     ---       #250
      0100000BH   LINE      CODE     ---       #253
      0100000DH   LINE      CODE     ---       #254
      0100000EH   LINE      CODE     ---       #255
      0100000FH   LINE      CODE     ---       #256
      01000011H   LINE      CODE     ---       #257
      01000012H   LINE      CODE     ---       #258
      01000014H   LINE      CODE     ---       #259
      01000015H   LINE      CODE     ---       #260
      01000017H   LINE      CODE     ---       #261
      01000019H   LINE      CODE     ---       #262
      0100001BH   LINE      CODE     ---       #271
      0100001DH   LINE      CODE     ---       #272
LX51 LINKER/LOCATER V4.34a                                                            02/24/2009  16:29:19  PAGE 24


      0100001FH   LINE      CODE     ---       #273
      01000021H   LINE      CODE     ---       #276
      01000023H   LINE      CODE     ---       #283
      01000025H   LINE      CODE     ---       #284
      01000026H   LINE      CODE     ---       #285
      01000029H   LINE      CODE     ---       #286
      0100002AH   LINE      CODE     ---       #287
      0100002BH   LINE      CODE     ---       #288
      0100002DH   LINE      CODE     ---       #291
      0100002FH   LINE      CODE     ---       #292
      01000030H   LINE      CODE     ---       #293
      01000031H   LINE      CODE     ---       #294
      01000032H   LINE      CODE     ---       #295
      01000034H   LINE      CODE     ---       #296
      01000035H   LINE      CODE     ---       #297
      01000036H   LINE      CODE     ---       #298
      01000037H   LINE      CODE     ---       #305
      01000039H   LINE      CODE     ---       #306
      0100003AH   LINE      CODE     ---       #307
      0100003DH   LINE      CODE     ---       #308
      0100003EH   LINE      CODE     ---       #309
      0100003FH   LINE      CODE     ---       #310
      01000041H   LINE      CODE     ---       #313
      01000043H   LINE      CODE     ---       #314
      01000044H   LINE      CODE     ---       #315
      01000046H   LINE      CODE     ---       #316
      01000047H   LINE      CODE     ---       #317
      01000048H   LINE      CODE     ---       #318
      01000049H   LINE      CODE     ---       #319
      0100004AH   LINE      CODE     ---       #320
      0100004BH   LINE      CODE     ---       #326
      0100004DH   LINE      CODE     ---       #327
      0100004FH   LINE      CODE     ---       #331
      ---         BLOCKEND  ---      ---       LVL=0

      010007A4H   BLOCK     CODE     NEAR LAB  LVL=0
      010007A4H   LINE      CODE     ---       #347
      010007A5H   LINE      CODE     ---       #348
      010007A6H   LINE      CODE     ---       #349
      010007A7H   LINE      CODE     ---       #353
      010007AAH   LINE      CODE     ---       #356
      010007ABH   LINE      CODE     ---       #357
      010007ADH   LINE      CODE     ---       #360
      010007B0H   LINE      CODE     ---       #361
      010007B3H   LINE      CODE     ---       #366
      010007B5H   LINE      CODE     ---       #367
      010007B8H   LINE      CODE     ---       #373
      010007BBH   LINE      CODE     ---       #377
      010007BEH   LINE      CODE     ---       #383
      ---         BLOCKEND  ---      ---       LVL=0

      ---         MODULE    ---      ---       UTILS
      00000055H   PUBLIC    DATA     BYTE      ?_STRNCPY?BYTE
      01000551H   PUBLIC    CODE     NEAR LAB  _MDELAY
      01000814H   PUBLIC    CODE     NEAR LAB  _STORE_CPU_RATE
      0100059AH   PUBLIC    CODE     NEAR LAB  _STRNCPY
      010007E5H   PUBLIC    CODE     NEAR LAB  _WDT_LOAD
      0000006CH   PUBLIC    DATA     BYTE      MHZ
      000000D0H.6 SFRSYM    DATA     BIT       AC
      000000E0H   SFRSYM    DATA     BYTE      ACC
      000000A1H   SFRSYM    DATA     BYTE      ADCCON
      000000A2H   SFRSYM    DATA     BYTE      ADCDATAH
      000000A3H   SFRSYM    DATA     BYTE      ADCDATAL
      000000A4H   SFRSYM    DATA     BYTE      ADCSTATIC
      000000F0H   SFRSYM    DATA     BYTE      B
LX51 LINKER/LOCATER V4.34a                                                            02/24/2009  16:29:19  PAGE 25


      000000C8H.1 SFRSYM    DATA     BIT       C_T2
      000000A0H.6 SFRSYM    DATA     BIT       CE
      000000B6H   SFRSYM    DATA     BYTE      CK_CTRL
      0000008EH   SFRSYM    DATA     BYTE      CKCON
      000000A0H.1 SFRSYM    DATA     BIT       CLK1
      000000A0H.5 SFRSYM    DATA     BIT       CLK2
      000000C8H   SFRSYM    DATA     BIT       CP_RL2
      000000C8H   SFRSYM    DATA     BIT       CPRL2
      000000A0H.3 SFRSYM    DATA     BIT       CS
      000000C8H.1 SFRSYM    DATA     BIT       CT2
      000000D0H.7 SFRSYM    DATA     BIT       CY
      000000A0H   SFRSYM    DATA     BIT       DATA?
      000000BEH   SFRSYM    DATA     BYTE      DEV_OFFSET
      00000090H.2 SFRSYM    DATA     BIT       DIN0
      00000090H   SFRSYM    DATA     BIT       DIO0
      00000090H.1 SFRSYM    DATA     BIT       DIO1
      00000080H   SFRSYM    DATA     BIT       DIO2
      00000080H.1 SFRSYM    DATA     BIT       DIO3
      00000080H.2 SFRSYM    DATA     BIT       DIO4
      00000080H.3 SFRSYM    DATA     BIT       DIO5
      00000080H.4 SFRSYM    DATA     BIT       DIO6
      00000080H.5 SFRSYM    DATA     BIT       DIO7
      00000080H.6 SFRSYM    DATA     BIT       DIO8
      00000080H.7 SFRSYM    DATA     BIT       DIO9
      000000A0H.4 SFRSYM    DATA     BIT       DOUT2
      00000083H   SFRSYM    DATA     BYTE      DPH
      00000083H   SFRSYM    DATA     BYTE      DPH0
      00000085H   SFRSYM    DATA     BYTE      DPH1
      00000082H   SFRSYM    DATA     BYTE      DPL
      00000082H   SFRSYM    DATA     BYTE      DPL0
      00000084H   SFRSYM    DATA     BYTE      DPL1
      00000086H   SFRSYM    DATA     BYTE      DPS
      000000A0H.2 SFRSYM    DATA     BIT       DR1
      000000A0H.6 SFRSYM    DATA     BIT       DR2
      000000A0H.6 SFRSYM    DATA     BIT       DR2_CE
      000000A8H.7 SFRSYM    DATA     BIT       EA
      000000D8H   SFRSYM    DATA     BYTE      EICON
      000000E8H   SFRSYM    DATA     BYTE      EIE
      000000F8H   SFRSYM    DATA     BYTE      EIP
      000000A8H.4 SFRSYM    DATA     BIT       ES
      000000A8H.1 SFRSYM    DATA     BIT       ET0
      000000A8H.3 SFRSYM    DATA     BIT       ET1
      000000A8H.5 SFRSYM    DATA     BIT       ET2
      000000E8H.4 SFRSYM    DATA     BIT       EWDI
      000000A8H   SFRSYM    DATA     BIT       EX0
      000000A8H.2 SFRSYM    DATA     BIT       EX1
      000000E8H   SFRSYM    DATA     BIT       EX2
      000000E8H.1 SFRSYM    DATA     BIT       EX3
      000000E8H.2 SFRSYM    DATA     BIT       EX4
      000000E8H.3 SFRSYM    DATA     BIT       EX5
      000000C8H.3 SFRSYM    DATA     BIT       EXEN2
      000000C8H.6 SFRSYM    DATA     BIT       EXF2
      00000091H   SFRSYM    DATA     BYTE      EXIF
      000000D0H.5 SFRSYM    DATA     BIT       F0
      000000D0H.1 SFRSYM    DATA     BIT       F1
      000000A8H   SFRSYM    DATA     BYTE      IE
      00000088H.1 SFRSYM    DATA     BIT       IE0
      00000088H.3 SFRSYM    DATA     BIT       IE1
      00000080H.3 SFRSYM    DATA     BIT       INT0_N
      00000080H.4 SFRSYM    DATA     BIT       INT1_N
      000000B8H   SFRSYM    DATA     BYTE      IP
      00000088H   SFRSYM    DATA     BIT       IT0
      00000088H.2 SFRSYM    DATA     BIT       IT1
      00000092H   SFRSYM    DATA     BYTE      MPAGE
      000000D0H.2 SFRSYM    DATA     BIT       OV
LX51 LINKER/LOCATER V4.34a                                                            02/24/2009  16:29:19  PAGE 26


      000000D0H   SFRSYM    DATA     BIT       P
      00000080H   SFRSYM    DATA     BYTE      P0
      00000080H   SFRSYM    DATA     BIT       P0_0
      00000080H.1 SFRSYM    DATA     BIT       P0_1
      00000080H.2 SFRSYM    DATA     BIT       P0_2
      00000080H.3 SFRSYM    DATA     BIT       P0_3
      00000080H.4 SFRSYM    DATA     BIT       P0_4
      00000080H.5 SFRSYM    DATA     BIT       P0_5
      00000080H.6 SFRSYM    DATA     BIT       P0_6
      00000080H.7 SFRSYM    DATA     BIT       P0_7
      00000095H   SFRSYM    DATA     BYTE      P0_ALT
      00000094H   SFRSYM    DATA     BYTE      P0_DIR
      00000090H   SFRSYM    DATA     BYTE      P1
      00000090H   SFRSYM    DATA     BIT       P1_0
      00000090H.1 SFRSYM    DATA     BIT       P1_1
      00000090H.2 SFRSYM    DATA     BIT       P1_2
      00000097H   SFRSYM    DATA     BYTE      P1_ALT
      00000096H   SFRSYM    DATA     BYTE      P1_DIR
      00000087H   SFRSYM    DATA     BYTE      PCON
      000000B8H.4 SFRSYM    DATA     BIT       PS
      000000D0H   SFRSYM    DATA     BYTE      PSW
      000000B8H.1 SFRSYM    DATA     BIT       PT0
      000000B8H.3 SFRSYM    DATA     BIT       PT1
      000000B8H.5 SFRSYM    DATA     BIT       PT2
      000000F8H.4 SFRSYM    DATA     BIT       PWDI
      00000080H.7 SFRSYM    DATA     BIT       PWM
      000000A9H   SFRSYM    DATA     BYTE      PWMCON
      000000AAH   SFRSYM    DATA     BYTE      PWMDUTY
      000000A0H.7 SFRSYM    DATA     BIT       PWR_UP
      000000B8H   SFRSYM    DATA     BIT       PX0
      000000B8H.2 SFRSYM    DATA     BIT       PX1
      000000F8H   SFRSYM    DATA     BIT       PX2
      000000F8H.1 SFRSYM    DATA     BIT       PX3
      000000F8H.2 SFRSYM    DATA     BIT       PX4
      000000F8H.3 SFRSYM    DATA     BIT       PX5
      000000A0H   SFRSYM    DATA     BYTE      RADIO
      00000098H.2 SFRSYM    DATA     BIT       RB8
      000000CBH   SFRSYM    DATA     BYTE      RCAP2H
      000000CAH   SFRSYM    DATA     BYTE      RCAP2L
      000000C8H.5 SFRSYM    DATA     BIT       RCLK
      000000ADH   SFRSYM    DATA     BYTE      REGX_CTRL
      000000ACH   SFRSYM    DATA     BYTE      REGX_LSB
      000000ABH   SFRSYM    DATA     BYTE      REGX_MSB
      00000098H.4 SFRSYM    DATA     BIT       REN
      00000098H   SFRSYM    DATA     BIT       RI
      000000D0H.3 SFRSYM    DATA     BIT       RS0
      000000D0H.4 SFRSYM    DATA     BIT       RS1
      000000B1H   SFRSYM    DATA     BYTE      RSTREAS
      00000080H.1 SFRSYM    DATA     BIT       RXD
      00000099H   SFRSYM    DATA     BYTE      SBUF
      00000098H   SFRSYM    DATA     BYTE      SCON
      00000098H.7 SFRSYM    DATA     BIT       SM0
      00000098H.6 SFRSYM    DATA     BIT       SM1
      00000098H.5 SFRSYM    DATA     BIT       SM2
      00000081H   SFRSYM    DATA     BYTE      SP
      0000008FH   SFRSYM    DATA     BYTE      SPC_FNC
      000000B3H   SFRSYM    DATA     BYTE      SPI_CTRL
      000000B2H   SFRSYM    DATA     BYTE      SPI_DATA
      000000B4H   SFRSYM    DATA     BYTE      SPICLK
      00000080H.5 SFRSYM    DATA     BIT       T0
      00000080H.6 SFRSYM    DATA     BIT       T1
      000000BCH   SFRSYM    DATA     BYTE      T1_1V2
      00000090H   SFRSYM    DATA     BIT       T2
      000000BDH   SFRSYM    DATA     BYTE      T2_1V2
      000000C8H   SFRSYM    DATA     BYTE      T2CON
LX51 LINKER/LOCATER V4.34a                                                            02/24/2009  16:29:19  PAGE 27


      00000098H.3 SFRSYM    DATA     BIT       TB8
      000000C8H.4 SFRSYM    DATA     BIT       TCLK
      00000088H   SFRSYM    DATA     BYTE      TCON
      000000B7H   SFRSYM    DATA     BYTE      TEST_MODE
      00000088H.5 SFRSYM    DATA     BIT       TF0
      00000088H.7 SFRSYM    DATA     BIT       TF1
      000000C8H.7 SFRSYM    DATA     BIT       TF2
      0000008CH   SFRSYM    DATA     BYTE      TH0
      0000008DH   SFRSYM    DATA     BYTE      TH1
      000000CDH   SFRSYM    DATA     BYTE      TH2
      00000098H.1 SFRSYM    DATA     BIT       TI
      000000B5H   SFRSYM    DATA     BYTE      TICK_DV
      0000008AH   SFRSYM    DATA     BYTE      TL0
      0000008BH   SFRSYM    DATA     BYTE      TL1
      000000CCH   SFRSYM    DATA     BYTE      TL2
      00000089H   SFRSYM    DATA     BYTE      TMOD
      00000088H.4 SFRSYM    DATA     BIT       TR0
      00000088H.6 SFRSYM    DATA     BIT       TR1
      000000C8H.2 SFRSYM    DATA     BIT       TR2
      00000080H.2 SFRSYM    DATA     BIT       TXD
      000000D8H.3 SFRSYM    DATA     BIT       WDTI
      0000007BH   SYMBOL    DATA     BYTE      ?_MDELAY?BYTE
      01000572H   SYMBOL    CODE     NEAR LAB  ?C0002
      01000592H   SYMBOL    CODE     NEAR LAB  ?C0004
      0100057EH   SYMBOL    CODE     NEAR LAB  ?C0005
      01000599H   SYMBOL    CODE     NEAR LAB  ?C0008
      010007E9H   SYMBOL    CODE     NEAR LAB  ?C0009
      010007EEH   SYMBOL    CODE     NEAR LAB  ?C0010
      010005A3H   SYMBOL    CODE     NEAR LAB  ?C0012
      010005DDH   SYMBOL    CODE     NEAR LAB  ?C0015
      01000590H   SYMBOL    CODE     NEAR LAB  ?C0016
      01000597H   SYMBOL    CODE     NEAR LAB  ?C0017
      010005BEH   SYMBOL    CODE     NEAR LAB  ?C0018
      010005D0H   SYMBOL    CODE     NEAR LAB  ?C0019
      010005DBH   SYMBOL    CODE     NEAR LAB  ?C0020
      00000058H   SYMBOL    DATA     BYTE      DST?347
      0000007BH   SYMBOL    DATA     BYTE      MSEC?141
      0000005BH   SYMBOL    DATA     BYTE      N?348
      00000055H   SYMBOL    DATA     BYTE      SRC?346

      01000814H   BLOCK     CODE     NEAR LAB  LVL=0
      01000814H   LINE      CODE     ---       #231
      01000815H   LINE      CODE     ---       #232
      01000816H   LINE      CODE     ---       #233
      01000818H   LINE      CODE     ---       #234
      0100081AH   LINE      CODE     ---       #235
      0100081CH   LINE      CODE     ---       #236
      0100081EH   LINE      CODE     ---       #237
      01000820H   LINE      CODE     ---       #240
      ---         BLOCKEND  ---      ---       LVL=0

      01000551H   BLOCK     CODE     NEAR LAB  LVL=0
      01000551H   LINE      CODE     ---       #256
      01000553H   LINE      CODE     ---       #257
      01000555H   LINE      CODE     ---       #263
      01000556H   LINE      CODE     ---       #264
      01000558H   LINE      CODE     ---       #265
      01000559H   LINE      CODE     ---       #266
      0100055AH   LINE      CODE     ---       #267
      0100055BH   LINE      CODE     ---       #268
      0100055DH   LINE      CODE     ---       #269
      0100055FH   LINE      CODE     ---       #270
      01000561H   LINE      CODE     ---       #271
      01000563H   LINE      CODE     ---       #272
      01000566H   LINE      CODE     ---       #273
LX51 LINKER/LOCATER V4.34a                                                            02/24/2009  16:29:19  PAGE 28


      01000567H   LINE      CODE     ---       #274
      01000569H   LINE      CODE     ---       #275
      0100056AH   LINE      CODE     ---       #276
      0100056BH   LINE      CODE     ---       #277
      0100056CH   LINE      CODE     ---       #278
      0100056FH   LINE      CODE     ---       #283
      01000570H   LINE      CODE     ---       #284
      01000571H   LINE      CODE     ---       #285
      01000572H   LINE      CODE     ---       #287
      01000573H   LINE      CODE     ---       #288
      01000574H   LINE      CODE     ---       #289
      01000576H   LINE      CODE     ---       #290
      01000577H   LINE      CODE     ---       #291
      01000579H   LINE      CODE     ---       #292
      0100057BH   LINE      CODE     ---       #296
      0100057CH   LINE      CODE     ---       #297
      0100057DH   LINE      CODE     ---       #298
      0100057EH   LINE      CODE     ---       #300
      0100057FH   LINE      CODE     ---       #301
      01000580H   LINE      CODE     ---       #302
      01000581H   LINE      CODE     ---       #303
      01000582H   LINE      CODE     ---       #304
      01000584H   LINE      CODE     ---       #305
      01000585H   LINE      CODE     ---       #306
      01000586H   LINE      CODE     ---       #307
      01000588H   LINE      CODE     ---       #308
      01000589H   LINE      CODE     ---       #309
      0100058BH   LINE      CODE     ---       #310
      0100058CH   LINE      CODE     ---       #311
      0100058FH   LINE      CODE     ---       #312
      01000590H   LINE      CODE     ---       #314
      01000592H   LINE      CODE     ---       #316
      01000593H   LINE      CODE     ---       #317
      01000596H   LINE      CODE     ---       #318
      01000597H   LINE      CODE     ---       #320
      01000599H   LINE      CODE     ---       #325
      ---         BLOCKEND  ---      ---       LVL=0

      010007E5H   BLOCK     CODE     NEAR LAB  LVL=0
      010007E5H   LINE      CODE     ---       #341
      010007E7H   LINE      CODE     ---       #342
      010007E9H   LINE      CODE     ---       #348
      010007EBH   LINE      CODE     ---       #349
      010007EEH   LINE      CODE     ---       #354
      010007F0H   LINE      CODE     ---       #357
      010007F1H   LINE      CODE     ---       #358
      010007F3H   LINE      CODE     ---       #361
      010007F6H   LINE      CODE     ---       #364
      ---         BLOCKEND  ---      ---       LVL=0

      0100059AH   BLOCK     CODE     NEAR LAB  LVL=0
      0100059AH   LINE      CODE     ---       #380
      0100059CH   LINE      CODE     ---       #381
      0100059EH   LINE      CODE     ---       #382
      010005A0H   LINE      CODE     ---       #389
      010005A1H   LINE      CODE     ---       #390
      010005A2H   LINE      CODE     ---       #391
      010005A3H   LINE      CODE     ---       #393
      010005A4H   LINE      CODE     ---       #394
      010005A5H   LINE      CODE     ---       #395
      010005A7H   LINE      CODE     ---       #396
      010005A9H   LINE      CODE     ---       #397
      010005ABH   LINE      CODE     ---       #398
      010005ACH   LINE      CODE     ---       #399
      010005ADH   LINE      CODE     ---       #400
LX51 LINKER/LOCATER V4.34a                                                            02/24/2009  16:29:19  PAGE 29


      010005AFH   LINE      CODE     ---       #401
      010005B0H   LINE      CODE     ---       #402
      010005B2H   LINE      CODE     ---       #405
      010005B4H   LINE      CODE     ---       #406
      010005B6H   LINE      CODE     ---       #407
      010005B8H   LINE      CODE     ---       #408
      010005BAH   LINE      CODE     ---       #409
      010005BCH   LINE      CODE     ---       #410
      010005BEH   LINE      CODE     ---       #412
      010005BFH   LINE      CODE     ---       #413
      010005C0H   LINE      CODE     ---       #414
      010005C3H   LINE      CODE     ---       #415
      010005C4H   LINE      CODE     ---       #416
      010005C6H   LINE      CODE     ---       #417
      010005C8H   LINE      CODE     ---       #418
      010005CAH   LINE      CODE     ---       #419
      010005CCH   LINE      CODE     ---       #420
      010005CEH   LINE      CODE     ---       #421
      010005D0H   LINE      CODE     ---       #423
      010005D1H   LINE      CODE     ---       #424
      010005D2H   LINE      CODE     ---       #425
      010005D3H   LINE      CODE     ---       #426
      010005D6H   LINE      CODE     ---       #429
      010005D7H   LINE      CODE     ---       #430
      010005DAH   LINE      CODE     ---       #431
      010005DBH   LINE      CODE     ---       #433
      010005DDH   LINE      CODE     ---       #437
      ---         BLOCKEND  ---      ---       LVL=0

      ---         MODULE    ---      ---       SERIAL
      01000696H   PUBLIC    CODE     NEAR LAB  _?INT_PRINT
      01000050H   PUBLIC    CODE     NEAR LAB  _PUTC
      0100075CH   PUBLIC    CODE     NEAR LAB  _PUTS
      01000839H   PUBLIC    CODE     NEAR LAB  _SERIAL_INIT
      01000861H   PUBLIC    CODE     NEAR LAB  GETC
      000000D0H.6 SFRSYM    DATA     BIT       AC
      000000E0H   SFRSYM    DATA     BYTE      ACC
      000000A1H   SFRSYM    DATA     BYTE      ADCCON
      000000A2H   SFRSYM    DATA     BYTE      ADCDATAH
      000000A3H   SFRSYM    DATA     BYTE      ADCDATAL
      000000A4H   SFRSYM    DATA     BYTE      ADCSTATIC
      000000F0H   SFRSYM    DATA     BYTE      B
      000000C8H.1 SFRSYM    DATA     BIT       C_T2
      000000A0H.6 SFRSYM    DATA     BIT       CE
      000000B6H   SFRSYM    DATA     BYTE      CK_CTRL
      0000008EH   SFRSYM    DATA     BYTE      CKCON
      000000A0H.1 SFRSYM    DATA     BIT       CLK1
      000000A0H.5 SFRSYM    DATA     BIT       CLK2
      000000C8H   SFRSYM    DATA     BIT       CP_RL2
      000000C8H   SFRSYM    DATA     BIT       CPRL2
      000000A0H.3 SFRSYM    DATA     BIT       CS
      000000C8H.1 SFRSYM    DATA     BIT       CT2
      000000D0H.7 SFRSYM    DATA     BIT       CY
      000000A0H   SFRSYM    DATA     BIT       DATA?
      000000BEH   SFRSYM    DATA     BYTE      DEV_OFFSET
      00000090H.2 SFRSYM    DATA     BIT       DIN0
      00000090H   SFRSYM    DATA     BIT       DIO0
      00000090H.1 SFRSYM    DATA     BIT       DIO1
      00000080H   SFRSYM    DATA     BIT       DIO2
      00000080H.1 SFRSYM    DATA     BIT       DIO3
      00000080H.2 SFRSYM    DATA     BIT       DIO4
      00000080H.3 SFRSYM    DATA     BIT       DIO5
      00000080H.4 SFRSYM    DATA     BIT       DIO6
      00000080H.5 SFRSYM    DATA     BIT       DIO7
      00000080H.6 SFRSYM    DATA     BIT       DIO8
LX51 LINKER/LOCATER V4.34a                                                            02/24/2009  16:29:19  PAGE 30


      00000080H.7 SFRSYM    DATA     BIT       DIO9
      000000A0H.4 SFRSYM    DATA     BIT       DOUT2
      00000083H   SFRSYM    DATA     BYTE      DPH
      00000083H   SFRSYM    DATA     BYTE      DPH0
      00000085H   SFRSYM    DATA     BYTE      DPH1
      00000082H   SFRSYM    DATA     BYTE      DPL
      00000082H   SFRSYM    DATA     BYTE      DPL0
      00000084H   SFRSYM    DATA     BYTE      DPL1
      00000086H   SFRSYM    DATA     BYTE      DPS
      000000A0H.2 SFRSYM    DATA     BIT       DR1
      000000A0H.6 SFRSYM    DATA     BIT       DR2
      000000A0H.6 SFRSYM    DATA     BIT       DR2_CE
      000000A8H.7 SFRSYM    DATA     BIT       EA
      000000D8H   SFRSYM    DATA     BYTE      EICON
      000000E8H   SFRSYM    DATA     BYTE      EIE
      000000F8H   SFRSYM    DATA     BYTE      EIP
      000000A8H.4 SFRSYM    DATA     BIT       ES
      000000A8H.1 SFRSYM    DATA     BIT       ET0
      000000A8H.3 SFRSYM    DATA     BIT       ET1
      000000A8H.5 SFRSYM    DATA     BIT       ET2
      000000E8H.4 SFRSYM    DATA     BIT       EWDI
      000000A8H   SFRSYM    DATA     BIT       EX0
      000000A8H.2 SFRSYM    DATA     BIT       EX1
      000000E8H   SFRSYM    DATA     BIT       EX2
      000000E8H.1 SFRSYM    DATA     BIT       EX3
      000000E8H.2 SFRSYM    DATA     BIT       EX4
      000000E8H.3 SFRSYM    DATA     BIT       EX5
      000000C8H.3 SFRSYM    DATA     BIT       EXEN2
      000000C8H.6 SFRSYM    DATA     BIT       EXF2
      00000091H   SFRSYM    DATA     BYTE      EXIF
      000000D0H.5 SFRSYM    DATA     BIT       F0
      000000D0H.1 SFRSYM    DATA     BIT       F1
      000000A8H   SFRSYM    DATA     BYTE      IE
      00000088H.1 SFRSYM    DATA     BIT       IE0
      00000088H.3 SFRSYM    DATA     BIT       IE1
      00000080H.3 SFRSYM    DATA     BIT       INT0_N
      00000080H.4 SFRSYM    DATA     BIT       INT1_N
      000000B8H   SFRSYM    DATA     BYTE      IP
      00000088H   SFRSYM    DATA     BIT       IT0
      00000088H.2 SFRSYM    DATA     BIT       IT1
      00000092H   SFRSYM    DATA     BYTE      MPAGE
      000000D0H.2 SFRSYM    DATA     BIT       OV
      000000D0H   SFRSYM    DATA     BIT       P
      00000080H   SFRSYM    DATA     BYTE      P0
      00000080H   SFRSYM    DATA     BIT       P0_0
      00000080H.1 SFRSYM    DATA     BIT       P0_1
      00000080H.2 SFRSYM    DATA     BIT       P0_2
      00000080H.3 SFRSYM    DATA     BIT       P0_3
      00000080H.4 SFRSYM    DATA     BIT       P0_4
      00000080H.5 SFRSYM    DATA     BIT       P0_5
      00000080H.6 SFRSYM    DATA     BIT       P0_6
      00000080H.7 SFRSYM    DATA     BIT       P0_7
      00000095H   SFRSYM    DATA     BYTE      P0_ALT
      00000094H   SFRSYM    DATA     BYTE      P0_DIR
      00000090H   SFRSYM    DATA     BYTE      P1
      00000090H   SFRSYM    DATA     BIT       P1_0
      00000090H.1 SFRSYM    DATA     BIT       P1_1
      00000090H.2 SFRSYM    DATA     BIT       P1_2
      00000097H   SFRSYM    DATA     BYTE      P1_ALT
      00000096H   SFRSYM    DATA     BYTE      P1_DIR
      00000087H   SFRSYM    DATA     BYTE      PCON
      000000B8H.4 SFRSYM    DATA     BIT       PS
      000000D0H   SFRSYM    DATA     BYTE      PSW
      000000B8H.1 SFRSYM    DATA     BIT       PT0
      000000B8H.3 SFRSYM    DATA     BIT       PT1
LX51 LINKER/LOCATER V4.34a                                                            02/24/2009  16:29:19  PAGE 31


      000000B8H.5 SFRSYM    DATA     BIT       PT2
      000000F8H.4 SFRSYM    DATA     BIT       PWDI
      00000080H.7 SFRSYM    DATA     BIT       PWM
      000000A9H   SFRSYM    DATA     BYTE      PWMCON
      000000AAH   SFRSYM    DATA     BYTE      PWMDUTY
      000000A0H.7 SFRSYM    DATA     BIT       PWR_UP
      000000B8H   SFRSYM    DATA     BIT       PX0
      000000B8H.2 SFRSYM    DATA     BIT       PX1
      000000F8H   SFRSYM    DATA     BIT       PX2
      000000F8H.1 SFRSYM    DATA     BIT       PX3
      000000F8H.2 SFRSYM    DATA     BIT       PX4
      000000F8H.3 SFRSYM    DATA     BIT       PX5
      000000A0H   SFRSYM    DATA     BYTE      RADIO
      00000098H.2 SFRSYM    DATA     BIT       RB8
      000000CBH   SFRSYM    DATA     BYTE      RCAP2H
      000000CAH   SFRSYM    DATA     BYTE      RCAP2L
      000000C8H.5 SFRSYM    DATA     BIT       RCLK
      000000ADH   SFRSYM    DATA     BYTE      REGX_CTRL
      000000ACH   SFRSYM    DATA     BYTE      REGX_LSB
      000000ABH   SFRSYM    DATA     BYTE      REGX_MSB
      00000098H.4 SFRSYM    DATA     BIT       REN
      00000098H   SFRSYM    DATA     BIT       RI
      000000D0H.3 SFRSYM    DATA     BIT       RS0
      000000D0H.4 SFRSYM    DATA     BIT       RS1
      000000B1H   SFRSYM    DATA     BYTE      RSTREAS
      00000080H.1 SFRSYM    DATA     BIT       RXD
      00000099H   SFRSYM    DATA     BYTE      SBUF
      00000098H   SFRSYM    DATA     BYTE      SCON
      00000098H.7 SFRSYM    DATA     BIT       SM0
      00000098H.6 SFRSYM    DATA     BIT       SM1
      00000098H.5 SFRSYM    DATA     BIT       SM2
      00000081H   SFRSYM    DATA     BYTE      SP
      0000008FH   SFRSYM    DATA     BYTE      SPC_FNC
      000000B3H   SFRSYM    DATA     BYTE      SPI_CTRL
      000000B2H   SFRSYM    DATA     BYTE      SPI_DATA
      000000B4H   SFRSYM    DATA     BYTE      SPICLK
      00000080H.5 SFRSYM    DATA     BIT       T0
      00000080H.6 SFRSYM    DATA     BIT       T1
      000000BCH   SFRSYM    DATA     BYTE      T1_1V2
      00000090H   SFRSYM    DATA     BIT       T2
      000000BDH   SFRSYM    DATA     BYTE      T2_1V2
      000000C8H   SFRSYM    DATA     BYTE      T2CON
      00000098H.3 SFRSYM    DATA     BIT       TB8
      000000C8H.4 SFRSYM    DATA     BIT       TCLK
      00000088H   SFRSYM    DATA     BYTE      TCON
      000000B7H   SFRSYM    DATA     BYTE      TEST_MODE
      00000088H.5 SFRSYM    DATA     BIT       TF0
      00000088H.7 SFRSYM    DATA     BIT       TF1
      000000C8H.7 SFRSYM    DATA     BIT       TF2
      0000008CH   SFRSYM    DATA     BYTE      TH0
      0000008DH   SFRSYM    DATA     BYTE      TH1
      000000CDH   SFRSYM    DATA     BYTE      TH2
      00000098H.1 SFRSYM    DATA     BIT       TI
      000000B5H   SFRSYM    DATA     BYTE      TICK_DV
      0000008AH   SFRSYM    DATA     BYTE      TL0
      0000008BH   SFRSYM    DATA     BYTE      TL1
      000000CCH   SFRSYM    DATA     BYTE      TL2
      00000089H   SFRSYM    DATA     BYTE      TMOD
      00000088H.4 SFRSYM    DATA     BIT       TR0
      00000088H.6 SFRSYM    DATA     BIT       TR1
      000000C8H.2 SFRSYM    DATA     BIT       TR2
      00000080H.2 SFRSYM    DATA     BIT       TXD
      000000D8H.3 SFRSYM    DATA     BIT       WDTI
      00000070H   SYMBOL    DATA     BYTE      ?_PUTS?BYTE
      01000656H   SYMBOL    CODE     NEAR LAB  ?C0001
LX51 LINKER/LOCATER V4.34a                                                            02/24/2009  16:29:19  PAGE 32


      01000642H   SYMBOL    CODE     NEAR LAB  ?C0002
      0100064AH   SYMBOL    CODE     NEAR LAB  ?C0003
      01000652H   SYMBOL    CODE     NEAR LAB  ?C0004
      0100065AH   SYMBOL    CODE     NEAR LAB  ?C0005
      0100084EH   SYMBOL    CODE     NEAR LAB  ?C0007
      01000851H   SYMBOL    CODE     NEAR LAB  ?C0008
      01000854H   SYMBOL    CODE     NEAR LAB  ?C0010
      01000857H   SYMBOL    CODE     NEAR LAB  ?C0011
      0100085BH   SYMBOL    CODE     NEAR LAB  ?C0012
      01000762H   SYMBOL    CODE     NEAR LAB  ?C0014
      01000780H   SYMBOL    CODE     NEAR LAB  ?C0016
      01000864H   SYMBOL    CODE     NEAR LAB  ?C0017
      010006B6H   SYMBOL    CODE     NEAR LAB  ?C0018
      01000775H   SYMBOL    CODE     NEAR LAB  ?C0020
      0100084CH   SYMBOL    CODE     NEAR LAB  _SERIAL_WRITE
      0100061EH   SYMBOL    CODE     NEAR LAB  _SETUP_BAUDRATE
      00000070H   SYMBOL    DATA     BYTE      S?544
      01000854H   SYMBOL    CODE     NEAR LAB  SERIAL_READ

      0100061EH   BLOCK     CODE     NEAR LAB  LVL=0
      0100061EH   LINE      CODE     ---       #221
      01000621H   LINE      CODE     ---       #224
      01000623H   LINE      CODE     ---       #227
      01000625H   LINE      CODE     ---       #230
      01000627H   LINE      CODE     ---       #233
      0100062AH   LINE      CODE     ---       #237
      0100062DH   LINE      CODE     ---       #240
      01000630H   LINE      CODE     ---       #244
      01000631H   LINE      CODE     ---       #245
      01000633H   LINE      CODE     ---       #246
      01000642H   LINE      CODE     ---       #258
      01000645H   LINE      CODE     ---       #261
      01000648H   LINE      CODE     ---       #264
      0100064AH   LINE      CODE     ---       #270
      0100064DH   LINE      CODE     ---       #273
      01000650H   LINE      CODE     ---       #276
      01000652H   LINE      CODE     ---       #283
      01000653H   LINE      CODE     ---       #284
      01000654H   LINE      CODE     ---       #285
      01000655H   LINE      CODE     ---       #286
      01000656H   LINE      CODE     ---       #292
      01000658H   LINE      CODE     ---       #293
      0100065AH   LINE      CODE     ---       #297
      ---         BLOCKEND  ---      ---       LVL=0

      01000839H   BLOCK     CODE     NEAR LAB  LVL=0
      01000839H   LINE      CODE     ---       #319
      0100083CH   LINE      CODE     ---       #322
      0100083FH   LINE      CODE     ---       #325
      01000842H   LINE      CODE     ---       #328
      ---         BLOCKEND  ---      ---       LVL=0

      0100084CH   BLOCK     CODE     NEAR LAB  LVL=0
      0100084CH   LINE      CODE     ---       #345
      0100084EH   LINE      CODE     ---       #349
      01000851H   LINE      CODE     ---       #354
      01000853H   LINE      CODE     ---       #357
      ---         BLOCKEND  ---      ---       LVL=0

      01000854H   BLOCK     CODE     NEAR LAB  LVL=0
      01000854H   LINE      CODE     ---       #375
      01000857H   LINE      CODE     ---       #380
      01000859H   LINE      CODE     ---       #383
      0100085BH   LINE      CODE     ---       #387
      ---         BLOCKEND  ---      ---       LVL=0
LX51 LINKER/LOCATER V4.34a                                                            02/24/2009  16:29:19  PAGE 33



      01000050H   BLOCK     CODE     NEAR LAB  LVL=0
      01000050H   LINE      CODE     ---       #402
      ---         BLOCKEND  ---      ---       LVL=0

      0100075CH   BLOCK     CODE     NEAR LAB  LVL=0
      0100075CH   LINE      CODE     ---       #413
      0100075EH   LINE      CODE     ---       #414
      01000760H   LINE      CODE     ---       #415
      01000762H   LINE      CODE     ---       #421
      01000764H   LINE      CODE     ---       #422
      01000766H   LINE      CODE     ---       #423
      01000768H   LINE      CODE     ---       #424
      0100076BH   LINE      CODE     ---       #425
      0100076DH   LINE      CODE     ---       #428
      0100076FH   LINE      CODE     ---       #429
      01000771H   LINE      CODE     ---       #430
      01000773H   LINE      CODE     ---       #431
      01000775H   LINE      CODE     ---       #433
      01000776H   LINE      CODE     ---       #434
      01000777H   LINE      CODE     ---       #435
      0100077AH   LINE      CODE     ---       #436
      0100077BH   LINE      CODE     ---       #437
      0100077EH   LINE      CODE     ---       #438
      01000780H   LINE      CODE     ---       #442
      ---         BLOCKEND  ---      ---       LVL=0

      01000861H   BLOCK     CODE     NEAR LAB  LVL=0
      01000861H   LINE      CODE     ---       #456
      01000864H   LINE      CODE     ---       #460
      ---         BLOCKEND  ---      ---       LVL=0

      01000696H   BLOCK     CODE     NEAR LAB  LVL=0
      01000696H   LINE      CODE     ---       #474
      01000698H   LINE      CODE     ---       #475
      0100069AH   LINE      CODE     ---       #476
      0100069CH   LINE      CODE     ---       #477
      0100069EH   LINE      CODE     ---       #478
      0100069FH   LINE      CODE     ---       #479
      010006A1H   LINE      CODE     ---       #483
      010006A3H   LINE      CODE     ---       #484
      010006A4H   LINE      CODE     ---       #485
      010006A5H   LINE      CODE     ---       #486
      010006A6H   LINE      CODE     ---       #487
      010006A7H   LINE      CODE     ---       #488
      010006A8H   LINE      CODE     ---       #489
      010006AAH   LINE      CODE     ---       #490
      010006ACH   LINE      CODE     ---       #491
      010006AFH   LINE      CODE     ---       #492
      010006B0H   LINE      CODE     ---       #493
      010006B1H   LINE      CODE     ---       #494
      010006B3H   LINE      CODE     ---       #497
      010006B6H   LINE      CODE     ---       #501
      010006B8H   LINE      CODE     ---       #502
      010006B9H   LINE      CODE     ---       #503
      010006BAH   LINE      CODE     ---       #504
      010006BBH   LINE      CODE     ---       #505
      010006BCH   LINE      CODE     ---       #506
      010006BDH   LINE      CODE     ---       #507
      010006BFH   LINE      CODE     ---       #508
      010006C1H   LINE      CODE     ---       #509
      010006C4H   LINE      CODE     ---       #510
      010006C5H   LINE      CODE     ---       #511
      010006C7H   LINE      CODE     ---       #512
      010006C8H   LINE      CODE     ---       #513
LX51 LINKER/LOCATER V4.34a                                                            02/24/2009  16:29:19  PAGE 34


      010006CBH   LINE      CODE     ---       #516
      010006CDH   LINE      CODE     ---       #517
      010006CFH   LINE      CODE     ---       #518
      ---         BLOCKEND  ---      ---       LVL=0

      ---         MODULE    ---      ---       SPI
      0100085CH   PUBLIC    CODE     NEAR LAB  _SPI_INIT
      01000821H   PUBLIC    CODE     NEAR LAB  _SPI_WRITE_THEN_READ
      000000D0H.6 SFRSYM    DATA     BIT       AC
      000000E0H   SFRSYM    DATA     BYTE      ACC
      000000A1H   SFRSYM    DATA     BYTE      ADCCON
      000000A2H   SFRSYM    DATA     BYTE      ADCDATAH
      000000A3H   SFRSYM    DATA     BYTE      ADCDATAL
      000000A4H   SFRSYM    DATA     BYTE      ADCSTATIC
      000000F0H   SFRSYM    DATA     BYTE      B
      000000C8H.1 SFRSYM    DATA     BIT       C_T2
      000000A0H.6 SFRSYM    DATA     BIT       CE
      000000B6H   SFRSYM    DATA     BYTE      CK_CTRL
      0000008EH   SFRSYM    DATA     BYTE      CKCON
      000000A0H.1 SFRSYM    DATA     BIT       CLK1
      000000A0H.5 SFRSYM    DATA     BIT       CLK2
      000000C8H   SFRSYM    DATA     BIT       CP_RL2
      000000C8H   SFRSYM    DATA     BIT       CPRL2
      000000A0H.3 SFRSYM    DATA     BIT       CS
      000000C8H.1 SFRSYM    DATA     BIT       CT2
      000000D0H.7 SFRSYM    DATA     BIT       CY
      000000A0H   SFRSYM    DATA     BIT       DATA?
      000000BEH   SFRSYM    DATA     BYTE      DEV_OFFSET
      00000090H.2 SFRSYM    DATA     BIT       DIN0
      00000090H   SFRSYM    DATA     BIT       DIO0
      00000090H.1 SFRSYM    DATA     BIT       DIO1
      00000080H   SFRSYM    DATA     BIT       DIO2
      00000080H.1 SFRSYM    DATA     BIT       DIO3
      00000080H.2 SFRSYM    DATA     BIT       DIO4
      00000080H.3 SFRSYM    DATA     BIT       DIO5
      00000080H.4 SFRSYM    DATA     BIT       DIO6
      00000080H.5 SFRSYM    DATA     BIT       DIO7
      00000080H.6 SFRSYM    DATA     BIT       DIO8
      00000080H.7 SFRSYM    DATA     BIT       DIO9
      000000A0H.4 SFRSYM    DATA     BIT       DOUT2
      00000083H   SFRSYM    DATA     BYTE      DPH
      00000083H   SFRSYM    DATA     BYTE      DPH0
      00000085H   SFRSYM    DATA     BYTE      DPH1
      00000082H   SFRSYM    DATA     BYTE      DPL
      00000082H   SFRSYM    DATA     BYTE      DPL0
      00000084H   SFRSYM    DATA     BYTE      DPL1
      00000086H   SFRSYM    DATA     BYTE      DPS
      000000A0H.2 SFRSYM    DATA     BIT       DR1
      000000A0H.6 SFRSYM    DATA     BIT       DR2
      000000A0H.6 SFRSYM    DATA     BIT       DR2_CE
      000000A8H.7 SFRSYM    DATA     BIT       EA
      000000D8H   SFRSYM    DATA     BYTE      EICON
      000000E8H   SFRSYM    DATA     BYTE      EIE
      000000F8H   SFRSYM    DATA     BYTE      EIP
      000000A8H.4 SFRSYM    DATA     BIT       ES
      000000A8H.1 SFRSYM    DATA     BIT       ET0
      000000A8H.3 SFRSYM    DATA     BIT       ET1
      000000A8H.5 SFRSYM    DATA     BIT       ET2
      000000E8H.4 SFRSYM    DATA     BIT       EWDI
      000000A8H   SFRSYM    DATA     BIT       EX0
      000000A8H.2 SFRSYM    DATA     BIT       EX1
      000000E8H   SFRSYM    DATA     BIT       EX2
      000000E8H.1 SFRSYM    DATA     BIT       EX3
      000000E8H.2 SFRSYM    DATA     BIT       EX4
      000000E8H.3 SFRSYM    DATA     BIT       EX5
LX51 LINKER/LOCATER V4.34a                                                            02/24/2009  16:29:19  PAGE 35


      000000C8H.3 SFRSYM    DATA     BIT       EXEN2
      000000C8H.6 SFRSYM    DATA     BIT       EXF2
      00000091H   SFRSYM    DATA     BYTE      EXIF
      000000D0H.5 SFRSYM    DATA     BIT       F0
      000000D0H.1 SFRSYM    DATA     BIT       F1
      000000A8H   SFRSYM    DATA     BYTE      IE
      00000088H.1 SFRSYM    DATA     BIT       IE0
      00000088H.3 SFRSYM    DATA     BIT       IE1
      00000080H.3 SFRSYM    DATA     BIT       INT0_N
      00000080H.4 SFRSYM    DATA     BIT       INT1_N
      000000B8H   SFRSYM    DATA     BYTE      IP
      00000088H   SFRSYM    DATA     BIT       IT0
      00000088H.2 SFRSYM    DATA     BIT       IT1
      00000092H   SFRSYM    DATA     BYTE      MPAGE
      000000D0H.2 SFRSYM    DATA     BIT       OV
      000000D0H   SFRSYM    DATA     BIT       P
      00000080H   SFRSYM    DATA     BYTE      P0
      00000080H   SFRSYM    DATA     BIT       P0_0
      00000080H.1 SFRSYM    DATA     BIT       P0_1
      00000080H.2 SFRSYM    DATA     BIT       P0_2
      00000080H.3 SFRSYM    DATA     BIT       P0_3
      00000080H.4 SFRSYM    DATA     BIT       P0_4
      00000080H.5 SFRSYM    DATA     BIT       P0_5
      00000080H.6 SFRSYM    DATA     BIT       P0_6
      00000080H.7 SFRSYM    DATA     BIT       P0_7
      00000095H   SFRSYM    DATA     BYTE      P0_ALT
      00000094H   SFRSYM    DATA     BYTE      P0_DIR
      00000090H   SFRSYM    DATA     BYTE      P1
      00000090H   SFRSYM    DATA     BIT       P1_0
      00000090H.1 SFRSYM    DATA     BIT       P1_1
      00000090H.2 SFRSYM    DATA     BIT       P1_2
      00000097H   SFRSYM    DATA     BYTE      P1_ALT
      00000096H   SFRSYM    DATA     BYTE      P1_DIR
      00000087H   SFRSYM    DATA     BYTE      PCON
      000000B8H.4 SFRSYM    DATA     BIT       PS
      000000D0H   SFRSYM    DATA     BYTE      PSW
      000000B8H.1 SFRSYM    DATA     BIT       PT0
      000000B8H.3 SFRSYM    DATA     BIT       PT1
      000000B8H.5 SFRSYM    DATA     BIT       PT2
      000000F8H.4 SFRSYM    DATA     BIT       PWDI
      00000080H.7 SFRSYM    DATA     BIT       PWM
      000000A9H   SFRSYM    DATA     BYTE      PWMCON
      000000AAH   SFRSYM    DATA     BYTE      PWMDUTY
      000000A0H.7 SFRSYM    DATA     BIT       PWR_UP
      000000B8H   SFRSYM    DATA     BIT       PX0
      000000B8H.2 SFRSYM    DATA     BIT       PX1
      000000F8H   SFRSYM    DATA     BIT       PX2
      000000F8H.1 SFRSYM    DATA     BIT       PX3
      000000F8H.2 SFRSYM    DATA     BIT       PX4
      000000F8H.3 SFRSYM    DATA     BIT       PX5
      000000A0H   SFRSYM    DATA     BYTE      RADIO
      00000098H.2 SFRSYM    DATA     BIT       RB8
      000000CBH   SFRSYM    DATA     BYTE      RCAP2H
      000000CAH   SFRSYM    DATA     BYTE      RCAP2L
      000000C8H.5 SFRSYM    DATA     BIT       RCLK
      000000ADH   SFRSYM    DATA     BYTE      REGX_CTRL
      000000ACH   SFRSYM    DATA     BYTE      REGX_LSB
      000000ABH   SFRSYM    DATA     BYTE      REGX_MSB
      00000098H.4 SFRSYM    DATA     BIT       REN
      00000098H   SFRSYM    DATA     BIT       RI
      000000D0H.3 SFRSYM    DATA     BIT       RS0
      000000D0H.4 SFRSYM    DATA     BIT       RS1
      000000B1H   SFRSYM    DATA     BYTE      RSTREAS
      00000080H.1 SFRSYM    DATA     BIT       RXD
      00000099H   SFRSYM    DATA     BYTE      SBUF
LX51 LINKER/LOCATER V4.34a                                                            02/24/2009  16:29:19  PAGE 36


      00000098H   SFRSYM    DATA     BYTE      SCON
      00000098H.7 SFRSYM    DATA     BIT       SM0
      00000098H.6 SFRSYM    DATA     BIT       SM1
      00000098H.5 SFRSYM    DATA     BIT       SM2
      00000081H   SFRSYM    DATA     BYTE      SP
      0000008FH   SFRSYM    DATA     BYTE      SPC_FNC
      000000B3H   SFRSYM    DATA     BYTE      SPI_CTRL
      000000B2H   SFRSYM    DATA     BYTE      SPI_DATA
      000000B4H   SFRSYM    DATA     BYTE      SPICLK
      00000080H.5 SFRSYM    DATA     BIT       T0
      00000080H.6 SFRSYM    DATA     BIT       T1
      000000BCH   SFRSYM    DATA     BYTE      T1_1V2
      00000090H   SFRSYM    DATA     BIT       T2
      000000BDH   SFRSYM    DATA     BYTE      T2_1V2
      000000C8H   SFRSYM    DATA     BYTE      T2CON
      00000098H.3 SFRSYM    DATA     BIT       TB8
      000000C8H.4 SFRSYM    DATA     BIT       TCLK
      00000088H   SFRSYM    DATA     BYTE      TCON
      000000B7H   SFRSYM    DATA     BYTE      TEST_MODE
      00000088H.5 SFRSYM    DATA     BIT       TF0
      00000088H.7 SFRSYM    DATA     BIT       TF1
      000000C8H.7 SFRSYM    DATA     BIT       TF2
      0000008CH   SFRSYM    DATA     BYTE      TH0
      0000008DH   SFRSYM    DATA     BYTE      TH1
      000000CDH   SFRSYM    DATA     BYTE      TH2
      00000098H.1 SFRSYM    DATA     BIT       TI
      000000B5H   SFRSYM    DATA     BYTE      TICK_DV
      0000008AH   SFRSYM    DATA     BYTE      TL0
      0000008BH   SFRSYM    DATA     BYTE      TL1
      000000CCH   SFRSYM    DATA     BYTE      TL2
      00000089H   SFRSYM    DATA     BYTE      TMOD
      00000088H.4 SFRSYM    DATA     BIT       TR0
      00000088H.6 SFRSYM    DATA     BIT       TR1
      000000C8H.2 SFRSYM    DATA     BIT       TR2
      00000080H.2 SFRSYM    DATA     BIT       TXD
      000000D8H.3 SFRSYM    DATA     BIT       WDTI
      01000826H   SYMBOL    CODE     NEAR LAB  ?C0002
      0100082BH   SYMBOL    CODE     NEAR LAB  ?C0003
      0100082DH   SYMBOL    CODE     NEAR LAB  ?C0004

      0100085CH   BLOCK     CODE     NEAR LAB  LVL=0
      0100085CH   LINE      CODE     ---       #203
      0100085EH   LINE      CODE     ---       #206
      01000860H   LINE      CODE     ---       #209
      ---         BLOCKEND  ---      ---       LVL=0

      01000821H   BLOCK     CODE     NEAR LAB  LVL=0
      01000821H   LINE      CODE     ---       #229
      01000824H   LINE      CODE     ---       #232
      01000826H   LINE      CODE     ---       #236
      01000828H   LINE      CODE     ---       #237
      0100082BH   LINE      CODE     ---       #242
      0100082DH   LINE      CODE     ---       #246
      ---         BLOCKEND  ---      ---       LVL=0

      ---         MODULE    ---      ---       EEPROM
      01000706H   PUBLIC    CODE     NEAR LAB  _EEPROM_READ
      0100065BH   PUBLIC    CODE     NEAR LAB  _EEPROM_WRITE
      0100082EH   PUBLIC    CODE     NEAR LAB  EEPROM_INIT
      010007F7H   PUBLIC    CODE     NEAR LAB  EEPROM_STATUS
      01000781H   PUBLIC    CODE     NEAR LAB  FLASH_ERASE_ALL
      000000D0H.6 SFRSYM    DATA     BIT       AC
      000000E0H   SFRSYM    DATA     BYTE      ACC
      000000A1H   SFRSYM    DATA     BYTE      ADCCON
      000000A2H   SFRSYM    DATA     BYTE      ADCDATAH
LX51 LINKER/LOCATER V4.34a                                                            02/24/2009  16:29:19  PAGE 37


      000000A3H   SFRSYM    DATA     BYTE      ADCDATAL
      000000A4H   SFRSYM    DATA     BYTE      ADCSTATIC
      000000F0H   SFRSYM    DATA     BYTE      B
      000000C8H.1 SFRSYM    DATA     BIT       C_T2
      000000A0H.6 SFRSYM    DATA     BIT       CE
      000000B6H   SFRSYM    DATA     BYTE      CK_CTRL
      0000008EH   SFRSYM    DATA     BYTE      CKCON
      000000A0H.1 SFRSYM    DATA     BIT       CLK1
      000000A0H.5 SFRSYM    DATA     BIT       CLK2
      000000C8H   SFRSYM    DATA     BIT       CP_RL2
      000000C8H   SFRSYM    DATA     BIT       CPRL2
      000000A0H.3 SFRSYM    DATA     BIT       CS
      000000C8H.1 SFRSYM    DATA     BIT       CT2
      000000D0H.7 SFRSYM    DATA     BIT       CY
      000000A0H   SFRSYM    DATA     BIT       DATA?
      000000BEH   SFRSYM    DATA     BYTE      DEV_OFFSET
      00000090H.2 SFRSYM    DATA     BIT       DIN0
      00000090H   SFRSYM    DATA     BIT       DIO0
      00000090H.1 SFRSYM    DATA     BIT       DIO1
      00000080H   SFRSYM    DATA     BIT       DIO2
      00000080H.1 SFRSYM    DATA     BIT       DIO3
      00000080H.2 SFRSYM    DATA     BIT       DIO4
      00000080H.3 SFRSYM    DATA     BIT       DIO5
      00000080H.4 SFRSYM    DATA     BIT       DIO6
      00000080H.5 SFRSYM    DATA     BIT       DIO7
      00000080H.6 SFRSYM    DATA     BIT       DIO8
      00000080H.7 SFRSYM    DATA     BIT       DIO9
      000000A0H.4 SFRSYM    DATA     BIT       DOUT2
      00000083H   SFRSYM    DATA     BYTE      DPH
      00000083H   SFRSYM    DATA     BYTE      DPH0
      00000085H   SFRSYM    DATA     BYTE      DPH1
      00000082H   SFRSYM    DATA     BYTE      DPL
      00000082H   SFRSYM    DATA     BYTE      DPL0
      00000084H   SFRSYM    DATA     BYTE      DPL1
      00000086H   SFRSYM    DATA     BYTE      DPS
      000000A0H.2 SFRSYM    DATA     BIT       DR1
      000000A0H.6 SFRSYM    DATA     BIT       DR2
      000000A0H.6 SFRSYM    DATA     BIT       DR2_CE
      000000A8H.7 SFRSYM    DATA     BIT       EA
      000000D8H   SFRSYM    DATA     BYTE      EICON
      000000E8H   SFRSYM    DATA     BYTE      EIE
      000000F8H   SFRSYM    DATA     BYTE      EIP
      000000A8H.4 SFRSYM    DATA     BIT       ES
      000000A8H.1 SFRSYM    DATA     BIT       ET0
      000000A8H.3 SFRSYM    DATA     BIT       ET1
      000000A8H.5 SFRSYM    DATA     BIT       ET2
      000000E8H.4 SFRSYM    DATA     BIT       EWDI
      000000A8H   SFRSYM    DATA     BIT       EX0
      000000A8H.2 SFRSYM    DATA     BIT       EX1
      000000E8H   SFRSYM    DATA     BIT       EX2
      000000E8H.1 SFRSYM    DATA     BIT       EX3
      000000E8H.2 SFRSYM    DATA     BIT       EX4
      000000E8H.3 SFRSYM    DATA     BIT       EX5
      000000C8H.3 SFRSYM    DATA     BIT       EXEN2
      000000C8H.6 SFRSYM    DATA     BIT       EXF2
      00000091H   SFRSYM    DATA     BYTE      EXIF
      000000D0H.5 SFRSYM    DATA     BIT       F0
      000000D0H.1 SFRSYM    DATA     BIT       F1
      000000A8H   SFRSYM    DATA     BYTE      IE
      00000088H.1 SFRSYM    DATA     BIT       IE0
      00000088H.3 SFRSYM    DATA     BIT       IE1
      00000080H.3 SFRSYM    DATA     BIT       INT0_N
      00000080H.4 SFRSYM    DATA     BIT       INT1_N
      000000B8H   SFRSYM    DATA     BYTE      IP
      00000088H   SFRSYM    DATA     BIT       IT0
LX51 LINKER/LOCATER V4.34a                                                            02/24/2009  16:29:19  PAGE 38


      00000088H.2 SFRSYM    DATA     BIT       IT1
      00000092H   SFRSYM    DATA     BYTE      MPAGE
      000000D0H.2 SFRSYM    DATA     BIT       OV
      000000D0H   SFRSYM    DATA     BIT       P
      00000080H   SFRSYM    DATA     BYTE      P0
      00000080H   SFRSYM    DATA     BIT       P0_0
      00000080H.1 SFRSYM    DATA     BIT       P0_1
      00000080H.2 SFRSYM    DATA     BIT       P0_2
      00000080H.3 SFRSYM    DATA     BIT       P0_3
      00000080H.4 SFRSYM    DATA     BIT       P0_4
      00000080H.5 SFRSYM    DATA     BIT       P0_5
      00000080H.6 SFRSYM    DATA     BIT       P0_6
      00000080H.7 SFRSYM    DATA     BIT       P0_7
      00000095H   SFRSYM    DATA     BYTE      P0_ALT
      00000094H   SFRSYM    DATA     BYTE      P0_DIR
      00000090H   SFRSYM    DATA     BYTE      P1
      00000090H   SFRSYM    DATA     BIT       P1_0
      00000090H.1 SFRSYM    DATA     BIT       P1_1
      00000090H.2 SFRSYM    DATA     BIT       P1_2
      00000097H   SFRSYM    DATA     BYTE      P1_ALT
      00000096H   SFRSYM    DATA     BYTE      P1_DIR
      00000087H   SFRSYM    DATA     BYTE      PCON
      000000B8H.4 SFRSYM    DATA     BIT       PS
      000000D0H   SFRSYM    DATA     BYTE      PSW
      000000B8H.1 SFRSYM    DATA     BIT       PT0
      000000B8H.3 SFRSYM    DATA     BIT       PT1
      000000B8H.5 SFRSYM    DATA     BIT       PT2
      000000F8H.4 SFRSYM    DATA     BIT       PWDI
      00000080H.7 SFRSYM    DATA     BIT       PWM
      000000A9H   SFRSYM    DATA     BYTE      PWMCON
      000000AAH   SFRSYM    DATA     BYTE      PWMDUTY
      000000A0H.7 SFRSYM    DATA     BIT       PWR_UP
      000000B8H   SFRSYM    DATA     BIT       PX0
      000000B8H.2 SFRSYM    DATA     BIT       PX1
      000000F8H   SFRSYM    DATA     BIT       PX2
      000000F8H.1 SFRSYM    DATA     BIT       PX3
      000000F8H.2 SFRSYM    DATA     BIT       PX4
      000000F8H.3 SFRSYM    DATA     BIT       PX5
      000000A0H   SFRSYM    DATA     BYTE      RADIO
      00000098H.2 SFRSYM    DATA     BIT       RB8
      000000CBH   SFRSYM    DATA     BYTE      RCAP2H
      000000CAH   SFRSYM    DATA     BYTE      RCAP2L
      000000C8H.5 SFRSYM    DATA     BIT       RCLK
      000000ADH   SFRSYM    DATA     BYTE      REGX_CTRL
      000000ACH   SFRSYM    DATA     BYTE      REGX_LSB
      000000ABH   SFRSYM    DATA     BYTE      REGX_MSB
      00000098H.4 SFRSYM    DATA     BIT       REN
      00000098H   SFRSYM    DATA     BIT       RI
      000000D0H.3 SFRSYM    DATA     BIT       RS0
      000000D0H.4 SFRSYM    DATA     BIT       RS1
      000000B1H   SFRSYM    DATA     BYTE      RSTREAS
      00000080H.1 SFRSYM    DATA     BIT       RXD
      00000099H   SFRSYM    DATA     BYTE      SBUF
      00000098H   SFRSYM    DATA     BYTE      SCON
      00000098H.7 SFRSYM    DATA     BIT       SM0
      00000098H.6 SFRSYM    DATA     BIT       SM1
      00000098H.5 SFRSYM    DATA     BIT       SM2
      00000081H   SFRSYM    DATA     BYTE      SP
      0000008FH   SFRSYM    DATA     BYTE      SPC_FNC
      000000B3H   SFRSYM    DATA     BYTE      SPI_CTRL
      000000B2H   SFRSYM    DATA     BYTE      SPI_DATA
      000000B4H   SFRSYM    DATA     BYTE      SPICLK
      00000080H.5 SFRSYM    DATA     BIT       T0
      00000080H.6 SFRSYM    DATA     BIT       T1
      000000BCH   SFRSYM    DATA     BYTE      T1_1V2
LX51 LINKER/LOCATER V4.34a                                                            02/24/2009  16:29:19  PAGE 39


      00000090H   SFRSYM    DATA     BIT       T2
      000000BDH   SFRSYM    DATA     BYTE      T2_1V2
      000000C8H   SFRSYM    DATA     BYTE      T2CON
      00000098H.3 SFRSYM    DATA     BIT       TB8
      000000C8H.4 SFRSYM    DATA     BIT       TCLK
      00000088H   SFRSYM    DATA     BYTE      TCON
      000000B7H   SFRSYM    DATA     BYTE      TEST_MODE
      00000088H.5 SFRSYM    DATA     BIT       TF0
      00000088H.7 SFRSYM    DATA     BIT       TF1
      000000C8H.7 SFRSYM    DATA     BIT       TF2
      0000008CH   SFRSYM    DATA     BYTE      TH0
      0000008DH   SFRSYM    DATA     BYTE      TH1
      000000CDH   SFRSYM    DATA     BYTE      TH2
      00000098H.1 SFRSYM    DATA     BIT       TI
      000000B5H   SFRSYM    DATA     BYTE      TICK_DV
      0000008AH   SFRSYM    DATA     BYTE      TL0
      0000008BH   SFRSYM    DATA     BYTE      TL1
      000000CCH   SFRSYM    DATA     BYTE      TL2
      00000089H   SFRSYM    DATA     BYTE      TMOD
      00000088H.4 SFRSYM    DATA     BIT       TR0
      00000088H.6 SFRSYM    DATA     BIT       TR1
      000000C8H.2 SFRSYM    DATA     BIT       TR2
      00000080H.2 SFRSYM    DATA     BIT       TXD
      000000D8H.3 SFRSYM    DATA     BIT       WDTI
      00000076H   SYMBOL    DATA     BYTE      ?_EEPROM_READ?BYTE
      00000073H   SYMBOL    DATA     BYTE      ?_EEPROM_WRITE?BYTE
      01000805H   SYMBOL    CODE     NEAR LAB  ?C0002
      01000661H   SYMBOL    CODE     NEAR LAB  ?C0003
      01000668H   SYMBOL    CODE     NEAR LAB  ?C0004
      0100070DH   SYMBOL    CODE     NEAR LAB  ?C0006
      01000714H   SYMBOL    CODE     NEAR LAB  ?C0007
      01000731H   SYMBOL    CODE     NEAR LAB  ?C0008
      01000781H   SYMBOL    CODE     NEAR LAB  ?C0009
      01000788H   SYMBOL    CODE     NEAR LAB  ?C0010
      0100079AH   SYMBOL    CODE     NEAR LAB  ?C0012
      00000073H   SYMBOL    DATA     BYTE      ADDR?241
      00000076H   SYMBOL    DATA     BYTE      ADDR?343
      00000075H   SYMBOL    DATA     BYTE      BYTE?242
      00000078H   SYMBOL    DATA     BYTE      BYTE?344

      0100082EH   BLOCK     CODE     NEAR LAB  LVL=0
      0100082EH   LINE      CODE     ---       #244
      0100082FH   LINE      CODE     ---       #245
      01000830H   LINE      CODE     ---       #246
      01000832H   LINE      CODE     ---       #247
      01000835H   LINE      CODE     ---       #251
      01000838H   LINE      CODE     ---       #254
      ---         BLOCKEND  ---      ---       LVL=0

      010007F7H   BLOCK     CODE     NEAR LAB  LVL=0
      010007F7H   LINE      CODE     ---       #270
      010007F9H   LINE      CODE     ---       #273
      010007FBH   LINE      CODE     ---       #274
      010007FEH   LINE      CODE     ---       #278
      010007FFH   LINE      CODE     ---       #279
      01000800H   LINE      CODE     ---       #280
      01000803H   LINE      CODE     ---       #284
      01000805H   LINE      CODE     ---       #291
      ---         BLOCKEND  ---      ---       LVL=0

      0100065BH   BLOCK     CODE     NEAR LAB  LVL=0
      0100065BH   LINE      CODE     ---       #305
      0100065DH   LINE      CODE     ---       #306
      0100065FH   LINE      CODE     ---       #307
      01000661H   LINE      CODE     ---       #313
LX51 LINKER/LOCATER V4.34a                                                            02/24/2009  16:29:19  PAGE 40


      01000664H   LINE      CODE     ---       #314
      01000665H   LINE      CODE     ---       #315
      01000668H   LINE      CODE     ---       #320
      0100066AH   LINE      CODE     ---       #323
      0100066CH   LINE      CODE     ---       #324
      0100066FH   LINE      CODE     ---       #327
      01000671H   LINE      CODE     ---       #330
      01000673H   LINE      CODE     ---       #333
      01000675H   LINE      CODE     ---       #334
      01000678H   LINE      CODE     ---       #337
      0100067AH   LINE      CODE     ---       #338
      0100067BH   LINE      CODE     ---       #339
      0100067EH   LINE      CODE     ---       #342
      01000680H   LINE      CODE     ---       #343
      01000682H   LINE      CODE     ---       #344
      01000685H   LINE      CODE     ---       #347
      01000687H   LINE      CODE     ---       #348
      0100068AH   LINE      CODE     ---       #351
      0100068CH   LINE      CODE     ---       #354
      0100068EH   LINE      CODE     ---       #357
      01000690H   LINE      CODE     ---       #358
      01000693H   LINE      CODE     ---       #361
      01000695H   LINE      CODE     ---       #364
      ---         BLOCKEND  ---      ---       LVL=0

      01000706H   BLOCK     CODE     NEAR LAB  LVL=0
      01000706H   LINE      CODE     ---       #377
      01000708H   LINE      CODE     ---       #378
      0100070AH   LINE      CODE     ---       #383
      0100070BH   LINE      CODE     ---       #384
      0100070DH   LINE      CODE     ---       #388
      01000710H   LINE      CODE     ---       #389
      01000711H   LINE      CODE     ---       #390
      01000714H   LINE      CODE     ---       #395
      01000716H   LINE      CODE     ---       #398
      01000718H   LINE      CODE     ---       #399
      0100071BH   LINE      CODE     ---       #402
      0100071DH   LINE      CODE     ---       #403
      0100071EH   LINE      CODE     ---       #404
      01000721H   LINE      CODE     ---       #407
      01000723H   LINE      CODE     ---       #408
      01000725H   LINE      CODE     ---       #409
      01000728H   LINE      CODE     ---       #412
      01000729H   LINE      CODE     ---       #413
      0100072AH   LINE      CODE     ---       #414
      0100072DH   LINE      CODE     ---       #415
      0100072FH   LINE      CODE     ---       #418
      01000731H   LINE      CODE     ---       #424
      ---         BLOCKEND  ---      ---       LVL=0

      01000781H   BLOCK     CODE     NEAR LAB  LVL=0
      01000781H   LINE      CODE     ---       #440
      01000784H   LINE      CODE     ---       #441
      01000785H   LINE      CODE     ---       #442
      01000788H   LINE      CODE     ---       #447
      0100078AH   LINE      CODE     ---       #450
      0100078CH   LINE      CODE     ---       #451
      0100078FH   LINE      CODE     ---       #454
      01000791H   LINE      CODE     ---       #457
      01000793H   LINE      CODE     ---       #460
      01000795H   LINE      CODE     ---       #461
      01000798H   LINE      CODE     ---       #464
      0100079AH   LINE      CODE     ---       #472
      0100079CH   LINE      CODE     ---       #475
      0100079EH   LINE      CODE     ---       #476
LX51 LINKER/LOCATER V4.34a                                                            02/24/2009  16:29:19  PAGE 41


      010007A1H   LINE      CODE     ---       #479
      010007A3H   LINE      CODE     ---       #482
      ---         BLOCKEND  ---      ---       LVL=0

      ---         MODULE    ---      ---       ?C_STARTUP
      01000000H   PUBLIC    CODE     ---       ?C_STARTUP

      ---         MODULE    ---      ---       ?C?CLDPTR
      01000056H   PUBLIC    CODE     ---       ?C?CLDPTR

      ---         MODULE    ---      ---       ?C?CLDOPTR
      0100006FH   PUBLIC    CODE     ---       ?C?CLDOPTR

      ---         MODULE    ---      ---       ?C?CSTPTR
      0100009CH   PUBLIC    CODE     ---       ?C?CSTPTR

      ---         MODULE    ---      ---       ?C?UIDIV
      010000AEH   PUBLIC    CODE     ---       ?C?UIDIV

      ---         MODULE    ---      ---       ?C?LMUL
      01000103H   PUBLIC    CODE     ---       ?C?LMUL

      ---         MODULE    ---      ---       ?C?ULDIV
      0100018EH   PUBLIC    CODE     ---       ?C?ULDIV

      ---         MODULE    ---      ---       ?C?ICASE
      01000220H   PUBLIC    CODE     ---       ?C?ICASE

      ---         MODULE    ---      ---       ?C_IBP
      0000007DH   PUBLIC    DATA     ---       ?C_IBP

      ---         MODULE    ---      ---       ?C_INIT
      01000441H   PUBLIC    CODE     ---       ?C_START

Program Size: data=127.0 xdata=0 const=0 code=2149
LX51 RUN COMPLETE.  0 WARNING(S),  0 ERROR(S)
