; ./main.src generated from: .\main.c
; COMPILER INVOKED BY:
;        C:\Keil\C51\BIN\C51.exe .\main.c BROWSE DEBUG CODE LISTINCLUDE SYMBOLS PREPRINT INCDIR(../../Include) SRC(./main.src)

$NOMOD51

NAME	MAIN

PWR_UP	BIT	0A0H.7
P0	DATA	080H
P1	DATA	090H
AC	BIT	0D0H.6
T0	BIT	080H.5
SPI_CTRL	DATA	0B3H
T1	BIT	080H.6
EA	BIT	0A8H.7
T2	BIT	090H.0
CE	BIT	0A0H.6
DEV_OFFSET	DATA	0BEH
CLK1	BIT	0A0H.1
DIN0	BIT	090H.2
CLK2	BIT	0A0H.5
DIO0	BIT	090H.0
DPH0	DATA	083H
DIO1	BIT	090H.1
IE	DATA	0A8H
DPH1	DATA	085H
DIO2	BIT	080H.0
DIO3	BIT	080H.1
P0_0	BIT	080H.0
P1_0	BIT	090H.0
DIO4	BIT	080H.2
P0_1	BIT	080H.1
DPL0	DATA	082H
P1_1	BIT	090H.1
DIO5	BIT	080H.3
P0_2	BIT	080H.2
DPL1	DATA	084H
P1_2	BIT	090H.2
DIO6	BIT	080H.4
P0_3	BIT	080H.3
DIO7	BIT	080H.5
P0_4	BIT	080H.4
ADCSTATIC	DATA	0A4H
DIO8	BIT	080H.6
P0_5	BIT	080H.5
EXF2	BIT	0C8H.6
CS	BIT	0A0H.3
DIO9	BIT	080H.7
P0_6	BIT	080H.6
P0_7	BIT	080H.7
ES	BIT	0A8H.4
IP	DATA	0B8H
DATA?	BIT	0A0H.0
RI	BIT	098H.0
CY	BIT	0D0H.7
TI	BIT	098H.1
T1_1V2	DATA	0BCH
SPC_FNC	DATA	08FH
T2_1V2	DATA	0BDH
RCAP2H	DATA	0CBH
PS	BIT	0B8H.4
SP	DATA	081H
OV	BIT	0D0H.2
CK_CTRL	DATA	0B6H
RCAP2L	DATA	0CAH
TICK_DV	DATA	0B5H
RSTREAS	DATA	0B1H
C_T2	BIT	0C8H.1
EWDI	BIT	0E8H.4
ADCCON	DATA	0A1H
RCLK	BIT	0C8H.5
ADCDATAH	DATA	0A2H
EXIF	DATA	091H
TCLK	BIT	0C8H.4
DR2_CE	BIT	0A0H.6
ADCDATAL	DATA	0A3H
SBUF	DATA	099H
PCON	DATA	087H
SCON	DATA	098H
PWDI	BIT	0F8H.4
TMOD	DATA	089H
TCON	DATA	088H
WDTI	BIT	0D8H.3
PWMDUTY	DATA	0AAH
IE0	BIT	088H.1
IE1	BIT	088H.3
P0_DIR	DATA	094H
B	DATA	0F0H
P1_DIR	DATA	096H
P0_ALT	DATA	095H
P1_ALT	DATA	097H
CP_RL2	BIT	0C8H.0
DR1	BIT	0A0H.2
ACC	DATA	0E0H
DR2	BIT	0A0H.6
TEST_MODE	DATA	0B7H
SPICLK	DATA	0B4H
CT2	BIT	0C8H.1
ET0	BIT	0A8H.1
ET1	BIT	0A8H.3
TF0	BIT	088H.5
INT0_N	BIT	080H.3
ET2	BIT	0A8H.5
TF1	BIT	088H.7
INT1_N	BIT	080H.4
TF2	BIT	0C8H.7
RB8	BIT	098H.2
TH0	DATA	08CH
EX0	BIT	0A8H.0
IT0	BIT	088H.0
TH1	DATA	08DH
EX1	BIT	0A8H.2
TB8	BIT	098H.3
IT1	BIT	088H.2
TH2	DATA	0CDH
REGX_CTRL	DATA	0ADH
EX2	BIT	0E8H.0
P	BIT	0D0H.0
EX3	BIT	0E8H.1
SM0	BIT	098H.7
TL0	DATA	08AH
EX4	BIT	0E8H.2
SM1	BIT	098H.6
TL1	DATA	08BH
EX5	BIT	0E8H.3
SM2	BIT	098H.5
TL2	DATA	0CCH
EIE	DATA	0E8H
PT0	BIT	0B8H.1
RS0	BIT	0D0H.3
PT1	BIT	0B8H.3
RS1	BIT	0D0H.4
PT2	BIT	0B8H.5
TR0	BIT	088H.4
PWMCON	DATA	0A9H
TR1	BIT	088H.6
TR2	BIT	0C8H.2
PX0	BIT	0B8H.0
PX1	BIT	0B8H.2
PX2	BIT	0F8H.0
PX3	BIT	0F8H.1
PX4	BIT	0F8H.2
DPH	DATA	083H
PX5	BIT	0F8H.3
EIP	DATA	0F8H
DPL	DATA	082H
EXEN2	BIT	0C8H.3
CPRL2	BIT	0C8H.0
REN	BIT	098H.4
T2CON	DATA	0C8H
DPS	DATA	086H
SPI_DATA	DATA	0B2H
MPAGE	DATA	092H
RXD	BIT	080H.1
DOUT2	BIT	0A0H.4
EICON	DATA	0D8H
CKCON	DATA	08EH
TXD	BIT	080H.2
RADIO	DATA	0A0H
PWM	BIT	080H.7
F0	BIT	0D0H.5
F1	BIT	0D0H.1
REGX_LSB	DATA	0ACH
PSW	DATA	0D0H
REGX_MSB	DATA	0ABH
?PR?_delta_compress?MAIN                 SEGMENT CODE 
?DT?_delta_compress?MAIN                 SEGMENT DATA OVERLAYABLE 
?PR?main?MAIN        SEGMENT CODE 
?DT?main?MAIN        SEGMENT DATA OVERLAYABLE 
?C_INITSEG           SEGMENT CODE 
?DT?MAIN             SEGMENT DATA 
?ID?MAIN             SEGMENT IDATA 
?ID?main?MAIN        SEGMENT IDATA OVERLAYABLE 
	EXTRN	CODE (_mdelay)
	EXTRN	CODE (_rf_configure)
	EXTRN	CODE (_adc_read)
	EXTRN	CODE (_adc_init)
	EXTRN	CODE (_log)
	EXTRN	CODE (eco_page_init)
	EXTRN	CODE (_rf_send)
	EXTRN	DATA (?_rf_send?BYTE)
	EXTRN	CODE (_store_cpu_rate)
	EXTRN	CODE (rf_init)
	EXTRN	CODE (?C?CLDPTR)
	EXTRN	CODE (?C?CLDOPTR)
	EXTRN	CODE (?C?FCASTI)
	EXTRN	CODE (?C?FPCMP3)
	EXTRN	CODE (?C?CASTF)
	EXTRN	CODE (?C_STARTUP)
	PUBLIC	s_data
	PUBLIC	rf_data
	PUBLIC	dst_addr
	PUBLIC	cfg
	PUBLIC	main
	PUBLIC	_delta_compress

	RSEG  ?DT?main?MAIN
?main?BYTE:
	ORG  2
      acc_x?144:   DS   2
	ORG  4
      acc_y?145:   DS   2
	ORG  6
      acc_z?146:   DS   2
	ORG  0
          i?147:   DS   2

	RSEG  ?DT?_delta_compress?MAIN
?_delta_compress?BYTE:
        ptr?040:   DS   3
	ORG  3
        len?041:   DS   2
	ORG  5
          i?042:   DS   2
	ORG  7
      delta?043:   DS   4

	RSEG  ?DT?MAIN
            cfg:   DS   3
       dst_addr:   DS   3
        rf_data:   DS   15

	RSEG  ?ID?MAIN
         s_data:   DS   28

	RSEG  ?ID?main?MAIN
        msg?148:   DS   18

	RSEG  ?C_INITSEG
	DB	00FH
	DB	rf_data
	DB	000H
	DB	0E0H
	DB	000H
	DB	000H
	DB	000H
	DB	000H
	DB	000H
	DB	0F2H
	DB	0F2H
	DB	0F2H
	DB	0F2H
	DB	0F2H
	DB	063H
	DB	06FH
	DB	0ECH

	DB	003H
	DB	cfg
	DB	000H
	DW	rf_data + 0

	DB	003H
	DB	dst_addr
	DB	0F1H
	DB	0F1H
	DB	0F1H

; #include "Eco/reg24e1.h"
; #include "Eco/eco_sys.h"
; #include "utils/utils.h"
; #include "serial/serial.h"
; #include "isr/isr_rf.h"
; #include "eeprom/eeprom.h"
; #include "eco_page.h"
; #include "adc/adc.h"
; 
; #include <math.h> /* for log */
; 
; struct rf_config rf_data = { {0x00}, /* data2 width */
; 	{0xE0}, /* data1 width */ 
; 	{0x00, 0x00, 0x00, 0x00, 0x00}, /* addr2 */
; 	{0xF2, 0xF2, 0xF2, 0xF2, 0xF2}, /* addr1, host addr */
; 	{0x63}, /* 24-bit address, 16-bit CRC */
; 	{0x6f, 0xEC} };
; struct rf_config *cfg = &rf_data;
; char dst_addr[3] = {0xF1, 0xF1, 0xF1};
; char idata s_data[28];
; 
; 
; void delta_compress(char ptr[],int len)

	RSEG  ?PR?_delta_compress?MAIN
_delta_compress:
	USING	0
			; SOURCE LINE # 23
	MOV  	len?041,R4
	MOV  	len?041+01H,R5
	MOV  	ptr?040,R3
	MOV  	ptr?040+01H,R2
	MOV  	ptr?040+02H,R1
; {
			; SOURCE LINE # 24
; 	int i;
; 	float delta;	
; 
; 	s_data[0] = ptr[0];	
			; SOURCE LINE # 28
	LCALL	?C?CLDPTR
	MOV  	R0,#LOW (s_data)
	MOV  	@R0,A
; 	
; 	for(i=1;i<len;i++)
			; SOURCE LINE # 30
	MOV  	i?042,#00H
	MOV  	i?042+01H,#01H
?C0001:
	CLR  	C
	MOV  	A,i?042+01H
	SUBB 	A,len?041+01H
	MOV  	A,len?041
	XRL  	A,#080H
	MOV  	R0,A
	MOV  	A,i?042
	XRL  	A,#080H
	SUBB 	A,R0
	JNC  	?C0006
; 	{
			; SOURCE LINE # 31
; 		delta = ptr[i] - ptr[i-1];
			; SOURCE LINE # 32
	MOV  	R3,ptr?040
	MOV  	R2,ptr?040+01H
	MOV  	R1,ptr?040+02H
	MOV  	A,i?042+01H
	ADD  	A,#0FFH
	MOV  	R7,A
	MOV  	A,i?042
	ADDC 	A,#0FFH
	MOV  	DPL,R7
	MOV  	DPH,A
	LCALL	?C?CLDOPTR
	MOV  	R7,A
	RLC  	A
	SUBB 	A,ACC
	MOV  	R6,A
	MOV  	DPL,i?042+01H
	MOV  	DPH,i?042
	LCALL	?C?CLDOPTR
	MOV  	R5,A
	RLC  	A
	SUBB 	A,ACC
	MOV  	R4,A
	CLR  	C
	MOV  	A,R5
	SUBB 	A,R7
	MOV  	R5,A
	MOV  	A,R4
	SUBB 	A,R6
	MOV  	R4,A
	LCALL	?C?FCASTI
	MOV  	delta?043+03H,R7
	MOV  	delta?043+02H,R6
	MOV  	delta?043+01H,R5
	MOV  	delta?043,R4
; 		
; 		if(log(delta)>6)
			; SOURCE LINE # 34
	LCALL	_log
	CLR  	A
	MOV  	R3,A
	MOV  	R2,A
	MOV  	R1,#0C0H
	MOV  	R0,#040H
	LCALL	?C?FPCMP3
	JNC  	?C0004
; 		{
			; SOURCE LINE # 35
; 			s_data[i] = ptr[i];	
			; SOURCE LINE # 36
	MOV  	R3,ptr?040
	MOV  	R2,ptr?040+01H
	MOV  	R1,ptr?040+02H
	MOV  	DPL,i?042+01H
	MOV  	DPH,i?042
	LCALL	?C?CLDOPTR
	MOV  	R7,A
; 		}	
			; SOURCE LINE # 37
	SJMP 	?C0015
?C0004:
; 		else
; 		{
			; SOURCE LINE # 39
; 			s_data[i] = delta;		
			; SOURCE LINE # 40
	MOV  	R7,delta?043+03H
	MOV  	R6,delta?043+02H
	MOV  	R5,delta?043+01H
	MOV  	R4,delta?043
	LCALL	?C?CASTF
?C0015:
	MOV  	A,#LOW (s_data)
	ADD  	A,i?042+01H
	MOV  	R0,A
	MOV  	@R0,AR7
; 		}
			; SOURCE LINE # 41
; 	}		
			; SOURCE LINE # 42
?C0003:
	INC  	i?042+01H
	MOV  	A,i?042+01H
	JNZ  	?C0013
	INC  	i?042
?C0013:
	LJMP 	?C0001
; }
			; SOURCE LINE # 43
?C0006:
	RET  	
; END OF _delta_compress

; 
; int main()

	RSEG  ?PR?main?MAIN
main:
	USING	0
			; SOURCE LINE # 45
; {
			; SOURCE LINE # 46
; 	unsigned int i = 0;
			; SOURCE LINE # 47
	CLR  	A
	MOV  	i?147,A
	MOV  	i?147+01H,A
; 	char idata msg[18];
; 	store_cpu_rate(16);
			; SOURCE LINE # 49
	MOV  	R7,#010H
	MOV  	R6,A
	LCALL	_store_cpu_rate
; 	P0_DIR &= ~0x20;
			; SOURCE LINE # 50
	ANL  	P0_DIR,#0DFH
; 	P0_ALT &= ~0x20;
			; SOURCE LINE # 51
	ANL  	P0_ALT,#0DFH
; 
; 	adc_init(ADC_CLK_D8,ADC_RES_12,EXTREF);
			; SOURCE LINE # 53
	MOV  	R3,#010H
	MOV  	R5,#03H
	MOV  	R7,#020H
	LCALL	_adc_init
; 
; 	rf_init();
			; SOURCE LINE # 55
	LCALL	rf_init
; 	rf_configure(cfg);
			; SOURCE LINE # 56
	MOV  	R3,cfg
	MOV  	R2,cfg+01H
	MOV  	R1,cfg+02H
	LCALL	_rf_configure
; 	//serial_init(19200);	
; 	eco_page_init();
			; SOURCE LINE # 58
	LCALL	eco_page_init
; 
; 	for(i=0;i<6;i++)
			; SOURCE LINE # 60
	CLR  	A
	MOV  	i?147,A
	MOV  	i?147+01H,A
?C0007:
; 	{
			; SOURCE LINE # 61
; 		blink_led();
			; SOURCE LINE # 62
	XRL  	P0,#020H
; 		mdelay(300);
			; SOURCE LINE # 63
	MOV  	R7,#02CH
	MOV  	R6,#01H
	LCALL	_mdelay
; 	}
			; SOURCE LINE # 64
	INC  	i?147+01H
	MOV  	A,i?147+01H
	JNZ  	?C0014
	INC  	i?147
?C0014:
	CLR  	C
	SUBB 	A,#06H
	MOV  	A,i?147
	SUBB 	A,#00H
	JC   	?C0007
?C0008:
; 	
; 	mdelay(1000);
			; SOURCE LINE # 66
	MOV  	R7,#0E8H
	MOV  	R6,#03H
	LCALL	_mdelay
?C0010:
; 
; 	while(1)
			; SOURCE LINE # 68
; 	{
			; SOURCE LINE # 69
; 		//blink4();
; 		int acc_x,acc_y,acc_z;
; 
; 		acc_x = adc_read(X_AXIS);
			; SOURCE LINE # 73
	MOV  	R7,#03H
	LCALL	_adc_read
	MOV  	acc_x?144,R6
	MOV  	acc_x?144+01H,R7
; 		acc_y = adc_read(Y_AXIS);
			; SOURCE LINE # 74
	MOV  	R7,#04H
	LCALL	_adc_read
	MOV  	acc_y?145,R6
	MOV  	acc_y?145+01H,R7
; 		acc_z = adc_read(Z_AXIS);
			; SOURCE LINE # 75
	MOV  	R7,#06H
	LCALL	_adc_read
	MOV  	acc_z?146,R6
	MOV  	acc_z?146+01H,R7
; 		
; 		msg[0] = acc_x & 0x00FF;
			; SOURCE LINE # 77
	MOV  	A,acc_x?144+01H
	MOV  	R0,#LOW (msg?148)
	MOV  	@R0,A
; 		msg[1] = acc_x >> 8;
			; SOURCE LINE # 78
	MOV  	A,acc_x?144
	MOV  	R7,A
	RLC  	A
	SUBB 	A,ACC
	INC  	R0
	MOV  	@R0,AR7
; 
; 		msg[2] = acc_y & 0x00FF;
			; SOURCE LINE # 80
	MOV  	A,acc_y?145+01H
	INC  	R0
	MOV  	@R0,A
; 		msg[3] = acc_y >> 8;
			; SOURCE LINE # 81
	MOV  	A,acc_y?145
	MOV  	R7,A
	RLC  	A
	SUBB 	A,ACC
	INC  	R0
	MOV  	@R0,AR7
; 		
; 		msg[4] = acc_z & 0x00FF;
			; SOURCE LINE # 83
	MOV  	A,acc_z?146+01H
	INC  	R0
	MOV  	@R0,A
; 		msg[5] = acc_z >> 8;
			; SOURCE LINE # 84
	MOV  	A,acc_z?146
	MOV  	R7,A
	RLC  	A
	SUBB 	A,ACC
	INC  	R0
	MOV  	@R0,AR7
; 				
; 		acc_x = adc_read(X_AXIS);
			; SOURCE LINE # 86
	MOV  	R7,#03H
	LCALL	_adc_read
	MOV  	acc_x?144,R6
	MOV  	acc_x?144+01H,R7
; 		acc_y = adc_read(Y_AXIS);
			; SOURCE LINE # 87
	MOV  	R7,#04H
	LCALL	_adc_read
	MOV  	acc_y?145,R6
	MOV  	acc_y?145+01H,R7
; 		acc_z = adc_read(Z_AXIS);
			; SOURCE LINE # 88
	MOV  	R7,#06H
	LCALL	_adc_read
	MOV  	acc_z?146,R6
	MOV  	acc_z?146+01H,R7
; 	
; 		msg[6] = acc_x & 0x00FF;
			; SOURCE LINE # 90
	MOV  	A,acc_x?144+01H
	MOV  	R0,#LOW (msg?148+06H)
	MOV  	@R0,A
; 		msg[7] = acc_x >> 8;
			; SOURCE LINE # 91
	MOV  	A,acc_x?144
	MOV  	R7,A
	RLC  	A
	SUBB 	A,ACC
	INC  	R0
	MOV  	@R0,AR7
; 
; 		msg[8] = acc_y & 0x00FF;
			; SOURCE LINE # 93
	MOV  	A,acc_y?145+01H
	INC  	R0
	MOV  	@R0,A
; 		msg[9] = acc_y >> 8;
			; SOURCE LINE # 94
	MOV  	A,acc_y?145
	MOV  	R7,A
	RLC  	A
	SUBB 	A,ACC
	INC  	R0
	MOV  	@R0,AR7
; 		
; 		msg[10] = acc_z & 0x00FF;
			; SOURCE LINE # 96
	MOV  	A,acc_z?146+01H
	INC  	R0
	MOV  	@R0,A
; 		msg[11] = acc_z >> 8;
			; SOURCE LINE # 97
	MOV  	A,acc_z?146
	MOV  	R7,A
	RLC  	A
	SUBB 	A,ACC
	INC  	R0
	MOV  	@R0,AR7
; 		
; 		acc_x = adc_read(X_AXIS);
			; SOURCE LINE # 99
	MOV  	R7,#03H
	LCALL	_adc_read
	MOV  	acc_x?144,R6
	MOV  	acc_x?144+01H,R7
; 		acc_y = adc_read(Y_AXIS);
			; SOURCE LINE # 100
	MOV  	R7,#04H
	LCALL	_adc_read
	MOV  	acc_y?145,R6
	MOV  	acc_y?145+01H,R7
; 		acc_z = adc_read(Z_AXIS);
			; SOURCE LINE # 101
	MOV  	R7,#06H
	LCALL	_adc_read
	MOV  	acc_z?146,R6
	MOV  	acc_z?146+01H,R7
; 	
; 		msg[12] = acc_x & 0x00FF;
			; SOURCE LINE # 103
	MOV  	A,acc_x?144+01H
	MOV  	R0,#LOW (msg?148+0CH)
	MOV  	@R0,A
; 		msg[13] = acc_x >> 8;
			; SOURCE LINE # 104
	MOV  	A,acc_x?144
	MOV  	R7,A
	INC  	R0
	MOV  	@R0,AR7
; 
; 		msg[14] = acc_y & 0x00FF;
			; SOURCE LINE # 106
	MOV  	A,acc_y?145+01H
	INC  	R0
	MOV  	@R0,A
; 		msg[15] = acc_y >> 8;
			; SOURCE LINE # 107
	MOV  	A,acc_y?145
	MOV  	R7,A
	INC  	R0
	MOV  	@R0,AR7
; 		
; 		msg[16] = acc_z & 0x00FF;
			; SOURCE LINE # 109
	MOV  	A,acc_z?146+01H
	INC  	R0
	MOV  	@R0,A
; 		msg[17] = acc_z >> 8;
			; SOURCE LINE # 110
	MOV  	A,acc_z?146
	MOV  	R7,A
	INC  	R0
	MOV  	@R0,AR7
; 
; 		delta_compress(msg,18);
			; SOURCE LINE # 112
	MOV  	R3,#00H
	MOV  	R2,#HIGH (msg?148)
	MOV  	R1,#LOW (msg?148)
	MOV  	R5,#012H
	MOV  	R4,#00H
	LCALL	_delta_compress
; 
; 		rf_send(dst_addr, 3, s_data, 28);
			; SOURCE LINE # 114
	MOV  	?_rf_send?BYTE+04H,#00H
	MOV  	?_rf_send?BYTE+05H,#HIGH (s_data)
	MOV  	?_rf_send?BYTE+06H,#LOW (s_data)
	MOV  	?_rf_send?BYTE+07H,#01CH
	MOV  	R3,#00H
	MOV  	R2,#HIGH (dst_addr)
	MOV  	R1,#LOW (dst_addr)
	MOV  	R5,#03H
	LCALL	_rf_send
; 
; 		mdelay(200);
			; SOURCE LINE # 116
	MOV  	R7,#0C8H
	MOV  	R6,#00H
	LCALL	_mdelay
; 		blink_led();
			; SOURCE LINE # 117
	XRL  	P0,#020H
; 		//mdelay(200);
; 	}
			; SOURCE LINE # 119
	LJMP 	?C0010
; END OF main

	END
