LX51 LINKER/LOCATER V4.34a                                                              04/30/2009  14:47:59  PAGE 1


LX51 LINKER/LOCATER V4.34a, INVOKED BY:
C:\KEIL\C51\BIN\LX51.EXE MAIN.OBJ, ISR_RF.OBJ, ECO_PAGE.OBJ, ADC.OBJ, UTILS.OBJ, SERIAL.OBJ, SPI.OBJ, EEPROM.OBJ, C51S.L
>> IB, C51FPL.LIB TO MAIN


CPU MODE:     8051 MODE


INPUT MODULES INCLUDED:
  MAIN.OBJ (MAIN)
         COMMENT TYPE 0: AX51 V3.06a
  ISR_RF.OBJ (ISR_RF)
         COMMENT TYPE 0: AX51 V3.06a
  ECO_PAGE.OBJ (ECO_PAGE)
         COMMENT TYPE 0: AX51 V3.06a
  ADC.OBJ (ADC)
         COMMENT TYPE 0: AX51 V3.06a
  UTILS.OBJ (UTILS)
         COMMENT TYPE 0: AX51 V3.06a
  SERIAL.OBJ (SERIAL)
         COMMENT TYPE 0: AX51 V3.06a
  SPI.OBJ (SPI)
         COMMENT TYPE 0: AX51 V3.06a
  EEPROM.OBJ (EEPROM)
         COMMENT TYPE 0: AX51 V3.06a
  C51S.LIB (?C_STARTUP)
         COMMENT TYPE 1: A51 / ASM51 Assembler
  C51S.LIB (?C?CLDPTR)
         COMMENT TYPE 1: A51 / ASM51 Assembler
  C51S.LIB (?C?CLDOPTR)
         COMMENT TYPE 1: A51 / ASM51 Assembler
  C51S.LIB (?C?CSTPTR)
         COMMENT TYPE 1: A51 / ASM51 Assembler
  C51S.LIB (?C?UIDIV)
         COMMENT TYPE 1: A51 / ASM51 Assembler
  C51S.LIB (?C?LMUL)
         COMMENT TYPE 1: A51 / ASM51 Assembler
  C51S.LIB (?C?ULDIV)
         COMMENT TYPE 1: A51 / ASM51 Assembler
  C51S.LIB (?C?ICASE)
         COMMENT TYPE 1: A51 / ASM51 Assembler
  C51S.LIB (?C_IBP)
         COMMENT TYPE 1: A51 / ASM51 Assembler
  C51S.LIB (?C_INIT)
         COMMENT TYPE 1: A51 / ASM51 Assembler
  C51FPL.LIB (?C?FPCMP)
         COMMENT TYPE 1: A51 / ASM51 Assembler
  C51FPL.LIB (?C?FCAST)
         COMMENT TYPE 1: A51 / ASM51 Assembler
  C51FPL.LIB (?C?CASTF)
         COMMENT TYPE 1: A51 / ASM51 Assembler
  C51FPL.LIB (LOG)
         COMMENT TYPE 1: A51 / ASM51 Assembler
  C51FPL.LIB (?C?FPGETOPN)
         COMMENT TYPE 1: A51 / ASM51 Assembler
  C51FPL.LIB (?C?FPADD)
         COMMENT TYPE 1: A51 / ASM51 Assembler
  C51FPL.LIB (?C?FPMUL)
         COMMENT TYPE 1: A51 / ASM51 Assembler
  C51FPL.LIB (?C?FPDIV)
         COMMENT TYPE 1: A51 / ASM51 Assembler
  C51FPL.LIB (?C?FPSERIES)
         COMMENT TYPE 1: A51 / ASM51 Assembler
  C51S.LIB (?C?LNEG)
         COMMENT TYPE 1: A51 / ASM51 Assembler
  C51S.LIB (?C?LLDCODE)
LX51 LINKER/LOCATER V4.34a                                                            04/30/2009  14:47:59  PAGE 2


         COMMENT TYPE 1: A51 / ASM51 Assembler
  C51S.LIB (?C?LLDXDATA0)
         COMMENT TYPE 1: A51 / ASM51 Assembler
  C51S.LIB (?C?LLDCODE0)
         COMMENT TYPE 1: A51 / ASM51 Assembler
  C51S.LIB (?C?LSTXDATA)
         COMMENT TYPE 1: A51 / ASM51 Assembler


ACTIVE MEMORY CLASSES OF MODULE:  MAIN (MAIN)

BASE        START       END         USED      MEMORY CLASS
==========================================================
C:000000H   C:000000H   C:00FFFFH   000F4DH   CODE
I:000000H   I:000000H   I:00007FH   00007FH   DATA
I:000000H   I:000000H   I:0000FFH   000046H   IDATA
I:000020H.0 I:000020H.0 I:00002FH.7 000000H.1 BIT
X:000000H   X:000000H   X:00FFFFH   000004H   XDATA


MEMORY MAP OF MODULE:  MAIN (MAIN)


START     STOP      LENGTH    ALIGN  RELOC    MEMORY CLASS   SEGMENT NAME
=========================================================================

* * * * * * * * * * *   D A T A   M E M O R Y   * * * * * * * * * * * * *
000000H   000007H   000008H   ---    AT..     DATA           "REG BANK 0"
000008H   00001FH   000018H   BYTE   UNIT     DATA           ?DT?ISR_RF
000020H.0 000020H.0 000000H.1 BIT    UNIT     BIT            ?BI?LOG?LOG
000020H.1 000020H   000000H.7 ---    ---      **GAP**
000021H   000035H   000015H   BYTE   UNIT     DATA           ?DT?MAIN
000036H   000040H   00000BH   BYTE   UNIT     DATA           ?DT?_DELTA_COMPRESS?MAIN
000041H   00004AH   00000AH   BYTE   UNIT     DATA           ?DT?_RF_SEND?ISR_RF
00004BH   000052H   000008H   BYTE   UNIT     DATA           ?DT?MAIN?MAIN
000053H   00005AH   000008H   BYTE   UNIT     DATA           ?DT?ECO_PAGE
00005BH   000062H   000008H   BYTE   UNIT     DATA           ?DT?_STRNCPY?UTILS
000063H   000068H   000006H   BYTE   UNIT     DATA           ?DT?ECO_PAGE_MANAGER?ECO_PAGE
000069H   00006DH   000005H   BYTE   UNIT     DATA           ?DT?_RF_CONFIGURE?ISR_RF
00006EH   000071H   000004H   BYTE   UNIT     DATA           ?DT?UTILS
000072H   000074H   000003H   BYTE   UNIT     DATA           ?DT?_PUTS?SERIAL
000075H   000077H   000003H   BYTE   UNIT     DATA           ?DT?_EEPROM_WRITE?EEPROM
000078H   00007AH   000003H   BYTE   UNIT     DATA           ?DT?_EEPROM_READ?EEPROM
00007BH   00007CH   000002H   BYTE   UNIT     DATA           ?DT?RF_CH1_RECV?ISR_RF
00007DH   00007EH   000002H   BYTE   UNIT     DATA           ?DT?_MDELAY?UTILS
00007FH   00007FH   000001H   BYTE   UNIT     DATA           ?C?LIB_DATA
000080H   00009BH   00001CH   BYTE   UNIT     IDATA          ?ID?MAIN
00009CH   0000B2H   000017H   BYTE   UNIT     IDATA          ?ID?ECO_PAGE
0000B3H   0000C4H   000012H   BYTE   UNIT     IDATA          ?ID?MAIN?MAIN
0000C5H   0000C5H   000001H   BYTE   UNIT     IDATA          ?STACK

* * * * * * * * * * *   C O D E   M E M O R Y   * * * * * * * * * * * * *
000000H   000002H   000003H   ---    OFFS..   CODE           ?CO??C_STARTUP?0
000003H   00004FH   00004DH   BYTE   UNIT     CODE           ?PR?P_ADC_READ?ADC
000050H   000052H   000003H   BYTE   UNIT     CODE           ?PR?_PUTC?SERIAL
000053H   000055H   000003H   ---    OFFS..   CODE           ?CO?ISR_RF?11
000056H   0006A9H   000654H   BYTE   UNIT     CODE           ?C?LIB_CODE
0006AAH   00080CH   000163H   BYTE   UNIT     CODE           ?PR?ECO_PAGE_MANAGER?ECO_PAGE
00080DH   00094DH   000141H   BYTE   UNIT     CODE           ?PR?MAIN?MAIN
00094EH   000A76H   000129H   BYTE   UNIT     CODE           ?PR?LOG?LOG
000A77H   000B17H   0000A1H   BYTE   UNIT     CODE           ?PR?_DELTA_COMPRESS?MAIN
000B18H   000BA3H   00008CH   BYTE   UNIT     CODE           ?C_C51STARTUP
000BA4H   000C0EH   00006BH   BYTE   UNIT     CODE           ?PR?_RF_SEND?ISR_RF
000C0FH   000C6EH   000060H   BYTE   UNIT     CODE           ?PR?RF_CH1_RECV?ISR_RF
000C6FH   000CB7H   000049H   BYTE   UNIT     CODE           ?PR?_MDELAY?UTILS
LX51 LINKER/LOCATER V4.34a                                                            04/30/2009  14:47:59  PAGE 3


000CB8H   000CFBH   000044H   BYTE   UNIT     CODE           ?PR?_STRNCPY?UTILS
000CFCH   000D38H   00003DH   BYTE   UNIT     CODE           ?PR?_SETUP_BAUDRATE?SERIAL
000D39H   000D73H   00003BH   BYTE   UNIT     CODE           ?PR?_EEPROM_WRITE?EEPROM
000D74H   000DADH   00003AH   BYTE   UNIT     CODE           ?PR?_?INT_PRINT?SERIAL
000DAEH   000DE3H   000036H   BYTE   UNIT     CODE           ?C_INITSEG
000DE4H   000E19H   000036H   BYTE   UNIT     CODE           ?PR?_RF_CONFIGURE?ISR_RF
000E1AH   000E45H   00002CH   BYTE   UNIT     CODE           ?PR?_EEPROM_READ?EEPROM
000E46H   000E6AH   000025H   BYTE   UNIT     CODE           ?PR?_PUTS?SERIAL
000E6BH   000E8DH   000023H   BYTE   UNIT     CODE           ?PR?FLASH_ERASE_ALL?EEPROM
000E8EH   000EA8H   00001BH   BYTE   UNIT     CODE           ?PR?_ADC_READ?ADC
000EA9H   000EBBH   000013H   BYTE   UNIT     CODE           ?PR?_ADC_INIT?ADC
000EBCH   000ECDH   000012H   BYTE   UNIT     CODE           ?PR?_WDT_LOAD?UTILS
000ECEH   000EDEH   000011H   BYTE   UNIT     CODE           ?PR?ECO_PAGE_INIT?ECO_PAGE
000EDFH   000EEDH   00000FH   BYTE   UNIT     CODE           ?PR?EEPROM_STATUS?EEPROM
000EEEH   000EFBH   00000EH   BYTE   UNIT     CODE           ?PR?RF_INIT?ISR_RF
000EFCH   000F08H   00000DH   BYTE   UNIT     CODE           ?PR?_STORE_CPU_RATE?UTILS
000F09H   000F15H   00000DH   BYTE   UNIT     CODE           ?PR?_SPI_WRITE_THEN_READ?SPI
000F16H   000F20H   00000BH   BYTE   UNIT     CODE           ?PR?EEPROM_INIT?EEPROM
000F21H   000F2AH   00000AH   BYTE   UNIT     CODE           ?PR?_SERIAL_INIT?SERIAL
000F2BH   000F33H   000009H   BYTE   UNIT     CODE           ?PR?RF_WAIT_MSG?ISR_RF
000F34H   000F3BH   000008H   BYTE   UNIT     CODE           ?PR?_SERIAL_WRITE?SERIAL
000F3CH   000F43H   000008H   BYTE   UNIT     CODE           ?PR?SERIAL_READ?SERIAL
000F44H   000F48H   000005H   BYTE   UNIT     CODE           ?PR?_SPI_INIT?SPI
000F49H   000F4CH   000004H   BYTE   UNIT     CODE           ?PR?GETC?SERIAL

* * * * * * * * * * *  X D A T A   M E M O R Y  * * * * * * * * * * * * *
000000H   000003H   000004H   BYTE   UNIT     XDATA          ?XD?LOG?LOG



PUBLIC SYMBOLS OF MODULE:  MAIN (MAIN)


      VALUE       CLASS    TYPE      PUBLIC SYMBOL NAME
      =================================================
      00000041H   DATA     BYTE      ?_RF_SEND?BYTE
      0000005BH   DATA     BYTE      ?_STRNCPY?BYTE
      010002F8H   CODE     ---       ?C?CASTF
      0100006FH   CODE     ---       ?C?CLDOPTR
      01000056H   CODE     ---       ?C?CLDPTR
      00000000H   NUMBER   ---       ?C?CODESEG
      0100009CH   CODE     ---       ?C?CSTPTR
      010002C4H   CODE     ---       ?C?FCASTC
      010002BFH   CODE     ---       ?C?FCASTI
      010002BAH   CODE     ---       ?C?FCASTL
      01000617H   CODE     ---       ?C?FP2SERIES
      01000380H   CODE     ---       ?C?FPADD
      0100024FH   CODE     ---       ?C?FPCMP
      0100024DH   CODE     ---       ?C?FPCMP3
      0100057AH   CODE     ---       ?C?FPDIV
      0100032FH   CODE     ---       ?C?FPGETOPN2
      01000471H   CODE     ---       ?C?FPMUL
      01000364H   CODE     ---       ?C?FPNANRESULT
      0100036EH   CODE     ---       ?C?FPOVERFLOW
      01000346H   CODE     ---       ?C?FPRESULT
      0100035AH   CODE     ---       ?C?FPRESULT2
      01000626H   CODE     ---       ?C?FPSERIES
      0100037CH   CODE     ---       ?C?FPSUB
      0100036BH   CODE     ---       ?C?FPUNDERFLOW
      01000220H   CODE     ---       ?C?ICASE
      01000672H   CODE     ---       ?C?LLDCODE
      0100068EH   CODE     ---       ?C?LLDCODE0
      01000682H   CODE     ---       ?C?LLDXDATA0
      01000103H   CODE     ---       ?C?LMUL
      01000664H   CODE     ---       ?C?LNEG
LX51 LINKER/LOCATER V4.34a                                                            04/30/2009  14:47:59  PAGE 4


      0100069EH   CODE     ---       ?C?LSTXDATA
      010000AEH   CODE     ---       ?C?UIDIV
      0100018EH   CODE     ---       ?C?ULDIV
      00000000H   NUMBER   ---       ?C?XDATASEG
      0000007FH   DATA     ---       ?C_IBP
      01000B5FH   CODE     ---       ?C_START
      01000000H   CODE     ---       ?C_STARTUP
      01000D74H   CODE     NEAR LAB  _?INT_PRINT
      01000EA9H   CODE     NEAR LAB  _ADC_INIT
      01000E8EH   CODE     NEAR LAB  _ADC_READ
      01000A77H   CODE     NEAR LAB  _DELTA_COMPRESS
      01000E1AH   CODE     NEAR LAB  _EEPROM_READ
      01000D39H   CODE     NEAR LAB  _EEPROM_WRITE
      01000982H   CODE     ---       _LOG
      0100097EH   CODE     ---       _LOG10
      01000C6FH   CODE     NEAR LAB  _MDELAY
      01000050H   CODE     NEAR LAB  _PUTC
      01000E46H   CODE     NEAR LAB  _PUTS
      01000DE4H   CODE     NEAR LAB  _RF_CONFIGURE
      01000BA4H   CODE     NEAR LAB  _RF_SEND
      01000F21H   CODE     NEAR LAB  _SERIAL_INIT
      01000F44H   CODE     NEAR LAB  _SPI_INIT
      01000F09H   CODE     NEAR LAB  _SPI_WRITE_THEN_READ
      01000EFCH   CODE     NEAR LAB  _STORE_CPU_RATE
      01000CB8H   CODE     NEAR LAB  _STRNCPY
      01000EBCH   CODE     NEAR LAB  _WDT_LOAD
*SFR* 000000D0H.6 DATA     BIT       AC
*SFR* 000000E0H   DATA     BYTE      ACC
*SFR* 000000A1H   DATA     BYTE      ADCCON
*SFR* 000000A2H   DATA     BYTE      ADCDATAH
*SFR* 000000A3H   DATA     BYTE      ADCDATAL
*SFR* 000000A4H   DATA     BYTE      ADCSTATIC
*SFR* 000000F0H   DATA     BYTE      B
*SFR* 000000C8H.1 DATA     BIT       C_T2
*SFR* 000000A0H.6 DATA     BIT       CE
      00000021H   DATA     BYTE      CFG
*SFR* 000000B6H   DATA     BYTE      CK_CTRL
*SFR* 0000008EH   DATA     BYTE      CKCON
*SFR* 000000A0H.1 DATA     BIT       CLK1
*SFR* 000000A0H.5 DATA     BIT       CLK2
*SFR* 000000C8H   DATA     BIT       CP_RL2
*SFR* 000000C8H   DATA     BIT       CPRL2
*SFR* 000000A0H.3 DATA     BIT       CS
*SFR* 000000C8H.1 DATA     BIT       CT2
*SFR* 000000D0H.7 DATA     BIT       CY
*SFR* 000000A0H   DATA     BIT       DATA?
*SFR* 000000BEH   DATA     BYTE      DEV_OFFSET
*SFR* 00000090H.2 DATA     BIT       DIN0
*SFR* 00000090H   DATA     BIT       DIO0
*SFR* 00000090H.1 DATA     BIT       DIO1
*SFR* 00000080H   DATA     BIT       DIO2
*SFR* 00000080H.1 DATA     BIT       DIO3
*SFR* 00000080H.2 DATA     BIT       DIO4
*SFR* 00000080H.3 DATA     BIT       DIO5
*SFR* 00000080H.4 DATA     BIT       DIO6
*SFR* 00000080H.5 DATA     BIT       DIO7
*SFR* 00000080H.6 DATA     BIT       DIO8
*SFR* 00000080H.7 DATA     BIT       DIO9
*SFR* 000000A0H.4 DATA     BIT       DOUT2
*SFR* 00000083H   DATA     BYTE      DPH
*SFR* 00000083H   DATA     BYTE      DPH0
*SFR* 00000085H   DATA     BYTE      DPH1
*SFR* 00000082H   DATA     BYTE      DPL
*SFR* 00000082H   DATA     BYTE      DPL0
*SFR* 00000084H   DATA     BYTE      DPL1
LX51 LINKER/LOCATER V4.34a                                                            04/30/2009  14:47:59  PAGE 5


*SFR* 00000086H   DATA     BYTE      DPS
*SFR* 000000A0H.2 DATA     BIT       DR1
*SFR* 000000A0H.6 DATA     BIT       DR2
*SFR* 000000A0H.6 DATA     BIT       DR2_CE
      00000024H   DATA     BYTE      DST_ADDR
*SFR* 000000A8H.7 DATA     BIT       EA
      00000058H   DATA     BYTE      ECO_PAGE_ADDR
      01000ECEH   CODE     NEAR LAB  ECO_PAGE_INIT
      010006AAH   CODE     NEAR LAB  ECO_PAGE_MANAGER
      00000054H   DATA     BYTE      ECO_PAGE_PREV_PID
      00000056H   DATA     BYTE      ECO_PAGE_PREV_VID
      000000ACH   IDATA    BYTE      ECO_PAGE_REGISTER1
      000000ADH   IDATA    BYTE      ECO_PAGE_REGISTER2
      000000AEH   IDATA    BYTE      ECO_PAGE_REGISTER3
      000000AFH   IDATA    BYTE      ECO_PAGE_REGISTER4
      000000B0H   IDATA    BYTE      ECO_PAGE_REGISTER5
      000000B1H   IDATA    BYTE      ECO_PAGE_REGISTER6
      000000B2H   IDATA    BYTE      ECO_PAGE_REGISTER7
      00000053H   DATA     BYTE      ECO_PAGE_SPI_CONN
      0000009CH   IDATA    BYTE      ECO_PAGE_TABLE
      0000005AH   DATA     BYTE      ECO_PAGE_TABLE_INDEX
      01000F16H   CODE     NEAR LAB  EEPROM_INIT
      01000EDFH   CODE     NEAR LAB  EEPROM_STATUS
*SFR* 000000D8H   DATA     BYTE      EICON
*SFR* 000000E8H   DATA     BYTE      EIE
*SFR* 000000F8H   DATA     BYTE      EIP
*SFR* 000000A8H.4 DATA     BIT       ES
*SFR* 000000A8H.1 DATA     BIT       ET0
*SFR* 000000A8H.3 DATA     BIT       ET1
*SFR* 000000A8H.5 DATA     BIT       ET2
*SFR* 000000E8H.4 DATA     BIT       EWDI
*SFR* 000000A8H   DATA     BIT       EX0
*SFR* 000000A8H.2 DATA     BIT       EX1
*SFR* 000000E8H   DATA     BIT       EX2
*SFR* 000000E8H.1 DATA     BIT       EX3
*SFR* 000000E8H.2 DATA     BIT       EX4
*SFR* 000000E8H.3 DATA     BIT       EX5
*SFR* 000000C8H.3 DATA     BIT       EXEN2
*SFR* 000000C8H.6 DATA     BIT       EXF2
*SFR* 00000091H   DATA     BYTE      EXIF
*SFR* 000000D0H.5 DATA     BIT       F0
*SFR* 000000D0H.1 DATA     BIT       F1
      01000E6BH   CODE     NEAR LAB  FLASH_ERASE_ALL
      01000F49H   CODE     NEAR LAB  GETC
*SFR* 000000A8H   DATA     BYTE      IE
*SFR* 00000088H.1 DATA     BIT       IE0
*SFR* 00000088H.3 DATA     BIT       IE1
*SFR* 00000080H.3 DATA     BIT       INT0_N
*SFR* 00000080H.4 DATA     BIT       INT1_N
*SFR* 000000B8H   DATA     BYTE      IP
*SFR* 00000088H   DATA     BIT       IT0
*SFR* 00000088H.2 DATA     BIT       IT1
      0100080DH   CODE     NEAR LAB  MAIN
      0000006EH   DATA     BYTE      MHZ
*SFR* 00000092H   DATA     BYTE      MPAGE
*SFR* 000000D0H.2 DATA     BIT       OV
*SFR* 000000D0H   DATA     BIT       P
*SFR* 00000080H   DATA     BYTE      P0
*SFR* 00000080H   DATA     BIT       P0_0
*SFR* 00000080H.1 DATA     BIT       P0_1
*SFR* 00000080H.2 DATA     BIT       P0_2
*SFR* 00000080H.3 DATA     BIT       P0_3
*SFR* 00000080H.4 DATA     BIT       P0_4
*SFR* 00000080H.5 DATA     BIT       P0_5
*SFR* 00000080H.6 DATA     BIT       P0_6
LX51 LINKER/LOCATER V4.34a                                                            04/30/2009  14:47:59  PAGE 6


*SFR* 00000080H.7 DATA     BIT       P0_7
*SFR* 00000095H   DATA     BYTE      P0_ALT
*SFR* 00000094H   DATA     BYTE      P0_DIR
*SFR* 00000090H   DATA     BYTE      P1
*SFR* 00000090H   DATA     BIT       P1_0
*SFR* 00000090H.1 DATA     BIT       P1_1
*SFR* 00000090H.2 DATA     BIT       P1_2
*SFR* 00000097H   DATA     BYTE      P1_ALT
*SFR* 00000096H   DATA     BYTE      P1_DIR
*SFR* 00000087H   DATA     BYTE      PCON
*SFR* 000000B8H.4 DATA     BIT       PS
*SFR* 000000D0H   DATA     BYTE      PSW
*SFR* 000000B8H.1 DATA     BIT       PT0
*SFR* 000000B8H.3 DATA     BIT       PT1
*SFR* 000000B8H.5 DATA     BIT       PT2
*SFR* 000000F8H.4 DATA     BIT       PWDI
*SFR* 00000080H.7 DATA     BIT       PWM
*SFR* 000000A9H   DATA     BYTE      PWMCON
*SFR* 000000AAH   DATA     BYTE      PWMDUTY
*SFR* 000000A0H.7 DATA     BIT       PWR_UP
*SFR* 000000B8H   DATA     BIT       PX0
*SFR* 000000B8H.2 DATA     BIT       PX1
*SFR* 000000F8H   DATA     BIT       PX2
*SFR* 000000F8H.1 DATA     BIT       PX3
*SFR* 000000F8H.2 DATA     BIT       PX4
*SFR* 000000F8H.3 DATA     BIT       PX5
*SFR* 000000A0H   DATA     BYTE      RADIO
*SFR* 00000098H.2 DATA     BIT       RB8
*SFR* 000000CBH   DATA     BYTE      RCAP2H
*SFR* 000000CAH   DATA     BYTE      RCAP2L
*SFR* 000000C8H.5 DATA     BIT       RCLK
*SFR* 000000ADH   DATA     BYTE      REGX_CTRL
*SFR* 000000ACH   DATA     BYTE      REGX_LSB
*SFR* 000000ABH   DATA     BYTE      REGX_MSB
*SFR* 00000098H.4 DATA     BIT       REN
      00000008H   DATA     BYTE      RF_BUF
      01000C0FH   CODE     NEAR LAB  RF_CH1_RECV
      00000027H   DATA     BYTE      RF_DATA
      01000EEEH   CODE     NEAR LAB  RF_INIT
      01000F2BH   CODE     NEAR LAB  RF_WAIT_MSG
*SFR* 00000098H   DATA     BIT       RI
*SFR* 000000D0H.3 DATA     BIT       RS0
*SFR* 000000D0H.4 DATA     BIT       RS1
*SFR* 000000B1H   DATA     BYTE      RSTREAS
*SFR* 00000080H.1 DATA     BIT       RXD
      00000080H   IDATA    BYTE      S_DATA
*SFR* 00000099H   DATA     BYTE      SBUF
*SFR* 00000098H   DATA     BYTE      SCON
*SFR* 00000098H.7 DATA     BIT       SM0
*SFR* 00000098H.6 DATA     BIT       SM1
*SFR* 00000098H.5 DATA     BIT       SM2
*SFR* 00000081H   DATA     BYTE      SP
*SFR* 0000008FH   DATA     BYTE      SPC_FNC
*SFR* 000000B3H   DATA     BYTE      SPI_CTRL
*SFR* 000000B2H   DATA     BYTE      SPI_DATA
*SFR* 000000B4H   DATA     BYTE      SPICLK
*SFR* 00000080H.5 DATA     BIT       T0
*SFR* 00000080H.6 DATA     BIT       T1
*SFR* 000000BCH   DATA     BYTE      T1_1V2
*SFR* 00000090H   DATA     BIT       T2
*SFR* 000000BDH   DATA     BYTE      T2_1V2
*SFR* 000000C8H   DATA     BYTE      T2CON
*SFR* 00000098H.3 DATA     BIT       TB8
*SFR* 000000C8H.4 DATA     BIT       TCLK
*SFR* 00000088H   DATA     BYTE      TCON
LX51 LINKER/LOCATER V4.34a                                                            04/30/2009  14:47:59  PAGE 7


*SFR* 000000B7H   DATA     BYTE      TEST_MODE
*SFR* 00000088H.5 DATA     BIT       TF0
*SFR* 00000088H.7 DATA     BIT       TF1
*SFR* 000000C8H.7 DATA     BIT       TF2
*SFR* 0000008CH   DATA     BYTE      TH0
*SFR* 0000008DH   DATA     BYTE      TH1
*SFR* 000000CDH   DATA     BYTE      TH2
*SFR* 00000098H.1 DATA     BIT       TI
*SFR* 000000B5H   DATA     BYTE      TICK_DV
*SFR* 0000008AH   DATA     BYTE      TL0
*SFR* 0000008BH   DATA     BYTE      TL1
*SFR* 000000CCH   DATA     BYTE      TL2
*SFR* 00000089H   DATA     BYTE      TMOD
*SFR* 00000088H.4 DATA     BIT       TR0
*SFR* 00000088H.6 DATA     BIT       TR1
*SFR* 000000C8H.2 DATA     BIT       TR2
*SFR* 00000080H.2 DATA     BIT       TXD
*SFR* 000000D8H.3 DATA     BIT       WDTI



SYMBOL TABLE OF MODULE:  MAIN (MAIN)

      VALUE       REP       CLASS    TYPE      SYMBOL NAME
      ====================================================
      ---         MODULE    ---      ---       MAIN
      01000A77H   PUBLIC    CODE     NEAR LAB  _DELTA_COMPRESS
      00000021H   PUBLIC    DATA     BYTE      CFG
      00000024H   PUBLIC    DATA     BYTE      DST_ADDR
      0100080DH   PUBLIC    CODE     NEAR LAB  MAIN
      00000027H   PUBLIC    DATA     BYTE      RF_DATA
      00000080H   PUBLIC    IDATA    BYTE      S_DATA
      000000D0H.6 SFRSYM    DATA     BIT       AC
      000000E0H   SFRSYM    DATA     BYTE      ACC
      000000A1H   SFRSYM    DATA     BYTE      ADCCON
      000000A2H   SFRSYM    DATA     BYTE      ADCDATAH
      000000A3H   SFRSYM    DATA     BYTE      ADCDATAL
      000000A4H   SFRSYM    DATA     BYTE      ADCSTATIC
      000000F0H   SFRSYM    DATA     BYTE      B
      000000C8H.1 SFRSYM    DATA     BIT       C_T2
      000000A0H.6 SFRSYM    DATA     BIT       CE
      000000B6H   SFRSYM    DATA     BYTE      CK_CTRL
      0000008EH   SFRSYM    DATA     BYTE      CKCON
      000000A0H.1 SFRSYM    DATA     BIT       CLK1
      000000A0H.5 SFRSYM    DATA     BIT       CLK2
      000000C8H   SFRSYM    DATA     BIT       CP_RL2
      000000C8H   SFRSYM    DATA     BIT       CPRL2
      000000A0H.3 SFRSYM    DATA     BIT       CS
      000000C8H.1 SFRSYM    DATA     BIT       CT2
      000000D0H.7 SFRSYM    DATA     BIT       CY
      000000A0H   SFRSYM    DATA     BIT       DATA?
      000000BEH   SFRSYM    DATA     BYTE      DEV_OFFSET
      00000090H.2 SFRSYM    DATA     BIT       DIN0
      00000090H   SFRSYM    DATA     BIT       DIO0
      00000090H.1 SFRSYM    DATA     BIT       DIO1
      00000080H   SFRSYM    DATA     BIT       DIO2
      00000080H.1 SFRSYM    DATA     BIT       DIO3
      00000080H.2 SFRSYM    DATA     BIT       DIO4
      00000080H.3 SFRSYM    DATA     BIT       DIO5
      00000080H.4 SFRSYM    DATA     BIT       DIO6
      00000080H.5 SFRSYM    DATA     BIT       DIO7
      00000080H.6 SFRSYM    DATA     BIT       DIO8
      00000080H.7 SFRSYM    DATA     BIT       DIO9
      000000A0H.4 SFRSYM    DATA     BIT       DOUT2
      00000083H   SFRSYM    DATA     BYTE      DPH
LX51 LINKER/LOCATER V4.34a                                                            04/30/2009  14:47:59  PAGE 8


      00000083H   SFRSYM    DATA     BYTE      DPH0
      00000085H   SFRSYM    DATA     BYTE      DPH1
      00000082H   SFRSYM    DATA     BYTE      DPL
      00000082H   SFRSYM    DATA     BYTE      DPL0
      00000084H   SFRSYM    DATA     BYTE      DPL1
      00000086H   SFRSYM    DATA     BYTE      DPS
      000000A0H.2 SFRSYM    DATA     BIT       DR1
      000000A0H.6 SFRSYM    DATA     BIT       DR2
      000000A0H.6 SFRSYM    DATA     BIT       DR2_CE
      000000A8H.7 SFRSYM    DATA     BIT       EA
      000000D8H   SFRSYM    DATA     BYTE      EICON
      000000E8H   SFRSYM    DATA     BYTE      EIE
      000000F8H   SFRSYM    DATA     BYTE      EIP
      000000A8H.4 SFRSYM    DATA     BIT       ES
      000000A8H.1 SFRSYM    DATA     BIT       ET0
      000000A8H.3 SFRSYM    DATA     BIT       ET1
      000000A8H.5 SFRSYM    DATA     BIT       ET2
      000000E8H.4 SFRSYM    DATA     BIT       EWDI
      000000A8H   SFRSYM    DATA     BIT       EX0
      000000A8H.2 SFRSYM    DATA     BIT       EX1
      000000E8H   SFRSYM    DATA     BIT       EX2
      000000E8H.1 SFRSYM    DATA     BIT       EX3
      000000E8H.2 SFRSYM    DATA     BIT       EX4
      000000E8H.3 SFRSYM    DATA     BIT       EX5
      000000C8H.3 SFRSYM    DATA     BIT       EXEN2
      000000C8H.6 SFRSYM    DATA     BIT       EXF2
      00000091H   SFRSYM    DATA     BYTE      EXIF
      000000D0H.5 SFRSYM    DATA     BIT       F0
      000000D0H.1 SFRSYM    DATA     BIT       F1
      000000A8H   SFRSYM    DATA     BYTE      IE
      00000088H.1 SFRSYM    DATA     BIT       IE0
      00000088H.3 SFRSYM    DATA     BIT       IE1
      00000080H.3 SFRSYM    DATA     BIT       INT0_N
      00000080H.4 SFRSYM    DATA     BIT       INT1_N
      000000B8H   SFRSYM    DATA     BYTE      IP
      00000088H   SFRSYM    DATA     BIT       IT0
      00000088H.2 SFRSYM    DATA     BIT       IT1
      00000092H   SFRSYM    DATA     BYTE      MPAGE
      000000D0H.2 SFRSYM    DATA     BIT       OV
      000000D0H   SFRSYM    DATA     BIT       P
      00000080H   SFRSYM    DATA     BYTE      P0
      00000080H   SFRSYM    DATA     BIT       P0_0
      00000080H.1 SFRSYM    DATA     BIT       P0_1
      00000080H.2 SFRSYM    DATA     BIT       P0_2
      00000080H.3 SFRSYM    DATA     BIT       P0_3
      00000080H.4 SFRSYM    DATA     BIT       P0_4
      00000080H.5 SFRSYM    DATA     BIT       P0_5
      00000080H.6 SFRSYM    DATA     BIT       P0_6
      00000080H.7 SFRSYM    DATA     BIT       P0_7
      00000095H   SFRSYM    DATA     BYTE      P0_ALT
      00000094H   SFRSYM    DATA     BYTE      P0_DIR
      00000090H   SFRSYM    DATA     BYTE      P1
      00000090H   SFRSYM    DATA     BIT       P1_0
      00000090H.1 SFRSYM    DATA     BIT       P1_1
      00000090H.2 SFRSYM    DATA     BIT       P1_2
      00000097H   SFRSYM    DATA     BYTE      P1_ALT
      00000096H   SFRSYM    DATA     BYTE      P1_DIR
      00000087H   SFRSYM    DATA     BYTE      PCON
      000000B8H.4 SFRSYM    DATA     BIT       PS
      000000D0H   SFRSYM    DATA     BYTE      PSW
      000000B8H.1 SFRSYM    DATA     BIT       PT0
      000000B8H.3 SFRSYM    DATA     BIT       PT1
      000000B8H.5 SFRSYM    DATA     BIT       PT2
      000000F8H.4 SFRSYM    DATA     BIT       PWDI
      00000080H.7 SFRSYM    DATA     BIT       PWM
LX51 LINKER/LOCATER V4.34a                                                            04/30/2009  14:47:59  PAGE 9


      000000A9H   SFRSYM    DATA     BYTE      PWMCON
      000000AAH   SFRSYM    DATA     BYTE      PWMDUTY
      000000A0H.7 SFRSYM    DATA     BIT       PWR_UP
      000000B8H   SFRSYM    DATA     BIT       PX0
      000000B8H.2 SFRSYM    DATA     BIT       PX1
      000000F8H   SFRSYM    DATA     BIT       PX2
      000000F8H.1 SFRSYM    DATA     BIT       PX3
      000000F8H.2 SFRSYM    DATA     BIT       PX4
      000000F8H.3 SFRSYM    DATA     BIT       PX5
      000000A0H   SFRSYM    DATA     BYTE      RADIO
      00000098H.2 SFRSYM    DATA     BIT       RB8
      000000CBH   SFRSYM    DATA     BYTE      RCAP2H
      000000CAH   SFRSYM    DATA     BYTE      RCAP2L
      000000C8H.5 SFRSYM    DATA     BIT       RCLK
      000000ADH   SFRSYM    DATA     BYTE      REGX_CTRL
      000000ACH   SFRSYM    DATA     BYTE      REGX_LSB
      000000ABH   SFRSYM    DATA     BYTE      REGX_MSB
      00000098H.4 SFRSYM    DATA     BIT       REN
      00000098H   SFRSYM    DATA     BIT       RI
      000000D0H.3 SFRSYM    DATA     BIT       RS0
      000000D0H.4 SFRSYM    DATA     BIT       RS1
      000000B1H   SFRSYM    DATA     BYTE      RSTREAS
      00000080H.1 SFRSYM    DATA     BIT       RXD
      00000099H   SFRSYM    DATA     BYTE      SBUF
      00000098H   SFRSYM    DATA     BYTE      SCON
      00000098H.7 SFRSYM    DATA     BIT       SM0
      00000098H.6 SFRSYM    DATA     BIT       SM1
      00000098H.5 SFRSYM    DATA     BIT       SM2
      00000081H   SFRSYM    DATA     BYTE      SP
      0000008FH   SFRSYM    DATA     BYTE      SPC_FNC
      000000B3H   SFRSYM    DATA     BYTE      SPI_CTRL
      000000B2H   SFRSYM    DATA     BYTE      SPI_DATA
      000000B4H   SFRSYM    DATA     BYTE      SPICLK
      00000080H.5 SFRSYM    DATA     BIT       T0
      00000080H.6 SFRSYM    DATA     BIT       T1
      000000BCH   SFRSYM    DATA     BYTE      T1_1V2
      00000090H   SFRSYM    DATA     BIT       T2
      000000BDH   SFRSYM    DATA     BYTE      T2_1V2
      000000C8H   SFRSYM    DATA     BYTE      T2CON
      00000098H.3 SFRSYM    DATA     BIT       TB8
      000000C8H.4 SFRSYM    DATA     BIT       TCLK
      00000088H   SFRSYM    DATA     BYTE      TCON
      000000B7H   SFRSYM    DATA     BYTE      TEST_MODE
      00000088H.5 SFRSYM    DATA     BIT       TF0
      00000088H.7 SFRSYM    DATA     BIT       TF1
      000000C8H.7 SFRSYM    DATA     BIT       TF2
      0000008CH   SFRSYM    DATA     BYTE      TH0
      0000008DH   SFRSYM    DATA     BYTE      TH1
      000000CDH   SFRSYM    DATA     BYTE      TH2
      00000098H.1 SFRSYM    DATA     BIT       TI
      000000B5H   SFRSYM    DATA     BYTE      TICK_DV
      0000008AH   SFRSYM    DATA     BYTE      TL0
      0000008BH   SFRSYM    DATA     BYTE      TL1
      000000CCH   SFRSYM    DATA     BYTE      TL2
      00000089H   SFRSYM    DATA     BYTE      TMOD
      00000088H.4 SFRSYM    DATA     BIT       TR0
      00000088H.6 SFRSYM    DATA     BIT       TR1
      000000C8H.2 SFRSYM    DATA     BIT       TR2
      00000080H.2 SFRSYM    DATA     BIT       TXD
      000000D8H.3 SFRSYM    DATA     BIT       WDTI
      00000036H   SYMBOL    DATA     BYTE      ?_DELTA_COMPRESS?BYTE
      01000A8DH   SYMBOL    CODE     NEAR LAB  ?C0001
      01000B0CH   SYMBOL    CODE     NEAR LAB  ?C0003
      01000AFAH   SYMBOL    CODE     NEAR LAB  ?C0004
      01000B17H   SYMBOL    CODE     NEAR LAB  ?C0006
LX51 LINKER/LOCATER V4.34a                                                            04/30/2009  14:47:59  PAGE 10


      0100083BH   SYMBOL    CODE     NEAR LAB  ?C0007
      01000856H   SYMBOL    CODE     NEAR LAB  ?C0008
      0100085DH   SYMBOL    CODE     NEAR LAB  ?C0010
      01000B14H   SYMBOL    CODE     NEAR LAB  ?C0013
      0100084DH   SYMBOL    CODE     NEAR LAB  ?C0014
      01000B05H   SYMBOL    CODE     NEAR LAB  ?C0015
      0000004BH   SYMBOL    DATA     BYTE      ?MAIN?BYTE
      0000004DH   SYMBOL    DATA     BYTE      ACC_X?144
      0000004FH   SYMBOL    DATA     BYTE      ACC_Y?145
      00000051H   SYMBOL    DATA     BYTE      ACC_Z?146
      0000003DH   SYMBOL    DATA     BYTE      DELTA?043
      0000003BH   SYMBOL    DATA     BYTE      I?042
      0000004BH   SYMBOL    DATA     BYTE      I?147
      00000039H   SYMBOL    DATA     BYTE      LEN?041
      000000B3H   SYMBOL    IDATA    BYTE      MSG?148
      00000036H   SYMBOL    DATA     BYTE      PTR?040

      01000A77H   BLOCK     CODE     NEAR LAB  LVL=0
      01000A77H   LINE      CODE     ---       #288
      01000A79H   LINE      CODE     ---       #289
      01000A7BH   LINE      CODE     ---       #290
      01000A7DH   LINE      CODE     ---       #291
      01000A7FH   LINE      CODE     ---       #292
      01000A81H   LINE      CODE     ---       #300
      01000A84H   LINE      CODE     ---       #301
      01000A86H   LINE      CODE     ---       #302
      01000A87H   LINE      CODE     ---       #306
      01000A8AH   LINE      CODE     ---       #307
      01000A8DH   LINE      CODE     ---       #309
      01000A8EH   LINE      CODE     ---       #310
      01000A90H   LINE      CODE     ---       #311
      01000A92H   LINE      CODE     ---       #312
      01000A94H   LINE      CODE     ---       #313
      01000A96H   LINE      CODE     ---       #314
      01000A97H   LINE      CODE     ---       #315
      01000A99H   LINE      CODE     ---       #316
      01000A9BH   LINE      CODE     ---       #317
      01000A9CH   LINE      CODE     ---       #318
      01000A9EH   LINE      CODE     ---       #323
      01000AA0H   LINE      CODE     ---       #324
      01000AA2H   LINE      CODE     ---       #325
      01000AA4H   LINE      CODE     ---       #326
      01000AA6H   LINE      CODE     ---       #327
      01000AA8H   LINE      CODE     ---       #328
      01000AA9H   LINE      CODE     ---       #329
      01000AABH   LINE      CODE     ---       #330
      01000AADH   LINE      CODE     ---       #331
      01000AAFH   LINE      CODE     ---       #332
      01000AB1H   LINE      CODE     ---       #333
      01000AB4H   LINE      CODE     ---       #334
      01000AB5H   LINE      CODE     ---       #335
      01000AB6H   LINE      CODE     ---       #336
      01000AB8H   LINE      CODE     ---       #337
      01000AB9H   LINE      CODE     ---       #338
      01000ABCH   LINE      CODE     ---       #339
      01000ABFH   LINE      CODE     ---       #340
      01000AC2H   LINE      CODE     ---       #341
      01000AC3H   LINE      CODE     ---       #342
      01000AC4H   LINE      CODE     ---       #343
      01000AC6H   LINE      CODE     ---       #344
      01000AC7H   LINE      CODE     ---       #345
      01000AC8H   LINE      CODE     ---       #346
      01000AC9H   LINE      CODE     ---       #347
      01000ACAH   LINE      CODE     ---       #348
      01000ACBH   LINE      CODE     ---       #349
LX51 LINKER/LOCATER V4.34a                                                            04/30/2009  14:47:59  PAGE 11


      01000ACCH   LINE      CODE     ---       #350
      01000ACDH   LINE      CODE     ---       #351
      01000ACEH   LINE      CODE     ---       #352
      01000AD1H   LINE      CODE     ---       #353
      01000AD3H   LINE      CODE     ---       #354
      01000AD5H   LINE      CODE     ---       #355
      01000AD7H   LINE      CODE     ---       #356
      01000AD9H   LINE      CODE     ---       #360
      01000ADCH   LINE      CODE     ---       #361
      01000ADDH   LINE      CODE     ---       #362
      01000ADEH   LINE      CODE     ---       #363
      01000ADFH   LINE      CODE     ---       #364
      01000AE1H   LINE      CODE     ---       #365
      01000AE3H   LINE      CODE     ---       #366
      01000AE6H   LINE      CODE     ---       #367
      01000AE8H   LINE      CODE     ---       #372
      01000AEAH   LINE      CODE     ---       #373
      01000AECH   LINE      CODE     ---       #374
      01000AEEH   LINE      CODE     ---       #375
      01000AF1H   LINE      CODE     ---       #376
      01000AF4H   LINE      CODE     ---       #377
      01000AF7H   LINE      CODE     ---       #378
      01000AF8H   LINE      CODE     ---       #381
      01000AFAH   LINE      CODE     ---       #388
      01000AFCH   LINE      CODE     ---       #389
      01000AFEH   LINE      CODE     ---       #390
      01000B00H   LINE      CODE     ---       #391
      01000B02H   LINE      CODE     ---       #392
      01000B05H   LINE      CODE     ---       #394
      01000B07H   LINE      CODE     ---       #395
      01000B09H   LINE      CODE     ---       #396
      01000B0AH   LINE      CODE     ---       #397
      01000B0CH   LINE      CODE     ---       #403
      01000B0EH   LINE      CODE     ---       #404
      01000B10H   LINE      CODE     ---       #405
      01000B12H   LINE      CODE     ---       #406
      01000B14H   LINE      CODE     ---       #408
      01000B17H   LINE      CODE     ---       #412
      ---         BLOCKEND  ---      ---       LVL=0

      0100080DH   BLOCK     CODE     NEAR LAB  LVL=0
      0100080DH   LINE      CODE     ---       #426
      0100080EH   LINE      CODE     ---       #427
      01000810H   LINE      CODE     ---       #428
      01000812H   LINE      CODE     ---       #432
      01000814H   LINE      CODE     ---       #433
      01000815H   LINE      CODE     ---       #434
      01000818H   LINE      CODE     ---       #437
      0100081BH   LINE      CODE     ---       #440
      0100081EH   LINE      CODE     ---       #444
      01000820H   LINE      CODE     ---       #445
      01000822H   LINE      CODE     ---       #446
      01000824H   LINE      CODE     ---       #447
      01000827H   LINE      CODE     ---       #451
      0100082AH   LINE      CODE     ---       #454
      0100082CH   LINE      CODE     ---       #455
      0100082EH   LINE      CODE     ---       #456
      01000830H   LINE      CODE     ---       #457
      01000833H   LINE      CODE     ---       #461
      01000836H   LINE      CODE     ---       #465
      01000837H   LINE      CODE     ---       #466
      01000839H   LINE      CODE     ---       #467
      0100083BH   LINE      CODE     ---       #473
      0100083EH   LINE      CODE     ---       #476
      01000840H   LINE      CODE     ---       #477
LX51 LINKER/LOCATER V4.34a                                                            04/30/2009  14:47:59  PAGE 12


      01000842H   LINE      CODE     ---       #478
      01000845H   LINE      CODE     ---       #481
      01000847H   LINE      CODE     ---       #482
      01000849H   LINE      CODE     ---       #483
      0100084BH   LINE      CODE     ---       #484
      0100084DH   LINE      CODE     ---       #486
      0100084EH   LINE      CODE     ---       #487
      01000850H   LINE      CODE     ---       #488
      01000852H   LINE      CODE     ---       #489
      01000854H   LINE      CODE     ---       #490
      01000856H   LINE      CODE     ---       #495
      01000858H   LINE      CODE     ---       #496
      0100085AH   LINE      CODE     ---       #497
      0100085DH   LINE      CODE     ---       #509
      0100085FH   LINE      CODE     ---       #510
      01000862H   LINE      CODE     ---       #511
      01000864H   LINE      CODE     ---       #512
      01000866H   LINE      CODE     ---       #515
      01000868H   LINE      CODE     ---       #516
      0100086BH   LINE      CODE     ---       #517
      0100086DH   LINE      CODE     ---       #518
      0100086FH   LINE      CODE     ---       #521
      01000871H   LINE      CODE     ---       #522
      01000874H   LINE      CODE     ---       #523
      01000876H   LINE      CODE     ---       #524
      01000878H   LINE      CODE     ---       #528
      0100087AH   LINE      CODE     ---       #529
      0100087CH   LINE      CODE     ---       #530
      0100087DH   LINE      CODE     ---       #533
      0100087FH   LINE      CODE     ---       #534
      01000880H   LINE      CODE     ---       #535
      01000881H   LINE      CODE     ---       #536
      01000883H   LINE      CODE     ---       #537
      01000884H   LINE      CODE     ---       #538
      01000886H   LINE      CODE     ---       #542
      01000888H   LINE      CODE     ---       #543
      01000889H   LINE      CODE     ---       #544
      0100088AH   LINE      CODE     ---       #547
      0100088CH   LINE      CODE     ---       #548
      0100088DH   LINE      CODE     ---       #549
      0100088EH   LINE      CODE     ---       #550
      01000890H   LINE      CODE     ---       #551
      01000891H   LINE      CODE     ---       #552
      01000893H   LINE      CODE     ---       #556
      01000895H   LINE      CODE     ---       #557
      01000896H   LINE      CODE     ---       #558
      01000897H   LINE      CODE     ---       #561
      01000899H   LINE      CODE     ---       #562
      0100089AH   LINE      CODE     ---       #563
      0100089BH   LINE      CODE     ---       #564
      0100089DH   LINE      CODE     ---       #565
      0100089EH   LINE      CODE     ---       #566
      010008A0H   LINE      CODE     ---       #570
      010008A2H   LINE      CODE     ---       #571
      010008A5H   LINE      CODE     ---       #572
      010008A7H   LINE      CODE     ---       #573
      010008A9H   LINE      CODE     ---       #576
      010008ABH   LINE      CODE     ---       #577
      010008AEH   LINE      CODE     ---       #578
      010008B0H   LINE      CODE     ---       #579
      010008B2H   LINE      CODE     ---       #582
      010008B4H   LINE      CODE     ---       #583
      010008B7H   LINE      CODE     ---       #584
      010008B9H   LINE      CODE     ---       #585
      010008BBH   LINE      CODE     ---       #589
LX51 LINKER/LOCATER V4.34a                                                            04/30/2009  14:47:59  PAGE 13


      010008BDH   LINE      CODE     ---       #590
      010008BFH   LINE      CODE     ---       #591
      010008C0H   LINE      CODE     ---       #594
      010008C2H   LINE      CODE     ---       #595
      010008C3H   LINE      CODE     ---       #596
      010008C4H   LINE      CODE     ---       #597
      010008C6H   LINE      CODE     ---       #598
      010008C7H   LINE      CODE     ---       #599
      010008C9H   LINE      CODE     ---       #603
      010008CBH   LINE      CODE     ---       #604
      010008CCH   LINE      CODE     ---       #605
      010008CDH   LINE      CODE     ---       #608
      010008CFH   LINE      CODE     ---       #609
      010008D0H   LINE      CODE     ---       #610
      010008D1H   LINE      CODE     ---       #611
      010008D3H   LINE      CODE     ---       #612
      010008D4H   LINE      CODE     ---       #613
      010008D6H   LINE      CODE     ---       #617
      010008D8H   LINE      CODE     ---       #618
      010008D9H   LINE      CODE     ---       #619
      010008DAH   LINE      CODE     ---       #622
      010008DCH   LINE      CODE     ---       #623
      010008DDH   LINE      CODE     ---       #624
      010008DEH   LINE      CODE     ---       #625
      010008E0H   LINE      CODE     ---       #626
      010008E1H   LINE      CODE     ---       #627
      010008E3H   LINE      CODE     ---       #631
      010008E5H   LINE      CODE     ---       #632
      010008E8H   LINE      CODE     ---       #633
      010008EAH   LINE      CODE     ---       #634
      010008ECH   LINE      CODE     ---       #637
      010008EEH   LINE      CODE     ---       #638
      010008F1H   LINE      CODE     ---       #639
      010008F3H   LINE      CODE     ---       #640
      010008F5H   LINE      CODE     ---       #643
      010008F7H   LINE      CODE     ---       #644
      010008FAH   LINE      CODE     ---       #645
      010008FCH   LINE      CODE     ---       #646
      010008FEH   LINE      CODE     ---       #650
      01000900H   LINE      CODE     ---       #651
      01000902H   LINE      CODE     ---       #652
      01000903H   LINE      CODE     ---       #655
      01000905H   LINE      CODE     ---       #656
      01000906H   LINE      CODE     ---       #657
      01000907H   LINE      CODE     ---       #658
      01000909H   LINE      CODE     ---       #662
      0100090BH   LINE      CODE     ---       #663
      0100090CH   LINE      CODE     ---       #664
      0100090DH   LINE      CODE     ---       #667
      0100090FH   LINE      CODE     ---       #668
      01000910H   LINE      CODE     ---       #669
      01000911H   LINE      CODE     ---       #670
      01000913H   LINE      CODE     ---       #674
      01000915H   LINE      CODE     ---       #675
      01000916H   LINE      CODE     ---       #676
      01000917H   LINE      CODE     ---       #679
      01000919H   LINE      CODE     ---       #680
      0100091AH   LINE      CODE     ---       #681
      0100091BH   LINE      CODE     ---       #682
      0100091DH   LINE      CODE     ---       #686
      0100091FH   LINE      CODE     ---       #687
      01000921H   LINE      CODE     ---       #688
      01000923H   LINE      CODE     ---       #689
      01000925H   LINE      CODE     ---       #690
      01000927H   LINE      CODE     ---       #691
LX51 LINKER/LOCATER V4.34a                                                            04/30/2009  14:47:59  PAGE 14


      0100092AH   LINE      CODE     ---       #695
      0100092DH   LINE      CODE     ---       #696
      01000930H   LINE      CODE     ---       #697
      01000933H   LINE      CODE     ---       #698
      01000936H   LINE      CODE     ---       #699
      01000938H   LINE      CODE     ---       #700
      0100093AH   LINE      CODE     ---       #701
      0100093CH   LINE      CODE     ---       #702
      0100093EH   LINE      CODE     ---       #703
      01000941H   LINE      CODE     ---       #707
      01000943H   LINE      CODE     ---       #708
      01000945H   LINE      CODE     ---       #709
      01000948H   LINE      CODE     ---       #712
      0100094BH   LINE      CODE     ---       #716
      ---         BLOCKEND  ---      ---       LVL=0

      ---         MODULE    ---      ---       ISR_RF
      00000041H   PUBLIC    DATA     BYTE      ?_RF_SEND?BYTE
      01000DE4H   PUBLIC    CODE     NEAR LAB  _RF_CONFIGURE
      01000BA4H   PUBLIC    CODE     NEAR LAB  _RF_SEND
      00000008H   PUBLIC    DATA     BYTE      RF_BUF
      01000C0FH   PUBLIC    CODE     NEAR LAB  RF_CH1_RECV
      01000EEEH   PUBLIC    CODE     NEAR LAB  RF_INIT
      01000F2BH   PUBLIC    CODE     NEAR LAB  RF_WAIT_MSG
      000000D0H.6 SFRSYM    DATA     BIT       AC
      000000E0H   SFRSYM    DATA     BYTE      ACC
      000000A1H   SFRSYM    DATA     BYTE      ADCCON
      000000A2H   SFRSYM    DATA     BYTE      ADCDATAH
      000000A3H   SFRSYM    DATA     BYTE      ADCDATAL
      000000A4H   SFRSYM    DATA     BYTE      ADCSTATIC
      000000F0H   SFRSYM    DATA     BYTE      B
      000000C8H.1 SFRSYM    DATA     BIT       C_T2
      000000A0H.6 SFRSYM    DATA     BIT       CE
      000000B6H   SFRSYM    DATA     BYTE      CK_CTRL
      0000008EH   SFRSYM    DATA     BYTE      CKCON
      000000A0H.1 SFRSYM    DATA     BIT       CLK1
      000000A0H.5 SFRSYM    DATA     BIT       CLK2
      000000C8H   SFRSYM    DATA     BIT       CP_RL2
      000000C8H   SFRSYM    DATA     BIT       CPRL2
      000000A0H.3 SFRSYM    DATA     BIT       CS
      000000C8H.1 SFRSYM    DATA     BIT       CT2
      000000D0H.7 SFRSYM    DATA     BIT       CY
      000000A0H   SFRSYM    DATA     BIT       DATA?
      000000BEH   SFRSYM    DATA     BYTE      DEV_OFFSET
      00000090H.2 SFRSYM    DATA     BIT       DIN0
      00000090H   SFRSYM    DATA     BIT       DIO0
      00000090H.1 SFRSYM    DATA     BIT       DIO1
      00000080H   SFRSYM    DATA     BIT       DIO2
      00000080H.1 SFRSYM    DATA     BIT       DIO3
      00000080H.2 SFRSYM    DATA     BIT       DIO4
      00000080H.3 SFRSYM    DATA     BIT       DIO5
      00000080H.4 SFRSYM    DATA     BIT       DIO6
      00000080H.5 SFRSYM    DATA     BIT       DIO7
      00000080H.6 SFRSYM    DATA     BIT       DIO8
      00000080H.7 SFRSYM    DATA     BIT       DIO9
      000000A0H.4 SFRSYM    DATA     BIT       DOUT2
      00000083H   SFRSYM    DATA     BYTE      DPH
      00000083H   SFRSYM    DATA     BYTE      DPH0
      00000085H   SFRSYM    DATA     BYTE      DPH1
      00000082H   SFRSYM    DATA     BYTE      DPL
      00000082H   SFRSYM    DATA     BYTE      DPL0
      00000084H   SFRSYM    DATA     BYTE      DPL1
      00000086H   SFRSYM    DATA     BYTE      DPS
      000000A0H.2 SFRSYM    DATA     BIT       DR1
      000000A0H.6 SFRSYM    DATA     BIT       DR2
LX51 LINKER/LOCATER V4.34a                                                            04/30/2009  14:47:59  PAGE 15


      000000A0H.6 SFRSYM    DATA     BIT       DR2_CE
      000000A8H.7 SFRSYM    DATA     BIT       EA
      000000D8H   SFRSYM    DATA     BYTE      EICON
      000000E8H   SFRSYM    DATA     BYTE      EIE
      000000F8H   SFRSYM    DATA     BYTE      EIP
      000000A8H.4 SFRSYM    DATA     BIT       ES
      000000A8H.1 SFRSYM    DATA     BIT       ET0
      000000A8H.3 SFRSYM    DATA     BIT       ET1
      000000A8H.5 SFRSYM    DATA     BIT       ET2
      000000E8H.4 SFRSYM    DATA     BIT       EWDI
      000000A8H   SFRSYM    DATA     BIT       EX0
      000000A8H.2 SFRSYM    DATA     BIT       EX1
      000000E8H   SFRSYM    DATA     BIT       EX2
      000000E8H.1 SFRSYM    DATA     BIT       EX3
      000000E8H.2 SFRSYM    DATA     BIT       EX4
      000000E8H.3 SFRSYM    DATA     BIT       EX5
      000000C8H.3 SFRSYM    DATA     BIT       EXEN2
      000000C8H.6 SFRSYM    DATA     BIT       EXF2
      00000091H   SFRSYM    DATA     BYTE      EXIF
      000000D0H.5 SFRSYM    DATA     BIT       F0
      000000D0H.1 SFRSYM    DATA     BIT       F1
      000000A8H   SFRSYM    DATA     BYTE      IE
      00000088H.1 SFRSYM    DATA     BIT       IE0
      00000088H.3 SFRSYM    DATA     BIT       IE1
      00000080H.3 SFRSYM    DATA     BIT       INT0_N
      00000080H.4 SFRSYM    DATA     BIT       INT1_N
      000000B8H   SFRSYM    DATA     BYTE      IP
      00000088H   SFRSYM    DATA     BIT       IT0
      00000088H.2 SFRSYM    DATA     BIT       IT1
      00000092H   SFRSYM    DATA     BYTE      MPAGE
      000000D0H.2 SFRSYM    DATA     BIT       OV
      000000D0H   SFRSYM    DATA     BIT       P
      00000080H   SFRSYM    DATA     BYTE      P0
      00000080H   SFRSYM    DATA     BIT       P0_0
      00000080H.1 SFRSYM    DATA     BIT       P0_1
      00000080H.2 SFRSYM    DATA     BIT       P0_2
      00000080H.3 SFRSYM    DATA     BIT       P0_3
      00000080H.4 SFRSYM    DATA     BIT       P0_4
      00000080H.5 SFRSYM    DATA     BIT       P0_5
      00000080H.6 SFRSYM    DATA     BIT       P0_6
      00000080H.7 SFRSYM    DATA     BIT       P0_7
      00000095H   SFRSYM    DATA     BYTE      P0_ALT
      00000094H   SFRSYM    DATA     BYTE      P0_DIR
      00000090H   SFRSYM    DATA     BYTE      P1
      00000090H   SFRSYM    DATA     BIT       P1_0
      00000090H.1 SFRSYM    DATA     BIT       P1_1
      00000090H.2 SFRSYM    DATA     BIT       P1_2
      00000097H   SFRSYM    DATA     BYTE      P1_ALT
      00000096H   SFRSYM    DATA     BYTE      P1_DIR
      00000087H   SFRSYM    DATA     BYTE      PCON
      000000B8H.4 SFRSYM    DATA     BIT       PS
      000000D0H   SFRSYM    DATA     BYTE      PSW
      000000B8H.1 SFRSYM    DATA     BIT       PT0
      000000B8H.3 SFRSYM    DATA     BIT       PT1
      000000B8H.5 SFRSYM    DATA     BIT       PT2
      000000F8H.4 SFRSYM    DATA     BIT       PWDI
      00000080H.7 SFRSYM    DATA     BIT       PWM
      000000A9H   SFRSYM    DATA     BYTE      PWMCON
      000000AAH   SFRSYM    DATA     BYTE      PWMDUTY
      000000A0H.7 SFRSYM    DATA     BIT       PWR_UP
      000000B8H   SFRSYM    DATA     BIT       PX0
      000000B8H.2 SFRSYM    DATA     BIT       PX1
      000000F8H   SFRSYM    DATA     BIT       PX2
      000000F8H.1 SFRSYM    DATA     BIT       PX3
      000000F8H.2 SFRSYM    DATA     BIT       PX4
LX51 LINKER/LOCATER V4.34a                                                            04/30/2009  14:47:59  PAGE 16


      000000F8H.3 SFRSYM    DATA     BIT       PX5
      000000A0H   SFRSYM    DATA     BYTE      RADIO
      00000098H.2 SFRSYM    DATA     BIT       RB8
      000000CBH   SFRSYM    DATA     BYTE      RCAP2H
      000000CAH   SFRSYM    DATA     BYTE      RCAP2L
      000000C8H.5 SFRSYM    DATA     BIT       RCLK
      000000ADH   SFRSYM    DATA     BYTE      REGX_CTRL
      000000ACH   SFRSYM    DATA     BYTE      REGX_LSB
      000000ABH   SFRSYM    DATA     BYTE      REGX_MSB
      00000098H.4 SFRSYM    DATA     BIT       REN
      00000098H   SFRSYM    DATA     BIT       RI
      000000D0H.3 SFRSYM    DATA     BIT       RS0
      000000D0H.4 SFRSYM    DATA     BIT       RS1
      000000B1H   SFRSYM    DATA     BYTE      RSTREAS
      00000080H.1 SFRSYM    DATA     BIT       RXD
      00000099H   SFRSYM    DATA     BYTE      SBUF
      00000098H   SFRSYM    DATA     BYTE      SCON
      00000098H.7 SFRSYM    DATA     BIT       SM0
      00000098H.6 SFRSYM    DATA     BIT       SM1
      00000098H.5 SFRSYM    DATA     BIT       SM2
      00000081H   SFRSYM    DATA     BYTE      SP
      0000008FH   SFRSYM    DATA     BYTE      SPC_FNC
      000000B3H   SFRSYM    DATA     BYTE      SPI_CTRL
      000000B2H   SFRSYM    DATA     BYTE      SPI_DATA
      000000B4H   SFRSYM    DATA     BYTE      SPICLK
      00000080H.5 SFRSYM    DATA     BIT       T0
      00000080H.6 SFRSYM    DATA     BIT       T1
      000000BCH   SFRSYM    DATA     BYTE      T1_1V2
      00000090H   SFRSYM    DATA     BIT       T2
      000000BDH   SFRSYM    DATA     BYTE      T2_1V2
      000000C8H   SFRSYM    DATA     BYTE      T2CON
      00000098H.3 SFRSYM    DATA     BIT       TB8
      000000C8H.4 SFRSYM    DATA     BIT       TCLK
      00000088H   SFRSYM    DATA     BYTE      TCON
      000000B7H   SFRSYM    DATA     BYTE      TEST_MODE
      00000088H.5 SFRSYM    DATA     BIT       TF0
      00000088H.7 SFRSYM    DATA     BIT       TF1
      000000C8H.7 SFRSYM    DATA     BIT       TF2
      0000008CH   SFRSYM    DATA     BYTE      TH0
      0000008DH   SFRSYM    DATA     BYTE      TH1
      000000CDH   SFRSYM    DATA     BYTE      TH2
      00000098H.1 SFRSYM    DATA     BIT       TI
      000000B5H   SFRSYM    DATA     BYTE      TICK_DV
      0000008AH   SFRSYM    DATA     BYTE      TL0
      0000008BH   SFRSYM    DATA     BYTE      TL1
      000000CCH   SFRSYM    DATA     BYTE      TL2
      00000089H   SFRSYM    DATA     BYTE      TMOD
      00000088H.4 SFRSYM    DATA     BIT       TR0
      00000088H.6 SFRSYM    DATA     BIT       TR1
      000000C8H.2 SFRSYM    DATA     BIT       TR2
      00000080H.2 SFRSYM    DATA     BIT       TXD
      000000D8H.3 SFRSYM    DATA     BIT       WDTI
      00000069H   SYMBOL    DATA     BYTE      ?_RF_CONFIGURE?BYTE
      01000DF1H   SYMBOL    CODE     NEAR LAB  ?C0002
      01000E17H   SYMBOL    CODE     NEAR LAB  ?C0003
      01000BB3H   SYMBOL    CODE     NEAR LAB  ?C0006
      01000BDDH   SYMBOL    CODE     NEAR LAB  ?C0007
      01000BE2H   SYMBOL    CODE     NEAR LAB  ?C0009
      01000C0CH   SYMBOL    CODE     NEAR LAB  ?C0010
      01000C36H   SYMBOL    CODE     NEAR LAB  ?C0015
      01000C4EH   SYMBOL    CODE     NEAR LAB  ?C0016
      01000F2DH   SYMBOL    CODE     NEAR LAB  ?C0018
      01000F31H   SYMBOL    CODE     NEAR LAB  ?C0019
      01000E0CH   SYMBOL    CODE     NEAR LAB  ?C0021
      01000BDBH   SYMBOL    CODE     NEAR LAB  ?C0022
LX51 LINKER/LOCATER V4.34a                                                            04/30/2009  14:47:59  PAGE 17


      01000C0AH   SYMBOL    CODE     NEAR LAB  ?C0023
      01000C46H   SYMBOL    CODE     NEAR LAB  ?C0024
      0000007BH   SYMBOL    DATA     BYTE      ?RF_CH1_RECV?BYTE
      01000C51H   SYMBOL    CODE     NEAR LAB  ?RF_CH1_RECV?OUT
      00000041H   SYMBOL    DATA     BYTE      ADDR?243
      00000044H   SYMBOL    DATA     BYTE      ADDR_LEN?244
      0000006CH   SYMBOL    DATA     BYTE      I?142
      00000049H   SYMBOL    DATA     BYTE      I?247
      0000007BH   SYMBOL    DATA     BYTE      I?348
      00000069H   SYMBOL    DATA     BYTE      P?141
      00000045H   SYMBOL    DATA     BYTE      PAYLOAD?245
      00000048H   SYMBOL    DATA     BYTE      PL_LEN?246

      01000EEEH   BLOCK     CODE     NEAR LAB  LVL=0
      01000EEEH   LINE      CODE     ---       #265
      01000EF0H   LINE      CODE     ---       #269
      01000EF1H   LINE      CODE     ---       #270
      01000EF2H   LINE      CODE     ---       #271
      01000EF4H   LINE      CODE     ---       #272
      01000EF7H   LINE      CODE     ---       #275
      01000EF9H   LINE      CODE     ---       #278
      01000EFBH   LINE      CODE     ---       #281
      ---         BLOCKEND  ---      ---       LVL=0

      01000DE4H   BLOCK     CODE     NEAR LAB  LVL=0
      01000DE4H   LINE      CODE     ---       #304
      01000DE6H   LINE      CODE     ---       #308
      01000DE8H   LINE      CODE     ---       #309
      01000DEAH   LINE      CODE     ---       #310
      01000DECH   LINE      CODE     ---       #314
      01000DEDH   LINE      CODE     ---       #315
      01000DEFH   LINE      CODE     ---       #316
      01000DF1H   LINE      CODE     ---       #320
      01000DF3H   LINE      CODE     ---       #321
      01000DF5H   LINE      CODE     ---       #322
      01000DF7H   LINE      CODE     ---       #323
      01000DFAH   LINE      CODE     ---       #324
      01000DFDH   LINE      CODE     ---       #325
      01000E00H   LINE      CODE     ---       #326
      01000E01H   LINE      CODE     ---       #327
      01000E04H   LINE      CODE     ---       #330
      01000E06H   LINE      CODE     ---       #331
      01000E08H   LINE      CODE     ---       #332
      01000E0AH   LINE      CODE     ---       #333
      01000E0CH   LINE      CODE     ---       #335
      01000E0DH   LINE      CODE     ---       #336
      01000E0FH   LINE      CODE     ---       #337
      01000E11H   LINE      CODE     ---       #338
      01000E13H   LINE      CODE     ---       #339
      01000E15H   LINE      CODE     ---       #340
      01000E17H   LINE      CODE     ---       #345
      01000E19H   LINE      CODE     ---       #348
      ---         BLOCKEND  ---      ---       LVL=0

      01000BA4H   BLOCK     CODE     NEAR LAB  LVL=0
      01000BA4H   LINE      CODE     ---       #365
      01000BA6H   LINE      CODE     ---       #366
      01000BA8H   LINE      CODE     ---       #367
      01000BAAH   LINE      CODE     ---       #368
      01000BACH   LINE      CODE     ---       #376
      01000BAEH   LINE      CODE     ---       #381
      01000BAFH   LINE      CODE     ---       #382
      01000BB1H   LINE      CODE     ---       #383
      01000BB3H   LINE      CODE     ---       #385
      01000BB4H   LINE      CODE     ---       #386
LX51 LINKER/LOCATER V4.34a                                                            04/30/2009  14:47:59  PAGE 18


      01000BB6H   LINE      CODE     ---       #387
      01000BB8H   LINE      CODE     ---       #388
      01000BBAH   LINE      CODE     ---       #389
      01000BBBH   LINE      CODE     ---       #390
      01000BBDH   LINE      CODE     ---       #391
      01000BBEH   LINE      CODE     ---       #392
      01000BC0H   LINE      CODE     ---       #395
      01000BC2H   LINE      CODE     ---       #396
      01000BC4H   LINE      CODE     ---       #397
      01000BC6H   LINE      CODE     ---       #398
      01000BC9H   LINE      CODE     ---       #399
      01000BCCH   LINE      CODE     ---       #400
      01000BCFH   LINE      CODE     ---       #401
      01000BD0H   LINE      CODE     ---       #402
      01000BD3H   LINE      CODE     ---       #403
      01000BD5H   LINE      CODE     ---       #404
      01000BD7H   LINE      CODE     ---       #405
      01000BD9H   LINE      CODE     ---       #406
      01000BDBH   LINE      CODE     ---       #408
      01000BDDH   LINE      CODE     ---       #413
      01000BDEH   LINE      CODE     ---       #414
      01000BE0H   LINE      CODE     ---       #415
      01000BE2H   LINE      CODE     ---       #417
      01000BE3H   LINE      CODE     ---       #418
      01000BE5H   LINE      CODE     ---       #419
      01000BE7H   LINE      CODE     ---       #420
      01000BE9H   LINE      CODE     ---       #421
      01000BEAH   LINE      CODE     ---       #422
      01000BECH   LINE      CODE     ---       #423
      01000BEDH   LINE      CODE     ---       #424
      01000BEFH   LINE      CODE     ---       #427
      01000BF1H   LINE      CODE     ---       #428
      01000BF3H   LINE      CODE     ---       #429
      01000BF5H   LINE      CODE     ---       #430
      01000BF8H   LINE      CODE     ---       #431
      01000BFBH   LINE      CODE     ---       #432
      01000BFEH   LINE      CODE     ---       #433
      01000BFFH   LINE      CODE     ---       #434
      01000C02H   LINE      CODE     ---       #435
      01000C04H   LINE      CODE     ---       #436
      01000C06H   LINE      CODE     ---       #437
      01000C08H   LINE      CODE     ---       #438
      01000C0AH   LINE      CODE     ---       #440
      01000C0CH   LINE      CODE     ---       #445
      01000C0EH   LINE      CODE     ---       #448
      ---         BLOCKEND  ---      ---       LVL=0

      01000053H   BLOCK     CODE     NEAR LAB  LVL=0
      01000053H   LINE      CODE     ---       #452
      ---         BLOCKEND  ---      ---       LVL=0

      01000C0FH   BLOCK     CODE     NEAR LAB  LVL=0
      01000C0FH   LINE      CODE     ---       #461
      01000C11H   LINE      CODE     ---       #462
      01000C13H   LINE      CODE     ---       #463
      01000C15H   LINE      CODE     ---       #464
      01000C17H   LINE      CODE     ---       #465
      01000C19H   LINE      CODE     ---       #466
      01000C1CH   LINE      CODE     ---       #467
      01000C1EH   LINE      CODE     ---       #468
      01000C20H   LINE      CODE     ---       #469
      01000C22H   LINE      CODE     ---       #470
      01000C24H   LINE      CODE     ---       #471
      01000C26H   LINE      CODE     ---       #472
      01000C28H   LINE      CODE     ---       #473
LX51 LINKER/LOCATER V4.34a                                                            04/30/2009  14:47:59  PAGE 19


      01000C2AH   LINE      CODE     ---       #474
      01000C2CH   LINE      CODE     ---       #480
      01000C2FH   LINE      CODE     ---       #481
      01000C32H   LINE      CODE     ---       #488
      01000C34H   LINE      CODE     ---       #489
      01000C36H   LINE      CODE     ---       #495
      01000C39H   LINE      CODE     ---       #498
      01000C3AH   LINE      CODE     ---       #499
      01000C3BH   LINE      CODE     ---       #500
      01000C3EH   LINE      CODE     ---       #501
      01000C40H   LINE      CODE     ---       #502
      01000C42H   LINE      CODE     ---       #503
      01000C44H   LINE      CODE     ---       #504
      01000C46H   LINE      CODE     ---       #506
      01000C47H   LINE      CODE     ---       #507
      01000C49H   LINE      CODE     ---       #508
      01000C4AH   LINE      CODE     ---       #509
      01000C4CH   LINE      CODE     ---       #512
      01000C4EH   LINE      CODE     ---       #516
      01000C51H   LINE      CODE     ---       #523
      01000C54H   LINE      CODE     ---       #526
      01000C56H   LINE      CODE     ---       #527
      01000C58H   LINE      CODE     ---       #528
      01000C5AH   LINE      CODE     ---       #529
      01000C5CH   LINE      CODE     ---       #530
      01000C5EH   LINE      CODE     ---       #531
      01000C60H   LINE      CODE     ---       #532
      01000C62H   LINE      CODE     ---       #533
      01000C64H   LINE      CODE     ---       #534
      01000C66H   LINE      CODE     ---       #535
      01000C68H   LINE      CODE     ---       #536
      01000C6AH   LINE      CODE     ---       #537
      01000C6CH   LINE      CODE     ---       #538
      01000C6EH   LINE      CODE     ---       #539
      ---         BLOCKEND  ---      ---       LVL=0

      01000F2BH   BLOCK     CODE     NEAR LAB  LVL=0
      01000F2BH   LINE      CODE     ---       #555
      01000F2DH   LINE      CODE     ---       #559
      01000F2FH   LINE      CODE     ---       #560
      01000F31H   LINE      CODE     ---       #565
      01000F33H   LINE      CODE     ---       #568
      ---         BLOCKEND  ---      ---       LVL=0

      ---         MODULE    ---      ---       ECO_PAGE
      00000058H   PUBLIC    DATA     BYTE      ECO_PAGE_ADDR
      01000ECEH   PUBLIC    CODE     NEAR LAB  ECO_PAGE_INIT
      010006AAH   PUBLIC    CODE     NEAR LAB  ECO_PAGE_MANAGER
      00000054H   PUBLIC    DATA     BYTE      ECO_PAGE_PREV_PID
      00000056H   PUBLIC    DATA     BYTE      ECO_PAGE_PREV_VID
      000000ACH   PUBLIC    IDATA    BYTE      ECO_PAGE_REGISTER1
      000000ADH   PUBLIC    IDATA    BYTE      ECO_PAGE_REGISTER2
      000000AEH   PUBLIC    IDATA    BYTE      ECO_PAGE_REGISTER3
      000000AFH   PUBLIC    IDATA    BYTE      ECO_PAGE_REGISTER4
      000000B0H   PUBLIC    IDATA    BYTE      ECO_PAGE_REGISTER5
      000000B1H   PUBLIC    IDATA    BYTE      ECO_PAGE_REGISTER6
      000000B2H   PUBLIC    IDATA    BYTE      ECO_PAGE_REGISTER7
      00000053H   PUBLIC    DATA     BYTE      ECO_PAGE_SPI_CONN
      0000009CH   PUBLIC    IDATA    BYTE      ECO_PAGE_TABLE
      0000005AH   PUBLIC    DATA     BYTE      ECO_PAGE_TABLE_INDEX
      000000D0H.6 SFRSYM    DATA     BIT       AC
      000000E0H   SFRSYM    DATA     BYTE      ACC
      000000A1H   SFRSYM    DATA     BYTE      ADCCON
      000000A2H   SFRSYM    DATA     BYTE      ADCDATAH
      000000A3H   SFRSYM    DATA     BYTE      ADCDATAL
LX51 LINKER/LOCATER V4.34a                                                            04/30/2009  14:47:59  PAGE 20


      000000A4H   SFRSYM    DATA     BYTE      ADCSTATIC
      000000F0H   SFRSYM    DATA     BYTE      B
      000000C8H.1 SFRSYM    DATA     BIT       C_T2
      000000A0H.6 SFRSYM    DATA     BIT       CE
      000000B6H   SFRSYM    DATA     BYTE      CK_CTRL
      0000008EH   SFRSYM    DATA     BYTE      CKCON
      000000A0H.1 SFRSYM    DATA     BIT       CLK1
      000000A0H.5 SFRSYM    DATA     BIT       CLK2
      000000C8H   SFRSYM    DATA     BIT       CP_RL2
      000000C8H   SFRSYM    DATA     BIT       CPRL2
      000000A0H.3 SFRSYM    DATA     BIT       CS
      000000C8H.1 SFRSYM    DATA     BIT       CT2
      000000D0H.7 SFRSYM    DATA     BIT       CY
      000000A0H   SFRSYM    DATA     BIT       DATA?
      000000BEH   SFRSYM    DATA     BYTE      DEV_OFFSET
      00000090H.2 SFRSYM    DATA     BIT       DIN0
      00000090H   SFRSYM    DATA     BIT       DIO0
      00000090H.1 SFRSYM    DATA     BIT       DIO1
      00000080H   SFRSYM    DATA     BIT       DIO2
      00000080H.1 SFRSYM    DATA     BIT       DIO3
      00000080H.2 SFRSYM    DATA     BIT       DIO4
      00000080H.3 SFRSYM    DATA     BIT       DIO5
      00000080H.4 SFRSYM    DATA     BIT       DIO6
      00000080H.5 SFRSYM    DATA     BIT       DIO7
      00000080H.6 SFRSYM    DATA     BIT       DIO8
      00000080H.7 SFRSYM    DATA     BIT       DIO9
      000000A0H.4 SFRSYM    DATA     BIT       DOUT2
      00000083H   SFRSYM    DATA     BYTE      DPH
      00000083H   SFRSYM    DATA     BYTE      DPH0
      00000085H   SFRSYM    DATA     BYTE      DPH1
      00000082H   SFRSYM    DATA     BYTE      DPL
      00000082H   SFRSYM    DATA     BYTE      DPL0
      00000084H   SFRSYM    DATA     BYTE      DPL1
      00000086H   SFRSYM    DATA     BYTE      DPS
      000000A0H.2 SFRSYM    DATA     BIT       DR1
      000000A0H.6 SFRSYM    DATA     BIT       DR2
      000000A0H.6 SFRSYM    DATA     BIT       DR2_CE
      000000A8H.7 SFRSYM    DATA     BIT       EA
      000000D8H   SFRSYM    DATA     BYTE      EICON
      000000E8H   SFRSYM    DATA     BYTE      EIE
      000000F8H   SFRSYM    DATA     BYTE      EIP
      000000A8H.4 SFRSYM    DATA     BIT       ES
      000000A8H.1 SFRSYM    DATA     BIT       ET0
      000000A8H.3 SFRSYM    DATA     BIT       ET1
      000000A8H.5 SFRSYM    DATA     BIT       ET2
      000000E8H.4 SFRSYM    DATA     BIT       EWDI
      000000A8H   SFRSYM    DATA     BIT       EX0
      000000A8H.2 SFRSYM    DATA     BIT       EX1
      000000E8H   SFRSYM    DATA     BIT       EX2
      000000E8H.1 SFRSYM    DATA     BIT       EX3
      000000E8H.2 SFRSYM    DATA     BIT       EX4
      000000E8H.3 SFRSYM    DATA     BIT       EX5
      000000C8H.3 SFRSYM    DATA     BIT       EXEN2
      000000C8H.6 SFRSYM    DATA     BIT       EXF2
      00000091H   SFRSYM    DATA     BYTE      EXIF
      000000D0H.5 SFRSYM    DATA     BIT       F0
      000000D0H.1 SFRSYM    DATA     BIT       F1
      000000A8H   SFRSYM    DATA     BYTE      IE
      00000088H.1 SFRSYM    DATA     BIT       IE0
      00000088H.3 SFRSYM    DATA     BIT       IE1
      00000080H.3 SFRSYM    DATA     BIT       INT0_N
      00000080H.4 SFRSYM    DATA     BIT       INT1_N
      000000B8H   SFRSYM    DATA     BYTE      IP
      00000088H   SFRSYM    DATA     BIT       IT0
      00000088H.2 SFRSYM    DATA     BIT       IT1
LX51 LINKER/LOCATER V4.34a                                                            04/30/2009  14:47:59  PAGE 21


      00000092H   SFRSYM    DATA     BYTE      MPAGE
      000000D0H.2 SFRSYM    DATA     BIT       OV
      000000D0H   SFRSYM    DATA     BIT       P
      00000080H   SFRSYM    DATA     BYTE      P0
      00000080H   SFRSYM    DATA     BIT       P0_0
      00000080H.1 SFRSYM    DATA     BIT       P0_1
      00000080H.2 SFRSYM    DATA     BIT       P0_2
      00000080H.3 SFRSYM    DATA     BIT       P0_3
      00000080H.4 SFRSYM    DATA     BIT       P0_4
      00000080H.5 SFRSYM    DATA     BIT       P0_5
      00000080H.6 SFRSYM    DATA     BIT       P0_6
      00000080H.7 SFRSYM    DATA     BIT       P0_7
      00000095H   SFRSYM    DATA     BYTE      P0_ALT
      00000094H   SFRSYM    DATA     BYTE      P0_DIR
      00000090H   SFRSYM    DATA     BYTE      P1
      00000090H   SFRSYM    DATA     BIT       P1_0
      00000090H.1 SFRSYM    DATA     BIT       P1_1
      00000090H.2 SFRSYM    DATA     BIT       P1_2
      00000097H   SFRSYM    DATA     BYTE      P1_ALT
      00000096H   SFRSYM    DATA     BYTE      P1_DIR
      00000087H   SFRSYM    DATA     BYTE      PCON
      000000B8H.4 SFRSYM    DATA     BIT       PS
      000000D0H   SFRSYM    DATA     BYTE      PSW
      000000B8H.1 SFRSYM    DATA     BIT       PT0
      000000B8H.3 SFRSYM    DATA     BIT       PT1
      000000B8H.5 SFRSYM    DATA     BIT       PT2
      000000F8H.4 SFRSYM    DATA     BIT       PWDI
      00000080H.7 SFRSYM    DATA     BIT       PWM
      000000A9H   SFRSYM    DATA     BYTE      PWMCON
      000000AAH   SFRSYM    DATA     BYTE      PWMDUTY
      000000A0H.7 SFRSYM    DATA     BIT       PWR_UP
      000000B8H   SFRSYM    DATA     BIT       PX0
      000000B8H.2 SFRSYM    DATA     BIT       PX1
      000000F8H   SFRSYM    DATA     BIT       PX2
      000000F8H.1 SFRSYM    DATA     BIT       PX3
      000000F8H.2 SFRSYM    DATA     BIT       PX4
      000000F8H.3 SFRSYM    DATA     BIT       PX5
      000000A0H   SFRSYM    DATA     BYTE      RADIO
      00000098H.2 SFRSYM    DATA     BIT       RB8
      000000CBH   SFRSYM    DATA     BYTE      RCAP2H
      000000CAH   SFRSYM    DATA     BYTE      RCAP2L
      000000C8H.5 SFRSYM    DATA     BIT       RCLK
      000000ADH   SFRSYM    DATA     BYTE      REGX_CTRL
      000000ACH   SFRSYM    DATA     BYTE      REGX_LSB
      000000ABH   SFRSYM    DATA     BYTE      REGX_MSB
      00000098H.4 SFRSYM    DATA     BIT       REN
      00000098H   SFRSYM    DATA     BIT       RI
      000000D0H.3 SFRSYM    DATA     BIT       RS0
      000000D0H.4 SFRSYM    DATA     BIT       RS1
      000000B1H   SFRSYM    DATA     BYTE      RSTREAS
      00000080H.1 SFRSYM    DATA     BIT       RXD
      00000099H   SFRSYM    DATA     BYTE      SBUF
      00000098H   SFRSYM    DATA     BYTE      SCON
      00000098H.7 SFRSYM    DATA     BIT       SM0
      00000098H.6 SFRSYM    DATA     BIT       SM1
      00000098H.5 SFRSYM    DATA     BIT       SM2
      00000081H   SFRSYM    DATA     BYTE      SP
      0000008FH   SFRSYM    DATA     BYTE      SPC_FNC
      000000B3H   SFRSYM    DATA     BYTE      SPI_CTRL
      000000B2H   SFRSYM    DATA     BYTE      SPI_DATA
      000000B4H   SFRSYM    DATA     BYTE      SPICLK
      00000080H.5 SFRSYM    DATA     BIT       T0
      00000080H.6 SFRSYM    DATA     BIT       T1
      000000BCH   SFRSYM    DATA     BYTE      T1_1V2
      00000090H   SFRSYM    DATA     BIT       T2
LX51 LINKER/LOCATER V4.34a                                                            04/30/2009  14:47:59  PAGE 22


      000000BDH   SFRSYM    DATA     BYTE      T2_1V2
      000000C8H   SFRSYM    DATA     BYTE      T2CON
      00000098H.3 SFRSYM    DATA     BIT       TB8
      000000C8H.4 SFRSYM    DATA     BIT       TCLK
      00000088H   SFRSYM    DATA     BYTE      TCON
      000000B7H   SFRSYM    DATA     BYTE      TEST_MODE
      00000088H.5 SFRSYM    DATA     BIT       TF0
      00000088H.7 SFRSYM    DATA     BIT       TF1
      000000C8H.7 SFRSYM    DATA     BIT       TF2
      0000008CH   SFRSYM    DATA     BYTE      TH0
      0000008DH   SFRSYM    DATA     BYTE      TH1
      000000CDH   SFRSYM    DATA     BYTE      TH2
      00000098H.1 SFRSYM    DATA     BIT       TI
      000000B5H   SFRSYM    DATA     BYTE      TICK_DV
      0000008AH   SFRSYM    DATA     BYTE      TL0
      0000008BH   SFRSYM    DATA     BYTE      TL1
      000000CCH   SFRSYM    DATA     BYTE      TL2
      00000089H   SFRSYM    DATA     BYTE      TMOD
      00000088H.4 SFRSYM    DATA     BIT       TR0
      00000088H.6 SFRSYM    DATA     BIT       TR1
      000000C8H.2 SFRSYM    DATA     BIT       TR2
      00000080H.2 SFRSYM    DATA     BIT       TXD
      000000D8H.3 SFRSYM    DATA     BIT       WDTI
      010006E0H   SYMBOL    CODE     NEAR LAB  ?C0002
      0100080CH   SYMBOL    CODE     NEAR LAB  ?C0003
      010006E5H   SYMBOL    CODE     NEAR LAB  ?C0004
      01000717H   SYMBOL    CODE     NEAR LAB  ?C0005
      01000709H   SYMBOL    CODE     NEAR LAB  ?C0006
      01000765H   SYMBOL    CODE     NEAR LAB  ?C0008
      01000783H   SYMBOL    CODE     NEAR LAB  ?C0010
      010007B6H   SYMBOL    CODE     NEAR LAB  ?C0011
      010006B6H   SYMBOL    CODE     NEAR LAB  ?C0013
      010006CAH   SYMBOL    CODE     NEAR LAB  ?C0015
      010006F2H   SYMBOL    CODE     NEAR LAB  ?C0016
      010006FFH   SYMBOL    CODE     NEAR LAB  ?C0017
      01000711H   SYMBOL    CODE     NEAR LAB  ?C0018
      0100071FH   SYMBOL    CODE     NEAR LAB  ?C0019
      01000727H   SYMBOL    CODE     NEAR LAB  ?C0020
      0100073EH   SYMBOL    CODE     NEAR LAB  ?C0021
      01000759H   SYMBOL    CODE     NEAR LAB  ?C0022
      01000770H   SYMBOL    CODE     NEAR LAB  ?C0023
      010007ADH   SYMBOL    CODE     NEAR LAB  ?C0024
      010007BCH   SYMBOL    CODE     NEAR LAB  ?C0025
      010007DFH   SYMBOL    CODE     NEAR LAB  ?C0026
      010007FAH   SYMBOL    CODE     NEAR LAB  ?C0027
      00000063H   SYMBOL    DATA     BYTE      ?ECO_PAGE_MANAGER?BYTE
      00000063H   SYMBOL    DATA     BYTE      I?141
      00000065H   SYMBOL    DATA     BYTE      PAGE_INDEX?142
      00000067H   SYMBOL    DATA     BYTE      SEG?140

      01000ECEH   BLOCK     CODE     NEAR LAB  LVL=0
      01000ECEH   LINE      CODE     ---       #303
      01000ED1H   LINE      CODE     ---       #307
      01000ED2H   LINE      CODE     ---       #308
      01000ED4H   LINE      CODE     ---       #309
      01000ED6H   LINE      CODE     ---       #312
      01000ED8H   LINE      CODE     ---       #313
      01000EDAH   LINE      CODE     ---       #316
      01000EDCH   LINE      CODE     ---       #317
      01000EDEH   LINE      CODE     ---       #321
      ---         BLOCKEND  ---      ---       LVL=0

      010006AAH   BLOCK     CODE     NEAR LAB  LVL=0
      010006AAH   LINE      CODE     ---       #446
      010006ACH   LINE      CODE     ---       #447
LX51 LINKER/LOCATER V4.34a                                                            04/30/2009  14:47:59  PAGE 23


      010006AEH   LINE      CODE     ---       #448
      010006B0H   LINE      CODE     ---       #461
      010006B2H   LINE      CODE     ---       #462
      010006B4H   LINE      CODE     ---       #463
      010006B6H   LINE      CODE     ---       #465
      010006B7H   LINE      CODE     ---       #466
      010006B8H   LINE      CODE     ---       #467
      010006B9H   LINE      CODE     ---       #468
      010006BAH   LINE      CODE     ---       #469
      010006BBH   LINE      CODE     ---       #470
      010006BDH   LINE      CODE     ---       #471
      010006C0H   LINE      CODE     ---       #472
      010006C1H   LINE      CODE     ---       #473
      010006C4H   LINE      CODE     ---       #479
      010006C6H   LINE      CODE     ---       #480
      010006C8H   LINE      CODE     ---       #481
      010006CAH   LINE      CODE     ---       #483
      010006CBH   LINE      CODE     ---       #484
      010006CCH   LINE      CODE     ---       #485
      010006CDH   LINE      CODE     ---       #486
      010006CEH   LINE      CODE     ---       #487
      010006CFH   LINE      CODE     ---       #488
      010006D1H   LINE      CODE     ---       #489
      010006D2H   LINE      CODE     ---       #490
      010006D4H   LINE      CODE     ---       #491
      010006D6H   LINE      CODE     ---       #492
      010006D8H   LINE      CODE     ---       #493
      010006D9H   LINE      CODE     ---       #494
      010006DBH   LINE      CODE     ---       #495
      010006DCH   LINE      CODE     ---       #496
      010006DDH   LINE      CODE     ---       #497
      010006DFH   LINE      CODE     ---       #501
      010006E0H   LINE      CODE     ---       #511
      010006E1H   LINE      CODE     ---       #512
      010006E3H   LINE      CODE     ---       #513
      010006E5H   LINE      CODE     ---       #519
      010006E7H   LINE      CODE     ---       #520
      010006E9H   LINE      CODE     ---       #521
      010006EBH   LINE      CODE     ---       #522
      010006ECH   LINE      CODE     ---       #523
      010006EEH   LINE      CODE     ---       #524
      010006F0H   LINE      CODE     ---       #525
      010006F2H   LINE      CODE     ---       #527
      010006F3H   LINE      CODE     ---       #528
      010006F4H   LINE      CODE     ---       #529
      010006F5H   LINE      CODE     ---       #530
      010006F6H   LINE      CODE     ---       #531
      010006F7H   LINE      CODE     ---       #532
      010006F9H   LINE      CODE     ---       #533
      010006FAH   LINE      CODE     ---       #534
      010006FCH   LINE      CODE     ---       #535
      010006FDH   LINE      CODE     ---       #536
      010006FEH   LINE      CODE     ---       #537
      010006FFH   LINE      CODE     ---       #539
      01000701H   LINE      CODE     ---       #544
      01000704H   LINE      CODE     ---       #545
      01000707H   LINE      CODE     ---       #548
      01000709H   LINE      CODE     ---       #554
      0100070BH   LINE      CODE     ---       #555
      0100070DH   LINE      CODE     ---       #556
      0100070FH   LINE      CODE     ---       #557
      01000711H   LINE      CODE     ---       #559
      01000713H   LINE      CODE     ---       #560
      01000715H   LINE      CODE     ---       #561
      01000717H   LINE      CODE     ---       #566
LX51 LINKER/LOCATER V4.34a                                                            04/30/2009  14:47:59  PAGE 24


      01000719H   LINE      CODE     ---       #567
      0100071AH   LINE      CODE     ---       #568
      0100071CH   LINE      CODE     ---       #569
      0100071EH   LINE      CODE     ---       #570
      0100071FH   LINE      CODE     ---       #572
      01000721H   LINE      CODE     ---       #578
      01000723H   LINE      CODE     ---       #579
      01000725H   LINE      CODE     ---       #580
      01000727H   LINE      CODE     ---       #582
      01000728H   LINE      CODE     ---       #583
      01000729H   LINE      CODE     ---       #584
      0100072AH   LINE      CODE     ---       #585
      0100072BH   LINE      CODE     ---       #586
      0100072CH   LINE      CODE     ---       #587
      0100072EH   LINE      CODE     ---       #588
      01000730H   LINE      CODE     ---       #589
      01000732H   LINE      CODE     ---       #594
      01000734H   LINE      CODE     ---       #595
      01000736H   LINE      CODE     ---       #596
      01000737H   LINE      CODE     ---       #597
      01000738H   LINE      CODE     ---       #598
      0100073AH   LINE      CODE     ---       #599
      0100073BH   LINE      CODE     ---       #600
      0100073CH   LINE      CODE     ---       #601
      0100073EH   LINE      CODE     ---       #603
      0100073FH   LINE      CODE     ---       #604
      01000740H   LINE      CODE     ---       #605
      01000741H   LINE      CODE     ---       #606
      01000742H   LINE      CODE     ---       #607
      01000743H   LINE      CODE     ---       #608
      01000745H   LINE      CODE     ---       #609
      01000746H   LINE      CODE     ---       #610
      01000748H   LINE      CODE     ---       #611
      0100074AH   LINE      CODE     ---       #612
      0100074CH   LINE      CODE     ---       #613
      0100074DH   LINE      CODE     ---       #614
      0100074FH   LINE      CODE     ---       #615
      01000750H   LINE      CODE     ---       #616
      01000751H   LINE      CODE     ---       #617
      01000753H   LINE      CODE     ---       #622
      01000755H   LINE      CODE     ---       #623
      01000757H   LINE      CODE     ---       #624
      01000759H   LINE      CODE     ---       #626
      0100075AH   LINE      CODE     ---       #627
      0100075BH   LINE      CODE     ---       #628
      0100075CH   LINE      CODE     ---       #629
      0100075DH   LINE      CODE     ---       #630
      0100075EH   LINE      CODE     ---       #631
      01000760H   LINE      CODE     ---       #632
      01000762H   LINE      CODE     ---       #633
      01000764H   LINE      CODE     ---       #647
      01000765H   LINE      CODE     ---       #656
      01000767H   LINE      CODE     ---       #657
      01000769H   LINE      CODE     ---       #658
      0100076AH   LINE      CODE     ---       #659
      0100076BH   LINE      CODE     ---       #660
      0100076CH   LINE      CODE     ---       #661
      0100076DH   LINE      CODE     ---       #662
      0100076EH   LINE      CODE     ---       #663
      01000770H   LINE      CODE     ---       #665
      01000771H   LINE      CODE     ---       #666
      01000772H   LINE      CODE     ---       #667
      01000773H   LINE      CODE     ---       #668
      01000774H   LINE      CODE     ---       #669
      01000775H   LINE      CODE     ---       #670
LX51 LINKER/LOCATER V4.34a                                                            04/30/2009  14:47:59  PAGE 25


      01000777H   LINE      CODE     ---       #671
      01000779H   LINE      CODE     ---       #672
      0100077BH   LINE      CODE     ---       #677
      0100077EH   LINE      CODE     ---       #682
      0100077FH   LINE      CODE     ---       #683
      01000781H   LINE      CODE     ---       #684
      01000783H   LINE      CODE     ---       #690
      01000785H   LINE      CODE     ---       #691
      01000787H   LINE      CODE     ---       #692
      01000789H   LINE      CODE     ---       #693
      0100078AH   LINE      CODE     ---       #694
      0100078BH   LINE      CODE     ---       #695
      0100078DH   LINE      CODE     ---       #696
      0100078EH   LINE      CODE     ---       #697
      01000790H   LINE      CODE     ---       #698
      01000791H   LINE      CODE     ---       #699
      01000793H   LINE      CODE     ---       #700
      01000794H   LINE      CODE     ---       #701
      01000797H   LINE      CODE     ---       #702
      01000799H   LINE      CODE     ---       #703
      0100079BH   LINE      CODE     ---       #704
      0100079DH   LINE      CODE     ---       #705
      0100079FH   LINE      CODE     ---       #706
      010007A1H   LINE      CODE     ---       #707
      010007A3H   LINE      CODE     ---       #708
      010007A4H   LINE      CODE     ---       #709
      010007A5H   LINE      CODE     ---       #712
      010007A7H   LINE      CODE     ---       #713
      010007A9H   LINE      CODE     ---       #714
      010007ABH   LINE      CODE     ---       #715
      010007ADH   LINE      CODE     ---       #717
      010007AEH   LINE      CODE     ---       #718
      010007B0H   LINE      CODE     ---       #719
      010007B2H   LINE      CODE     ---       #720
      010007B4H   LINE      CODE     ---       #721
      010007B6H   LINE      CODE     ---       #727
      010007B8H   LINE      CODE     ---       #728
      010007BAH   LINE      CODE     ---       #729
      010007BCH   LINE      CODE     ---       #731
      010007BDH   LINE      CODE     ---       #732
      010007BEH   LINE      CODE     ---       #733
      010007BFH   LINE      CODE     ---       #734
      010007C0H   LINE      CODE     ---       #735
      010007C1H   LINE      CODE     ---       #736
      010007C3H   LINE      CODE     ---       #737
      010007C4H   LINE      CODE     ---       #738
      010007C6H   LINE      CODE     ---       #739
      010007C8H   LINE      CODE     ---       #740
      010007CAH   LINE      CODE     ---       #741
      010007CBH   LINE      CODE     ---       #742
      010007CDH   LINE      CODE     ---       #743
      010007CEH   LINE      CODE     ---       #744
      010007D0H   LINE      CODE     ---       #750
      010007D2H   LINE      CODE     ---       #751
      010007D4H   LINE      CODE     ---       #756
      010007D6H   LINE      CODE     ---       #757
      010007D8H   LINE      CODE     ---       #758
      010007D9H   LINE      CODE     ---       #759
      010007DAH   LINE      CODE     ---       #760
      010007DBH   LINE      CODE     ---       #761
      010007DCH   LINE      CODE     ---       #762
      010007DDH   LINE      CODE     ---       #763
      010007DFH   LINE      CODE     ---       #765
      010007E0H   LINE      CODE     ---       #766
      010007E1H   LINE      CODE     ---       #767
LX51 LINKER/LOCATER V4.34a                                                            04/30/2009  14:47:59  PAGE 26


      010007E2H   LINE      CODE     ---       #768
      010007E3H   LINE      CODE     ---       #769
      010007E4H   LINE      CODE     ---       #770
      010007E6H   LINE      CODE     ---       #771
      010007E7H   LINE      CODE     ---       #772
      010007E9H   LINE      CODE     ---       #773
      010007EBH   LINE      CODE     ---       #774
      010007EDH   LINE      CODE     ---       #775
      010007EEH   LINE      CODE     ---       #776
      010007F0H   LINE      CODE     ---       #777
      010007F1H   LINE      CODE     ---       #778
      010007F2H   LINE      CODE     ---       #779
      010007F4H   LINE      CODE     ---       #784
      010007F6H   LINE      CODE     ---       #785
      010007F8H   LINE      CODE     ---       #786
      010007FAH   LINE      CODE     ---       #788
      010007FBH   LINE      CODE     ---       #789
      010007FCH   LINE      CODE     ---       #790
      010007FDH   LINE      CODE     ---       #791
      010007FEH   LINE      CODE     ---       #792
      010007FFH   LINE      CODE     ---       #793
      01000801H   LINE      CODE     ---       #794
      01000803H   LINE      CODE     ---       #795
      01000805H   LINE      CODE     ---       #800
      01000807H   LINE      CODE     ---       #801
      01000808H   LINE      CODE     ---       #802
      0100080AH   LINE      CODE     ---       #803
      0100080CH   LINE      CODE     ---       #823
      ---         BLOCKEND  ---      ---       LVL=0

      ---         MODULE    ---      ---       ADC
      01000EA9H   PUBLIC    CODE     NEAR LAB  _ADC_INIT
      01000E8EH   PUBLIC    CODE     NEAR LAB  _ADC_READ
      000000D0H.6 SFRSYM    DATA     BIT       AC
      000000E0H   SFRSYM    DATA     BYTE      ACC
      000000A1H   SFRSYM    DATA     BYTE      ADCCON
      000000A2H   SFRSYM    DATA     BYTE      ADCDATAH
      000000A3H   SFRSYM    DATA     BYTE      ADCDATAL
      000000A4H   SFRSYM    DATA     BYTE      ADCSTATIC
      000000F0H   SFRSYM    DATA     BYTE      B
      000000C8H.1 SFRSYM    DATA     BIT       C_T2
      000000A0H.6 SFRSYM    DATA     BIT       CE
      000000B6H   SFRSYM    DATA     BYTE      CK_CTRL
      0000008EH   SFRSYM    DATA     BYTE      CKCON
      000000A0H.1 SFRSYM    DATA     BIT       CLK1
      000000A0H.5 SFRSYM    DATA     BIT       CLK2
      000000C8H   SFRSYM    DATA     BIT       CP_RL2
      000000C8H   SFRSYM    DATA     BIT       CPRL2
      000000A0H.3 SFRSYM    DATA     BIT       CS
      000000C8H.1 SFRSYM    DATA     BIT       CT2
      000000D0H.7 SFRSYM    DATA     BIT       CY
      000000A0H   SFRSYM    DATA     BIT       DATA?
      000000BEH   SFRSYM    DATA     BYTE      DEV_OFFSET
      00000090H.2 SFRSYM    DATA     BIT       DIN0
      00000090H   SFRSYM    DATA     BIT       DIO0
      00000090H.1 SFRSYM    DATA     BIT       DIO1
      00000080H   SFRSYM    DATA     BIT       DIO2
      00000080H.1 SFRSYM    DATA     BIT       DIO3
      00000080H.2 SFRSYM    DATA     BIT       DIO4
      00000080H.3 SFRSYM    DATA     BIT       DIO5
      00000080H.4 SFRSYM    DATA     BIT       DIO6
      00000080H.5 SFRSYM    DATA     BIT       DIO7
      00000080H.6 SFRSYM    DATA     BIT       DIO8
      00000080H.7 SFRSYM    DATA     BIT       DIO9
      000000A0H.4 SFRSYM    DATA     BIT       DOUT2
LX51 LINKER/LOCATER V4.34a                                                            04/30/2009  14:47:59  PAGE 27


      00000083H   SFRSYM    DATA     BYTE      DPH
      00000083H   SFRSYM    DATA     BYTE      DPH0
      00000085H   SFRSYM    DATA     BYTE      DPH1
      00000082H   SFRSYM    DATA     BYTE      DPL
      00000082H   SFRSYM    DATA     BYTE      DPL0
      00000084H   SFRSYM    DATA     BYTE      DPL1
      00000086H   SFRSYM    DATA     BYTE      DPS
      000000A0H.2 SFRSYM    DATA     BIT       DR1
      000000A0H.6 SFRSYM    DATA     BIT       DR2
      000000A0H.6 SFRSYM    DATA     BIT       DR2_CE
      000000A8H.7 SFRSYM    DATA     BIT       EA
      000000D8H   SFRSYM    DATA     BYTE      EICON
      000000E8H   SFRSYM    DATA     BYTE      EIE
      000000F8H   SFRSYM    DATA     BYTE      EIP
      000000A8H.4 SFRSYM    DATA     BIT       ES
      000000A8H.1 SFRSYM    DATA     BIT       ET0
      000000A8H.3 SFRSYM    DATA     BIT       ET1
      000000A8H.5 SFRSYM    DATA     BIT       ET2
      000000E8H.4 SFRSYM    DATA     BIT       EWDI
      000000A8H   SFRSYM    DATA     BIT       EX0
      000000A8H.2 SFRSYM    DATA     BIT       EX1
      000000E8H   SFRSYM    DATA     BIT       EX2
      000000E8H.1 SFRSYM    DATA     BIT       EX3
      000000E8H.2 SFRSYM    DATA     BIT       EX4
      000000E8H.3 SFRSYM    DATA     BIT       EX5
      000000C8H.3 SFRSYM    DATA     BIT       EXEN2
      000000C8H.6 SFRSYM    DATA     BIT       EXF2
      00000091H   SFRSYM    DATA     BYTE      EXIF
      000000D0H.5 SFRSYM    DATA     BIT       F0
      000000D0H.1 SFRSYM    DATA     BIT       F1
      000000A8H   SFRSYM    DATA     BYTE      IE
      00000088H.1 SFRSYM    DATA     BIT       IE0
      00000088H.3 SFRSYM    DATA     BIT       IE1
      00000080H.3 SFRSYM    DATA     BIT       INT0_N
      00000080H.4 SFRSYM    DATA     BIT       INT1_N
      000000B8H   SFRSYM    DATA     BYTE      IP
      00000088H   SFRSYM    DATA     BIT       IT0
      00000088H.2 SFRSYM    DATA     BIT       IT1
      00000092H   SFRSYM    DATA     BYTE      MPAGE
      000000D0H.2 SFRSYM    DATA     BIT       OV
      000000D0H   SFRSYM    DATA     BIT       P
      00000080H   SFRSYM    DATA     BYTE      P0
      00000080H   SFRSYM    DATA     BIT       P0_0
      00000080H.1 SFRSYM    DATA     BIT       P0_1
      00000080H.2 SFRSYM    DATA     BIT       P0_2
      00000080H.3 SFRSYM    DATA     BIT       P0_3
      00000080H.4 SFRSYM    DATA     BIT       P0_4
      00000080H.5 SFRSYM    DATA     BIT       P0_5
      00000080H.6 SFRSYM    DATA     BIT       P0_6
      00000080H.7 SFRSYM    DATA     BIT       P0_7
      00000095H   SFRSYM    DATA     BYTE      P0_ALT
      00000094H   SFRSYM    DATA     BYTE      P0_DIR
      00000090H   SFRSYM    DATA     BYTE      P1
      00000090H   SFRSYM    DATA     BIT       P1_0
      00000090H.1 SFRSYM    DATA     BIT       P1_1
      00000090H.2 SFRSYM    DATA     BIT       P1_2
      00000097H   SFRSYM    DATA     BYTE      P1_ALT
      00000096H   SFRSYM    DATA     BYTE      P1_DIR
      00000087H   SFRSYM    DATA     BYTE      PCON
      000000B8H.4 SFRSYM    DATA     BIT       PS
      000000D0H   SFRSYM    DATA     BYTE      PSW
      000000B8H.1 SFRSYM    DATA     BIT       PT0
      000000B8H.3 SFRSYM    DATA     BIT       PT1
      000000B8H.5 SFRSYM    DATA     BIT       PT2
      000000F8H.4 SFRSYM    DATA     BIT       PWDI
LX51 LINKER/LOCATER V4.34a                                                            04/30/2009  14:47:59  PAGE 28


      00000080H.7 SFRSYM    DATA     BIT       PWM
      000000A9H   SFRSYM    DATA     BYTE      PWMCON
      000000AAH   SFRSYM    DATA     BYTE      PWMDUTY
      000000A0H.7 SFRSYM    DATA     BIT       PWR_UP
      000000B8H   SFRSYM    DATA     BIT       PX0
      000000B8H.2 SFRSYM    DATA     BIT       PX1
      000000F8H   SFRSYM    DATA     BIT       PX2
      000000F8H.1 SFRSYM    DATA     BIT       PX3
      000000F8H.2 SFRSYM    DATA     BIT       PX4
      000000F8H.3 SFRSYM    DATA     BIT       PX5
      000000A0H   SFRSYM    DATA     BYTE      RADIO
      00000098H.2 SFRSYM    DATA     BIT       RB8
      000000CBH   SFRSYM    DATA     BYTE      RCAP2H
      000000CAH   SFRSYM    DATA     BYTE      RCAP2L
      000000C8H.5 SFRSYM    DATA     BIT       RCLK
      000000ADH   SFRSYM    DATA     BYTE      REGX_CTRL
      000000ACH   SFRSYM    DATA     BYTE      REGX_LSB
      000000ABH   SFRSYM    DATA     BYTE      REGX_MSB
      00000098H.4 SFRSYM    DATA     BIT       REN
      00000098H   SFRSYM    DATA     BIT       RI
      000000D0H.3 SFRSYM    DATA     BIT       RS0
      000000D0H.4 SFRSYM    DATA     BIT       RS1
      000000B1H   SFRSYM    DATA     BYTE      RSTREAS
      00000080H.1 SFRSYM    DATA     BIT       RXD
      00000099H   SFRSYM    DATA     BYTE      SBUF
      00000098H   SFRSYM    DATA     BYTE      SCON
      00000098H.7 SFRSYM    DATA     BIT       SM0
      00000098H.6 SFRSYM    DATA     BIT       SM1
      00000098H.5 SFRSYM    DATA     BIT       SM2
      00000081H   SFRSYM    DATA     BYTE      SP
      0000008FH   SFRSYM    DATA     BYTE      SPC_FNC
      000000B3H   SFRSYM    DATA     BYTE      SPI_CTRL
      000000B2H   SFRSYM    DATA     BYTE      SPI_DATA
      000000B4H   SFRSYM    DATA     BYTE      SPICLK
      00000080H.5 SFRSYM    DATA     BIT       T0
      00000080H.6 SFRSYM    DATA     BIT       T1
      000000BCH   SFRSYM    DATA     BYTE      T1_1V2
      00000090H   SFRSYM    DATA     BIT       T2
      000000BDH   SFRSYM    DATA     BYTE      T2_1V2
      000000C8H   SFRSYM    DATA     BYTE      T2CON
      00000098H.3 SFRSYM    DATA     BIT       TB8
      000000C8H.4 SFRSYM    DATA     BIT       TCLK
      00000088H   SFRSYM    DATA     BYTE      TCON
      000000B7H   SFRSYM    DATA     BYTE      TEST_MODE
      00000088H.5 SFRSYM    DATA     BIT       TF0
      00000088H.7 SFRSYM    DATA     BIT       TF1
      000000C8H.7 SFRSYM    DATA     BIT       TF2
      0000008CH   SFRSYM    DATA     BYTE      TH0
      0000008DH   SFRSYM    DATA     BYTE      TH1
      000000CDH   SFRSYM    DATA     BYTE      TH2
      00000098H.1 SFRSYM    DATA     BIT       TI
      000000B5H   SFRSYM    DATA     BYTE      TICK_DV
      0000008AH   SFRSYM    DATA     BYTE      TL0
      0000008BH   SFRSYM    DATA     BYTE      TL1
      000000CCH   SFRSYM    DATA     BYTE      TL2
      00000089H   SFRSYM    DATA     BYTE      TMOD
      00000088H.4 SFRSYM    DATA     BIT       TR0
      00000088H.6 SFRSYM    DATA     BIT       TR1
      000000C8H.2 SFRSYM    DATA     BIT       TR2
      00000080H.2 SFRSYM    DATA     BIT       TXD
      000000D8H.3 SFRSYM    DATA     BIT       WDTI
      0100004BH   SYMBOL    CODE     NEAR LAB  ?C0002
      0100001BH   SYMBOL    CODE     NEAR LAB  ?C0004
      01000023H   SYMBOL    CODE     NEAR LAB  ?C0005
      01000037H   SYMBOL    CODE     NEAR LAB  ?C0006
LX51 LINKER/LOCATER V4.34a                                                            04/30/2009  14:47:59  PAGE 29


      0100004FH   SYMBOL    CODE     NEAR LAB  ?C0007
      01000E9DH   SYMBOL    CODE     NEAR LAB  ?C0011
      01000EA2H   SYMBOL    CODE     NEAR LAB  ?C0012
      01000EA8H   SYMBOL    CODE     NEAR LAB  ?C0013
      01000003H   SYMBOL    CODE     NEAR LAB  P_ADC_READ

      01000EA9H   BLOCK     CODE     NEAR LAB  LVL=0
      01000EA9H   LINE      CODE     ---       #206
      01000EACH   LINE      CODE     ---       #209
      01000EADH   LINE      CODE     ---       #210
      01000EAFH   LINE      CODE     ---       #213
      01000EB2H   LINE      CODE     ---       #216
      01000EB3H   LINE      CODE     ---       #217
      01000EB5H   LINE      CODE     ---       #220
      01000EB8H   LINE      CODE     ---       #223
      01000EB9H   LINE      CODE     ---       #224
      01000EBBH   LINE      CODE     ---       #227
      ---         BLOCKEND  ---      ---       LVL=0

      01000003H   BLOCK     CODE     NEAR LAB  LVL=0
      01000003H   LINE      CODE     ---       #241
      01000005H   LINE      CODE     ---       #242
      01000007H   LINE      CODE     ---       #243
      01000008H   LINE      CODE     ---       #248
      01000009H   LINE      CODE     ---       #249
      0100000AH   LINE      CODE     ---       #250
      0100000BH   LINE      CODE     ---       #253
      0100000DH   LINE      CODE     ---       #254
      0100000EH   LINE      CODE     ---       #255
      0100000FH   LINE      CODE     ---       #256
      01000011H   LINE      CODE     ---       #257
      01000012H   LINE      CODE     ---       #258
      01000014H   LINE      CODE     ---       #259
      01000015H   LINE      CODE     ---       #260
      01000017H   LINE      CODE     ---       #261
      01000019H   LINE      CODE     ---       #262
      0100001BH   LINE      CODE     ---       #271
      0100001DH   LINE      CODE     ---       #272
      0100001FH   LINE      CODE     ---       #273
      01000021H   LINE      CODE     ---       #276
      01000023H   LINE      CODE     ---       #283
      01000025H   LINE      CODE     ---       #284
      01000026H   LINE      CODE     ---       #285
      01000029H   LINE      CODE     ---       #286
      0100002AH   LINE      CODE     ---       #287
      0100002BH   LINE      CODE     ---       #288
      0100002DH   LINE      CODE     ---       #291
      0100002FH   LINE      CODE     ---       #292
      01000030H   LINE      CODE     ---       #293
      01000031H   LINE      CODE     ---       #294
      01000032H   LINE      CODE     ---       #295
      01000034H   LINE      CODE     ---       #296
      01000035H   LINE      CODE     ---       #297
      01000036H   LINE      CODE     ---       #298
      01000037H   LINE      CODE     ---       #305
      01000039H   LINE      CODE     ---       #306
      0100003AH   LINE      CODE     ---       #307
      0100003DH   LINE      CODE     ---       #308
      0100003EH   LINE      CODE     ---       #309
      0100003FH   LINE      CODE     ---       #310
      01000041H   LINE      CODE     ---       #313
      01000043H   LINE      CODE     ---       #314
      01000044H   LINE      CODE     ---       #315
      01000046H   LINE      CODE     ---       #316
      01000047H   LINE      CODE     ---       #317
LX51 LINKER/LOCATER V4.34a                                                            04/30/2009  14:47:59  PAGE 30


      01000048H   LINE      CODE     ---       #318
      01000049H   LINE      CODE     ---       #319
      0100004AH   LINE      CODE     ---       #320
      0100004BH   LINE      CODE     ---       #326
      0100004DH   LINE      CODE     ---       #327
      0100004FH   LINE      CODE     ---       #331
      ---         BLOCKEND  ---      ---       LVL=0

      01000E8EH   BLOCK     CODE     NEAR LAB  LVL=0
      01000E8EH   LINE      CODE     ---       #347
      01000E8FH   LINE      CODE     ---       #348
      01000E90H   LINE      CODE     ---       #349
      01000E91H   LINE      CODE     ---       #353
      01000E94H   LINE      CODE     ---       #356
      01000E95H   LINE      CODE     ---       #357
      01000E97H   LINE      CODE     ---       #360
      01000E9AH   LINE      CODE     ---       #361
      01000E9DH   LINE      CODE     ---       #366
      01000E9FH   LINE      CODE     ---       #367
      01000EA2H   LINE      CODE     ---       #373
      01000EA5H   LINE      CODE     ---       #377
      01000EA8H   LINE      CODE     ---       #383
      ---         BLOCKEND  ---      ---       LVL=0

      ---         MODULE    ---      ---       UTILS
      0000005BH   PUBLIC    DATA     BYTE      ?_STRNCPY?BYTE
      01000C6FH   PUBLIC    CODE     NEAR LAB  _MDELAY
      01000EFCH   PUBLIC    CODE     NEAR LAB  _STORE_CPU_RATE
      01000CB8H   PUBLIC    CODE     NEAR LAB  _STRNCPY
      01000EBCH   PUBLIC    CODE     NEAR LAB  _WDT_LOAD
      0000006EH   PUBLIC    DATA     BYTE      MHZ
      000000D0H.6 SFRSYM    DATA     BIT       AC
      000000E0H   SFRSYM    DATA     BYTE      ACC
      000000A1H   SFRSYM    DATA     BYTE      ADCCON
      000000A2H   SFRSYM    DATA     BYTE      ADCDATAH
      000000A3H   SFRSYM    DATA     BYTE      ADCDATAL
      000000A4H   SFRSYM    DATA     BYTE      ADCSTATIC
      000000F0H   SFRSYM    DATA     BYTE      B
      000000C8H.1 SFRSYM    DATA     BIT       C_T2
      000000A0H.6 SFRSYM    DATA     BIT       CE
      000000B6H   SFRSYM    DATA     BYTE      CK_CTRL
      0000008EH   SFRSYM    DATA     BYTE      CKCON
      000000A0H.1 SFRSYM    DATA     BIT       CLK1
      000000A0H.5 SFRSYM    DATA     BIT       CLK2
      000000C8H   SFRSYM    DATA     BIT       CP_RL2
      000000C8H   SFRSYM    DATA     BIT       CPRL2
      000000A0H.3 SFRSYM    DATA     BIT       CS
      000000C8H.1 SFRSYM    DATA     BIT       CT2
      000000D0H.7 SFRSYM    DATA     BIT       CY
      000000A0H   SFRSYM    DATA     BIT       DATA?
      000000BEH   SFRSYM    DATA     BYTE      DEV_OFFSET
      00000090H.2 SFRSYM    DATA     BIT       DIN0
      00000090H   SFRSYM    DATA     BIT       DIO0
      00000090H.1 SFRSYM    DATA     BIT       DIO1
      00000080H   SFRSYM    DATA     BIT       DIO2
      00000080H.1 SFRSYM    DATA     BIT       DIO3
      00000080H.2 SFRSYM    DATA     BIT       DIO4
      00000080H.3 SFRSYM    DATA     BIT       DIO5
      00000080H.4 SFRSYM    DATA     BIT       DIO6
      00000080H.5 SFRSYM    DATA     BIT       DIO7
      00000080H.6 SFRSYM    DATA     BIT       DIO8
      00000080H.7 SFRSYM    DATA     BIT       DIO9
      000000A0H.4 SFRSYM    DATA     BIT       DOUT2
      00000083H   SFRSYM    DATA     BYTE      DPH
      00000083H   SFRSYM    DATA     BYTE      DPH0
LX51 LINKER/LOCATER V4.34a                                                            04/30/2009  14:47:59  PAGE 31


      00000085H   SFRSYM    DATA     BYTE      DPH1
      00000082H   SFRSYM    DATA     BYTE      DPL
      00000082H   SFRSYM    DATA     BYTE      DPL0
      00000084H   SFRSYM    DATA     BYTE      DPL1
      00000086H   SFRSYM    DATA     BYTE      DPS
      000000A0H.2 SFRSYM    DATA     BIT       DR1
      000000A0H.6 SFRSYM    DATA     BIT       DR2
      000000A0H.6 SFRSYM    DATA     BIT       DR2_CE
      000000A8H.7 SFRSYM    DATA     BIT       EA
      000000D8H   SFRSYM    DATA     BYTE      EICON
      000000E8H   SFRSYM    DATA     BYTE      EIE
      000000F8H   SFRSYM    DATA     BYTE      EIP
      000000A8H.4 SFRSYM    DATA     BIT       ES
      000000A8H.1 SFRSYM    DATA     BIT       ET0
      000000A8H.3 SFRSYM    DATA     BIT       ET1
      000000A8H.5 SFRSYM    DATA     BIT       ET2
      000000E8H.4 SFRSYM    DATA     BIT       EWDI
      000000A8H   SFRSYM    DATA     BIT       EX0
      000000A8H.2 SFRSYM    DATA     BIT       EX1
      000000E8H   SFRSYM    DATA     BIT       EX2
      000000E8H.1 SFRSYM    DATA     BIT       EX3
      000000E8H.2 SFRSYM    DATA     BIT       EX4
      000000E8H.3 SFRSYM    DATA     BIT       EX5
      000000C8H.3 SFRSYM    DATA     BIT       EXEN2
      000000C8H.6 SFRSYM    DATA     BIT       EXF2
      00000091H   SFRSYM    DATA     BYTE      EXIF
      000000D0H.5 SFRSYM    DATA     BIT       F0
      000000D0H.1 SFRSYM    DATA     BIT       F1
      000000A8H   SFRSYM    DATA     BYTE      IE
      00000088H.1 SFRSYM    DATA     BIT       IE0
      00000088H.3 SFRSYM    DATA     BIT       IE1
      00000080H.3 SFRSYM    DATA     BIT       INT0_N
      00000080H.4 SFRSYM    DATA     BIT       INT1_N
      000000B8H   SFRSYM    DATA     BYTE      IP
      00000088H   SFRSYM    DATA     BIT       IT0
      00000088H.2 SFRSYM    DATA     BIT       IT1
      00000092H   SFRSYM    DATA     BYTE      MPAGE
      000000D0H.2 SFRSYM    DATA     BIT       OV
      000000D0H   SFRSYM    DATA     BIT       P
      00000080H   SFRSYM    DATA     BYTE      P0
      00000080H   SFRSYM    DATA     BIT       P0_0
      00000080H.1 SFRSYM    DATA     BIT       P0_1
      00000080H.2 SFRSYM    DATA     BIT       P0_2
      00000080H.3 SFRSYM    DATA     BIT       P0_3
      00000080H.4 SFRSYM    DATA     BIT       P0_4
      00000080H.5 SFRSYM    DATA     BIT       P0_5
      00000080H.6 SFRSYM    DATA     BIT       P0_6
      00000080H.7 SFRSYM    DATA     BIT       P0_7
      00000095H   SFRSYM    DATA     BYTE      P0_ALT
      00000094H   SFRSYM    DATA     BYTE      P0_DIR
      00000090H   SFRSYM    DATA     BYTE      P1
      00000090H   SFRSYM    DATA     BIT       P1_0
      00000090H.1 SFRSYM    DATA     BIT       P1_1
      00000090H.2 SFRSYM    DATA     BIT       P1_2
      00000097H   SFRSYM    DATA     BYTE      P1_ALT
      00000096H   SFRSYM    DATA     BYTE      P1_DIR
      00000087H   SFRSYM    DATA     BYTE      PCON
      000000B8H.4 SFRSYM    DATA     BIT       PS
      000000D0H   SFRSYM    DATA     BYTE      PSW
      000000B8H.1 SFRSYM    DATA     BIT       PT0
      000000B8H.3 SFRSYM    DATA     BIT       PT1
      000000B8H.5 SFRSYM    DATA     BIT       PT2
      000000F8H.4 SFRSYM    DATA     BIT       PWDI
      00000080H.7 SFRSYM    DATA     BIT       PWM
      000000A9H   SFRSYM    DATA     BYTE      PWMCON
LX51 LINKER/LOCATER V4.34a                                                            04/30/2009  14:47:59  PAGE 32


      000000AAH   SFRSYM    DATA     BYTE      PWMDUTY
      000000A0H.7 SFRSYM    DATA     BIT       PWR_UP
      000000B8H   SFRSYM    DATA     BIT       PX0
      000000B8H.2 SFRSYM    DATA     BIT       PX1
      000000F8H   SFRSYM    DATA     BIT       PX2
      000000F8H.1 SFRSYM    DATA     BIT       PX3
      000000F8H.2 SFRSYM    DATA     BIT       PX4
      000000F8H.3 SFRSYM    DATA     BIT       PX5
      000000A0H   SFRSYM    DATA     BYTE      RADIO
      00000098H.2 SFRSYM    DATA     BIT       RB8
      000000CBH   SFRSYM    DATA     BYTE      RCAP2H
      000000CAH   SFRSYM    DATA     BYTE      RCAP2L
      000000C8H.5 SFRSYM    DATA     BIT       RCLK
      000000ADH   SFRSYM    DATA     BYTE      REGX_CTRL
      000000ACH   SFRSYM    DATA     BYTE      REGX_LSB
      000000ABH   SFRSYM    DATA     BYTE      REGX_MSB
      00000098H.4 SFRSYM    DATA     BIT       REN
      00000098H   SFRSYM    DATA     BIT       RI
      000000D0H.3 SFRSYM    DATA     BIT       RS0
      000000D0H.4 SFRSYM    DATA     BIT       RS1
      000000B1H   SFRSYM    DATA     BYTE      RSTREAS
      00000080H.1 SFRSYM    DATA     BIT       RXD
      00000099H   SFRSYM    DATA     BYTE      SBUF
      00000098H   SFRSYM    DATA     BYTE      SCON
      00000098H.7 SFRSYM    DATA     BIT       SM0
      00000098H.6 SFRSYM    DATA     BIT       SM1
      00000098H.5 SFRSYM    DATA     BIT       SM2
      00000081H   SFRSYM    DATA     BYTE      SP
      0000008FH   SFRSYM    DATA     BYTE      SPC_FNC
      000000B3H   SFRSYM    DATA     BYTE      SPI_CTRL
      000000B2H   SFRSYM    DATA     BYTE      SPI_DATA
      000000B4H   SFRSYM    DATA     BYTE      SPICLK
      00000080H.5 SFRSYM    DATA     BIT       T0
      00000080H.6 SFRSYM    DATA     BIT       T1
      000000BCH   SFRSYM    DATA     BYTE      T1_1V2
      00000090H   SFRSYM    DATA     BIT       T2
      000000BDH   SFRSYM    DATA     BYTE      T2_1V2
      000000C8H   SFRSYM    DATA     BYTE      T2CON
      00000098H.3 SFRSYM    DATA     BIT       TB8
      000000C8H.4 SFRSYM    DATA     BIT       TCLK
      00000088H   SFRSYM    DATA     BYTE      TCON
      000000B7H   SFRSYM    DATA     BYTE      TEST_MODE
      00000088H.5 SFRSYM    DATA     BIT       TF0
      00000088H.7 SFRSYM    DATA     BIT       TF1
      000000C8H.7 SFRSYM    DATA     BIT       TF2
      0000008CH   SFRSYM    DATA     BYTE      TH0
      0000008DH   SFRSYM    DATA     BYTE      TH1
      000000CDH   SFRSYM    DATA     BYTE      TH2
      00000098H.1 SFRSYM    DATA     BIT       TI
      000000B5H   SFRSYM    DATA     BYTE      TICK_DV
      0000008AH   SFRSYM    DATA     BYTE      TL0
      0000008BH   SFRSYM    DATA     BYTE      TL1
      000000CCH   SFRSYM    DATA     BYTE      TL2
      00000089H   SFRSYM    DATA     BYTE      TMOD
      00000088H.4 SFRSYM    DATA     BIT       TR0
      00000088H.6 SFRSYM    DATA     BIT       TR1
      000000C8H.2 SFRSYM    DATA     BIT       TR2
      00000080H.2 SFRSYM    DATA     BIT       TXD
      000000D8H.3 SFRSYM    DATA     BIT       WDTI
      0000007DH   SYMBOL    DATA     BYTE      ?_MDELAY?BYTE
      01000C90H   SYMBOL    CODE     NEAR LAB  ?C0002
      01000CB0H   SYMBOL    CODE     NEAR LAB  ?C0004
      01000C9CH   SYMBOL    CODE     NEAR LAB  ?C0005
      01000CB7H   SYMBOL    CODE     NEAR LAB  ?C0008
      01000EC0H   SYMBOL    CODE     NEAR LAB  ?C0009
LX51 LINKER/LOCATER V4.34a                                                            04/30/2009  14:47:59  PAGE 33


      01000EC5H   SYMBOL    CODE     NEAR LAB  ?C0010
      01000CC1H   SYMBOL    CODE     NEAR LAB  ?C0012
      01000CFBH   SYMBOL    CODE     NEAR LAB  ?C0015
      01000CAEH   SYMBOL    CODE     NEAR LAB  ?C0016
      01000CB5H   SYMBOL    CODE     NEAR LAB  ?C0017
      01000CDCH   SYMBOL    CODE     NEAR LAB  ?C0018
      01000CEEH   SYMBOL    CODE     NEAR LAB  ?C0019
      01000CF9H   SYMBOL    CODE     NEAR LAB  ?C0020
      0000005EH   SYMBOL    DATA     BYTE      DST?347
      0000007DH   SYMBOL    DATA     BYTE      MSEC?141
      00000061H   SYMBOL    DATA     BYTE      N?348
      0000005BH   SYMBOL    DATA     BYTE      SRC?346

      01000EFCH   BLOCK     CODE     NEAR LAB  LVL=0
      01000EFCH   LINE      CODE     ---       #231
      01000EFDH   LINE      CODE     ---       #232
      01000EFEH   LINE      CODE     ---       #233
      01000F00H   LINE      CODE     ---       #234
      01000F02H   LINE      CODE     ---       #235
      01000F04H   LINE      CODE     ---       #236
      01000F06H   LINE      CODE     ---       #237
      01000F08H   LINE      CODE     ---       #240
      ---         BLOCKEND  ---      ---       LVL=0

      01000C6FH   BLOCK     CODE     NEAR LAB  LVL=0
      01000C6FH   LINE      CODE     ---       #256
      01000C71H   LINE      CODE     ---       #257
      01000C73H   LINE      CODE     ---       #263
      01000C74H   LINE      CODE     ---       #264
      01000C76H   LINE      CODE     ---       #265
      01000C77H   LINE      CODE     ---       #266
      01000C78H   LINE      CODE     ---       #267
      01000C79H   LINE      CODE     ---       #268
      01000C7BH   LINE      CODE     ---       #269
      01000C7DH   LINE      CODE     ---       #270
      01000C7FH   LINE      CODE     ---       #271
      01000C81H   LINE      CODE     ---       #272
      01000C84H   LINE      CODE     ---       #273
      01000C85H   LINE      CODE     ---       #274
      01000C87H   LINE      CODE     ---       #275
      01000C88H   LINE      CODE     ---       #276
      01000C89H   LINE      CODE     ---       #277
      01000C8AH   LINE      CODE     ---       #278
      01000C8DH   LINE      CODE     ---       #283
      01000C8EH   LINE      CODE     ---       #284
      01000C8FH   LINE      CODE     ---       #285
      01000C90H   LINE      CODE     ---       #287
      01000C91H   LINE      CODE     ---       #288
      01000C92H   LINE      CODE     ---       #289
      01000C94H   LINE      CODE     ---       #290
      01000C95H   LINE      CODE     ---       #291
      01000C97H   LINE      CODE     ---       #292
      01000C99H   LINE      CODE     ---       #296
      01000C9AH   LINE      CODE     ---       #297
      01000C9BH   LINE      CODE     ---       #298
      01000C9CH   LINE      CODE     ---       #300
      01000C9DH   LINE      CODE     ---       #301
      01000C9EH   LINE      CODE     ---       #302
      01000C9FH   LINE      CODE     ---       #303
      01000CA0H   LINE      CODE     ---       #304
      01000CA2H   LINE      CODE     ---       #305
      01000CA3H   LINE      CODE     ---       #306
      01000CA4H   LINE      CODE     ---       #307
      01000CA6H   LINE      CODE     ---       #308
      01000CA7H   LINE      CODE     ---       #309
LX51 LINKER/LOCATER V4.34a                                                            04/30/2009  14:47:59  PAGE 34


      01000CA9H   LINE      CODE     ---       #310
      01000CAAH   LINE      CODE     ---       #311
      01000CADH   LINE      CODE     ---       #312
      01000CAEH   LINE      CODE     ---       #314
      01000CB0H   LINE      CODE     ---       #316
      01000CB1H   LINE      CODE     ---       #317
      01000CB4H   LINE      CODE     ---       #318
      01000CB5H   LINE      CODE     ---       #320
      01000CB7H   LINE      CODE     ---       #325
      ---         BLOCKEND  ---      ---       LVL=0

      01000EBCH   BLOCK     CODE     NEAR LAB  LVL=0
      01000EBCH   LINE      CODE     ---       #341
      01000EBEH   LINE      CODE     ---       #342
      01000EC0H   LINE      CODE     ---       #348
      01000EC2H   LINE      CODE     ---       #349
      01000EC5H   LINE      CODE     ---       #354
      01000EC7H   LINE      CODE     ---       #357
      01000EC8H   LINE      CODE     ---       #358
      01000ECAH   LINE      CODE     ---       #361
      01000ECDH   LINE      CODE     ---       #364
      ---         BLOCKEND  ---      ---       LVL=0

      01000CB8H   BLOCK     CODE     NEAR LAB  LVL=0
      01000CB8H   LINE      CODE     ---       #380
      01000CBAH   LINE      CODE     ---       #381
      01000CBCH   LINE      CODE     ---       #382
      01000CBEH   LINE      CODE     ---       #389
      01000CBFH   LINE      CODE     ---       #390
      01000CC0H   LINE      CODE     ---       #391
      01000CC1H   LINE      CODE     ---       #393
      01000CC2H   LINE      CODE     ---       #394
      01000CC3H   LINE      CODE     ---       #395
      01000CC5H   LINE      CODE     ---       #396
      01000CC7H   LINE      CODE     ---       #397
      01000CC9H   LINE      CODE     ---       #398
      01000CCAH   LINE      CODE     ---       #399
      01000CCBH   LINE      CODE     ---       #400
      01000CCDH   LINE      CODE     ---       #401
      01000CCEH   LINE      CODE     ---       #402
      01000CD0H   LINE      CODE     ---       #405
      01000CD2H   LINE      CODE     ---       #406
      01000CD4H   LINE      CODE     ---       #407
      01000CD6H   LINE      CODE     ---       #408
      01000CD8H   LINE      CODE     ---       #409
      01000CDAH   LINE      CODE     ---       #410
      01000CDCH   LINE      CODE     ---       #412
      01000CDDH   LINE      CODE     ---       #413
      01000CDEH   LINE      CODE     ---       #414
      01000CE1H   LINE      CODE     ---       #415
      01000CE2H   LINE      CODE     ---       #416
      01000CE4H   LINE      CODE     ---       #417
      01000CE6H   LINE      CODE     ---       #418
      01000CE8H   LINE      CODE     ---       #419
      01000CEAH   LINE      CODE     ---       #420
      01000CECH   LINE      CODE     ---       #421
      01000CEEH   LINE      CODE     ---       #423
      01000CEFH   LINE      CODE     ---       #424
      01000CF0H   LINE      CODE     ---       #425
      01000CF1H   LINE      CODE     ---       #426
      01000CF4H   LINE      CODE     ---       #429
      01000CF5H   LINE      CODE     ---       #430
      01000CF8H   LINE      CODE     ---       #431
      01000CF9H   LINE      CODE     ---       #433
      01000CFBH   LINE      CODE     ---       #437
LX51 LINKER/LOCATER V4.34a                                                            04/30/2009  14:47:59  PAGE 35


      ---         BLOCKEND  ---      ---       LVL=0

      ---         MODULE    ---      ---       SERIAL
      01000D74H   PUBLIC    CODE     NEAR LAB  _?INT_PRINT
      01000050H   PUBLIC    CODE     NEAR LAB  _PUTC
      01000E46H   PUBLIC    CODE     NEAR LAB  _PUTS
      01000F21H   PUBLIC    CODE     NEAR LAB  _SERIAL_INIT
      01000F49H   PUBLIC    CODE     NEAR LAB  GETC
      000000D0H.6 SFRSYM    DATA     BIT       AC
      000000E0H   SFRSYM    DATA     BYTE      ACC
      000000A1H   SFRSYM    DATA     BYTE      ADCCON
      000000A2H   SFRSYM    DATA     BYTE      ADCDATAH
      000000A3H   SFRSYM    DATA     BYTE      ADCDATAL
      000000A4H   SFRSYM    DATA     BYTE      ADCSTATIC
      000000F0H   SFRSYM    DATA     BYTE      B
      000000C8H.1 SFRSYM    DATA     BIT       C_T2
      000000A0H.6 SFRSYM    DATA     BIT       CE
      000000B6H   SFRSYM    DATA     BYTE      CK_CTRL
      0000008EH   SFRSYM    DATA     BYTE      CKCON
      000000A0H.1 SFRSYM    DATA     BIT       CLK1
      000000A0H.5 SFRSYM    DATA     BIT       CLK2
      000000C8H   SFRSYM    DATA     BIT       CP_RL2
      000000C8H   SFRSYM    DATA     BIT       CPRL2
      000000A0H.3 SFRSYM    DATA     BIT       CS
      000000C8H.1 SFRSYM    DATA     BIT       CT2
      000000D0H.7 SFRSYM    DATA     BIT       CY
      000000A0H   SFRSYM    DATA     BIT       DATA?
      000000BEH   SFRSYM    DATA     BYTE      DEV_OFFSET
      00000090H.2 SFRSYM    DATA     BIT       DIN0
      00000090H   SFRSYM    DATA     BIT       DIO0
      00000090H.1 SFRSYM    DATA     BIT       DIO1
      00000080H   SFRSYM    DATA     BIT       DIO2
      00000080H.1 SFRSYM    DATA     BIT       DIO3
      00000080H.2 SFRSYM    DATA     BIT       DIO4
      00000080H.3 SFRSYM    DATA     BIT       DIO5
      00000080H.4 SFRSYM    DATA     BIT       DIO6
      00000080H.5 SFRSYM    DATA     BIT       DIO7
      00000080H.6 SFRSYM    DATA     BIT       DIO8
      00000080H.7 SFRSYM    DATA     BIT       DIO9
      000000A0H.4 SFRSYM    DATA     BIT       DOUT2
      00000083H   SFRSYM    DATA     BYTE      DPH
      00000083H   SFRSYM    DATA     BYTE      DPH0
      00000085H   SFRSYM    DATA     BYTE      DPH1
      00000082H   SFRSYM    DATA     BYTE      DPL
      00000082H   SFRSYM    DATA     BYTE      DPL0
      00000084H   SFRSYM    DATA     BYTE      DPL1
      00000086H   SFRSYM    DATA     BYTE      DPS
      000000A0H.2 SFRSYM    DATA     BIT       DR1
      000000A0H.6 SFRSYM    DATA     BIT       DR2
      000000A0H.6 SFRSYM    DATA     BIT       DR2_CE
      000000A8H.7 SFRSYM    DATA     BIT       EA
      000000D8H   SFRSYM    DATA     BYTE      EICON
      000000E8H   SFRSYM    DATA     BYTE      EIE
      000000F8H   SFRSYM    DATA     BYTE      EIP
      000000A8H.4 SFRSYM    DATA     BIT       ES
      000000A8H.1 SFRSYM    DATA     BIT       ET0
      000000A8H.3 SFRSYM    DATA     BIT       ET1
      000000A8H.5 SFRSYM    DATA     BIT       ET2
      000000E8H.4 SFRSYM    DATA     BIT       EWDI
      000000A8H   SFRSYM    DATA     BIT       EX0
      000000A8H.2 SFRSYM    DATA     BIT       EX1
      000000E8H   SFRSYM    DATA     BIT       EX2
      000000E8H.1 SFRSYM    DATA     BIT       EX3
      000000E8H.2 SFRSYM    DATA     BIT       EX4
      000000E8H.3 SFRSYM    DATA     BIT       EX5
LX51 LINKER/LOCATER V4.34a                                                            04/30/2009  14:47:59  PAGE 36


      000000C8H.3 SFRSYM    DATA     BIT       EXEN2
      000000C8H.6 SFRSYM    DATA     BIT       EXF2
      00000091H   SFRSYM    DATA     BYTE      EXIF
      000000D0H.5 SFRSYM    DATA     BIT       F0
      000000D0H.1 SFRSYM    DATA     BIT       F1
      000000A8H   SFRSYM    DATA     BYTE      IE
      00000088H.1 SFRSYM    DATA     BIT       IE0
      00000088H.3 SFRSYM    DATA     BIT       IE1
      00000080H.3 SFRSYM    DATA     BIT       INT0_N
      00000080H.4 SFRSYM    DATA     BIT       INT1_N
      000000B8H   SFRSYM    DATA     BYTE      IP
      00000088H   SFRSYM    DATA     BIT       IT0
      00000088H.2 SFRSYM    DATA     BIT       IT1
      00000092H   SFRSYM    DATA     BYTE      MPAGE
      000000D0H.2 SFRSYM    DATA     BIT       OV
      000000D0H   SFRSYM    DATA     BIT       P
      00000080H   SFRSYM    DATA     BYTE      P0
      00000080H   SFRSYM    DATA     BIT       P0_0
      00000080H.1 SFRSYM    DATA     BIT       P0_1
      00000080H.2 SFRSYM    DATA     BIT       P0_2
      00000080H.3 SFRSYM    DATA     BIT       P0_3
      00000080H.4 SFRSYM    DATA     BIT       P0_4
      00000080H.5 SFRSYM    DATA     BIT       P0_5
      00000080H.6 SFRSYM    DATA     BIT       P0_6
      00000080H.7 SFRSYM    DATA     BIT       P0_7
      00000095H   SFRSYM    DATA     BYTE      P0_ALT
      00000094H   SFRSYM    DATA     BYTE      P0_DIR
      00000090H   SFRSYM    DATA     BYTE      P1
      00000090H   SFRSYM    DATA     BIT       P1_0
      00000090H.1 SFRSYM    DATA     BIT       P1_1
      00000090H.2 SFRSYM    DATA     BIT       P1_2
      00000097H   SFRSYM    DATA     BYTE      P1_ALT
      00000096H   SFRSYM    DATA     BYTE      P1_DIR
      00000087H   SFRSYM    DATA     BYTE      PCON
      000000B8H.4 SFRSYM    DATA     BIT       PS
      000000D0H   SFRSYM    DATA     BYTE      PSW
      000000B8H.1 SFRSYM    DATA     BIT       PT0
      000000B8H.3 SFRSYM    DATA     BIT       PT1
      000000B8H.5 SFRSYM    DATA     BIT       PT2
      000000F8H.4 SFRSYM    DATA     BIT       PWDI
      00000080H.7 SFRSYM    DATA     BIT       PWM
      000000A9H   SFRSYM    DATA     BYTE      PWMCON
      000000AAH   SFRSYM    DATA     BYTE      PWMDUTY
      000000A0H.7 SFRSYM    DATA     BIT       PWR_UP
      000000B8H   SFRSYM    DATA     BIT       PX0
      000000B8H.2 SFRSYM    DATA     BIT       PX1
      000000F8H   SFRSYM    DATA     BIT       PX2
      000000F8H.1 SFRSYM    DATA     BIT       PX3
      000000F8H.2 SFRSYM    DATA     BIT       PX4
      000000F8H.3 SFRSYM    DATA     BIT       PX5
      000000A0H   SFRSYM    DATA     BYTE      RADIO
      00000098H.2 SFRSYM    DATA     BIT       RB8
      000000CBH   SFRSYM    DATA     BYTE      RCAP2H
      000000CAH   SFRSYM    DATA     BYTE      RCAP2L
      000000C8H.5 SFRSYM    DATA     BIT       RCLK
      000000ADH   SFRSYM    DATA     BYTE      REGX_CTRL
      000000ACH   SFRSYM    DATA     BYTE      REGX_LSB
      000000ABH   SFRSYM    DATA     BYTE      REGX_MSB
      00000098H.4 SFRSYM    DATA     BIT       REN
      00000098H   SFRSYM    DATA     BIT       RI
      000000D0H.3 SFRSYM    DATA     BIT       RS0
      000000D0H.4 SFRSYM    DATA     BIT       RS1
      000000B1H   SFRSYM    DATA     BYTE      RSTREAS
      00000080H.1 SFRSYM    DATA     BIT       RXD
      00000099H   SFRSYM    DATA     BYTE      SBUF
LX51 LINKER/LOCATER V4.34a                                                            04/30/2009  14:47:59  PAGE 37


      00000098H   SFRSYM    DATA     BYTE      SCON
      00000098H.7 SFRSYM    DATA     BIT       SM0
      00000098H.6 SFRSYM    DATA     BIT       SM1
      00000098H.5 SFRSYM    DATA     BIT       SM2
      00000081H   SFRSYM    DATA     BYTE      SP
      0000008FH   SFRSYM    DATA     BYTE      SPC_FNC
      000000B3H   SFRSYM    DATA     BYTE      SPI_CTRL
      000000B2H   SFRSYM    DATA     BYTE      SPI_DATA
      000000B4H   SFRSYM    DATA     BYTE      SPICLK
      00000080H.5 SFRSYM    DATA     BIT       T0
      00000080H.6 SFRSYM    DATA     BIT       T1
      000000BCH   SFRSYM    DATA     BYTE      T1_1V2
      00000090H   SFRSYM    DATA     BIT       T2
      000000BDH   SFRSYM    DATA     BYTE      T2_1V2
      000000C8H   SFRSYM    DATA     BYTE      T2CON
      00000098H.3 SFRSYM    DATA     BIT       TB8
      000000C8H.4 SFRSYM    DATA     BIT       TCLK
      00000088H   SFRSYM    DATA     BYTE      TCON
      000000B7H   SFRSYM    DATA     BYTE      TEST_MODE
      00000088H.5 SFRSYM    DATA     BIT       TF0
      00000088H.7 SFRSYM    DATA     BIT       TF1
      000000C8H.7 SFRSYM    DATA     BIT       TF2
      0000008CH   SFRSYM    DATA     BYTE      TH0
      0000008DH   SFRSYM    DATA     BYTE      TH1
      000000CDH   SFRSYM    DATA     BYTE      TH2
      00000098H.1 SFRSYM    DATA     BIT       TI
      000000B5H   SFRSYM    DATA     BYTE      TICK_DV
      0000008AH   SFRSYM    DATA     BYTE      TL0
      0000008BH   SFRSYM    DATA     BYTE      TL1
      000000CCH   SFRSYM    DATA     BYTE      TL2
      00000089H   SFRSYM    DATA     BYTE      TMOD
      00000088H.4 SFRSYM    DATA     BIT       TR0
      00000088H.6 SFRSYM    DATA     BIT       TR1
      000000C8H.2 SFRSYM    DATA     BIT       TR2
      00000080H.2 SFRSYM    DATA     BIT       TXD
      000000D8H.3 SFRSYM    DATA     BIT       WDTI
      00000072H   SYMBOL    DATA     BYTE      ?_PUTS?BYTE
      01000D34H   SYMBOL    CODE     NEAR LAB  ?C0001
      01000D20H   SYMBOL    CODE     NEAR LAB  ?C0002
      01000D28H   SYMBOL    CODE     NEAR LAB  ?C0003
      01000D30H   SYMBOL    CODE     NEAR LAB  ?C0004
      01000D38H   SYMBOL    CODE     NEAR LAB  ?C0005
      01000F36H   SYMBOL    CODE     NEAR LAB  ?C0007
      01000F39H   SYMBOL    CODE     NEAR LAB  ?C0008
      01000F3CH   SYMBOL    CODE     NEAR LAB  ?C0010
      01000F3FH   SYMBOL    CODE     NEAR LAB  ?C0011
      01000F43H   SYMBOL    CODE     NEAR LAB  ?C0012
      01000E4CH   SYMBOL    CODE     NEAR LAB  ?C0014
      01000E6AH   SYMBOL    CODE     NEAR LAB  ?C0016
      01000F4CH   SYMBOL    CODE     NEAR LAB  ?C0017
      01000D94H   SYMBOL    CODE     NEAR LAB  ?C0018
      01000E5FH   SYMBOL    CODE     NEAR LAB  ?C0020
      01000F34H   SYMBOL    CODE     NEAR LAB  _SERIAL_WRITE
      01000CFCH   SYMBOL    CODE     NEAR LAB  _SETUP_BAUDRATE
      00000072H   SYMBOL    DATA     BYTE      S?544
      01000F3CH   SYMBOL    CODE     NEAR LAB  SERIAL_READ

      01000CFCH   BLOCK     CODE     NEAR LAB  LVL=0
      01000CFCH   LINE      CODE     ---       #221
      01000CFFH   LINE      CODE     ---       #224
      01000D01H   LINE      CODE     ---       #227
      01000D03H   LINE      CODE     ---       #230
      01000D05H   LINE      CODE     ---       #233
      01000D08H   LINE      CODE     ---       #237
      01000D0BH   LINE      CODE     ---       #240
LX51 LINKER/LOCATER V4.34a                                                            04/30/2009  14:47:59  PAGE 38


      01000D0EH   LINE      CODE     ---       #244
      01000D0FH   LINE      CODE     ---       #245
      01000D11H   LINE      CODE     ---       #246
      01000D20H   LINE      CODE     ---       #258
      01000D23H   LINE      CODE     ---       #261
      01000D26H   LINE      CODE     ---       #264
      01000D28H   LINE      CODE     ---       #270
      01000D2BH   LINE      CODE     ---       #273
      01000D2EH   LINE      CODE     ---       #276
      01000D30H   LINE      CODE     ---       #283
      01000D31H   LINE      CODE     ---       #284
      01000D32H   LINE      CODE     ---       #285
      01000D33H   LINE      CODE     ---       #286
      01000D34H   LINE      CODE     ---       #292
      01000D36H   LINE      CODE     ---       #293
      01000D38H   LINE      CODE     ---       #297
      ---         BLOCKEND  ---      ---       LVL=0

      01000F21H   BLOCK     CODE     NEAR LAB  LVL=0
      01000F21H   LINE      CODE     ---       #319
      01000F24H   LINE      CODE     ---       #322
      01000F27H   LINE      CODE     ---       #325
      01000F2AH   LINE      CODE     ---       #328
      ---         BLOCKEND  ---      ---       LVL=0

      01000F34H   BLOCK     CODE     NEAR LAB  LVL=0
      01000F34H   LINE      CODE     ---       #345
      01000F36H   LINE      CODE     ---       #349
      01000F39H   LINE      CODE     ---       #354
      01000F3BH   LINE      CODE     ---       #357
      ---         BLOCKEND  ---      ---       LVL=0

      01000F3CH   BLOCK     CODE     NEAR LAB  LVL=0
      01000F3CH   LINE      CODE     ---       #375
      01000F3FH   LINE      CODE     ---       #380
      01000F41H   LINE      CODE     ---       #383
      01000F43H   LINE      CODE     ---       #387
      ---         BLOCKEND  ---      ---       LVL=0

      01000050H   BLOCK     CODE     NEAR LAB  LVL=0
      01000050H   LINE      CODE     ---       #402
      ---         BLOCKEND  ---      ---       LVL=0

      01000E46H   BLOCK     CODE     NEAR LAB  LVL=0
      01000E46H   LINE      CODE     ---       #413
      01000E48H   LINE      CODE     ---       #414
      01000E4AH   LINE      CODE     ---       #415
      01000E4CH   LINE      CODE     ---       #421
      01000E4EH   LINE      CODE     ---       #422
      01000E50H   LINE      CODE     ---       #423
      01000E52H   LINE      CODE     ---       #424
      01000E55H   LINE      CODE     ---       #425
      01000E57H   LINE      CODE     ---       #428
      01000E59H   LINE      CODE     ---       #429
      01000E5BH   LINE      CODE     ---       #430
      01000E5DH   LINE      CODE     ---       #431
      01000E5FH   LINE      CODE     ---       #433
      01000E60H   LINE      CODE     ---       #434
      01000E61H   LINE      CODE     ---       #435
      01000E64H   LINE      CODE     ---       #436
      01000E65H   LINE      CODE     ---       #437
      01000E68H   LINE      CODE     ---       #438
      01000E6AH   LINE      CODE     ---       #442
      ---         BLOCKEND  ---      ---       LVL=0

LX51 LINKER/LOCATER V4.34a                                                            04/30/2009  14:47:59  PAGE 39


      01000F49H   BLOCK     CODE     NEAR LAB  LVL=0
      01000F49H   LINE      CODE     ---       #456
      01000F4CH   LINE      CODE     ---       #460
      ---         BLOCKEND  ---      ---       LVL=0

      01000D74H   BLOCK     CODE     NEAR LAB  LVL=0
      01000D74H   LINE      CODE     ---       #474
      01000D76H   LINE      CODE     ---       #475
      01000D78H   LINE      CODE     ---       #476
      01000D7AH   LINE      CODE     ---       #477
      01000D7CH   LINE      CODE     ---       #478
      01000D7DH   LINE      CODE     ---       #479
      01000D7FH   LINE      CODE     ---       #483
      01000D81H   LINE      CODE     ---       #484
      01000D82H   LINE      CODE     ---       #485
      01000D83H   LINE      CODE     ---       #486
      01000D84H   LINE      CODE     ---       #487
      01000D85H   LINE      CODE     ---       #488
      01000D86H   LINE      CODE     ---       #489
      01000D88H   LINE      CODE     ---       #490
      01000D8AH   LINE      CODE     ---       #491
      01000D8DH   LINE      CODE     ---       #492
      01000D8EH   LINE      CODE     ---       #493
      01000D8FH   LINE      CODE     ---       #494
      01000D91H   LINE      CODE     ---       #497
      01000D94H   LINE      CODE     ---       #501
      01000D96H   LINE      CODE     ---       #502
      01000D97H   LINE      CODE     ---       #503
      01000D98H   LINE      CODE     ---       #504
      01000D99H   LINE      CODE     ---       #505
      01000D9AH   LINE      CODE     ---       #506
      01000D9BH   LINE      CODE     ---       #507
      01000D9DH   LINE      CODE     ---       #508
      01000D9FH   LINE      CODE     ---       #509
      01000DA2H   LINE      CODE     ---       #510
      01000DA3H   LINE      CODE     ---       #511
      01000DA5H   LINE      CODE     ---       #512
      01000DA6H   LINE      CODE     ---       #513
      01000DA9H   LINE      CODE     ---       #516
      01000DABH   LINE      CODE     ---       #517
      01000DADH   LINE      CODE     ---       #518
      ---         BLOCKEND  ---      ---       LVL=0

      ---         MODULE    ---      ---       SPI
      01000F44H   PUBLIC    CODE     NEAR LAB  _SPI_INIT
      01000F09H   PUBLIC    CODE     NEAR LAB  _SPI_WRITE_THEN_READ
      000000D0H.6 SFRSYM    DATA     BIT       AC
      000000E0H   SFRSYM    DATA     BYTE      ACC
      000000A1H   SFRSYM    DATA     BYTE      ADCCON
      000000A2H   SFRSYM    DATA     BYTE      ADCDATAH
      000000A3H   SFRSYM    DATA     BYTE      ADCDATAL
      000000A4H   SFRSYM    DATA     BYTE      ADCSTATIC
      000000F0H   SFRSYM    DATA     BYTE      B
      000000C8H.1 SFRSYM    DATA     BIT       C_T2
      000000A0H.6 SFRSYM    DATA     BIT       CE
      000000B6H   SFRSYM    DATA     BYTE      CK_CTRL
      0000008EH   SFRSYM    DATA     BYTE      CKCON
      000000A0H.1 SFRSYM    DATA     BIT       CLK1
      000000A0H.5 SFRSYM    DATA     BIT       CLK2
      000000C8H   SFRSYM    DATA     BIT       CP_RL2
      000000C8H   SFRSYM    DATA     BIT       CPRL2
      000000A0H.3 SFRSYM    DATA     BIT       CS
      000000C8H.1 SFRSYM    DATA     BIT       CT2
      000000D0H.7 SFRSYM    DATA     BIT       CY
      000000A0H   SFRSYM    DATA     BIT       DATA?
LX51 LINKER/LOCATER V4.34a                                                            04/30/2009  14:47:59  PAGE 40


      000000BEH   SFRSYM    DATA     BYTE      DEV_OFFSET
      00000090H.2 SFRSYM    DATA     BIT       DIN0
      00000090H   SFRSYM    DATA     BIT       DIO0
      00000090H.1 SFRSYM    DATA     BIT       DIO1
      00000080H   SFRSYM    DATA     BIT       DIO2
      00000080H.1 SFRSYM    DATA     BIT       DIO3
      00000080H.2 SFRSYM    DATA     BIT       DIO4
      00000080H.3 SFRSYM    DATA     BIT       DIO5
      00000080H.4 SFRSYM    DATA     BIT       DIO6
      00000080H.5 SFRSYM    DATA     BIT       DIO7
      00000080H.6 SFRSYM    DATA     BIT       DIO8
      00000080H.7 SFRSYM    DATA     BIT       DIO9
      000000A0H.4 SFRSYM    DATA     BIT       DOUT2
      00000083H   SFRSYM    DATA     BYTE      DPH
      00000083H   SFRSYM    DATA     BYTE      DPH0
      00000085H   SFRSYM    DATA     BYTE      DPH1
      00000082H   SFRSYM    DATA     BYTE      DPL
      00000082H   SFRSYM    DATA     BYTE      DPL0
      00000084H   SFRSYM    DATA     BYTE      DPL1
      00000086H   SFRSYM    DATA     BYTE      DPS
      000000A0H.2 SFRSYM    DATA     BIT       DR1
      000000A0H.6 SFRSYM    DATA     BIT       DR2
      000000A0H.6 SFRSYM    DATA     BIT       DR2_CE
      000000A8H.7 SFRSYM    DATA     BIT       EA
      000000D8H   SFRSYM    DATA     BYTE      EICON
      000000E8H   SFRSYM    DATA     BYTE      EIE
      000000F8H   SFRSYM    DATA     BYTE      EIP
      000000A8H.4 SFRSYM    DATA     BIT       ES
      000000A8H.1 SFRSYM    DATA     BIT       ET0
      000000A8H.3 SFRSYM    DATA     BIT       ET1
      000000A8H.5 SFRSYM    DATA     BIT       ET2
      000000E8H.4 SFRSYM    DATA     BIT       EWDI
      000000A8H   SFRSYM    DATA     BIT       EX0
      000000A8H.2 SFRSYM    DATA     BIT       EX1
      000000E8H   SFRSYM    DATA     BIT       EX2
      000000E8H.1 SFRSYM    DATA     BIT       EX3
      000000E8H.2 SFRSYM    DATA     BIT       EX4
      000000E8H.3 SFRSYM    DATA     BIT       EX5
      000000C8H.3 SFRSYM    DATA     BIT       EXEN2
      000000C8H.6 SFRSYM    DATA     BIT       EXF2
      00000091H   SFRSYM    DATA     BYTE      EXIF
      000000D0H.5 SFRSYM    DATA     BIT       F0
      000000D0H.1 SFRSYM    DATA     BIT       F1
      000000A8H   SFRSYM    DATA     BYTE      IE
      00000088H.1 SFRSYM    DATA     BIT       IE0
      00000088H.3 SFRSYM    DATA     BIT       IE1
      00000080H.3 SFRSYM    DATA     BIT       INT0_N
      00000080H.4 SFRSYM    DATA     BIT       INT1_N
      000000B8H   SFRSYM    DATA     BYTE      IP
      00000088H   SFRSYM    DATA     BIT       IT0
      00000088H.2 SFRSYM    DATA     BIT       IT1
      00000092H   SFRSYM    DATA     BYTE      MPAGE
      000000D0H.2 SFRSYM    DATA     BIT       OV
      000000D0H   SFRSYM    DATA     BIT       P
      00000080H   SFRSYM    DATA     BYTE      P0
      00000080H   SFRSYM    DATA     BIT       P0_0
      00000080H.1 SFRSYM    DATA     BIT       P0_1
      00000080H.2 SFRSYM    DATA     BIT       P0_2
      00000080H.3 SFRSYM    DATA     BIT       P0_3
      00000080H.4 SFRSYM    DATA     BIT       P0_4
      00000080H.5 SFRSYM    DATA     BIT       P0_5
      00000080H.6 SFRSYM    DATA     BIT       P0_6
      00000080H.7 SFRSYM    DATA     BIT       P0_7
      00000095H   SFRSYM    DATA     BYTE      P0_ALT
      00000094H   SFRSYM    DATA     BYTE      P0_DIR
LX51 LINKER/LOCATER V4.34a                                                            04/30/2009  14:47:59  PAGE 41


      00000090H   SFRSYM    DATA     BYTE      P1
      00000090H   SFRSYM    DATA     BIT       P1_0
      00000090H.1 SFRSYM    DATA     BIT       P1_1
      00000090H.2 SFRSYM    DATA     BIT       P1_2
      00000097H   SFRSYM    DATA     BYTE      P1_ALT
      00000096H   SFRSYM    DATA     BYTE      P1_DIR
      00000087H   SFRSYM    DATA     BYTE      PCON
      000000B8H.4 SFRSYM    DATA     BIT       PS
      000000D0H   SFRSYM    DATA     BYTE      PSW
      000000B8H.1 SFRSYM    DATA     BIT       PT0
      000000B8H.3 SFRSYM    DATA     BIT       PT1
      000000B8H.5 SFRSYM    DATA     BIT       PT2
      000000F8H.4 SFRSYM    DATA     BIT       PWDI
      00000080H.7 SFRSYM    DATA     BIT       PWM
      000000A9H   SFRSYM    DATA     BYTE      PWMCON
      000000AAH   SFRSYM    DATA     BYTE      PWMDUTY
      000000A0H.7 SFRSYM    DATA     BIT       PWR_UP
      000000B8H   SFRSYM    DATA     BIT       PX0
      000000B8H.2 SFRSYM    DATA     BIT       PX1
      000000F8H   SFRSYM    DATA     BIT       PX2
      000000F8H.1 SFRSYM    DATA     BIT       PX3
      000000F8H.2 SFRSYM    DATA     BIT       PX4
      000000F8H.3 SFRSYM    DATA     BIT       PX5
      000000A0H   SFRSYM    DATA     BYTE      RADIO
      00000098H.2 SFRSYM    DATA     BIT       RB8
      000000CBH   SFRSYM    DATA     BYTE      RCAP2H
      000000CAH   SFRSYM    DATA     BYTE      RCAP2L
      000000C8H.5 SFRSYM    DATA     BIT       RCLK
      000000ADH   SFRSYM    DATA     BYTE      REGX_CTRL
      000000ACH   SFRSYM    DATA     BYTE      REGX_LSB
      000000ABH   SFRSYM    DATA     BYTE      REGX_MSB
      00000098H.4 SFRSYM    DATA     BIT       REN
      00000098H   SFRSYM    DATA     BIT       RI
      000000D0H.3 SFRSYM    DATA     BIT       RS0
      000000D0H.4 SFRSYM    DATA     BIT       RS1
      000000B1H   SFRSYM    DATA     BYTE      RSTREAS
      00000080H.1 SFRSYM    DATA     BIT       RXD
      00000099H   SFRSYM    DATA     BYTE      SBUF
      00000098H   SFRSYM    DATA     BYTE      SCON
      00000098H.7 SFRSYM    DATA     BIT       SM0
      00000098H.6 SFRSYM    DATA     BIT       SM1
      00000098H.5 SFRSYM    DATA     BIT       SM2
      00000081H   SFRSYM    DATA     BYTE      SP
      0000008FH   SFRSYM    DATA     BYTE      SPC_FNC
      000000B3H   SFRSYM    DATA     BYTE      SPI_CTRL
      000000B2H   SFRSYM    DATA     BYTE      SPI_DATA
      000000B4H   SFRSYM    DATA     BYTE      SPICLK
      00000080H.5 SFRSYM    DATA     BIT       T0
      00000080H.6 SFRSYM    DATA     BIT       T1
      000000BCH   SFRSYM    DATA     BYTE      T1_1V2
      00000090H   SFRSYM    DATA     BIT       T2
      000000BDH   SFRSYM    DATA     BYTE      T2_1V2
      000000C8H   SFRSYM    DATA     BYTE      T2CON
      00000098H.3 SFRSYM    DATA     BIT       TB8
      000000C8H.4 SFRSYM    DATA     BIT       TCLK
      00000088H   SFRSYM    DATA     BYTE      TCON
      000000B7H   SFRSYM    DATA     BYTE      TEST_MODE
      00000088H.5 SFRSYM    DATA     BIT       TF0
      00000088H.7 SFRSYM    DATA     BIT       TF1
      000000C8H.7 SFRSYM    DATA     BIT       TF2
      0000008CH   SFRSYM    DATA     BYTE      TH0
      0000008DH   SFRSYM    DATA     BYTE      TH1
      000000CDH   SFRSYM    DATA     BYTE      TH2
      00000098H.1 SFRSYM    DATA     BIT       TI
      000000B5H   SFRSYM    DATA     BYTE      TICK_DV
LX51 LINKER/LOCATER V4.34a                                                            04/30/2009  14:47:59  PAGE 42


      0000008AH   SFRSYM    DATA     BYTE      TL0
      0000008BH   SFRSYM    DATA     BYTE      TL1
      000000CCH   SFRSYM    DATA     BYTE      TL2
      00000089H   SFRSYM    DATA     BYTE      TMOD
      00000088H.4 SFRSYM    DATA     BIT       TR0
      00000088H.6 SFRSYM    DATA     BIT       TR1
      000000C8H.2 SFRSYM    DATA     BIT       TR2
      00000080H.2 SFRSYM    DATA     BIT       TXD
      000000D8H.3 SFRSYM    DATA     BIT       WDTI
      01000F0EH   SYMBOL    CODE     NEAR LAB  ?C0002
      01000F13H   SYMBOL    CODE     NEAR LAB  ?C0003
      01000F15H   SYMBOL    CODE     NEAR LAB  ?C0004

      01000F44H   BLOCK     CODE     NEAR LAB  LVL=0
      01000F44H   LINE      CODE     ---       #203
      01000F46H   LINE      CODE     ---       #206
      01000F48H   LINE      CODE     ---       #209
      ---         BLOCKEND  ---      ---       LVL=0

      01000F09H   BLOCK     CODE     NEAR LAB  LVL=0
      01000F09H   LINE      CODE     ---       #229
      01000F0CH   LINE      CODE     ---       #232
      01000F0EH   LINE      CODE     ---       #236
      01000F10H   LINE      CODE     ---       #237
      01000F13H   LINE      CODE     ---       #242
      01000F15H   LINE      CODE     ---       #246
      ---         BLOCKEND  ---      ---       LVL=0

      ---         MODULE    ---      ---       EEPROM
      01000E1AH   PUBLIC    CODE     NEAR LAB  _EEPROM_READ
      01000D39H   PUBLIC    CODE     NEAR LAB  _EEPROM_WRITE
      01000F16H   PUBLIC    CODE     NEAR LAB  EEPROM_INIT
      01000EDFH   PUBLIC    CODE     NEAR LAB  EEPROM_STATUS
      01000E6BH   PUBLIC    CODE     NEAR LAB  FLASH_ERASE_ALL
      000000D0H.6 SFRSYM    DATA     BIT       AC
      000000E0H   SFRSYM    DATA     BYTE      ACC
      000000A1H   SFRSYM    DATA     BYTE      ADCCON
      000000A2H   SFRSYM    DATA     BYTE      ADCDATAH
      000000A3H   SFRSYM    DATA     BYTE      ADCDATAL
      000000A4H   SFRSYM    DATA     BYTE      ADCSTATIC
      000000F0H   SFRSYM    DATA     BYTE      B
      000000C8H.1 SFRSYM    DATA     BIT       C_T2
      000000A0H.6 SFRSYM    DATA     BIT       CE
      000000B6H   SFRSYM    DATA     BYTE      CK_CTRL
      0000008EH   SFRSYM    DATA     BYTE      CKCON
      000000A0H.1 SFRSYM    DATA     BIT       CLK1
      000000A0H.5 SFRSYM    DATA     BIT       CLK2
      000000C8H   SFRSYM    DATA     BIT       CP_RL2
      000000C8H   SFRSYM    DATA     BIT       CPRL2
      000000A0H.3 SFRSYM    DATA     BIT       CS
      000000C8H.1 SFRSYM    DATA     BIT       CT2
      000000D0H.7 SFRSYM    DATA     BIT       CY
      000000A0H   SFRSYM    DATA     BIT       DATA?
      000000BEH   SFRSYM    DATA     BYTE      DEV_OFFSET
      00000090H.2 SFRSYM    DATA     BIT       DIN0
      00000090H   SFRSYM    DATA     BIT       DIO0
      00000090H.1 SFRSYM    DATA     BIT       DIO1
      00000080H   SFRSYM    DATA     BIT       DIO2
      00000080H.1 SFRSYM    DATA     BIT       DIO3
      00000080H.2 SFRSYM    DATA     BIT       DIO4
      00000080H.3 SFRSYM    DATA     BIT       DIO5
      00000080H.4 SFRSYM    DATA     BIT       DIO6
      00000080H.5 SFRSYM    DATA     BIT       DIO7
      00000080H.6 SFRSYM    DATA     BIT       DIO8
      00000080H.7 SFRSYM    DATA     BIT       DIO9
LX51 LINKER/LOCATER V4.34a                                                            04/30/2009  14:47:59  PAGE 43


      000000A0H.4 SFRSYM    DATA     BIT       DOUT2
      00000083H   SFRSYM    DATA     BYTE      DPH
      00000083H   SFRSYM    DATA     BYTE      DPH0
      00000085H   SFRSYM    DATA     BYTE      DPH1
      00000082H   SFRSYM    DATA     BYTE      DPL
      00000082H   SFRSYM    DATA     BYTE      DPL0
      00000084H   SFRSYM    DATA     BYTE      DPL1
      00000086H   SFRSYM    DATA     BYTE      DPS
      000000A0H.2 SFRSYM    DATA     BIT       DR1
      000000A0H.6 SFRSYM    DATA     BIT       DR2
      000000A0H.6 SFRSYM    DATA     BIT       DR2_CE
      000000A8H.7 SFRSYM    DATA     BIT       EA
      000000D8H   SFRSYM    DATA     BYTE      EICON
      000000E8H   SFRSYM    DATA     BYTE      EIE
      000000F8H   SFRSYM    DATA     BYTE      EIP
      000000A8H.4 SFRSYM    DATA     BIT       ES
      000000A8H.1 SFRSYM    DATA     BIT       ET0
      000000A8H.3 SFRSYM    DATA     BIT       ET1
      000000A8H.5 SFRSYM    DATA     BIT       ET2
      000000E8H.4 SFRSYM    DATA     BIT       EWDI
      000000A8H   SFRSYM    DATA     BIT       EX0
      000000A8H.2 SFRSYM    DATA     BIT       EX1
      000000E8H   SFRSYM    DATA     BIT       EX2
      000000E8H.1 SFRSYM    DATA     BIT       EX3
      000000E8H.2 SFRSYM    DATA     BIT       EX4
      000000E8H.3 SFRSYM    DATA     BIT       EX5
      000000C8H.3 SFRSYM    DATA     BIT       EXEN2
      000000C8H.6 SFRSYM    DATA     BIT       EXF2
      00000091H   SFRSYM    DATA     BYTE      EXIF
      000000D0H.5 SFRSYM    DATA     BIT       F0
      000000D0H.1 SFRSYM    DATA     BIT       F1
      000000A8H   SFRSYM    DATA     BYTE      IE
      00000088H.1 SFRSYM    DATA     BIT       IE0
      00000088H.3 SFRSYM    DATA     BIT       IE1
      00000080H.3 SFRSYM    DATA     BIT       INT0_N
      00000080H.4 SFRSYM    DATA     BIT       INT1_N
      000000B8H   SFRSYM    DATA     BYTE      IP
      00000088H   SFRSYM    DATA     BIT       IT0
      00000088H.2 SFRSYM    DATA     BIT       IT1
      00000092H   SFRSYM    DATA     BYTE      MPAGE
      000000D0H.2 SFRSYM    DATA     BIT       OV
      000000D0H   SFRSYM    DATA     BIT       P
      00000080H   SFRSYM    DATA     BYTE      P0
      00000080H   SFRSYM    DATA     BIT       P0_0
      00000080H.1 SFRSYM    DATA     BIT       P0_1
      00000080H.2 SFRSYM    DATA     BIT       P0_2
      00000080H.3 SFRSYM    DATA     BIT       P0_3
      00000080H.4 SFRSYM    DATA     BIT       P0_4
      00000080H.5 SFRSYM    DATA     BIT       P0_5
      00000080H.6 SFRSYM    DATA     BIT       P0_6
      00000080H.7 SFRSYM    DATA     BIT       P0_7
      00000095H   SFRSYM    DATA     BYTE      P0_ALT
      00000094H   SFRSYM    DATA     BYTE      P0_DIR
      00000090H   SFRSYM    DATA     BYTE      P1
      00000090H   SFRSYM    DATA     BIT       P1_0
      00000090H.1 SFRSYM    DATA     BIT       P1_1
      00000090H.2 SFRSYM    DATA     BIT       P1_2
      00000097H   SFRSYM    DATA     BYTE      P1_ALT
      00000096H   SFRSYM    DATA     BYTE      P1_DIR
      00000087H   SFRSYM    DATA     BYTE      PCON
      000000B8H.4 SFRSYM    DATA     BIT       PS
      000000D0H   SFRSYM    DATA     BYTE      PSW
      000000B8H.1 SFRSYM    DATA     BIT       PT0
      000000B8H.3 SFRSYM    DATA     BIT       PT1
      000000B8H.5 SFRSYM    DATA     BIT       PT2
LX51 LINKER/LOCATER V4.34a                                                            04/30/2009  14:47:59  PAGE 44


      000000F8H.4 SFRSYM    DATA     BIT       PWDI
      00000080H.7 SFRSYM    DATA     BIT       PWM
      000000A9H   SFRSYM    DATA     BYTE      PWMCON
      000000AAH   SFRSYM    DATA     BYTE      PWMDUTY
      000000A0H.7 SFRSYM    DATA     BIT       PWR_UP
      000000B8H   SFRSYM    DATA     BIT       PX0
      000000B8H.2 SFRSYM    DATA     BIT       PX1
      000000F8H   SFRSYM    DATA     BIT       PX2
      000000F8H.1 SFRSYM    DATA     BIT       PX3
      000000F8H.2 SFRSYM    DATA     BIT       PX4
      000000F8H.3 SFRSYM    DATA     BIT       PX5
      000000A0H   SFRSYM    DATA     BYTE      RADIO
      00000098H.2 SFRSYM    DATA     BIT       RB8
      000000CBH   SFRSYM    DATA     BYTE      RCAP2H
      000000CAH   SFRSYM    DATA     BYTE      RCAP2L
      000000C8H.5 SFRSYM    DATA     BIT       RCLK
      000000ADH   SFRSYM    DATA     BYTE      REGX_CTRL
      000000ACH   SFRSYM    DATA     BYTE      REGX_LSB
      000000ABH   SFRSYM    DATA     BYTE      REGX_MSB
      00000098H.4 SFRSYM    DATA     BIT       REN
      00000098H   SFRSYM    DATA     BIT       RI
      000000D0H.3 SFRSYM    DATA     BIT       RS0
      000000D0H.4 SFRSYM    DATA     BIT       RS1
      000000B1H   SFRSYM    DATA     BYTE      RSTREAS
      00000080H.1 SFRSYM    DATA     BIT       RXD
      00000099H   SFRSYM    DATA     BYTE      SBUF
      00000098H   SFRSYM    DATA     BYTE      SCON
      00000098H.7 SFRSYM    DATA     BIT       SM0
      00000098H.6 SFRSYM    DATA     BIT       SM1
      00000098H.5 SFRSYM    DATA     BIT       SM2
      00000081H   SFRSYM    DATA     BYTE      SP
      0000008FH   SFRSYM    DATA     BYTE      SPC_FNC
      000000B3H   SFRSYM    DATA     BYTE      SPI_CTRL
      000000B2H   SFRSYM    DATA     BYTE      SPI_DATA
      000000B4H   SFRSYM    DATA     BYTE      SPICLK
      00000080H.5 SFRSYM    DATA     BIT       T0
      00000080H.6 SFRSYM    DATA     BIT       T1
      000000BCH   SFRSYM    DATA     BYTE      T1_1V2
      00000090H   SFRSYM    DATA     BIT       T2
      000000BDH   SFRSYM    DATA     BYTE      T2_1V2
      000000C8H   SFRSYM    DATA     BYTE      T2CON
      00000098H.3 SFRSYM    DATA     BIT       TB8
      000000C8H.4 SFRSYM    DATA     BIT       TCLK
      00000088H   SFRSYM    DATA     BYTE      TCON
      000000B7H   SFRSYM    DATA     BYTE      TEST_MODE
      00000088H.5 SFRSYM    DATA     BIT       TF0
      00000088H.7 SFRSYM    DATA     BIT       TF1
      000000C8H.7 SFRSYM    DATA     BIT       TF2
      0000008CH   SFRSYM    DATA     BYTE      TH0
      0000008DH   SFRSYM    DATA     BYTE      TH1
      000000CDH   SFRSYM    DATA     BYTE      TH2
      00000098H.1 SFRSYM    DATA     BIT       TI
      000000B5H   SFRSYM    DATA     BYTE      TICK_DV
      0000008AH   SFRSYM    DATA     BYTE      TL0
      0000008BH   SFRSYM    DATA     BYTE      TL1
      000000CCH   SFRSYM    DATA     BYTE      TL2
      00000089H   SFRSYM    DATA     BYTE      TMOD
      00000088H.4 SFRSYM    DATA     BIT       TR0
      00000088H.6 SFRSYM    DATA     BIT       TR1
      000000C8H.2 SFRSYM    DATA     BIT       TR2
      00000080H.2 SFRSYM    DATA     BIT       TXD
      000000D8H.3 SFRSYM    DATA     BIT       WDTI
      00000078H   SYMBOL    DATA     BYTE      ?_EEPROM_READ?BYTE
      00000075H   SYMBOL    DATA     BYTE      ?_EEPROM_WRITE?BYTE
      01000EEDH   SYMBOL    CODE     NEAR LAB  ?C0002
LX51 LINKER/LOCATER V4.34a                                                            04/30/2009  14:47:59  PAGE 45


      01000D3FH   SYMBOL    CODE     NEAR LAB  ?C0003
      01000D46H   SYMBOL    CODE     NEAR LAB  ?C0004
      01000E21H   SYMBOL    CODE     NEAR LAB  ?C0006
      01000E28H   SYMBOL    CODE     NEAR LAB  ?C0007
      01000E45H   SYMBOL    CODE     NEAR LAB  ?C0008
      01000E6BH   SYMBOL    CODE     NEAR LAB  ?C0009
      01000E72H   SYMBOL    CODE     NEAR LAB  ?C0010
      01000E84H   SYMBOL    CODE     NEAR LAB  ?C0012
      00000075H   SYMBOL    DATA     BYTE      ADDR?241
      00000078H   SYMBOL    DATA     BYTE      ADDR?343
      00000077H   SYMBOL    DATA     BYTE      BYTE?242
      0000007AH   SYMBOL    DATA     BYTE      BYTE?344

      01000F16H   BLOCK     CODE     NEAR LAB  LVL=0
      01000F16H   LINE      CODE     ---       #244
      01000F17H   LINE      CODE     ---       #245
      01000F18H   LINE      CODE     ---       #246
      01000F1AH   LINE      CODE     ---       #247
      01000F1DH   LINE      CODE     ---       #251
      01000F20H   LINE      CODE     ---       #254
      ---         BLOCKEND  ---      ---       LVL=0

      01000EDFH   BLOCK     CODE     NEAR LAB  LVL=0
      01000EDFH   LINE      CODE     ---       #270
      01000EE1H   LINE      CODE     ---       #273
      01000EE3H   LINE      CODE     ---       #274
      01000EE6H   LINE      CODE     ---       #278
      01000EE7H   LINE      CODE     ---       #279
      01000EE8H   LINE      CODE     ---       #280
      01000EEBH   LINE      CODE     ---       #284
      01000EEDH   LINE      CODE     ---       #291
      ---         BLOCKEND  ---      ---       LVL=0

      01000D39H   BLOCK     CODE     NEAR LAB  LVL=0
      01000D39H   LINE      CODE     ---       #305
      01000D3BH   LINE      CODE     ---       #306
      01000D3DH   LINE      CODE     ---       #307
      01000D3FH   LINE      CODE     ---       #313
      01000D42H   LINE      CODE     ---       #314
      01000D43H   LINE      CODE     ---       #315
      01000D46H   LINE      CODE     ---       #320
      01000D48H   LINE      CODE     ---       #323
      01000D4AH   LINE      CODE     ---       #324
      01000D4DH   LINE      CODE     ---       #327
      01000D4FH   LINE      CODE     ---       #330
      01000D51H   LINE      CODE     ---       #333
      01000D53H   LINE      CODE     ---       #334
      01000D56H   LINE      CODE     ---       #337
      01000D58H   LINE      CODE     ---       #338
      01000D59H   LINE      CODE     ---       #339
      01000D5CH   LINE      CODE     ---       #342
      01000D5EH   LINE      CODE     ---       #343
      01000D60H   LINE      CODE     ---       #344
      01000D63H   LINE      CODE     ---       #347
      01000D65H   LINE      CODE     ---       #348
      01000D68H   LINE      CODE     ---       #351
      01000D6AH   LINE      CODE     ---       #354
      01000D6CH   LINE      CODE     ---       #357
      01000D6EH   LINE      CODE     ---       #358
      01000D71H   LINE      CODE     ---       #361
      01000D73H   LINE      CODE     ---       #364
      ---         BLOCKEND  ---      ---       LVL=0

      01000E1AH   BLOCK     CODE     NEAR LAB  LVL=0
      01000E1AH   LINE      CODE     ---       #377
LX51 LINKER/LOCATER V4.34a                                                            04/30/2009  14:47:59  PAGE 46


      01000E1CH   LINE      CODE     ---       #378
      01000E1EH   LINE      CODE     ---       #383
      01000E1FH   LINE      CODE     ---       #384
      01000E21H   LINE      CODE     ---       #388
      01000E24H   LINE      CODE     ---       #389
      01000E25H   LINE      CODE     ---       #390
      01000E28H   LINE      CODE     ---       #395
      01000E2AH   LINE      CODE     ---       #398
      01000E2CH   LINE      CODE     ---       #399
      01000E2FH   LINE      CODE     ---       #402
      01000E31H   LINE      CODE     ---       #403
      01000E32H   LINE      CODE     ---       #404
      01000E35H   LINE      CODE     ---       #407
      01000E37H   LINE      CODE     ---       #408
      01000E39H   LINE      CODE     ---       #409
      01000E3CH   LINE      CODE     ---       #412
      01000E3DH   LINE      CODE     ---       #413
      01000E3EH   LINE      CODE     ---       #414
      01000E41H   LINE      CODE     ---       #415
      01000E43H   LINE      CODE     ---       #418
      01000E45H   LINE      CODE     ---       #424
      ---         BLOCKEND  ---      ---       LVL=0

      01000E6BH   BLOCK     CODE     NEAR LAB  LVL=0
      01000E6BH   LINE      CODE     ---       #440
      01000E6EH   LINE      CODE     ---       #441
      01000E6FH   LINE      CODE     ---       #442
      01000E72H   LINE      CODE     ---       #447
      01000E74H   LINE      CODE     ---       #450
      01000E76H   LINE      CODE     ---       #451
      01000E79H   LINE      CODE     ---       #454
      01000E7BH   LINE      CODE     ---       #457
      01000E7DH   LINE      CODE     ---       #460
      01000E7FH   LINE      CODE     ---       #461
      01000E82H   LINE      CODE     ---       #464
      01000E84H   LINE      CODE     ---       #472
      01000E86H   LINE      CODE     ---       #475
      01000E88H   LINE      CODE     ---       #476
      01000E8BH   LINE      CODE     ---       #479
      01000E8DH   LINE      CODE     ---       #482
      ---         BLOCKEND  ---      ---       LVL=0

      ---         MODULE    ---      ---       ?C_STARTUP
      01000000H   PUBLIC    CODE     ---       ?C_STARTUP

      ---         MODULE    ---      ---       ?C?CLDPTR
      01000056H   PUBLIC    CODE     ---       ?C?CLDPTR

      ---         MODULE    ---      ---       ?C?CLDOPTR
      0100006FH   PUBLIC    CODE     ---       ?C?CLDOPTR

      ---         MODULE    ---      ---       ?C?CSTPTR
      0100009CH   PUBLIC    CODE     ---       ?C?CSTPTR

      ---         MODULE    ---      ---       ?C?UIDIV
      010000AEH   PUBLIC    CODE     ---       ?C?UIDIV

      ---         MODULE    ---      ---       ?C?LMUL
      01000103H   PUBLIC    CODE     ---       ?C?LMUL

      ---         MODULE    ---      ---       ?C?ULDIV
      0100018EH   PUBLIC    CODE     ---       ?C?ULDIV

      ---         MODULE    ---      ---       ?C?ICASE
      01000220H   PUBLIC    CODE     ---       ?C?ICASE
LX51 LINKER/LOCATER V4.34a                                                            04/30/2009  14:47:59  PAGE 47



      ---         MODULE    ---      ---       ?C_IBP
      0000007FH   PUBLIC    DATA     ---       ?C_IBP

      ---         MODULE    ---      ---       ?C_INIT
      01000B5FH   PUBLIC    CODE     ---       ?C_START

      ---         MODULE    ---      ---       ?C?FPCMP
      0100024FH   PUBLIC    CODE     ---       ?C?FPCMP
      0100024DH   PUBLIC    CODE     ---       ?C?FPCMP3

      ---         MODULE    ---      ---       ?C?FCAST
      010002C4H   PUBLIC    CODE     ---       ?C?FCASTC
      010002BFH   PUBLIC    CODE     ---       ?C?FCASTI
      010002BAH   PUBLIC    CODE     ---       ?C?FCASTL

      ---         MODULE    ---      ---       ?C?CASTF
      010002F8H   PUBLIC    CODE     ---       ?C?CASTF

      ---         MODULE    ---      ---       LOG
      01000982H   PUBLIC    CODE     ---       _LOG
      0100097EH   PUBLIC    CODE     ---       _LOG10

      ---         MODULE    ---      ---       ?C?FPGETOPN
      0100032FH   PUBLIC    CODE     ---       ?C?FPGETOPN2
      01000364H   PUBLIC    CODE     ---       ?C?FPNANRESULT
      0100036EH   PUBLIC    CODE     ---       ?C?FPOVERFLOW
      01000346H   PUBLIC    CODE     ---       ?C?FPRESULT
      0100035AH   PUBLIC    CODE     ---       ?C?FPRESULT2
      0100036BH   PUBLIC    CODE     ---       ?C?FPUNDERFLOW

      ---         MODULE    ---      ---       ?C?FPADD
      01000380H   PUBLIC    CODE     ---       ?C?FPADD
      0100037CH   PUBLIC    CODE     ---       ?C?FPSUB

      ---         MODULE    ---      ---       ?C?FPMUL
      01000471H   PUBLIC    CODE     ---       ?C?FPMUL

      ---         MODULE    ---      ---       ?C?FPDIV
      0100057AH   PUBLIC    CODE     ---       ?C?FPDIV

      ---         MODULE    ---      ---       ?C?FPSERIES
      01000617H   PUBLIC    CODE     ---       ?C?FP2SERIES
      01000626H   PUBLIC    CODE     ---       ?C?FPSERIES

      ---         MODULE    ---      ---       ?C?LNEG
      01000664H   PUBLIC    CODE     ---       ?C?LNEG

      ---         MODULE    ---      ---       ?C?LLDCODE
      01000672H   PUBLIC    CODE     ---       ?C?LLDCODE

      ---         MODULE    ---      ---       ?C?LLDXDATA0
      01000682H   PUBLIC    CODE     ---       ?C?LLDXDATA0

      ---         MODULE    ---      ---       ?C?LLDCODE0
      0100068EH   PUBLIC    CODE     ---       ?C?LLDCODE0

      ---         MODULE    ---      ---       ?C?LSTXDATA
      0100069EH   PUBLIC    CODE     ---       ?C?LSTXDATA

Program Size: data=197.1 xdata=4 const=0 code=3917
LX51 RUN COMPLETE.  0 WARNING(S),  0 ERROR(S)
